################################################################################
#                                                                              #
#      IAR Universal Linker V6.4.6.89                                          #
#                                                                              #
#           Link time     =  13/Nov/2019  16:16:23                             #
#           Target CPU    =  x51                                               #
#           List file     =  "\\vmware-host\Shared Folders\Projects\WMNU\IAR\P #
#                            RJ_UNITEST\Debug\List\unitest.map"                #
#           Output file 1 =  "\\vmware-host\Shared Folders\Projects\WMNU\IAR\P #
#                            RJ_UNITEST\Debug\Exe\unitest.d51"                 #
#                            Format: ubrof10                                   #
#                            UBROF version 10.0.6                              #
#                            Using library modules for C-SPY (-rt)             #
#           Command line  =  -f                                                #
#                            C:\Users\08A4~1\AppData\Local\Temp\EWC146.tmp     #
#                            ("\\vmware-host\Shared Folders\Projects\WMNU\IAR\ #
#                            PRJ_UNITEST\Debug\Obj\coder.r51"                  #
#                            "\\vmware-host\Shared Folders\Projects\WMNU\IAR\P #
#                            RJ_UNITEST\Debug\Obj\delays.r51"                  #
#                            "\\vmware-host\Shared Folders\Projects\WMNU\IAR\P #
#                            RJ_UNITEST\Debug\Obj\fbuf.r51"                    #
#                            "\\vmware-host\Shared Folders\Projects\WMNU\IAR\P #
#                            RJ_UNITEST\Debug\Obj\frame.r51"                   #
#                            "\\vmware-host\Shared Folders\Projects\WMNU\IAR\P #
#                            RJ_UNITEST\Debug\Obj\LLC.r51"                     #
#                            "\\vmware-host\Shared Folders\Projects\WMNU\IAR\P #
#                            RJ_UNITEST\Debug\Obj\MAC.r51"                     #
#                            "\\vmware-host\Shared Folders\Projects\WMNU\IAR\P #
#                            RJ_UNITEST\Debug\Obj\NTMR.r51"                    #
#                            "\\vmware-host\Shared Folders\Projects\WMNU\IAR\P #
#                            RJ_UNITEST\Debug\Obj\nwdebuger.r51"               #
#                            "\\vmware-host\Shared Folders\Projects\WMNU\IAR\P #
#                            RJ_UNITEST\Debug\Obj\RADIO.r51"                   #
#                            "\\vmware-host\Shared Folders\Projects\WMNU\IAR\P #
#                            RJ_UNITEST\Debug\Obj\TIC.r51"                     #
#                            "\\vmware-host\Shared Folders\Projects\WMNU\IAR\P #
#                            RJ_UNITEST\Debug\Obj\utest.r51"                   #
#                            "\\vmware-host\Shared Folders\Projects\WMNU\IAR\P #
#                            RJ_UNITEST\Debug\Obj\utest_coder.r51"             #
#                            "\\vmware-host\Shared Folders\Projects\WMNU\IAR\P #
#                            RJ_UNITEST\Debug\Obj\utest_delays.r51"            #
#                            "\\vmware-host\Shared Folders\Projects\WMNU\IAR\P #
#                            RJ_UNITEST\Debug\Obj\utest_fbuf.r51"              #
#                            "\\vmware-host\Shared Folders\Projects\WMNU\IAR\P #
#                            RJ_UNITEST\Debug\Obj\utest_frame.r51"             #
#                            "\\vmware-host\Shared Folders\Projects\WMNU\IAR\P #
#                            RJ_UNITEST\Debug\Obj\utest_Frames.r51"            #
#                            "\\vmware-host\Shared Folders\Projects\WMNU\IAR\P #
#                            RJ_UNITEST\Debug\Obj\utest_LLC.r51"               #
#                            "\\vmware-host\Shared Folders\Projects\WMNU\IAR\P #
#                            RJ_UNITEST\Debug\Obj\utest_MAC.r51"               #
#                            "\\vmware-host\Shared Folders\Projects\WMNU\IAR\P #
#                            RJ_UNITEST\Debug\Obj\utest_NTMR.r51"              #
#                            "\\vmware-host\Shared Folders\Projects\WMNU\IAR\P #
#                            RJ_UNITEST\Debug\Obj\utest_radio.r51"             #
#                            "\\vmware-host\Shared Folders\Projects\WMNU\IAR\P #
#                            RJ_UNITEST\Debug\Obj\utest_suite.r51"             #
#                            "\\vmware-host\Shared Folders\Projects\WMNU\IAR\P #
#                            RJ_UNITEST\Debug\Obj\utest_TIC.r51"               #
#                            -o                                                #
#                            "\\vmware-host\Shared Folders\Projects\WMNU\IAR\P #
#                            RJ_UNITEST\Debug\Exe\unitest.d51"                 #
#                            -l                                                #
#                            "\\vmware-host\Shared Folders\Projects\WMNU\IAR\P #
#                            RJ_UNITEST\Debug\List\unitest.map"                #
#                            -xms                                              #
#                            "-IC:\Program Files (x86)\IAR Systems\Embedded Wo #
#                            rkbench 8.0\8051\LIB\"                            #
#                            -f                                                #
#                            "C:\Program Files (x86)\IAR Systems\Embedded Work #
#                            bench 8.0\8051\config\devices\Texas Instruments\l #
#                            nk51ew_CC2530F256_banked.xcl"                     #
#                            (-D_IDATA0_START=0x00 -D_IDATA0_END=0xFF          #
#                            -D_PDATA0_START=0x1E00 -D_PDATA0_END=0x1EFF       #
#                            -D_IXDATA0_START=0x0001 -D_IXDATA0_END=0x1EFF     #
#                            -D_XDATA0_START=_IXDATA0_START                    #
#                            -D_XDATA0_END=_IXDATA0_END                        #
#                            -D_NEAR_CODE_START=0x0000                         #
#                            -D_FIRST_BANK_ADDR=0x10000 -D?REGISTER_BANK=0x0   #
#                            -D_REGISTER_BANK_START=0x0 -D_BREG_START=0x00     #
#                            -D?VB=0x20 -Z(BIT)BREG=_BREG_START                #
#                            -Z(BIT)BIT_N=0-7F                                 #
#                            -Z(DATA)REGISTERS+8=_REGISTER_BANK_START          #
#                            -Z(DATA)BDATA_Z,BDATA_N,BDATA_I=20-2F             #
#                            -Z(DATA)VREG=08-7F -Z(DATA)PSP,XSP=08-7F          #
#                            -Z(DATA)DOVERLAY=08-7F                            #
#                            -Z(DATA)DATA_I,DATA_Z,DATA_N=08-7F                #
#                            -U(IDATA)0-7F=(DATA)0-7F                          #
#                            -Z(IDATA)IDATA_I,IDATA_Z,IDATA_N=08-_IDATA0_END   #
#                            -Z(IDATA)ISTACK+_IDATA_STACK_SIZE#08-_IDATA0_END  #
#                            -Z(IDATA)IOVERLAY=08-FF -Z(CODE)INTVEC=0          #
#                            -Z(CODE)CSTART=_NEAR_CODE_START-(_CODEBANK_START- #
#                            1)                                                #
#                            -Z(CODE)BIT_ID,BDATA_ID,DATA_ID,IDATA_ID,IXDATA_I #
#                            D,PDATA_ID,XDATA_ID=_NEAR_CODE_START-(_CODEBANK_S #
#                            TART-1)                                           #
#                            -Z(CODE)BANK_RELAYS,RCODE,DIFUNCT,CODE_C,CODE_N,N #
#                            EAR_CODE=_NEAR_CODE_START-(_CODEBANK_START-1)     #
#                            -P(CODE)BANKED_CODE=_NEAR_CODE_START-(_CODEBANK_S #
#                            TART-1),[(_CODEBANK_START+_FIRST_BANK_ADDR)-(_COD #
#                            EBANK_END+_FIRST_BANK_ADDR)]*_NR_OF_BANKS+10000   #
#                            -Z(CODE)CHECKSUM#(_CODEBANK_START-1)              #
#                            -Z(XDATA)PDATA_Z,PDATA_I=_PDATA0_START-_PDATA0_EN #
#                            D                                                 #
#                            -P(XDATA)PDATA_N=_PDATA0_START-_PDATA0_END        #
#                            -Z(XDATA)PSTACK+_PDATA_STACK_SIZE=_PDATA0_START-_ #
#                            PDATA0_END                                        #
#                            -Z(XDATA)EXT_STACK+_EXTENDED_STACK_SIZE=_EXTENDED #
#                            _STACK_START                                      #
#                            -Z(XDATA)XSTACK+_XDATA_STACK_SIZE=_XDATA0_START-_ #
#                            XDATA0_END                                        #
#                            -Z(XDATA)IXDATA_Z,IXDATA_I=_IXDATA0_START-_IXDATA #
#                            0_END                                             #
#                            -P(XDATA)IXDATA_N=_IXDATA0_START-_IXDATA0_END     #
#                            -Z(XDATA)XDATA_Z,XDATA_I=_XDATA0_START-_XDATA0_EN #
#                            D                                                 #
#                            -P(XDATA)XDATA_N=_XDATA0_START-_XDATA0_END        #
#                            -Z(XDATA)XDATA_HEAP+_XDATA_HEAP_SIZE=_XDATA0_STAR #
#                            T-_XDATA0_END                                     #
#                            -Z(CONST)XDATA_ROM_C=_XDATA0_START-_XDATA0_END    #
#                            -cx51                                             #
#                            -M(CODE)[(_CODEBANK_START+_FIRST_BANK_ADDR)-(_COD #
#                            EBANK_END+_FIRST_BANK_ADDR)]*_NR_OF_BANKS+0x10000 #
#                            =0x8000                                           #
#                            -ww69=i -D_BANK0_START=0x00000                    #
#                            -D_BANK0_END=0x07FFF -D_BANK1_START=0x18000       #
#                            -D_BANK1_END=0x1FFFF -D_BANK2_START=0x28000       #
#                            -D_BANK2_END=0x2FFFF -D_BANK3_START=0x38000       #
#                            -D_BANK3_END=0x3FFFF -D_BANK4_START=0x48000       #
#                            -D_BANK4_END=0x4FFFF -D_BANK5_START=0x58000       #
#                            -D_BANK5_END=0x5FFFF -D_BANK6_START=0x68000       #
#                            -D_BANK6_END=0x6FFFF -D_BANK7_START=0x78000       #
#                            -D_BANK7_END=0x7FFFF                              #
#                            -P(CODE)BANK0=_BANK0_START-_BANK0_END             #
#                            -P(CODE)BANK1=_BANK1_START-_BANK1_END             #
#                            -P(CODE)BANK2=_BANK2_START-_BANK2_END             #
#                            -P(CODE)BANK3=_BANK3_START-_BANK3_END             #
#                            -P(CODE)BANK4=_BANK4_START-_BANK4_END             #
#                            -P(CODE)BANK5=_BANK5_START-_BANK5_END             #
#                            -P(CODE)BANK6=_BANK6_START-_BANK6_END             #
#                            -P(CODE)BANK7=_BANK7_START-_BANK7_END             #
#                            -D_FLASH_LOCK_BITS_START=0x7FFF0                  #
#                            -D_FLASH_LOCK_BITS_END=0x7FFFF                    #
#                            -Z(CODE)FLASH_LOCK_BITS=_FLASH_LOCK_BITS_START-_F #
#                            LASH_LOCK_BITS_END                                #
#                            -U(CODE)0x0000=(CODE)_FLASH_LOCK_BITS_START-_FLAS #
#                            H_LOCK_BITS_END)                                  #
#                            -D_NR_OF_VIRTUAL_REGISTERS=8 -D?PBANK=0x93        #
#                            -D?CBANK=0x9F -D?CBANK_MASK=0xFF                  #
#                            -e?BCALL_FF=?BCALL -e?BRET_FF=?BRET               #
#                            -e?BDISPATCH_FF=?BDISPATCH                        #
#                            -D_CODEBANK_START=0x8000 -D_CODEBANK_END=0xFFFF   #
#                            -D_NR_OF_BANKS=0x07                               #
#                            "-IC:\Program Files (x86)\IAR Systems\Embedded Wo #
#                            rkbench 8.0\8051\CONFIG\"                         #
#                            -e_PrintfLarge=_Printf -e_ScanfLarge=_Scanf -rt   #
#                            -s __program_start                                #
#                            "C:\Program Files (x86)\IAR Systems\Embedded Work #
#                            bench 8.0\8051\LIB\DLIB\dl-pli-blxd-1e16x01n.r51" #
#                            -D_IDATA_STACK_SIZE=0x40 -D?ESP=0 -D?ESP_MASK=0   #
#                            -D_EXTENDED_STACK_START=0                         #
#                            -D_EXTENDED_STACK_SIZE=0                          #
#                            -D_PDATA_STACK_SIZE=0x80                          #
#                            -D_XDATA_STACK_SIZE=0xEFF                         #
#                            -D_XDATA_HEAP_SIZE=0xFF -D_FAR_HEAP_SIZE=0xFFF    #
#                            -D_HUGE_HEAP_SIZE=0xFFF                           #
#                            -D_FAR22_HEAP_SIZE=0xFFF)                         #
#                                                                              #
#                           Copyright (C) 1987-2016 IAR Systems AB.            #
################################################################################





                ****************************************
                *                                      *
                *           CROSS REFERENCE            *
                *                                      *
                ****************************************

       Program entry at : CODE      00000085  Relocatable, from module : CSTARTUP




                ****************************************
                *                                      *
                *            RUNTIME MODEL             *
                *                                      *
                ****************************************

  __Heap_Handler             = Basic
  __SystemLibrary            = DLib
  __calling_convention       = xdata_reentrant
  __code_model               = banked
  __core                     = plain
  __data_model               = large
  __dlib_file_descriptor     = 0
  __dlib_full_locale_support = 0
  __dptr_size                = 16
  __extended_stack           = disabled
  __location_for_constants   = data
  __number_of_dptrs          = 1
  __register_banks           = *
  __rt_version               = 1

                ****************************************
                *                                      *
                *    AUTOMATIC SYMBOL REDIRECTIONS     *
                *                                      *
                ****************************************

                  There are no automatic symbol redirections.



                ****************************************
                *                                      *
                *              MODULE MAP              *
                *                                      *
                ****************************************


  DEFINED ABSOLUTE ENTRIES
    *************************************************************************

  DEFINED ABSOLUTE ENTRIES
  PROGRAM MODULE, NAME : ?ABS_ENTRY_MOD

Absolute parts
           ENTRY                   ADDRESS         REF BY
           =====                   =======         ======
           _FAR22_HEAP_SIZE        00000FFF 
           _HUGE_HEAP_SIZE         00000FFF 
           _FAR_HEAP_SIZE          00000FFF 
           _XDATA_HEAP_SIZE        000000FF 
           _XDATA_STACK_SIZE       00000EFF 
           _PDATA_STACK_SIZE       00000080 
           _EXTENDED_STACK_SIZE    00000000 
           _EXTENDED_STACK_START   00000000 
           ?ESP_MASK               00000000 
           ?ESP                    00000000 
           _IDATA_STACK_SIZE       00000040 
           _NR_OF_BANKS            00000007 
           _CODEBANK_END           0000FFFF 
           _CODEBANK_START         00008000 
           ?CBANK_MASK             000000FF 
           ?CBANK                  0000009F        ?RESET_CODE_BANK (CSTARTUP)
                                                   Segment part 0 (?BANKED_CODE_SUPPORT)
           ?PBANK                  00000093 
           _NR_OF_VIRTUAL_REGISTERS
                                   00000008 
           _FLASH_LOCK_BITS_END    0003FFFF 
           _FLASH_LOCK_BITS_START
                                   0003FFF0 
           _BANK7_END              0003FFFF 
           _BANK7_START            00038000 
           _BANK6_END              00037FFF 
           _BANK6_START            00030000 
           _BANK5_END              0002FFFF 
           _BANK5_START            00028000 
           _BANK4_END              00027FFF 
           _BANK4_START            00020000 
           _BANK3_END              0001FFFF 
           _BANK3_START            00018000 
           _BANK2_END              00017FFF 
           _BANK2_START            00010000 
           _BANK1_END              0000FFFF 
           _BANK1_START            00008000 
           _BANK0_END              00007FFF 
           _BANK0_START            00000000 
           ?VB                     00000020        ?BANKED_ENTER_XDATA (?BANKED_ENTER_XDATA)
                                                   ?BANKED_LEAVE_XDATA (?BANKED_LEAVE_XDATA)
                                                   ?INTERRUPT_ENTER_XSP (?INTERRUPT_ENTER_XSP)
                                                   ?INTERRUPT_LEAVE_XSP (?INTERRUPT_LEAVE_XSP)
                                                   raw_data_test (utest_fbuf)
                                                   umsg (utest_suite)
           _BREG_START             00000000 
           _REGISTER_BANK_START    00000000 
           ?REGISTER_BANK          00000000        Segment part 6 (CSTARTUP)
           _FIRST_BANK_ADDR        00010000 
           _NEAR_CODE_START        00000000 
           _XDATA0_END             00001EFF 
           _XDATA0_START           00000001 
           _IXDATA0_END            00001EFF 
           _IXDATA0_START          00000001 
           _PDATA0_END             00001EFF 
           _PDATA0_START           00001E00 
           _IDATA0_END             000000FF 
           _IDATA0_START           00000000 
    *************************************************************************

  FILE NAME : \\vmware-host\Shared Folders\Projects\WMNU\IAR\PRJ_UNITEST\Debug\Obj\coder.r51
  PROGRAM MODULE, NAME : coder

  SEGMENTS IN THE MODULE
  ======================
SFR_AN
  Relative segment, address: DATA 000000B3 - 000000B3 (0x1 bytes), align: 0
  Segment part 1. ROOT 
           ENTRY                   ADDRESS         REF BY
           =====                   =======         ======
           ENCCS                   000000B3 
    -------------------------------------------------------------------------
SFR_AN
  Relative segment, address: DATA 000000D2 - 000000D2 (0x1 bytes), align: 0
  Segment part 2. ROOT 
           ENTRY                   ADDRESS         REF BY
           =====                   =======         ======
           DMA1CFGL                000000D2 
    -------------------------------------------------------------------------
SFR_AN
  Relative segment, address: DATA 000000D3 - 000000D3 (0x1 bytes), align: 0
  Segment part 3. ROOT 
           ENTRY                   ADDRESS         REF BY
           =====                   =======         ======
           DMA1CFGH                000000D3 
    -------------------------------------------------------------------------
SFR_AN
  Relative segment, address: DATA 000000D4 - 000000D4 (0x1 bytes), align: 0
  Segment part 4. ROOT 
           ENTRY                   ADDRESS         REF BY
           =====                   =======         ======
           DMA0CFGL                000000D4 
    -------------------------------------------------------------------------
SFR_AN
  Relative segment, address: DATA 000000D5 - 000000D5 (0x1 bytes), align: 0
  Segment part 5. ROOT 
           ENTRY                   ADDRESS         REF BY
           =====                   =======         ======
           DMA0CFGH                000000D5 
    -------------------------------------------------------------------------
SFR_AN
  Relative segment, address: DATA 000000D6 - 000000D6 (0x1 bytes), align: 0
  Segment part 6. ROOT 
           ENTRY                   ADDRESS         REF BY
           =====                   =======         ======
           DMAARM                  000000D6 
    -------------------------------------------------------------------------
SFR_AN
  Relative segment, address: DATA 000000D7 - 000000D7 (0x1 bytes), align: 0
  Segment part 7. ROOT 
           ENTRY                   ADDRESS         REF BY
           =====                   =======         ======
           DMAREQ                  000000D7 

    *************************************************************************

  FILE NAME : \\vmware-host\Shared Folders\Projects\WMNU\IAR\PRJ_UNITEST\Debug\Obj\delays.r51
  PROGRAM MODULE, NAME : delays

  SEGMENTS IN THE MODULE
  ======================
SFR_AN
  Relative segment, address: DATA 00000094 - 00000094 (0x1 bytes), align: 0
  Segment part 1. ROOT 
           ENTRY                   ADDRESS         REF BY
           =====                   =======         ======
           T2CTRL                  00000094 
    -------------------------------------------------------------------------
SFR_AN
  Relative segment, address: DATA 000000A2 - 000000A2 (0x1 bytes), align: 0
  Segment part 2. ROOT 
           ENTRY                   ADDRESS         REF BY
           =====                   =======         ======
           T2M0                    000000A2 
    -------------------------------------------------------------------------
SFR_AN
  Relative segment, address: DATA 000000A3 - 000000A3 (0x1 bytes), align: 0
  Segment part 3. ROOT 
           ENTRY                   ADDRESS         REF BY
           =====                   =======         ======
           T2M1                    000000A3 
    -------------------------------------------------------------------------
SFR_AN
  Relative segment, address: DATA 000000A4 - 000000A4 (0x1 bytes), align: 0
  Segment part 4. ROOT 
           ENTRY                   ADDRESS         REF BY
           =====                   =======         ======
           T2MOVF0                 000000A4 
    -------------------------------------------------------------------------
SFR_AN
  Relative segment, address: DATA 000000A5 - 000000A5 (0x1 bytes), align: 0
  Segment part 5. ROOT 
           ENTRY                   ADDRESS         REF BY
           =====                   =======         ======
           T2MOVF1                 000000A5 

    *************************************************************************

  FILE NAME : \\vmware-host\Shared Folders\Projects\WMNU\IAR\PRJ_UNITEST\Debug\Obj\fbuf.r51
  PROGRAM MODULE, NAME : fbuf

  SEGMENTS IN THE MODULE
  ======================
<BANKED_CODE> 1 (was BANKED_CODE)
  Relative segment, address: CODE 000039C6 - 000039DA (0x15 bytes), align: 0
  Segment part 16.            Intra module refs:   free::?relay
           ENTRY                   ADDRESS         REF BY
           =====                   =======         ======
           free                    000039C6 
               calls direct
               XSTACK = 00000009 ( 00000009 )
    -------------------------------------------------------------------------
<BANKED_CODE> 1 (was BANKED_CODE)
  Relative segment, address: CODE 000039DB - 000039EF (0x15 bytes), align: 0
  Segment part 18.            Intra module refs:   malloc::?relay
           ENTRY                   ADDRESS         REF BY
           =====                   =======         ======
           malloc                  000039DB 
               calls direct
               XSTACK = 00000010 ( 00000009 )
    -------------------------------------------------------------------------
<BANKED_CODE> 1 (was BANKED_CODE)
  Relative segment, address: CODE 000039F0 - 00003AFB (0x10c bytes), align: 0
  Segment part 20.            Intra module refs:   fbuf_create::?relay
           ENTRY                   ADDRESS         REF BY
           =====                   =======         ======
           fbuf_create             000039F0 
               calls direct
               XSTACK = 00000000 ( 00000014 )
               ISTACK = 00000000 ( 00000001 )
    -------------------------------------------------------------------------
<BANKED_CODE> 1 (was BANKED_CODE)
  Relative segment, address: CODE 00003AFC - 00003B10 (0x15 bytes), align: 0
  Segment part 22.            Intra module refs:   fbuf_delete::?relay
           ENTRY                   ADDRESS         REF BY
           =====                   =======         ======
           fbuf_delete             00003AFC 
               calls direct
               XSTACK = 00000000 ( 00000009 )
    -------------------------------------------------------------------------
<BANKED_CODE> 1 (was BANKED_CODE)
  Relative segment, address: CODE 00003B11 - 00003B3B (0x2b bytes), align: 0
  Segment part 24.            Intra module refs:   fbuf_next::?relay
           ENTRY                   ADDRESS         REF BY
           =====                   =======         ======
           fbuf_next               00003B11 
               ISTACK = 00000000 ( 00000002 )
    -------------------------------------------------------------------------
<BANKED_CODE> 1 (was BANKED_CODE)
  Relative segment, address: CODE 00003B3C - 00003B4F (0x14 bytes), align: 0
  Segment part 26.            Intra module refs:   fbuf_chain::?relay
           ENTRY                   ADDRESS         REF BY
           =====                   =======         ======
           fbuf_chain              00003B3C 
               ISTACK = 00000000 ( 00000002 )
    -------------------------------------------------------------------------
XDATA_ID
  Relative segment, address: CODE 000000B5 - 000000C5 (0x11 bytes), align: 0
  Segment part 7.             Intra module refs:   Segment part 6
    -------------------------------------------------------------------------
XDATA_ID
  Relative segment, address: CODE 000000C6 - 000000CC (0x7 bytes), align: 0
  Segment part 9.             Intra module refs:   Segment part 8
    -------------------------------------------------------------------------
XDATA_ID
  Relative segment, address: CODE 000000CD - 000000E0 (0x14 bytes), align: 0
  Segment part 11.            Intra module refs:   Segment part 10
    -------------------------------------------------------------------------
XDATA_ID
  Relative segment, address: CODE 000000E1 - 000000FA (0x1a bytes), align: 0
  Segment part 13.            Intra module refs:   Segment part 12
    -------------------------------------------------------------------------
XDATA_ID
  Relative segment, address: CODE 000000FB - 00000107 (0xd bytes), align: 0
  Segment part 15.            Intra module refs:   Segment part 14
    -------------------------------------------------------------------------
BANK_RELAYS
  Relative segment, address: CODE 000004B4 - 000004B9 (0x6 bytes), align: 0
  Segment part 17.            Intra module refs:   fbuf_delete
                                                   frame_delete (frame)
           ENTRY                   ADDRESS         REF BY
           =====                   =======         ======
           free::?relay            000004B4 
    -------------------------------------------------------------------------
BANK_RELAYS
  Relative segment, address: CODE 000004BA - 000004BF (0x6 bytes), align: 0
  Segment part 19.            Intra module refs:   fbuf_create
                                                   frame_create (frame)
           ENTRY                   ADDRESS         REF BY
           =====                   =======         ======
           malloc::?relay          000004BA 
    -------------------------------------------------------------------------
BANK_RELAYS
  Relative segment, address: CODE 000004C0 - 000004C5 (0x6 bytes), align: 0
  Segment part 21.
           ENTRY                   ADDRESS         REF BY
           =====                   =======         ======
           fbuf_create::?relay     000004C0        delete_test (utest_fbuf)
                                                   delete_test (utest_frame)
                                                   insert1_test (utest_frame)
                                                   insert2_test (utest_frame)
                                                   insert3_test (utest_frame)
                                                   insert4_test (utest_frame)
                                                   raw_data_test (utest_fbuf)
                                                   test_create (utest_fbuf)
                                                   test_logic (utest_fbuf)
                                                   tot_len_test (utest_frame)
    -------------------------------------------------------------------------
BANK_RELAYS
  Relative segment, address: CODE 000004C6 - 000004CB (0x6 bytes), align: 0
  Segment part 23.
           ENTRY                   ADDRESS         REF BY
           =====                   =======         ======
           fbuf_delete::?relay     000004C6        delete_test (utest_fbuf)
                                                   delete_test (utest_frame)
                                                   raw_data_test (utest_fbuf)
                                                   test_create (utest_fbuf)
                                                   test_logic (utest_fbuf)
    -------------------------------------------------------------------------
BANK_RELAYS
  Relative segment, address: CODE 000004CC - 000004D1 (0x6 bytes), align: 0
  Segment part 25.
           ENTRY                   ADDRESS         REF BY
           =====                   =======         ======
           fbuf_next::?relay       000004CC        insert3_test (utest_frame)
                                                   insert4_test (utest_frame)
                                                   test_logic (utest_fbuf)
    -------------------------------------------------------------------------
BANK_RELAYS
  Relative segment, address: CODE 000004D2 - 000004D7 (0x6 bytes), align: 0
  Segment part 27.
           ENTRY                   ADDRESS         REF BY
           =====                   =======         ======
           fbuf_chain::?relay      000004D2        test_logic (utest_fbuf)
    -------------------------------------------------------------------------
XDATA_I
  Relative segment, address: XDATA 00000F0E - 00000F1E (0x11 bytes), align: 0
  Segment part 6.             Intra module refs:   fbuf_create
    -------------------------------------------------------------------------
XDATA_I
  Relative segment, address: XDATA 00000F1F - 00000F25 (0x7 bytes), align: 0
  Segment part 8.             Intra module refs:   fbuf_create
    -------------------------------------------------------------------------
XDATA_I
  Relative segment, address: XDATA 00000F26 - 00000F39 (0x14 bytes), align: 0
  Segment part 10.            Intra module refs:   fbuf_create
    -------------------------------------------------------------------------
XDATA_I
  Relative segment, address: XDATA 00000F3A - 00000F53 (0x1a bytes), align: 0
  Segment part 12.            Intra module refs:   fbuf_create
    -------------------------------------------------------------------------
XDATA_I
  Relative segment, address: XDATA 00000F54 - 00000F60 (0xd bytes), align: 0
  Segment part 14.            Intra module refs:   fbuf_create

    *************************************************************************

  FILE NAME : \\vmware-host\Shared Folders\Projects\WMNU\IAR\PRJ_UNITEST\Debug\Obj\frame.r51
  PROGRAM MODULE, NAME : frame

  SEGMENTS IN THE MODULE
  ======================
<BANKED_CODE> 1 (was BANKED_CODE)
  Relative segment, address: CODE 00003B50 - 00003BA2 (0x53 bytes), align: 0
  Segment part 10.            Intra module refs:   frame_create::?relay
           ENTRY                   ADDRESS         REF BY
           =====                   =======         ======
           frame_create            00003B50 
               calls direct
               XSTACK = 00000000 ( 0000000C )
    -------------------------------------------------------------------------
<BANKED_CODE> 1 (was BANKED_CODE)
  Relative segment, address: CODE 00003BA3 - 00003BE4 (0x42 bytes), align: 0
  Segment part 12.            Intra module refs:   frame_delete::?relay
           ENTRY                   ADDRESS         REF BY
           =====                   =======         ======
           frame_delete            00003BA3 
               calls direct
               XSTACK = 00000000 ( 0000000C )
    -------------------------------------------------------------------------
<BANKED_CODE> 1 (was BANKED_CODE)
  Relative segment, address: CODE 00003BE5 - 00003C2C (0x48 bytes), align: 0
  Segment part 14.            Intra module refs:   frame_insert_head::?relay
           ENTRY                   ADDRESS         REF BY
           =====                   =======         ======
           frame_insert_head       00003BE5 
               XSTACK = 00000000 ( 00000009 )
    -------------------------------------------------------------------------
<BANKED_CODE> 1 (was BANKED_CODE)
  Relative segment, address: CODE 00003C2D - 00003C7A (0x4e bytes), align: 0
  Segment part 16.            Intra module refs:   frame_insert_tail::?relay
           ENTRY                   ADDRESS         REF BY
           =====                   =======         ======
           frame_insert_tail       00003C2D 
               ISTACK = 00000000 ( 00000002 )
    -------------------------------------------------------------------------
<BANKED_CODE> 1 (was BANKED_CODE)
  Relative segment, address: CODE 00003C7B - 00003C8E (0x14 bytes), align: 0
  Segment part 18.            Intra module refs:   frame_get_fbuf_head::?relay
           ENTRY                   ADDRESS         REF BY
           =====                   =======         ======
           frame_get_fbuf_head     00003C7B 
               ISTACK = 00000000 ( 00000002 )
    -------------------------------------------------------------------------
<BANKED_CODE> 1 (was BANKED_CODE)
  Relative segment, address: CODE 00003C8F - 00003CA4 (0x16 bytes), align: 0
  Segment part 20.            Intra module refs:   frame_get_fbuf_tail::?relay
           ENTRY                   ADDRESS         REF BY
           =====                   =======         ======
           frame_get_fbuf_tail     00003C8F 
               ISTACK = 00000000 ( 00000002 )
    -------------------------------------------------------------------------
<BANKED_CODE> 1 (was BANKED_CODE)
  Relative segment, address: CODE 00003CA5 - 00003CD5 (0x31 bytes), align: 0
  Segment part 24.            Intra module refs:   frame_len::?relay
           ENTRY                   ADDRESS         REF BY
           =====                   =======         ======
           frame_len               00003CA5 
               XSTACK = 00000014 ( 00000000 )
               ISTACK = 00000000 ( 00000002 )
    -------------------------------------------------------------------------
BANK_RELAYS
  Relative segment, address: CODE 000004D8 - 000004DD (0x6 bytes), align: 0
  Segment part 11.
           ENTRY                   ADDRESS         REF BY
           =====                   =======         ======
           frame_create::?relay    000004D8        delete_test (utest_frame)
                                                   insert1_test (utest_frame)
                                                   insert2_test (utest_frame)
                                                   insert3_test (utest_frame)
                                                   insert4_test (utest_frame)
                                                   tot_len_test (utest_frame)
    -------------------------------------------------------------------------
BANK_RELAYS
  Relative segment, address: CODE 000004DE - 000004E3 (0x6 bytes), align: 0
  Segment part 13.
           ENTRY                   ADDRESS         REF BY
           =====                   =======         ======
           frame_delete::?relay    000004DE        delete_test (utest_frame)
                                                   insert1_test (utest_frame)
                                                   insert2_test (utest_frame)
                                                   insert3_test (utest_frame)
                                                   insert4_test (utest_frame)
                                                   tot_len_test (utest_frame)
    -------------------------------------------------------------------------
BANK_RELAYS
  Relative segment, address: CODE 000004E4 - 000004E9 (0x6 bytes), align: 0
  Segment part 15.
           ENTRY                   ADDRESS         REF BY
           =====                   =======         ======
           frame_insert_head::?relay
                                   000004E4        delete_test (utest_frame)
                                                   insert1_test (utest_frame)
                                                   insert3_test (utest_frame)
    -------------------------------------------------------------------------
BANK_RELAYS
  Relative segment, address: CODE 000004EA - 000004EF (0x6 bytes), align: 0
  Segment part 17.
           ENTRY                   ADDRESS         REF BY
           =====                   =======         ======
           frame_insert_tail::?relay
                                   000004EA        insert2_test (utest_frame)
                                                   insert4_test (utest_frame)
                                                   tot_len_test (utest_frame)
    -------------------------------------------------------------------------
BANK_RELAYS
  Relative segment, address: CODE 000004F0 - 000004F5 (0x6 bytes), align: 0
  Segment part 19.
           ENTRY                   ADDRESS         REF BY
           =====                   =======         ======
           frame_get_fbuf_head::?relay
                                   000004F0        insert3_test (utest_frame)
                                                   insert4_test (utest_frame)
    -------------------------------------------------------------------------
BANK_RELAYS
  Relative segment, address: CODE 000004F6 - 000004FB (0x6 bytes), align: 0
  Segment part 21.
           ENTRY                   ADDRESS         REF BY
           =====                   =======         ======
           frame_get_fbuf_tail::?relay
                                   000004F6        insert3_test (utest_frame)
    -------------------------------------------------------------------------
BANK_RELAYS
  Relative segment, address: CODE 000004FC - 00000501 (0x6 bytes), align: 0
  Segment part 25.
           ENTRY                   ADDRESS         REF BY
           =====                   =======         ======
           frame_len::?relay       000004FC        tot_len_test (utest_frame)

    *************************************************************************

  FILE NAME : \\vmware-host\Shared Folders\Projects\WMNU\IAR\PRJ_UNITEST\Debug\Obj\LLC.r51
    *************************************************************************

  FILE NAME : \\vmware-host\Shared Folders\Projects\WMNU\IAR\PRJ_UNITEST\Debug\Obj\MAC.r51
    *************************************************************************

  FILE NAME : \\vmware-host\Shared Folders\Projects\WMNU\IAR\PRJ_UNITEST\Debug\Obj\NTMR.r51
  PROGRAM MODULE, NAME : NTMR

  SEGMENTS IN THE MODULE
  ======================
SFR_AN
  Relative segment, address: DATA 00000095 - 00000095 (0x1 bytes), align: 0
  Segment part 1. ROOT        Intra module refs:   ReadTimer
           ENTRY                   ADDRESS         REF BY
           =====                   =======         ======
           ST0                     00000095 
    -------------------------------------------------------------------------
SFR_AN
  Relative segment, address: DATA 00000096 - 00000096 (0x1 bytes), align: 0
  Segment part 2. ROOT        Intra module refs:   ReadTimer
           ENTRY                   ADDRESS         REF BY
           =====                   =======         ======
           ST1                     00000096 
    -------------------------------------------------------------------------
SFR_AN
  Relative segment, address: DATA 00000097 - 00000097 (0x1 bytes), align: 0
  Segment part 3. ROOT        Intra module refs:   ReadTimer
           ENTRY                   ADDRESS         REF BY
           =====                   =======         ======
           ST2                     00000097 
    -------------------------------------------------------------------------
SFR_AN
  Relative segment, address: DATA 0000009D - 0000009D (0x1 bytes), align: 0
  Segment part 4. ROOT        Intra module refs:   ReadTimer
           ENTRY                   ADDRESS         REF BY
           =====                   =======         ======
           SLEEPSTA                0000009D 
    -------------------------------------------------------------------------
SFR_AN
  Relative segment, address: DATA 000000A8 - 000000A8 (0x1 bytes), align: 0
  Segment part 5. ROOT        Intra module refs:   NT_IRQEnable
           ENTRY                   ADDRESS         REF BY
           =====                   =======         ======
           _A_IEN0                 000000A8 
           LOCAL                   ADDRESS         
           =====                   =======         
           IEN0                    000000A8 
    -------------------------------------------------------------------------
SFR_AN
  Relative segment, address: DATA 000000AD - 000000AD (0x1 bytes), align: 0
  Segment part 6. ROOT 
           ENTRY                   ADDRESS         REF BY
           =====                   =======         ======
           STLOAD                  000000AD 
    -------------------------------------------------------------------------
SFR_AN
  Relative segment, address: DATA 000000C0 - 000000C0 (0x1 bytes), align: 0
  Segment part 7. ROOT        Intra module refs:   NT_IRQEnable
                                                   TimerCompareInterrupt
           ENTRY                   ADDRESS         REF BY
           =====                   =======         ======
           _A_IRCON                000000C0 
           LOCAL                   ADDRESS         
           =====                   =======         
           IRCON                   000000C0 
    -------------------------------------------------------------------------
XDATA_Z
  Relative segment, address: XDATA 00000F00 - 00000F01 (0x2 bytes), align: 0
  Segment part 24.            Intra module refs:   TimerCompareInterrupt
           LOCAL                   ADDRESS         
           =====                   =======         
           EventCallback           00000F00 
    -------------------------------------------------------------------------
XDATA_Z
  Relative segment, address: XDATA 00000F02 - 00000F03 (0x2 bytes), align: 0
  Segment part 26.            Intra module refs:   NT_GetTime
           ENTRY                   ADDRESS         REF BY
           =====                   =======         ======
           TOFFSET                 00000F02 
    -------------------------------------------------------------------------
<BANKED_CODE> 1 (was BANKED_CODE)
  Relative segment, address: CODE 00003F51 - 00003F63 (0x13 bytes), align: 0
  Segment part 43.            Intra module refs:   NT_IRQEnable::?relay
           LOCAL                   ADDRESS         
           =====                   =======         
           NT_IRQEnable            00003F51 
               XSTACK = 0000000F ( 00000000 )
    -------------------------------------------------------------------------
<BANKED_CODE> 1 (was BANKED_CODE)
  Relative segment, address: CODE 00003F64 - 00003F9A (0x37 bytes), align: 0
  Segment part 49.            Intra module refs:   NT_GetTime::?relay
           ENTRY                   ADDRESS         REF BY
           =====                   =======         ======
           NT_GetTime              00003F64 
               calls direct
               XSTACK = 0000000F ( 00000010 )
    -------------------------------------------------------------------------
NEAR_CODE
  Relative segment, address: CODE 000012C1 - 000012FC (0x3c bytes), align: 0
  Segment part 55.            Intra module refs:   TimerCompareInterrupt::??INTVEC 43
           ENTRY                   ADDRESS         REF BY
           =====                   =======         ======
           TimerCompareInterrupt   000012C1 
               interrupt function
               calls direct
               XSTACK = 00000000 ( 0000000F )
    -------------------------------------------------------------------------
<BANKED_CODE> 1 (was BANKED_CODE)
  Relative segment, address: CODE 00003F9B - 00003FF8 (0x5e bytes), align: 0
  Segment part 51.            Intra module refs:   ReadTimer::?relay
           LOCAL                   ADDRESS         
           =====                   =======         
           ReadTimer               00003F9B 
               XSTACK = 00000018 ( 00000004 )
               ISTACK = 00000000 ( 00000003 )
    -------------------------------------------------------------------------
INTVEC
  Common segment, address: CODE 00000000 - 0000002D (0x2e bytes), align: 0
  Segment part 8. ROOT 
           ENTRY                   ADDRESS         REF BY
           =====                   =======         ======
           TimerCompareInterrupt::??INTVEC 43
                                   0000002B 
    -------------------------------------------------------------------------
XDATA_ID
  Relative segment, address: CODE 00000108 - 0000010B (0x4 bytes), align: 0
  Segment part 34.            Intra module refs:   __Constant_7fff
    -------------------------------------------------------------------------
BANK_RELAYS
  Relative segment, address: CODE 00000502 - 00000507 (0x6 bytes), align: 0
  Segment part 44.            Intra module refs:   TimerCompareInterrupt
           LOCAL                   ADDRESS         
           =====                   =======         
           NT_IRQEnable::?relay    00000502 
    -------------------------------------------------------------------------
BANK_RELAYS
  Relative segment, address: CODE 00000508 - 0000050D (0x6 bytes), align: 0
  Segment part 50.            Intra module refs:   TimerCompareInterrupt
           ENTRY                   ADDRESS         REF BY
           =====                   =======         ======
           NT_GetTime::?relay      00000508 
    -------------------------------------------------------------------------
BANK_RELAYS
  Relative segment, address: CODE 0000050E - 00000513 (0x6 bytes), align: 0
  Segment part 52.            Intra module refs:   NT_GetTime
           LOCAL                   ADDRESS         
           =====                   =======         
           ReadTimer::?relay       0000050E 
    -------------------------------------------------------------------------
XDATA_I
  Relative segment, address: XDATA 00000F61 - 00000F64 (0x4 bytes), align: 0
  Segment part 33.            Intra module refs:   NT_GetTime
           ENTRY                   ADDRESS         REF BY
           =====                   =======         ======
           __Constant_7fff         00000F61 

    *************************************************************************

  FILE NAME : \\vmware-host\Shared Folders\Projects\WMNU\IAR\PRJ_UNITEST\Debug\Obj\nwdebuger.r51
  PROGRAM MODULE, NAME : nwdebuger

  SEGMENTS IN THE MODULE
  ======================
SFR_AN
  Relative segment, address: DATA 0000009E - 0000009E (0x1 bytes), align: 0
  Segment part 1. ROOT        Intra module refs:   SetCPU32M
           ENTRY                   ADDRESS         REF BY
           =====                   =======         ======
           CLKCONSTA               0000009E 
    -------------------------------------------------------------------------
SFR_AN
  Relative segment, address: DATA 000000C6 - 000000C6 (0x1 bytes), align: 0
  Segment part 2. ROOT        Intra module refs:   SetCPU32M
           ENTRY                   ADDRESS         REF BY
           =====                   =======         ======
           CLKCONCMD               000000C6 
    -------------------------------------------------------------------------
<BANKED_CODE> 1 (was BANKED_CODE)
  Relative segment, address: CODE 00004361 - 0000436C (0xc bytes), align: 0
  Segment part 8.             Intra module refs:   SetCPU32M::?relay
           LOCAL                   ADDRESS         
           =====                   =======         
           SetCPU32M               00004361 
    -------------------------------------------------------------------------
<BANKED_CODE> 1 (was BANKED_CODE)
  Relative segment, address: CODE 0000436D - 0000437A (0xe bytes), align: 0
  Segment part 10.            Intra module refs:   nwDebugerInit::?relay
           ENTRY                   ADDRESS         REF BY
           =====                   =======         ======
           nwDebugerInit           0000436D 
               calls direct
               ISTACK = 00000000 ( 00000002 )
    -------------------------------------------------------------------------
<BANKED_CODE> 1 (was BANKED_CODE)
  Relative segment, address: CODE 0000437B - 0000437C (0x2 bytes), align: 0
  Segment part 12.            Intra module refs:   STACK_FAILURE::?relay
           ENTRY                   ADDRESS         REF BY
           =====                   =======         ======
           STACK_FAILURE           0000437B 
    -------------------------------------------------------------------------
BANK_RELAYS
  Relative segment, address: CODE 00000514 - 00000519 (0x6 bytes), align: 0
  Segment part 9.             Intra module refs:   nwDebugerInit
           LOCAL                   ADDRESS         
           =====                   =======         
           SetCPU32M::?relay       00000514 
    -------------------------------------------------------------------------
BANK_RELAYS
  Relative segment, address: CODE 0000051A - 0000051F (0x6 bytes), align: 0
  Segment part 11.
           ENTRY                   ADDRESS         REF BY
           =====                   =======         ======
           nwDebugerInit::?relay   0000051A        main (utest)
    -------------------------------------------------------------------------
BANK_RELAYS
  Relative segment, address: CODE 00000520 - 00000525 (0x6 bytes), align: 0
  Segment part 13.
           ENTRY                   ADDRESS         REF BY
           =====                   =======         ======
           STACK_FAILURE::?relay   00000520        fbuf_create (fbuf)

    *************************************************************************

  FILE NAME : \\vmware-host\Shared Folders\Projects\WMNU\IAR\PRJ_UNITEST\Debug\Obj\RADIO.r51
  PROGRAM MODULE, NAME : RADIO

  SEGMENTS IN THE MODULE
  ======================
SFR_AN
  Relative segment, address: DATA 00000091 - 00000091 (0x1 bytes), align: 0
  Segment part 1. ROOT 
           ENTRY                   ADDRESS         REF BY
           =====                   =======         ======
           RFIRQF1                 00000091 
    -------------------------------------------------------------------------
SFR_AN
  Relative segment, address: DATA 000000D9 - 000000D9 (0x1 bytes), align: 0
  Segment part 2. ROOT 
           ENTRY                   ADDRESS         REF BY
           =====                   =======         ======
           RFD                     000000D9 
    -------------------------------------------------------------------------
SFR_AN
  Relative segment, address: DATA 000000E1 - 000000E1 (0x1 bytes), align: 0
  Segment part 3. ROOT 
           ENTRY                   ADDRESS         REF BY
           =====                   =======         ======
           RFST                    000000E1 
    -------------------------------------------------------------------------
SFR_AN
  Relative segment, address: DATA 000000E9 - 000000E9 (0x1 bytes), align: 0
  Segment part 4. ROOT 
           ENTRY                   ADDRESS         REF BY
           =====                   =======         ======
           RFIRQF0                 000000E9 

    *************************************************************************

  FILE NAME : \\vmware-host\Shared Folders\Projects\WMNU\IAR\PRJ_UNITEST\Debug\Obj\TIC.r51
    *************************************************************************

  FILE NAME : \\vmware-host\Shared Folders\Projects\WMNU\IAR\PRJ_UNITEST\Debug\Obj\utest.r51
  PROGRAM MODULE, NAME : utest

  SEGMENTS IN THE MODULE
  ======================
<BANKED_CODE> 1 (was BANKED_CODE)
  Relative segment, address: CODE 00004072 - 000040D6 (0x65 bytes), align: 0
  Segment part 16.
           ENTRY                   ADDRESS         REF BY
           =====                   =======         ======
           main                    00004072        ?call_main (?cmain)
               calls direct
               XSTACK = 00000000 ( 00000004 )
    -------------------------------------------------------------------------
XDATA_ID
  Relative segment, address: CODE 0000010C - 0000011E (0x13 bytes), align: 0
  Segment part 7.             Intra module refs:   Segment part 6
    -------------------------------------------------------------------------
XDATA_ID
  Relative segment, address: CODE 0000011F - 00000126 (0x8 bytes), align: 0
  Segment part 9.             Intra module refs:   Segment part 8
    -------------------------------------------------------------------------
XDATA_ID
  Relative segment, address: CODE 00000127 - 00000137 (0x11 bytes), align: 0
  Segment part 11.            Intra module refs:   Segment part 10
    -------------------------------------------------------------------------
XDATA_ID
  Relative segment, address: CODE 00000138 - 0000014A (0x13 bytes), align: 0
  Segment part 13.            Intra module refs:   Segment part 12
    -------------------------------------------------------------------------
XDATA_ID
  Relative segment, address: CODE 0000014B - 0000015E (0x14 bytes), align: 0
  Segment part 15.            Intra module refs:   Segment part 14
    -------------------------------------------------------------------------
XDATA_I
  Relative segment, address: XDATA 00000F65 - 00000F77 (0x13 bytes), align: 0
  Segment part 6.             Intra module refs:   main
    -------------------------------------------------------------------------
XDATA_I
  Relative segment, address: XDATA 00000F78 - 00000F7F (0x8 bytes), align: 0
  Segment part 8.             Intra module refs:   main
    -------------------------------------------------------------------------
XDATA_I
  Relative segment, address: XDATA 00000F80 - 00000F90 (0x11 bytes), align: 0
  Segment part 10.            Intra module refs:   main
    -------------------------------------------------------------------------
XDATA_I
  Relative segment, address: XDATA 00000F91 - 00000FA3 (0x13 bytes), align: 0
  Segment part 12.            Intra module refs:   main
    -------------------------------------------------------------------------
XDATA_I
  Relative segment, address: XDATA 00000FA4 - 00000FB7 (0x14 bytes), align: 0
  Segment part 14.            Intra module refs:   main

    *************************************************************************

  FILE NAME : \\vmware-host\Shared Folders\Projects\WMNU\IAR\PRJ_UNITEST\Debug\Obj\utest_coder.r51
    *************************************************************************

  FILE NAME : \\vmware-host\Shared Folders\Projects\WMNU\IAR\PRJ_UNITEST\Debug\Obj\utest_delays.r51
  PROGRAM MODULE, NAME : utest_delays

  SEGMENTS IN THE MODULE
  ======================
XDATA_ID
  Relative segment, address: CODE 0000015F - 00000162 (0x4 bytes), align: 0
  Segment part 13.            Intra module refs:   __Constant_a
    -------------------------------------------------------------------------
XDATA_I
  Relative segment, address: XDATA 00000FB8 - 00000FBB (0x4 bytes), align: 0
  Segment part 12.            Intra module refs:   _LdtobLarge (?xprintflarge)
           ENTRY                   ADDRESS         REF BY
           =====                   =======         ======
           __Constant_a            00000FB8 

    *************************************************************************

  FILE NAME : \\vmware-host\Shared Folders\Projects\WMNU\IAR\PRJ_UNITEST\Debug\Obj\utest_fbuf.r51
  PROGRAM MODULE, NAME : utest_fbuf

  SEGMENTS IN THE MODULE
  ======================
<BANKED_CODE> 1 (was BANKED_CODE)
  Relative segment, address: CODE 0000345F - 00003552 (0xf4 bytes), align: 0
  Segment part 44.            Intra module refs:   test_create::?relay
           LOCAL                   ADDRESS         
           =====                   =======         
           test_create             0000345F 
               calls direct
               XSTACK = 00000000 ( 0000000A )
    -------------------------------------------------------------------------
<BANKED_CODE> 1 (was BANKED_CODE)
  Relative segment, address: CODE 00003553 - 000036C9 (0x177 bytes), align: 0
  Segment part 46.            Intra module refs:   test_logic::?relay
           LOCAL                   ADDRESS         
           =====                   =======         
           test_logic              00003553 
               calls direct
               XSTACK = 00000000 ( 00000010 )
    -------------------------------------------------------------------------
<BANKED_CODE> 1 (was BANKED_CODE)
  Relative segment, address: CODE 000036CA - 000037BB (0xf2 bytes), align: 0
  Segment part 48.            Intra module refs:   raw_data_test::?relay
           LOCAL                   ADDRESS         
           =====                   =======         
           raw_data_test           000036CA 
               calls direct
               XSTACK = 00000000 ( 00000070 )
               ISTACK = 00000000 ( 00000001 )
    -------------------------------------------------------------------------
<BANKED_CODE> 1 (was BANKED_CODE)
  Relative segment, address: CODE 000037BC - 0000380F (0x54 bytes), align: 0
  Segment part 50.            Intra module refs:   delete_test::?relay
           LOCAL                   ADDRESS         
           =====                   =======         
           delete_test             000037BC 
               calls direct
               XSTACK = 00000000 ( 0000000C )
    -------------------------------------------------------------------------
<BANKED_CODE> 1 (was BANKED_CODE)
  Relative segment, address: CODE 00003810 - 0000382D (0x1e bytes), align: 0
  Segment part 52.            Intra module refs:   suite_fbuf::?relay
           ENTRY                   ADDRESS         REF BY
           =====                   =======         ======
           suite_fbuf              00003810 
               calls direct
               ISTACK = 00000000 ( 00000002 )
    -------------------------------------------------------------------------
XDATA_ID
  Relative segment, address: CODE 00000163 - 00000167 (0x5 bytes), align: 0
  Segment part 7.             Intra module refs:   Segment part 6
    -------------------------------------------------------------------------
XDATA_ID
  Relative segment, address: CODE 00000168 - 0000017F (0x18 bytes), align: 0
  Segment part 9.             Intra module refs:   Segment part 8
    -------------------------------------------------------------------------
XDATA_ID
  Relative segment, address: CODE 00000180 - 00000196 (0x17 bytes), align: 0
  Segment part 11.            Intra module refs:   Segment part 10
    -------------------------------------------------------------------------
XDATA_ID
  Relative segment, address: CODE 00000197 - 000001AD (0x17 bytes), align: 0
  Segment part 13.            Intra module refs:   Segment part 12
    -------------------------------------------------------------------------
XDATA_ID
  Relative segment, address: CODE 000001AE - 000001C3 (0x16 bytes), align: 0
  Segment part 15.            Intra module refs:   Segment part 14
    -------------------------------------------------------------------------
XDATA_ID
  Relative segment, address: CODE 000001C4 - 000001DC (0x19 bytes), align: 0
  Segment part 17.            Intra module refs:   Segment part 16
    -------------------------------------------------------------------------
XDATA_ID
  Relative segment, address: CODE 000001DD - 000001F4 (0x18 bytes), align: 0
  Segment part 19.            Intra module refs:   Segment part 18
    -------------------------------------------------------------------------
XDATA_ID
  Relative segment, address: CODE 000001F5 - 00000205 (0x11 bytes), align: 0
  Segment part 21.            Intra module refs:   Segment part 20
    -------------------------------------------------------------------------
XDATA_ID
  Relative segment, address: CODE 00000206 - 00000216 (0x11 bytes), align: 0
  Segment part 23.            Intra module refs:   Segment part 22
    -------------------------------------------------------------------------
XDATA_ID
  Relative segment, address: CODE 00000217 - 0000022A (0x14 bytes), align: 0
  Segment part 25.            Intra module refs:   Segment part 24
    -------------------------------------------------------------------------
XDATA_ID
  Relative segment, address: CODE 0000022B - 00000239 (0xf bytes), align: 0
  Segment part 27.            Intra module refs:   Segment part 26
    -------------------------------------------------------------------------
XDATA_ID
  Relative segment, address: CODE 0000023A - 00000248 (0xf bytes), align: 0
  Segment part 29.            Intra module refs:   Segment part 28
    -------------------------------------------------------------------------
XDATA_ID
  Relative segment, address: CODE 00000249 - 00000257 (0xf bytes), align: 0
  Segment part 31.            Intra module refs:   Segment part 30
    -------------------------------------------------------------------------
XDATA_ID
  Relative segment, address: CODE 00000258 - 00000267 (0x10 bytes), align: 0
  Segment part 33.            Intra module refs:   Segment part 32
    -------------------------------------------------------------------------
XDATA_ID
  Relative segment, address: CODE 00000268 - 0000027F (0x18 bytes), align: 0
  Segment part 35.            Intra module refs:   Segment part 34
    -------------------------------------------------------------------------
XDATA_ID
  Relative segment, address: CODE 00000280 - 0000029A (0x1b bytes), align: 0
  Segment part 37.            Intra module refs:   Segment part 36
    -------------------------------------------------------------------------
XDATA_ID
  Relative segment, address: CODE 0000029B - 000002B2 (0x18 bytes), align: 0
  Segment part 39.            Intra module refs:   Segment part 38
    -------------------------------------------------------------------------
XDATA_ID
  Relative segment, address: CODE 000002B3 - 000002BE (0xc bytes), align: 0
  Segment part 41.            Intra module refs:   Segment part 40
    -------------------------------------------------------------------------
XDATA_ID
  Relative segment, address: CODE 000002BF - 000002CA (0xc bytes), align: 0
  Segment part 43.            Intra module refs:   Segment part 42
    -------------------------------------------------------------------------
BANK_RELAYS
  Relative segment, address: CODE 00000526 - 0000052B (0x6 bytes), align: 0
  Segment part 45.            Intra module refs:   suite_fbuf
           LOCAL                   ADDRESS         
           =====                   =======         
           test_create::?relay     00000526 
    -------------------------------------------------------------------------
BANK_RELAYS
  Relative segment, address: CODE 0000052C - 00000531 (0x6 bytes), align: 0
  Segment part 47.            Intra module refs:   suite_fbuf
           LOCAL                   ADDRESS         
           =====                   =======         
           test_logic::?relay      0000052C 
    -------------------------------------------------------------------------
BANK_RELAYS
  Relative segment, address: CODE 00000532 - 00000537 (0x6 bytes), align: 0
  Segment part 49.            Intra module refs:   suite_fbuf
           LOCAL                   ADDRESS         
           =====                   =======         
           raw_data_test::?relay   00000532 
    -------------------------------------------------------------------------
BANK_RELAYS
  Relative segment, address: CODE 00000538 - 0000053D (0x6 bytes), align: 0
  Segment part 51.            Intra module refs:   suite_fbuf
           LOCAL                   ADDRESS         
           =====                   =======         
           delete_test::?relay     00000538 
    -------------------------------------------------------------------------
BANK_RELAYS
  Relative segment, address: CODE 0000053E - 00000543 (0x6 bytes), align: 0
  Segment part 53.
           ENTRY                   ADDRESS         REF BY
           =====                   =======         ======
           suite_fbuf::?relay      0000053E        main (utest)
    -------------------------------------------------------------------------
XDATA_I
  Relative segment, address: XDATA 00000FBC - 00000FC0 (0x5 bytes), align: 0
  Segment part 6.             Intra module refs:   delete_test
                                                   raw_data_test
                                                   test_create
                                                   test_logic
    -------------------------------------------------------------------------
XDATA_I
  Relative segment, address: XDATA 00000FC1 - 00000FD8 (0x18 bytes), align: 0
  Segment part 8.             Intra module refs:   test_create
    -------------------------------------------------------------------------
XDATA_I
  Relative segment, address: XDATA 00000FD9 - 00000FEF (0x17 bytes), align: 0
  Segment part 10.            Intra module refs:   test_create
    -------------------------------------------------------------------------
XDATA_I
  Relative segment, address: XDATA 00000FF0 - 00001006 (0x17 bytes), align: 0
  Segment part 12.            Intra module refs:   test_create
    -------------------------------------------------------------------------
XDATA_I
  Relative segment, address: XDATA 00001007 - 0000101C (0x16 bytes), align: 0
  Segment part 14.            Intra module refs:   test_create
    -------------------------------------------------------------------------
XDATA_I
  Relative segment, address: XDATA 0000101D - 00001035 (0x19 bytes), align: 0
  Segment part 16.            Intra module refs:   test_create
    -------------------------------------------------------------------------
XDATA_I
  Relative segment, address: XDATA 00001036 - 0000104D (0x18 bytes), align: 0
  Segment part 18.            Intra module refs:   test_create
    -------------------------------------------------------------------------
XDATA_I
  Relative segment, address: XDATA 0000104E - 0000105E (0x11 bytes), align: 0
  Segment part 20.            Intra module refs:   test_logic
    -------------------------------------------------------------------------
XDATA_I
  Relative segment, address: XDATA 0000105F - 0000106F (0x11 bytes), align: 0
  Segment part 22.            Intra module refs:   test_logic
    -------------------------------------------------------------------------
XDATA_I
  Relative segment, address: XDATA 00001070 - 00001083 (0x14 bytes), align: 0
  Segment part 24.            Intra module refs:   test_logic
    -------------------------------------------------------------------------
XDATA_I
  Relative segment, address: XDATA 00001084 - 00001092 (0xf bytes), align: 0
  Segment part 26.            Intra module refs:   test_logic
    -------------------------------------------------------------------------
XDATA_I
  Relative segment, address: XDATA 00001093 - 000010A1 (0xf bytes), align: 0
  Segment part 28.            Intra module refs:   test_logic
    -------------------------------------------------------------------------
XDATA_I
  Relative segment, address: XDATA 000010A2 - 000010B0 (0xf bytes), align: 0
  Segment part 30.            Intra module refs:   test_logic
    -------------------------------------------------------------------------
XDATA_I
  Relative segment, address: XDATA 000010B1 - 000010C0 (0x10 bytes), align: 0
  Segment part 32.            Intra module refs:   test_logic
    -------------------------------------------------------------------------
XDATA_I
  Relative segment, address: XDATA 000010C1 - 000010D8 (0x18 bytes), align: 0
  Segment part 34.            Intra module refs:   raw_data_test
    -------------------------------------------------------------------------
XDATA_I
  Relative segment, address: XDATA 000010D9 - 000010F3 (0x1b bytes), align: 0
  Segment part 36.            Intra module refs:   raw_data_test
    -------------------------------------------------------------------------
XDATA_I
  Relative segment, address: XDATA 000010F4 - 0000110B (0x18 bytes), align: 0
  Segment part 38.            Intra module refs:   raw_data_test
    -------------------------------------------------------------------------
XDATA_I
  Relative segment, address: XDATA 0000110C - 00001117 (0xc bytes), align: 0
  Segment part 40.            Intra module refs:   delete_test
    -------------------------------------------------------------------------
XDATA_I
  Relative segment, address: XDATA 00001118 - 00001123 (0xc bytes), align: 0
  Segment part 42.            Intra module refs:   suite_fbuf

    *************************************************************************

  FILE NAME : \\vmware-host\Shared Folders\Projects\WMNU\IAR\PRJ_UNITEST\Debug\Obj\utest_frame.r51
  PROGRAM MODULE, NAME : utest_frame

  SEGMENTS IN THE MODULE
  ======================
<BANKED_CODE> 1 (was BANKED_CODE)
  Relative segment, address: CODE 00002D74 - 00002DF9 (0x86 bytes), align: 0
  Segment part 36.            Intra module refs:   insert1_test::?relay
           LOCAL                   ADDRESS         
           =====                   =======         
           insert1_test            00002D74 
               calls direct
               XSTACK = 00000000 ( 0000000C )
    -------------------------------------------------------------------------
<BANKED_CODE> 1 (was BANKED_CODE)
  Relative segment, address: CODE 00002DFA - 00002E7F (0x86 bytes), align: 0
  Segment part 38.            Intra module refs:   insert2_test::?relay
           LOCAL                   ADDRESS         
           =====                   =======         
           insert2_test            00002DFA 
               calls direct
               XSTACK = 00000000 ( 0000000C )
    -------------------------------------------------------------------------
<BANKED_CODE> 1 (was BANKED_CODE)
  Relative segment, address: CODE 00002E80 - 00002FF6 (0x177 bytes), align: 0
  Segment part 40.            Intra module refs:   insert3_test::?relay
           LOCAL                   ADDRESS         
           =====                   =======         
           insert3_test            00002E80 
               calls direct
               XSTACK = 00000000 ( 00000014 )
    -------------------------------------------------------------------------
<BANKED_CODE> 1 (was BANKED_CODE)
  Relative segment, address: CODE 00002FF7 - 000031F0 (0x1fa bytes), align: 0
  Segment part 42.            Intra module refs:   delete_test::?relay
           LOCAL                   ADDRESS         
           =====                   =======         
           delete_test             00002FF7 
               calls direct
               XSTACK = 00000000 ( 0000001A )
    -------------------------------------------------------------------------
<BANKED_CODE> 1 (was BANKED_CODE)
  Relative segment, address: CODE 000031F1 - 00003367 (0x177 bytes), align: 0
  Segment part 44.            Intra module refs:   insert4_test::?relay
           LOCAL                   ADDRESS         
           =====                   =======         
           insert4_test            000031F1 
               calls direct
               XSTACK = 00000000 ( 00000014 )
    -------------------------------------------------------------------------
<BANKED_CODE> 1 (was BANKED_CODE)
  Relative segment, address: CODE 00003368 - 0000343A (0xd3 bytes), align: 0
  Segment part 46.            Intra module refs:   tot_len_test::?relay
           LOCAL                   ADDRESS         
           =====                   =======         
           tot_len_test            00003368 
               calls direct
               XSTACK = 00000000 ( 0000001C )
    -------------------------------------------------------------------------
<BANKED_CODE> 1 (was BANKED_CODE)
  Relative segment, address: CODE 0000343B - 0000345E (0x24 bytes), align: 0
  Segment part 48.            Intra module refs:   suite_frame::?relay
           ENTRY                   ADDRESS         REF BY
           =====                   =======         ======
           suite_frame             0000343B 
               calls direct
               ISTACK = 00000000 ( 00000002 )
    -------------------------------------------------------------------------
XDATA_ID
  Relative segment, address: CODE 000002CB - 000002D0 (0x6 bytes), align: 0
  Segment part 7.             Intra module refs:   Segment part 6
    -------------------------------------------------------------------------
XDATA_ID
  Relative segment, address: CODE 000002D1 - 000002E8 (0x18 bytes), align: 0
  Segment part 9.             Intra module refs:   Segment part 8
    -------------------------------------------------------------------------
XDATA_ID
  Relative segment, address: CODE 000002E9 - 00000300 (0x18 bytes), align: 0
  Segment part 11.            Intra module refs:   Segment part 10
    -------------------------------------------------------------------------
XDATA_ID
  Relative segment, address: CODE 00000301 - 00000318 (0x18 bytes), align: 0
  Segment part 13.            Intra module refs:   Segment part 12
    -------------------------------------------------------------------------
XDATA_ID
  Relative segment, address: CODE 00000319 - 00000330 (0x18 bytes), align: 0
  Segment part 15.            Intra module refs:   Segment part 14
    -------------------------------------------------------------------------
XDATA_ID
  Relative segment, address: CODE 00000331 - 0000033F (0xf bytes), align: 0
  Segment part 17.            Intra module refs:   Segment part 16
    -------------------------------------------------------------------------
XDATA_ID
  Relative segment, address: CODE 00000340 - 0000034E (0xf bytes), align: 0
  Segment part 19.            Intra module refs:   Segment part 18
    -------------------------------------------------------------------------
XDATA_ID
  Relative segment, address: CODE 0000034F - 0000035D (0xf bytes), align: 0
  Segment part 21.            Intra module refs:   Segment part 20
    -------------------------------------------------------------------------
XDATA_ID
  Relative segment, address: CODE 0000035E - 0000036D (0x10 bytes), align: 0
  Segment part 23.            Intra module refs:   Segment part 22
    -------------------------------------------------------------------------
XDATA_ID
  Relative segment, address: CODE 0000036E - 0000037E (0x11 bytes), align: 0
  Segment part 25.            Intra module refs:   Segment part 24
    -------------------------------------------------------------------------
XDATA_ID
  Relative segment, address: CODE 0000037F - 0000038F (0x11 bytes), align: 0
  Segment part 27.            Intra module refs:   Segment part 26
    -------------------------------------------------------------------------
XDATA_ID
  Relative segment, address: CODE 00000390 - 000003A0 (0x11 bytes), align: 0
  Segment part 29.            Intra module refs:   Segment part 28
    -------------------------------------------------------------------------
XDATA_ID
  Relative segment, address: CODE 000003A1 - 000003B1 (0x11 bytes), align: 0
  Segment part 31.            Intra module refs:   Segment part 30
    -------------------------------------------------------------------------
XDATA_ID
  Relative segment, address: CODE 000003B2 - 000003C0 (0xf bytes), align: 0
  Segment part 33.            Intra module refs:   Segment part 32
    -------------------------------------------------------------------------
XDATA_ID
  Relative segment, address: CODE 000003C1 - 000003CC (0xc bytes), align: 0
  Segment part 35.            Intra module refs:   Segment part 34
    -------------------------------------------------------------------------
BANK_RELAYS
  Relative segment, address: CODE 00000544 - 00000549 (0x6 bytes), align: 0
  Segment part 37.            Intra module refs:   suite_frame
           LOCAL                   ADDRESS         
           =====                   =======         
           insert1_test::?relay    00000544 
    -------------------------------------------------------------------------
BANK_RELAYS
  Relative segment, address: CODE 0000054A - 0000054F (0x6 bytes), align: 0
  Segment part 39.            Intra module refs:   suite_frame
           LOCAL                   ADDRESS         
           =====                   =======         
           insert2_test::?relay    0000054A 
    -------------------------------------------------------------------------
BANK_RELAYS
  Relative segment, address: CODE 00000550 - 00000555 (0x6 bytes), align: 0
  Segment part 41.            Intra module refs:   suite_frame
           LOCAL                   ADDRESS         
           =====                   =======         
           insert3_test::?relay    00000550 
    -------------------------------------------------------------------------
BANK_RELAYS
  Relative segment, address: CODE 00000556 - 0000055B (0x6 bytes), align: 0
  Segment part 43.            Intra module refs:   suite_frame
           LOCAL                   ADDRESS         
           =====                   =======         
           delete_test::?relay     00000556 
    -------------------------------------------------------------------------
BANK_RELAYS
  Relative segment, address: CODE 0000055C - 00000561 (0x6 bytes), align: 0
  Segment part 45.            Intra module refs:   suite_frame
           LOCAL                   ADDRESS         
           =====                   =======         
           insert4_test::?relay    0000055C 
    -------------------------------------------------------------------------
BANK_RELAYS
  Relative segment, address: CODE 00000562 - 00000567 (0x6 bytes), align: 0
  Segment part 47.            Intra module refs:   suite_frame
           LOCAL                   ADDRESS         
           =====                   =======         
           tot_len_test::?relay    00000562 
    -------------------------------------------------------------------------
BANK_RELAYS
  Relative segment, address: CODE 00000568 - 0000056D (0x6 bytes), align: 0
  Segment part 49.
           ENTRY                   ADDRESS         REF BY
           =====                   =======         ======
           suite_frame::?relay     00000568        main (utest)
    -------------------------------------------------------------------------
XDATA_I
  Relative segment, address: XDATA 00001124 - 00001129 (0x6 bytes), align: 0
  Segment part 6.             Intra module refs:   delete_test
                                                   insert1_test
                                                   insert2_test
                                                   insert3_test
                                                   insert4_test
                                                   tot_len_test
    -------------------------------------------------------------------------
XDATA_I
  Relative segment, address: XDATA 0000112A - 00001141 (0x18 bytes), align: 0
  Segment part 8.             Intra module refs:   insert1_test
    -------------------------------------------------------------------------
XDATA_I
  Relative segment, address: XDATA 00001142 - 00001159 (0x18 bytes), align: 0
  Segment part 10.            Intra module refs:   insert1_test
    -------------------------------------------------------------------------
XDATA_I
  Relative segment, address: XDATA 0000115A - 00001171 (0x18 bytes), align: 0
  Segment part 12.            Intra module refs:   insert2_test
    -------------------------------------------------------------------------
XDATA_I
  Relative segment, address: XDATA 00001172 - 00001189 (0x18 bytes), align: 0
  Segment part 14.            Intra module refs:   insert2_test
    -------------------------------------------------------------------------
XDATA_I
  Relative segment, address: XDATA 0000118A - 00001198 (0xf bytes), align: 0
  Segment part 16.            Intra module refs:   insert3_test
                                                   insert4_test
    -------------------------------------------------------------------------
XDATA_I
  Relative segment, address: XDATA 00001199 - 000011A7 (0xf bytes), align: 0
  Segment part 18.            Intra module refs:   insert3_test
                                                   insert4_test
    -------------------------------------------------------------------------
XDATA_I
  Relative segment, address: XDATA 000011A8 - 000011B6 (0xf bytes), align: 0
  Segment part 20.            Intra module refs:   insert3_test
                                                   insert4_test
    -------------------------------------------------------------------------
XDATA_I
  Relative segment, address: XDATA 000011B7 - 000011C6 (0x10 bytes), align: 0
  Segment part 22.            Intra module refs:   insert3_test
                                                   insert4_test
    -------------------------------------------------------------------------
XDATA_I
  Relative segment, address: XDATA 000011C7 - 000011D7 (0x11 bytes), align: 0
  Segment part 24.            Intra module refs:   delete_test
    -------------------------------------------------------------------------
XDATA_I
  Relative segment, address: XDATA 000011D8 - 000011E8 (0x11 bytes), align: 0
  Segment part 26.            Intra module refs:   delete_test
    -------------------------------------------------------------------------
XDATA_I
  Relative segment, address: XDATA 000011E9 - 000011F9 (0x11 bytes), align: 0
  Segment part 28.            Intra module refs:   delete_test
    -------------------------------------------------------------------------
XDATA_I
  Relative segment, address: XDATA 000011FA - 0000120A (0x11 bytes), align: 0
  Segment part 30.            Intra module refs:   delete_test
    -------------------------------------------------------------------------
XDATA_I
  Relative segment, address: XDATA 0000120B - 00001219 (0xf bytes), align: 0
  Segment part 32.            Intra module refs:   tot_len_test
    -------------------------------------------------------------------------
XDATA_I
  Relative segment, address: XDATA 0000121A - 00001225 (0xc bytes), align: 0
  Segment part 34.            Intra module refs:   suite_frame

    *************************************************************************

  FILE NAME : \\vmware-host\Shared Folders\Projects\WMNU\IAR\PRJ_UNITEST\Debug\Obj\utest_Frames.r51
    *************************************************************************

  FILE NAME : \\vmware-host\Shared Folders\Projects\WMNU\IAR\PRJ_UNITEST\Debug\Obj\utest_LLC.r51
    *************************************************************************

  FILE NAME : \\vmware-host\Shared Folders\Projects\WMNU\IAR\PRJ_UNITEST\Debug\Obj\utest_MAC.r51
    *************************************************************************

  FILE NAME : \\vmware-host\Shared Folders\Projects\WMNU\IAR\PRJ_UNITEST\Debug\Obj\utest_NTMR.r51
  PROGRAM MODULE, NAME : utest_NTMR

  SEGMENTS IN THE MODULE
  ======================
SFR_AN
  Relative segment, address: DATA 00000080 - 00000080 (0x1 bytes), align: 0
  Segment part 1. ROOT 
           ENTRY                   ADDRESS         REF BY
           =====                   =======         ======
           _A_P0                   00000080 
           LOCAL                   ADDRESS         
           =====                   =======         
           P0                      00000080 
    -------------------------------------------------------------------------
SFR_AN
  Relative segment, address: DATA 000000FD - 000000FD (0x1 bytes), align: 0
  Segment part 3. ROOT 
           ENTRY                   ADDRESS         REF BY
           =====                   =======         ======
           P0DIR                   000000FD 

    *************************************************************************

  FILE NAME : \\vmware-host\Shared Folders\Projects\WMNU\IAR\PRJ_UNITEST\Debug\Obj\utest_radio.r51
    *************************************************************************

  FILE NAME : \\vmware-host\Shared Folders\Projects\WMNU\IAR\PRJ_UNITEST\Debug\Obj\utest_suite.r51
  PROGRAM MODULE, NAME : utest_suite

  SEGMENTS IN THE MODULE
  ======================
XDATA_Z
  Relative segment, address: XDATA 00000F04 - 00000F07 (0x4 bytes), align: 0
  Segment part 26.            Intra module refs:   umsg
                                                   umsg_summary
           LOCAL                   ADDRESS         
           =====                   =======         
           utest_summary           00000F04 
    -------------------------------------------------------------------------
<BANKED_CODE> 1 (was BANKED_CODE)
  Relative segment, address: CODE 00003E16 - 00003E5B (0x46 bytes), align: 0
  Segment part 29.            Intra module refs:   memory_compare::?relay
           ENTRY                   ADDRESS         REF BY
           =====                   =======         ======
           memory_compare          00003E16 
               XSTACK = 00000002 ( 00000009 )
    -------------------------------------------------------------------------
<BANKED_CODE> 1 (was BANKED_CODE)
  Relative segment, address: CODE 00003E5C - 00003ED1 (0x76 bytes), align: 0
  Segment part 31.            Intra module refs:   umsg::?relay
           ENTRY                   ADDRESS         REF BY
           =====                   =======         ======
           umsg                    00003E5C 
               calls direct
               XSTACK = 00000000 ( 00000014 )
    -------------------------------------------------------------------------
<BANKED_CODE> 1 (was BANKED_CODE)
  Relative segment, address: CODE 00003ED2 - 00003EFE (0x2d bytes), align: 0
  Segment part 33.            Intra module refs:   umsg_line::?relay
           ENTRY                   ADDRESS         REF BY
           =====                   =======         ======
           umsg_line               00003ED2 
               calls direct
               XSTACK = 00000000 ( 0000000C )
    -------------------------------------------------------------------------
<BANKED_CODE> 1 (was BANKED_CODE)
  Relative segment, address: CODE 00003EFF - 00003F50 (0x52 bytes), align: 0
  Segment part 35.            Intra module refs:   umsg_summary::?relay
           ENTRY                   ADDRESS         REF BY
           =====                   =======         ======
           umsg_summary            00003EFF 
               calls direct
               XSTACK = 00000000 ( 00000002 )
               ISTACK = 00000000 ( 00000002 )
    -------------------------------------------------------------------------
XDATA_ID
  Relative segment, address: CODE 000003CD - 000003F6 (0x2a bytes), align: 0
  Segment part 7.             Intra module refs:   Segment part 6
    -------------------------------------------------------------------------
XDATA_ID
  Relative segment, address: CODE 000003F7 - 000003FD (0x7 bytes), align: 0
  Segment part 9.             Intra module refs:   Segment part 8
    -------------------------------------------------------------------------
XDATA_ID
  Relative segment, address: CODE 000003FE - 0000040A (0xd bytes), align: 0
  Segment part 11.            Intra module refs:   Segment part 10
    -------------------------------------------------------------------------
XDATA_ID
  Relative segment, address: CODE 0000040B - 00000433 (0x29 bytes), align: 0
  Segment part 13.            Intra module refs:   Segment part 12
    -------------------------------------------------------------------------
XDATA_ID
  Relative segment, address: CODE 00000434 - 00000438 (0x5 bytes), align: 0
  Segment part 15.            Intra module refs:   Segment part 14
    -------------------------------------------------------------------------
XDATA_ID
  Relative segment, address: CODE 00000439 - 0000044A (0x12 bytes), align: 0
  Segment part 17.            Intra module refs:   Segment part 16
    -------------------------------------------------------------------------
XDATA_ID
  Relative segment, address: CODE 0000044B - 00000457 (0xd bytes), align: 0
  Segment part 19.            Intra module refs:   Segment part 18
    -------------------------------------------------------------------------
XDATA_ID
  Relative segment, address: CODE 00000458 - 00000464 (0xd bytes), align: 0
  Segment part 21.            Intra module refs:   Segment part 20
    -------------------------------------------------------------------------
XDATA_ID
  Relative segment, address: CODE 00000465 - 00000473 (0xf bytes), align: 0
  Segment part 23.            Intra module refs:   Segment part 22
    -------------------------------------------------------------------------
XDATA_ID
  Relative segment, address: CODE 00000474 - 00000482 (0xf bytes), align: 0
  Segment part 25.            Intra module refs:   Segment part 24
    -------------------------------------------------------------------------
BANK_RELAYS
  Relative segment, address: CODE 0000056E - 00000573 (0x6 bytes), align: 0
  Segment part 30.
           ENTRY                   ADDRESS         REF BY
           =====                   =======         ======
           memory_compare::?relay
                                   0000056E        raw_data_test (utest_fbuf)
    -------------------------------------------------------------------------
BANK_RELAYS
  Relative segment, address: CODE 00000574 - 00000579 (0x6 bytes), align: 0
  Segment part 32.
           ENTRY                   ADDRESS         REF BY
           =====                   =======         ======
           umsg::?relay            00000574        delete_test (utest_fbuf)
                                                   delete_test (utest_frame)
                                                   insert1_test (utest_frame)
                                                   insert2_test (utest_frame)
                                                   insert3_test (utest_frame)
                                                   insert4_test (utest_frame)
                                                   raw_data_test (utest_fbuf)
                                                   test_create (utest_fbuf)
                                                   test_logic (utest_fbuf)
                                                   tot_len_test (utest_frame)
    -------------------------------------------------------------------------
BANK_RELAYS
  Relative segment, address: CODE 0000057A - 0000057F (0x6 bytes), align: 0
  Segment part 34.            Intra module refs:   umsg_summary
           ENTRY                   ADDRESS         REF BY
           =====                   =======         ======
           umsg_line::?relay       0000057A        suite_fbuf (utest_fbuf)
                                                   suite_frame (utest_frame)
    -------------------------------------------------------------------------
BANK_RELAYS
  Relative segment, address: CODE 00000580 - 00000585 (0x6 bytes), align: 0
  Segment part 36.
           ENTRY                   ADDRESS         REF BY
           =====                   =======         ======
           umsg_summary::?relay    00000580        main (utest)
    -------------------------------------------------------------------------
XDATA_I
  Relative segment, address: XDATA 00001226 - 0000124F (0x2a bytes), align: 0
  Segment part 6.             Intra module refs:   umsg
    -------------------------------------------------------------------------
XDATA_I
  Relative segment, address: XDATA 00001250 - 00001256 (0x7 bytes), align: 0
  Segment part 8.             Intra module refs:   umsg
    -------------------------------------------------------------------------
XDATA_I
  Relative segment, address: XDATA 00001257 - 00001263 (0xd bytes), align: 0
  Segment part 10.            Intra module refs:   umsg
    -------------------------------------------------------------------------
XDATA_I
  Relative segment, address: XDATA 00001264 - 0000128C (0x29 bytes), align: 0
  Segment part 12.            Intra module refs:   umsg_line
    -------------------------------------------------------------------------
XDATA_I
  Relative segment, address: XDATA 0000128D - 00001291 (0x5 bytes), align: 0
  Segment part 14.            Intra module refs:   umsg_line
    -------------------------------------------------------------------------
XDATA_I
  Relative segment, address: XDATA 00001292 - 000012A3 (0x12 bytes), align: 0
  Segment part 16.            Intra module refs:   umsg_summary
    -------------------------------------------------------------------------
XDATA_I
  Relative segment, address: XDATA 000012A4 - 000012B0 (0xd bytes), align: 0
  Segment part 18.            Intra module refs:   umsg_summary
    -------------------------------------------------------------------------
XDATA_I
  Relative segment, address: XDATA 000012B1 - 000012BD (0xd bytes), align: 0
  Segment part 20.            Intra module refs:   umsg_summary
    -------------------------------------------------------------------------
XDATA_I
  Relative segment, address: XDATA 000012BE - 000012CC (0xf bytes), align: 0
  Segment part 22.            Intra module refs:   umsg_summary
    -------------------------------------------------------------------------
XDATA_I
  Relative segment, address: XDATA 000012CD - 000012DB (0xf bytes), align: 0
  Segment part 24.            Intra module refs:   umsg_summary

    *************************************************************************

  FILE NAME : \\vmware-host\Shared Folders\Projects\WMNU\IAR\PRJ_UNITEST\Debug\Obj\utest_TIC.r51
  PROGRAM MODULE, NAME : utest_TIC

  SEGMENTS IN THE MODULE
  ======================

    *************************************************************************

  FILE NAME : C:\Program Files (x86)\IAR Systems\Embedded Workbench 8.0\8051\LIB\DLIB\dl-pli-blxd-1e16x01n.r51
  LIBRARY MODULE, NAME : ?__dbg_break

  SEGMENTS IN THE MODULE
  ======================
<BANKED_CODE> 1 (was BANKED_CODE)
  Relative segment, address: CODE 0000438B - 0000438D (0x3 bytes), align: 0
  Segment part 6.             Intra module refs:   __DebugBreak::?relay
           ENTRY                   ADDRESS         REF BY
           =====                   =======         ======
           __DebugBreak            0000438B 
    -------------------------------------------------------------------------
BANK_RELAYS
  Relative segment, address: CODE 00000586 - 0000058B (0x6 bytes), align: 0
  Segment part 7.
           ENTRY                   ADDRESS         REF BY
           =====                   =======         ======
           __DebugBreak::?relay    00000586        __dwrite (?__dwrite)
                                                   __exit (?__exit)

    -------------------------------------------------------------------------
  LIBRARY MODULE, NAME : ?__dwrite

  SEGMENTS IN THE MODULE
  ======================
<BANKED_CODE> 1 (was BANKED_CODE)
  Relative segment, address: CODE 00004130 - 00004180 (0x51 bytes), align: 0
  Segment part 6.             Intra module refs:   __dwrite::?relay
           ENTRY                   ADDRESS         REF BY
           =====                   =======         ======
           __dwrite                00004130 
               calls direct
               XSTACK = 00000002 ( 00000008 )
               ISTACK = 00000000 ( 00000002 )
    -------------------------------------------------------------------------
BANK_RELAYS
  Relative segment, address: CODE 0000058C - 00000591 (0x6 bytes), align: 0
  Segment part 7.
           ENTRY                   ADDRESS         REF BY
           =====                   =======         ======
           __dwrite::?relay        0000058C        __write (?__write)

    -------------------------------------------------------------------------
  LIBRARY MODULE, NAME : ?__exit

  SEGMENTS IN THE MODULE
  ======================
<BANKED_CODE> 1 (was BANKED_CODE)
  Relative segment, address: CODE 0000431F - 00004342 (0x24 bytes), align: 0
  Segment part 6.
           ENTRY                   ADDRESS         REF BY
           =====                   =======         ======
           __exit                  0000431F        Segment part 10 (?cexit)
               calls direct
               XSTACK = 00000000 ( 0000000B )

    -------------------------------------------------------------------------
  LIBRARY MODULE, NAME : ?__write

  SEGMENTS IN THE MODULE
  ======================
<BANKED_CODE> 1 (was BANKED_CODE)
  Relative segment, address: CODE 000042D4 - 000042F9 (0x26 bytes), align: 0
  Segment part 6.             Intra module refs:   __write::?relay
           ENTRY                   ADDRESS         REF BY
           =====                   =======         ======
           __write                 000042D4 
               calls direct
               XSTACK = 00000002 ( 00000002 )
               ISTACK = 00000000 ( 00000002 )
    -------------------------------------------------------------------------
BANK_RELAYS
  Relative segment, address: CODE 00000592 - 00000597 (0x6 bytes), align: 0
  Segment part 7.
           ENTRY                   ADDRESS         REF BY
           =====                   =======         ======
           __write::?relay         00000592        putchar (?putchar)

    -------------------------------------------------------------------------
  LIBRARY MODULE, NAME : ?cexit

  SEGMENTS IN THE MODULE
  ======================
CSTART
  Relative segment, address: CODE 0000002E, align: 0
  Segment part 5.             Intra module refs:   _exit::?relay
           ENTRY                   ADDRESS         REF BY
           =====                   =======         ======
           _exit                   0000002E 
               calls direct
    -------------------------------------------------------------------------
CSTART
  Relative segment, address: CODE 0000002E - 00000038 (0xb bytes), align: 0
  Segment part 10.            Intra module refs:   _exit
    -------------------------------------------------------------------------
BANK_RELAYS
  Relative segment, address: CODE 00000598 - 0000059D (0x6 bytes), align: 0
  Segment part 11.
           ENTRY                   ADDRESS         REF BY
           =====                   =======         ======
           _exit::?relay           00000598        exit (?exit)

    -------------------------------------------------------------------------
  LIBRARY MODULE, NAME : ?cmain

  SEGMENTS IN THE MODULE
  ======================
CSTART
  Relative segment, address: CODE 00000039, align: 0
  Segment part 5.
           ENTRY                   ADDRESS         REF BY
           =====                   =======         ======
           ?cmain                  00000039        Segment part 13 (CSTARTUP)
               calls direct
    -------------------------------------------------------------------------
CSTART
  Relative segment, address: CODE 00000039 - 00000048 (0x10 bytes), align: 0
  Segment part 16.
           ENTRY                   ADDRESS         REF BY
           =====                   =======         ======
           __INIT_XDATA_Z          00000039        EventCallback (NTMR)
                                                   Segment part 6 (?xgetmemchunk)
                                                   TOFFSET (NTMR)
                                                   __xdata_Aldata (?xxmemxmalloc)
                                                   utest_summary (utest_suite)
    -------------------------------------------------------------------------
CSTART
  Relative segment, address: CODE 00000049 - 0000006E (0x26 bytes), align: 0
  Segment part 33.
           ENTRY                   ADDRESS         REF BY
           =====                   =======         ======
           __INIT_XDATA_I          00000049        Segment part 10 (?xprintflarge)
                                                   Segment part 10 (fbuf)
                                                   Segment part 10 (utest)
                                                   Segment part 10 (utest_fbuf)
                                                   Segment part 10 (utest_frame)
                                                   Segment part 10 (utest_suite)
                                                   Segment part 12 (?xprintflarge)
                                                   Segment part 12 (fbuf)
                                                   Segment part 12 (utest)
                                                   Segment part 12 (utest_fbuf)
                                                   Segment part 12 (utest_frame)
                                                   Segment part 12 (utest_suite)
                                                   Segment part 14 (?xprintflarge)
                                                   Segment part 14 (fbuf)
                                                   Segment part 14 (utest)
                                                   Segment part 14 (utest_fbuf)
                                                   Segment part 14 (utest_frame)
                                                   Segment part 14 (utest_suite)
                                                   Segment part 16 (?xprintflarge)
                                                   Segment part 16 (utest_fbuf)
                                                   Segment part 16 (utest_frame)
                                                   Segment part 16 (utest_suite)
                                                   Segment part 18 (utest_fbuf)
                                                   Segment part 18 (utest_frame)
                                                   Segment part 18 (utest_suite)
                                                   Segment part 20 (utest_fbuf)
                                                   Segment part 20 (utest_frame)
                                                   Segment part 20 (utest_suite)
                                                   Segment part 22 (utest_fbuf)
                                                   Segment part 22 (utest_frame)
                                                   Segment part 22 (utest_suite)
                                                   Segment part 24 (utest_fbuf)
                                                   Segment part 24 (utest_frame)
                                                   Segment part 24 (utest_suite)
                                                   Segment part 26 (utest_fbuf)
                                                   Segment part 26 (utest_frame)
                                                   Segment part 28 (utest_fbuf)
                                                   Segment part 28 (utest_frame)
                                                   Segment part 30 (utest_fbuf)
                                                   Segment part 30 (utest_frame)
                                                   Segment part 32 (utest_fbuf)
                                                   Segment part 32 (utest_frame)
                                                   Segment part 34 (utest_fbuf)
                                                   Segment part 34 (utest_frame)
                                                   Segment part 36 (utest_fbuf)
                                                   Segment part 38 (utest_fbuf)
                                                   Segment part 40 (utest_fbuf)
                                                   Segment part 42 (utest_fbuf)
                                                   Segment part 6 (?xprintflarge)
                                                   Segment part 6 (fbuf)
                                                   Segment part 6 (utest)
                                                   Segment part 6 (utest_fbuf)
                                                   Segment part 6 (utest_frame)
                                                   Segment part 6 (utest_suite)
                                                   Segment part 8 (?xprintflarge)
                                                   Segment part 8 (fbuf)
                                                   Segment part 8 (utest)
                                                   Segment part 8 (utest_fbuf)
                                                   Segment part 8 (utest_frame)
                                                   Segment part 8 (utest_suite)
                                                   __Constant_0 (?xprintflarge)
                                                   __Constant_186a0 (?xprintflarge)
                                                   __Constant_3f800000 (?xprintflarge)
                                                   __Constant_4cbebc20 (?xprintflarge)
                                                   __Constant_7597 (?xprintflarge)
                                                   __Constant_7fff (NTMR)
                                                   __Constant_a (utest_delays)
                                                   __Constant_ffff (?xprintflarge)
    -------------------------------------------------------------------------
DIFUNCT
  Relative segment, address: CODE 000012C1, align: 0
  Segment part 38. ROOT 
    -------------------------------------------------------------------------
CSTART
  Relative segment, address: CODE 0000006F - 00000084 (0x16 bytes), align: 0
  Segment part 40.            Intra module refs:   ?cmain
           ENTRY                   ADDRESS         REF BY
           =====                   =======         ======
           ?call_main              0000006F 

    -------------------------------------------------------------------------
  LIBRARY MODULE, NAME : CSTARTUP

  SEGMENTS IN THE MODULE
  ======================
REGISTERS
  Relative segment, address: DATA 00000000, align: 0
  Segment part 0.             Intra module refs:   Segment part 6
           ENTRY                   ADDRESS         REF BY
           =====                   =======         ======
           ?REGISTERS              00000000 
    -------------------------------------------------------------------------
ISTACK
  Relative segment, address: IDATA 000000C0, align: 0
  Segment part 1.             Intra module refs:   Segment part 6
           ENTRY                   ADDRESS         REF BY
           =====                   =======         ======
           ?ISTACK_START           000000C0 
    -------------------------------------------------------------------------
XSTACK
  Relative segment, address: XDATA 00000001, align: 0
  Segment part 3.             Intra module refs:   ?RESET_XSP
           ENTRY                   ADDRESS         REF BY
           =====                   =======         ======
           ?XSTACK_START           00000001 
    -------------------------------------------------------------------------
INTVEC
  Common segment, address: CODE 00000000 - 00000002 (0x3 bytes), align: 0
  Segment part 5. ROOT        Intra module refs:   Segment part 6
    -------------------------------------------------------------------------
CSTART
  Relative segment, address: CODE 00000085 - 0000008A (0x6 bytes), align: 0
  Segment part 6. ROOT        Intra module refs:   Segment part 5
           ENTRY                   ADDRESS         REF BY
           =====                   =======         ======
           __program_start         00000085        Absolute parts (?ABS_ENTRY_MOD)
           ?RESET_SP               00000088 
    -------------------------------------------------------------------------
CSTART
  Relative segment, address: CODE 0000008B - 00000090 (0x6 bytes), align: 0
  Segment part 8.
           ENTRY                   ADDRESS         REF BY
           =====                   =======         ======
           ?RESET_XSP              0000008B        ?XSP (VIRTUAL_REGISTERS)
    -------------------------------------------------------------------------
CSTART
  Relative segment, address: CODE 00000091 - 00000093 (0x3 bytes), align: 0
  Segment part 9.
           ENTRY                   ADDRESS         REF BY
           =====                   =======         ======
           ?RESET_CODE_BANK        00000091        Absolute parts (?BANKED_CODE_SUPPORT)
    -------------------------------------------------------------------------
CSTART
  Relative segment, address: CODE 00000094 - 00000096 (0x3 bytes), align: 0
  Segment part 13.            Intra module refs:   Absolute parts

    -------------------------------------------------------------------------
  LIBRARY MODULE, NAME : VIRTUAL_REGISTERS

  SEGMENTS IN THE MODULE
  ======================
BREG
  Relative segment, address: BIT 00000020.0 - 00000020.7 (0x8 bits), align: 0
  Segment part 0.
           ENTRY                   ADDRESS         REF BY
           =====                   =======         ======
           ?B0                     00000020.0      Absolute parts (CSTARTUP)
    -------------------------------------------------------------------------
VREG
  Relative segment, address: DATA 00000008 - 00000008 (0x1 bytes), align: 0
  Segment part 1.             Intra module refs:   ?V1
           ENTRY                   ADDRESS         REF BY
           =====                   =======         ======
           ?V0                     00000008        ?BANKED_ENTER_XDATA (?BANKED_ENTER_XDATA)
                                                   ?BANKED_LEAVE_XDATA (?BANKED_LEAVE_XDATA)
                                                   ?INTERRUPT_ENTER_XSP (?INTERRUPT_ENTER_XSP)
                                                   ?INTERRUPT_LEAVE_XSP (?INTERRUPT_LEAVE_XSP)
                                                   ?SL_GE_X (?SL_GE_X)
                                                   NT_GetTime (NTMR)
                                                   Segment part 116 (?xprintflarge)
                                                   Segment part 117 (?xprintflarge)
                                                   Segment part 118 (?xprintflarge)
                                                   Segment part 120 (?xprintflarge)
                                                   Segment part 145 (?xprintflarge)
                                                   Segment part 146 (?xprintflarge)
                                                   Segment part 157 (?xprintflarge)
                                                   Segment part 39 (?xprintflarge)
                                                   Segment part 51 (?xprintflarge)
                                                   Segment part 55 (?xprintflarge)
                                                   Segment part 74 (?xprintflarge)
                                                   Segment part 87 (?xprintflarge)
                                                   TimerCompareInterrupt (NTMR)
                                                   _GenldLarge (?xprintflarge)
                                                   _LdtobLarge (?xprintflarge)
                                                   _LitobLarge (?xprintflarge)
                                                   _PrintfLarge (?xprintflarge)
                                                   _Prout (?xprout)
                                                   _PutcharLarge (?xprintflarge)
                                                   _PutcharsLarge (?xprintflarge)
                                                   __xdata_free (?xxmemxfree)
                                                   __xdata_malloc (?xxmemxmalloc)
                                                   delete_test (utest_fbuf)
                                                   delete_test (utest_frame)
                                                   div (?div)
                                                   fbuf_create (fbuf)
                                                   frame_create (frame)
                                                   frame_delete (frame)
                                                   insert1_test (utest_frame)
                                                   insert2_test (utest_frame)
                                                   insert3_test (utest_frame)
                                                   insert4_test (utest_frame)
                                                   main (utest)
                                                   memcpy (?memcpy)
                                                   pad (?xprintflarge)
                                                   printf (?printf)
                                                   putchar (?putchar)
                                                   raw_data_test (utest_fbuf)
                                                   scale (?xprintflarge)
                                                   test_create (utest_fbuf)
                                                   test_logic (utest_fbuf)
                                                   tot_len_test (utest_frame)
                                                   umsg (utest_suite)
                                                   umsg_line (utest_suite)
    -------------------------------------------------------------------------
VREG
  Relative segment, address: DATA 00000009 - 00000009 (0x1 bytes), align: 0
  Segment part 2.             Intra module refs:   ?V2
           ENTRY                   ADDRESS         REF BY
           =====                   =======         ======
           ?V1                     00000009        NT_GetTime (NTMR)
                                                   Segment part 117 (?xprintflarge)
                                                   Segment part 118 (?xprintflarge)
                                                   Segment part 119 (?xprintflarge)
                                                   Segment part 121 (?xprintflarge)
                                                   Segment part 145 (?xprintflarge)
                                                   Segment part 146 (?xprintflarge)
                                                   Segment part 157 (?xprintflarge)
                                                   Segment part 44 (?xprintflarge)
                                                   Segment part 54 (?xprintflarge)
                                                   Segment part 74 (?xprintflarge)
                                                   Segment part 86 (?xprintflarge)
                                                   Segment part 88 (?xprintflarge)
                                                   TimerCompareInterrupt (NTMR)
                                                   _GenldLarge (?xprintflarge)
                                                   _LdtobLarge (?xprintflarge)
                                                   _LitobLarge (?xprintflarge)
                                                   _PrintfLarge (?xprintflarge)
                                                   _Prout (?xprout)
                                                   _PutcharLarge (?xprintflarge)
                                                   _PutcharsLarge (?xprintflarge)
                                                   __xdata_free (?xxmemxfree)
                                                   __xdata_malloc (?xxmemxmalloc)
                                                   delete_test (utest_fbuf)
                                                   delete_test (utest_frame)
                                                   div (?div)
                                                   fbuf_create (fbuf)
                                                   frame_create (frame)
                                                   frame_delete (frame)
                                                   insert1_test (utest_frame)
                                                   insert2_test (utest_frame)
                                                   insert3_test (utest_frame)
                                                   insert4_test (utest_frame)
                                                   main (utest)
                                                   pad (?xprintflarge)
                                                   printf (?printf)
                                                   putchar (?putchar)
                                                   raw_data_test (utest_fbuf)
                                                   scale (?xprintflarge)
                                                   test_create (utest_fbuf)
                                                   test_logic (utest_fbuf)
                                                   tot_len_test (utest_frame)
                                                   umsg (utest_suite)
                                                   umsg_line (utest_suite)
    -------------------------------------------------------------------------
VREG
  Relative segment, address: DATA 0000000A - 0000000A (0x1 bytes), align: 0
  Segment part 3.             Intra module refs:   ?V3
           ENTRY                   ADDRESS         REF BY
           =====                   =======         ======
           ?V2                     0000000A        NT_GetTime (NTMR)
                                                   Segment part 118 (?xprintflarge)
                                                   Segment part 120 (?xprintflarge)
                                                   Segment part 146 (?xprintflarge)
                                                   Segment part 152 (?xprintflarge)
                                                   Segment part 74 (?xprintflarge)
                                                   _GenldLarge (?xprintflarge)
                                                   _LdtobLarge (?xprintflarge)
                                                   _LitobLarge (?xprintflarge)
                                                   _PrintfLarge (?xprintflarge)
                                                   _Prout (?xprout)
                                                   _PutcharLarge (?xprintflarge)
                                                   _PutcharsLarge (?xprintflarge)
                                                   __xdata_free (?xxmemxfree)
                                                   __xdata_malloc (?xxmemxmalloc)
                                                   delete_test (utest_fbuf)
                                                   delete_test (utest_frame)
                                                   fbuf_create (fbuf)
                                                   frame_delete (frame)
                                                   insert1_test (utest_frame)
                                                   insert2_test (utest_frame)
                                                   insert3_test (utest_frame)
                                                   insert4_test (utest_frame)
                                                   pad (?xprintflarge)
                                                   scale (?xprintflarge)
                                                   test_logic (utest_fbuf)
                                                   tot_len_test (utest_frame)
                                                   umsg (utest_suite)
    -------------------------------------------------------------------------
VREG
  Relative segment, address: DATA 0000000B - 0000000B (0x1 bytes), align: 0
  Segment part 4.             Intra module refs:   ?V4
           ENTRY                   ADDRESS         REF BY
           =====                   =======         ======
           ?V3                     0000000B        NT_GetTime (NTMR)
                                                   Segment part 118 (?xprintflarge)
                                                   Segment part 120 (?xprintflarge)
                                                   Segment part 146 (?xprintflarge)
                                                   Segment part 152 (?xprintflarge)
                                                   Segment part 74 (?xprintflarge)
                                                   _GenldLarge (?xprintflarge)
                                                   _LdtobLarge (?xprintflarge)
                                                   _LitobLarge (?xprintflarge)
                                                   _PrintfLarge (?xprintflarge)
                                                   _PutcharsLarge (?xprintflarge)
                                                   __xdata_free (?xxmemxfree)
                                                   __xdata_malloc (?xxmemxmalloc)
                                                   delete_test (utest_fbuf)
                                                   delete_test (utest_frame)
                                                   fbuf_create (fbuf)
                                                   frame_delete (frame)
                                                   insert1_test (utest_frame)
                                                   insert2_test (utest_frame)
                                                   insert3_test (utest_frame)
                                                   insert4_test (utest_frame)
                                                   pad (?xprintflarge)
                                                   scale (?xprintflarge)
                                                   test_logic (utest_fbuf)
                                                   tot_len_test (utest_frame)
                                                   umsg (utest_suite)
    -------------------------------------------------------------------------
VREG
  Relative segment, address: DATA 0000000C - 0000000C (0x1 bytes), align: 0
  Segment part 5.             Intra module refs:   ?V5
           ENTRY                   ADDRESS         REF BY
           =====                   =======         ======
           ?V4                     0000000C        NT_GetTime (NTMR)
                                                   Segment part 141 (?xprintflarge)
                                                   Segment part 142 (?xprintflarge)
                                                   Segment part 74 (?xprintflarge)
                                                   _GenldLarge (?xprintflarge)
                                                   _LdtobLarge (?xprintflarge)
                                                   _LitobLarge (?xprintflarge)
                                                   _PrintfLarge (?xprintflarge)
                                                   _Prout (?xprout)
                                                   _PutcharLarge (?xprintflarge)
                                                   _PutcharsLarge (?xprintflarge)
                                                   __xdata_free (?xxmemxfree)
                                                   __xdata_malloc (?xxmemxmalloc)
                                                   delete_test (utest_frame)
                                                   fbuf_create (fbuf)
                                                   insert3_test (utest_frame)
                                                   insert4_test (utest_frame)
                                                   pad (?xprintflarge)
                                                   scale (?xprintflarge)
                                                   test_logic (utest_fbuf)
                                                   tot_len_test (utest_frame)
                                                   umsg (utest_suite)
    -------------------------------------------------------------------------
VREG
  Relative segment, address: DATA 0000000D - 0000000D (0x1 bytes), align: 0
  Segment part 6.             Intra module refs:   ?V6
           ENTRY                   ADDRESS         REF BY
           =====                   =======         ======
           ?V5                     0000000D        NT_GetTime (NTMR)
                                                   Segment part 141 (?xprintflarge)
                                                   Segment part 142 (?xprintflarge)
                                                   _GenldLarge (?xprintflarge)
                                                   _LdtobLarge (?xprintflarge)
                                                   _LitobLarge (?xprintflarge)
                                                   _PrintfLarge (?xprintflarge)
                                                   _Prout (?xprout)
                                                   _PutcharLarge (?xprintflarge)
                                                   _PutcharsLarge (?xprintflarge)
                                                   __xdata_free (?xxmemxfree)
                                                   __xdata_malloc (?xxmemxmalloc)
                                                   delete_test (utest_frame)
                                                   insert3_test (utest_frame)
                                                   insert4_test (utest_frame)
                                                   pad (?xprintflarge)
                                                   scale (?xprintflarge)
                                                   test_logic (utest_fbuf)
                                                   tot_len_test (utest_frame)
                                                   umsg (utest_suite)
    -------------------------------------------------------------------------
VREG
  Relative segment, address: DATA 0000000E - 0000000E (0x1 bytes), align: 0
  Segment part 7.             Intra module refs:   ?V7
           ENTRY                   ADDRESS         REF BY
           =====                   =======         ======
           ?V6                     0000000E        NT_GetTime (NTMR)
                                                   _GenldLarge (?xprintflarge)
                                                   _LdtobLarge (?xprintflarge)
                                                   _LitobLarge (?xprintflarge)
                                                   _PutcharsLarge (?xprintflarge)
                                                   __xdata_malloc (?xxmemxmalloc)
                                                   delete_test (utest_frame)
                                                   fbuf_create (fbuf)
                                                   insert3_test (utest_frame)
                                                   insert4_test (utest_frame)
                                                   pad (?xprintflarge)
                                                   scale (?xprintflarge)
                                                   test_logic (utest_fbuf)
                                                   tot_len_test (utest_frame)
    -------------------------------------------------------------------------
VREG
  Relative segment, address: DATA 0000000F - 0000000F (0x1 bytes), align: 0
  Segment part 8.
           ENTRY                   ADDRESS         REF BY
           =====                   =======         ======
           ?V7                     0000000F        NT_GetTime (NTMR)
                                                   _GenldLarge (?xprintflarge)
                                                   _LdtobLarge (?xprintflarge)
                                                   _LitobLarge (?xprintflarge)
                                                   _PutcharsLarge (?xprintflarge)
                                                   delete_test (utest_frame)
                                                   fbuf_create (fbuf)
                                                   insert3_test (utest_frame)
                                                   insert4_test (utest_frame)
                                                   pad (?xprintflarge)
                                                   scale (?xprintflarge)
                                                   test_logic (utest_fbuf)
                                                   tot_len_test (utest_frame)
    -------------------------------------------------------------------------
XSP
  Relative segment, address: DATA 00000010 - 00000011 (0x2 bytes), align: 0
  Segment part 34.
           ENTRY                   ADDRESS         REF BY
           =====                   =======         ======
           ?XSP                    00000010        ?ADD_XSTACK_DISP0_8 (?ADD_XSTACK_DISP8)
                                                   ?ALLOC_XSTACK8 (?ALLOC_XSTACK8)
                                                   ?BANKED_ENTER_XDATA (?BANKED_ENTER_XDATA)
                                                   ?BANKED_LEAVE_XDATA (?BANKED_LEAVE_XDATA)
                                                   ?DEALLOC_XSTACK8 (?DEALLOC_XSTACK8)
                                                   ?INTERRUPT_ENTER_XSP (?INTERRUPT_ENTER_XSP)
                                                   ?INTERRUPT_LEAVE_XSP (?INTERRUPT_LEAVE_XSP)
                                                   ?PUSH_XSTACK8_X (?PUSH_XSTACK8_X)
                                                   ?RESET_XSP (CSTARTUP)
                                                   ?XSTACK_DISP0_8 (?XSTACK_DISP8)
                                                   ?XSTACK_DISP100_8 (?XSTACK_DISP8_RP)
                                                   ?XSTACK_DISP101_8 (?XSTACK_DISP8_RP)
                                                   ?XSTACK_DISP102_8 (?XSTACK_DISP8_RP)
                                                   ReadTimer (NTMR)
                                                   Segment part 110 (?xprintflarge)
                                                   Segment part 112 (?xprintflarge)
                                                   Segment part 133 (?xprintflarge)
                                                   Segment part 136 (?xprintflarge)
                                                   Segment part 144 (?xprintflarge)
                                                   Segment part 148 (?xprintflarge)
                                                   Segment part 68 (?xprintflarge)
                                                   Segment part 77 (?xprintflarge)
                                                   Segment part 8 (?div)
                                                   Segment part 91 (?xprintflarge)
                                                   _GenldLarge (?xprintflarge)
                                                   _LdtobLarge (?xprintflarge)
                                                   _LitobLarge (?xprintflarge)
                                                   _PrintfLarge (?xprintflarge)
                                                   __dwrite (?__dwrite)
                                                   __exit (?__exit)
                                                   __iar_Memchr (?memchr)
                                                   __write (?__write)
                                                   delete_test (utest_frame)
                                                   div (?div)
                                                   insert3_test (utest_frame)
                                                   insert4_test (utest_frame)
                                                   memset (?memset)
                                                   pad (?xprintflarge)
                                                   printf (?printf)
                                                   putchar (?putchar)
                                                   raw_data_test (utest_fbuf)
                                                   scale (?xprintflarge)
                                                   tot_len_test (utest_frame)

    -------------------------------------------------------------------------
  LIBRARY MODULE, NAME : ?div

  SEGMENTS IN THE MODULE
  ======================
<BANKED_CODE> 1 (was BANKED_CODE)
  Relative segment, address: CODE 00003FF9 - 00004065 (0x6d bytes), align: 0
  Segment part 6.             Intra module refs:   div::?relay
           ENTRY                   ADDRESS         REF BY
           =====                   =======         ======
           div                     00003FF9 
               XSTACK = 00000002 ( 0000000E )
               ISTACK = 00000000 ( 00000002 )
    -------------------------------------------------------------------------
<BANKED_CODE> 1 (was BANKED_CODE)
  Relative segment, address: CODE 00004066 - 00004071 (0xc bytes), align: 0
  Segment part 8.             Intra module refs:   div
    -------------------------------------------------------------------------
BANK_RELAYS
  Relative segment, address: CODE 0000059E - 000005A3 (0x6 bytes), align: 0
  Segment part 7.
           ENTRY                   ADDRESS         REF BY
           =====                   =======         ======
           div::?relay             0000059E        _GenldLarge (?xprintflarge)

    -------------------------------------------------------------------------
  LIBRARY MODULE, NAME : ?exit

  SEGMENTS IN THE MODULE
  ======================
<BANKED_CODE> 1 (was BANKED_CODE)
  Relative segment, address: CODE 0000437D - 0000438A (0xe bytes), align: 0
  Segment part 6.
           ENTRY                   ADDRESS         REF BY
           =====                   =======         ======
           exit                    0000437D        ?call_main (?cmain)
               calls direct
               ISTACK = 00000000 ( 00000002 )

    -------------------------------------------------------------------------
  LIBRARY MODULE, NAME : ?BANKED_CODE_SUPPORT

  SEGMENTS IN THE MODULE
  ======================
CSTART
  Relative segment, address: CODE 00000097 - 000000B4 (0x1e bytes), align: 0
  Segment part 0.
           ENTRY                   ADDRESS         REF BY
           =====                   =======         ======
           ?BCALL_FF               00000097        ?call_main (?cmain)
                                                   Segment part 10 (?cexit)
           ?BRET_FF                0000009D        ?BANKED_LEAVE_XDATA (?BANKED_LEAVE_XDATA)
                                                   NT_IRQEnable (NTMR)
                                                   ReadTimer (NTMR)
                                                   SetCPU32M (nwdebuger)
                                                   __DebugBreak (?__dbg_break)
                                                   __dwrite (?__dwrite)
                                                   __iar_Memchr (?memchr)
                                                   __iar_Strchr (?strchr)
                                                   __write (?__write)
                                                   __xdata_GetMemChunk (?xgetmemchunk)
                                                   exit (?exit)
                                                   fbuf_chain (fbuf)
                                                   fbuf_next (fbuf)
                                                   frame_get_fbuf_head (frame)
                                                   frame_get_fbuf_tail (frame)
                                                   frame_insert_tail (frame)
                                                   frame_len (frame)
                                                   main (utest)
                                                   memset (?memset)
                                                   nwDebugerInit (nwdebuger)
                                                   strlen (?strlen)
                                                   suite_fbuf (utest_fbuf)
                                                   suite_frame (utest_frame)
                                                   umsg_summary (utest_suite)
           ?BDISPATCH_FF           000000A0        NT_GetTime::?relay (NTMR)
                                                   NT_IRQEnable::?relay (NTMR)
                                                   ReadTimer::?relay (NTMR)
                                                   STACK_FAILURE::?relay (nwdebuger)
                                                   SetCPU32M::?relay (nwdebuger)
                                                   _GenldLarge::?relay (?xprintflarge)
                                                   _LdtobLarge::?relay (?xprintflarge)
                                                   _LitobLarge::?relay (?xprintflarge)
                                                   _PrintfLarge::?relay (?xprintflarge)
                                                   _Prout::?relay (?xprout)
                                                   _PutcharLarge::?relay (?xprintflarge)
                                                   _PutcharsLarge::?relay (?xprintflarge)
                                                   __DebugBreak::?relay (?__dbg_break)
                                                   __dwrite::?relay (?__dwrite)
                                                   __iar_Memchr::?relay (?memchr)
                                                   __iar_Strchr::?relay (?strchr)
                                                   __write::?relay (?__write)
                                                   __xdata_GetMemChunk::?relay (?xgetmemchunk)
                                                   __xdata_free::?relay (?xxmemxfree)
                                                   __xdata_malloc::?relay (?xxmemxmalloc)
                                                   _exit::?relay (?cexit)
                                                   delete_test::?relay (utest_fbuf)
                                                   delete_test::?relay (utest_frame)
                                                   div::?relay (?div)
                                                   fbuf_chain::?relay (fbuf)
                                                   fbuf_create::?relay (fbuf)
                                                   fbuf_delete::?relay (fbuf)
                                                   fbuf_next::?relay (fbuf)
                                                   frame_create::?relay (frame)
                                                   frame_delete::?relay (frame)
                                                   frame_get_fbuf_head::?relay (frame)
                                                   frame_get_fbuf_tail::?relay (frame)
                                                   frame_insert_head::?relay (frame)
                                                   frame_insert_tail::?relay (frame)
                                                   frame_len::?relay (frame)
                                                   free::?relay (fbuf)
                                                   insert1_test::?relay (utest_frame)
                                                   insert2_test::?relay (utest_frame)
                                                   insert3_test::?relay (utest_frame)
                                                   insert4_test::?relay (utest_frame)
                                                   malloc::?relay (fbuf)
                                                   memcpy::?relay (?memcpy)
                                                   memory_compare::?relay (utest_suite)
                                                   memset::?relay (?memset)
                                                   nwDebugerInit::?relay (nwdebuger)
                                                   pad::?relay (?xprintflarge)
                                                   printf::?relay (?printf)
                                                   putchar::?relay (?putchar)
                                                   raw_data_test::?relay (utest_fbuf)
                                                   scale::?relay (?xprintflarge)
                                                   strlen::?relay (?strlen)
                                                   suite_fbuf::?relay (utest_fbuf)
                                                   suite_frame::?relay (utest_frame)
                                                   test_create::?relay (utest_fbuf)
                                                   test_logic::?relay (utest_fbuf)
                                                   tot_len_test::?relay (utest_frame)
                                                   umsg::?relay (utest_suite)
                                                   umsg_line::?relay (utest_suite)
                                                   umsg_summary::?relay (utest_suite)

    -------------------------------------------------------------------------
  LIBRARY MODULE, NAME : ?SL_GT_X

  SEGMENTS IN THE MODULE
  ======================
RCODE
  Relative segment, address: CODE 00000616 - 0000062A (0x15 bytes), align: 0
  Segment part 1.
           ENTRY                   ADDRESS         REF BY
           =====                   =======         ======
           ?SL_GT_X                00000616        _PrintfLarge (?xprintflarge)

    -------------------------------------------------------------------------
  LIBRARY MODULE, NAME : ?SL_GE_X

  SEGMENTS IN THE MODULE
  ======================
RCODE
  Relative segment, address: CODE 0000062B - 00000650 (0x26 bytes), align: 0
  Segment part 1.
           ENTRY                   ADDRESS         REF BY
           =====                   =======         ======
           ?SL_GE_X                0000062B        _LitobLarge (?xprintflarge)

    -------------------------------------------------------------------------
  LIBRARY MODULE, NAME : ?L_TO_FLT

  SEGMENTS IN THE MODULE
  ======================
RCODE
  Relative segment, address: CODE 00000651 - 000006AD (0x5d bytes), align: 0
  Segment part 3.
           ENTRY                   ADDRESS         REF BY
           =====                   =======         ======
           ?UL_TO_FLT              00000651        _LdtobLarge (?xprintflarge)

    -------------------------------------------------------------------------
  LIBRARY MODULE, NAME : ?FLT_TO_L

  SEGMENTS IN THE MODULE
  ======================
RCODE
  Relative segment, address: CODE 000006AE - 000006B8 (0xb bytes), align: 0
  Segment part 2.
           ENTRY                   ADDRESS         REF BY
           =====                   =======         ======
           ?FLT_TO_UL              000006AE        _LdtobLarge (?xprintflarge)
    -------------------------------------------------------------------------
RCODE
  Relative segment, address: CODE 000006B9 - 000006C4 (0xc bytes), align: 0
  Segment part 6.             Intra module refs:   ?FLT_TO_UL
    -------------------------------------------------------------------------
RCODE
  Relative segment, address: CODE 000006C5 - 00000713 (0x4f bytes), align: 0
  Segment part 7.             Intra module refs:   ?FLT_TO_UL

    -------------------------------------------------------------------------
  LIBRARY MODULE, NAME : ?FLT_TEST_ZERO

  SEGMENTS IN THE MODULE
  ======================
RCODE
  Relative segment, address: CODE 00000714 - 0000071C (0x9 bytes), align: 0
  Segment part 1.
           ENTRY                   ADDRESS         REF BY
           =====                   =======         ======
           ?FLT_TEST_ZERO_REW      00000714        ?FLT_ADD (?FLT_ADD)
                                                   ?FLT_DIV (?FLT_DIV)
                                                   ?FLT_LT (?FLT_LT)
                                                   ?FLT_MUL (?FLT_MUL)

    -------------------------------------------------------------------------
  LIBRARY MODULE, NAME : ?FLT_TEST_ZERO_R1

  SEGMENTS IN THE MODULE
  ======================
RCODE
  Relative segment, address: CODE 0000071D - 00000725 (0x9 bytes), align: 0
  Segment part 1.
           ENTRY                   ADDRESS         REF BY
           =====                   =======         ======
           ?FLT_TEST_ZERO_R1_REW   0000071D        ?FLT_ADD (?FLT_ADD)
                                                   ?FLT_DIV (?FLT_DIV)
                                                   ?FLT_LT (?FLT_LT)
                                                   ?FLT_MUL (?FLT_MUL)

    -------------------------------------------------------------------------
  LIBRARY MODULE, NAME : ?FLT_TEST_INF

  SEGMENTS IN THE MODULE
  ======================
RCODE
  Relative segment, address: CODE 00000726 - 00000728 (0x3 bytes), align: 0
  Segment part 0.
           ENTRY                   ADDRESS         REF BY
           =====                   =======         ======
           ?FLT_TEST_INF_REW       00000726        ?FLT_ADD (?FLT_ADD)
                                                   ?FLT_MUL (?FLT_MUL)
    -------------------------------------------------------------------------
RCODE
  Relative segment, address: CODE 00000729 - 00000739 (0x11 bytes), align: 0
  Segment part 1.             Intra module refs:   ?FLT_TEST_INF_REW
           ENTRY                   ADDRESS         REF BY
           =====                   =======         ======
           ?FLT_TEST_INF           00000729        ?FLT_DIV (?FLT_DIV)

    -------------------------------------------------------------------------
  LIBRARY MODULE, NAME : ?FLT_TEST_INF_R1

  SEGMENTS IN THE MODULE
  ======================
RCODE
  Relative segment, address: CODE 0000073A - 0000073C (0x3 bytes), align: 0
  Segment part 0.
           ENTRY                   ADDRESS         REF BY
           =====                   =======         ======
           ?FLT_TEST_INF_R1_REW    0000073A        ?FLT_ADD (?FLT_ADD)
                                                   ?FLT_MUL (?FLT_MUL)
    -------------------------------------------------------------------------
RCODE
  Relative segment, address: CODE 0000073D - 0000074D (0x11 bytes), align: 0
  Segment part 1.             Intra module refs:   ?FLT_TEST_INF_R1_REW
           ENTRY                   ADDRESS         REF BY
           =====                   =======         ======
           ?FLT_TEST_INF_R1        0000073D        ?FLT_DIV (?FLT_DIV)

    -------------------------------------------------------------------------
  LIBRARY MODULE, NAME : ?FLT_TEST_NAN

  SEGMENTS IN THE MODULE
  ======================
RCODE
  Relative segment, address: CODE 0000074E - 0000075C (0xf bytes), align: 0
  Segment part 1.
           ENTRY                   ADDRESS         REF BY
           =====                   =======         ======
           ?FLT_TEST_NAN           0000074E        ?FLT_ADD (?FLT_ADD)
                                                   ?FLT_DIV (?FLT_DIV)
                                                   ?FLT_LT (?FLT_LT)
                                                   ?FLT_MUL (?FLT_MUL)
                                                   ?FLT_SUB (?FLT_ADD)

    -------------------------------------------------------------------------
  LIBRARY MODULE, NAME : ?FLT_TEST_NAN_R1

  SEGMENTS IN THE MODULE
  ======================
RCODE
  Relative segment, address: CODE 0000075D - 0000076B (0xf bytes), align: 0
  Segment part 1.
           ENTRY                   ADDRESS         REF BY
           =====                   =======         ======
           ?FLT_TEST_NAN_R1        0000075D        ?FLT_ADD (?FLT_ADD)
                                                   ?FLT_DIV (?FLT_DIV)
                                                   ?FLT_LT (?FLT_LT)
                                                   ?FLT_MUL (?FLT_MUL)
                                                   ?FLT_SUB (?FLT_ADD)

    -------------------------------------------------------------------------
  LIBRARY MODULE, NAME : ?FLT_LT

  SEGMENTS IN THE MODULE
  ======================
RCODE
  Relative segment, address: CODE 0000076C - 000007B7 (0x4c bytes), align: 0
  Segment part 1.
           ENTRY                   ADDRESS         REF BY
           =====                   =======         ======
           ?FLT_LT                 0000076C        _LdtobLarge (?xprintflarge)

    -------------------------------------------------------------------------
  LIBRARY MODULE, NAME : ?FLT_MUL

  SEGMENTS IN THE MODULE
  ======================
RCODE
  Relative segment, address: CODE 000007B8 - 00000937 (0x180 bytes), align: 0
  Segment part 1.
           ENTRY                   ADDRESS         REF BY
           =====                   =======         ======
           ?FLT_MUL                000007B8        _LdtobLarge (?xprintflarge)
                                                   scale (?xprintflarge)

    -------------------------------------------------------------------------
  LIBRARY MODULE, NAME : ?FLT_ADD

  SEGMENTS IN THE MODULE
  ======================
RCODE
  Relative segment, address: CODE 00000938 - 0000095C (0x25 bytes), align: 0
  Segment part 1.
           ENTRY                   ADDRESS         REF BY
           =====                   =======         ======
           ?FLT_SUB                00000938        _LdtobLarge (?xprintflarge)
    -------------------------------------------------------------------------
RCODE
  Relative segment, address: CODE 0000095D - 00000B76 (0x21a bytes), align: 0
  Segment part 3.             Intra module refs:   ?FLT_SUB
           ENTRY                   ADDRESS         REF BY
           =====                   =======         ======
           ?FLT_ADD                0000095D 

    -------------------------------------------------------------------------
  LIBRARY MODULE, NAME : ?FLT_DIV

  SEGMENTS IN THE MODULE
  ======================
RCODE
  Relative segment, address: CODE 00000B77 - 00000D5C (0x1e6 bytes), align: 0
  Segment part 1.
           ENTRY                   ADDRESS         REF BY
           =====                   =======         ======
           ?FLT_DIV                00000B77        _LdtobLarge (?xprintflarge)

    -------------------------------------------------------------------------
  LIBRARY MODULE, NAME : ?L_MUL

  SEGMENTS IN THE MODULE
  ======================
RCODE
  Relative segment, address: CODE 00000D5D - 00000D5F (0x3 bytes), align: 0
  Segment part 0.
           ENTRY                   ADDRESS         REF BY
           =====                   =======         ======
           ?L_MUL                  00000D5D        _LdtobLarge (?xprintflarge)
    -------------------------------------------------------------------------
RCODE
  Relative segment, address: CODE 00000D60 - 00000DDC (0x7d bytes), align: 0
  Segment part 1.             Intra module refs:   ?L_MUL
           ENTRY                   ADDRESS         REF BY
           =====                   =======         ======
           ?L_MUL_REW              00000D60 

    -------------------------------------------------------------------------
  LIBRARY MODULE, NAME : ?UL_DIV_MOD

  SEGMENTS IN THE MODULE
  ======================
RCODE
  Relative segment, address: CODE 00000DDD - 00000E4B (0x6f bytes), align: 0
  Segment part 1.
           ENTRY                   ADDRESS         REF BY
           =====                   =======         ======
           ?UL_DIV_MOD             00000DDD        ?L_DIV_MOD (?L_DIV_MOD)
                                                   _LdtobLarge (?xprintflarge)
                                                   _LitobLarge (?xprintflarge)

    -------------------------------------------------------------------------
  LIBRARY MODULE, NAME : ?L_DIV_MOD

  SEGMENTS IN THE MODULE
  ======================
RCODE
  Relative segment, address: CODE 00000E4C - 00000EA2 (0x57 bytes), align: 0
  Segment part 0.
           ENTRY                   ADDRESS         REF BY
           =====                   =======         ======
           ?L_DIV_MOD              00000E76        _LdtobLarge (?xprintflarge)

    -------------------------------------------------------------------------
  LIBRARY MODULE, NAME : ?L_NEG_R1

  SEGMENTS IN THE MODULE
  ======================
RCODE
  Relative segment, address: CODE 00000EA3 - 00000EB3 (0x11 bytes), align: 0
  Segment part 1.
           ENTRY                   ADDRESS         REF BY
           =====                   =======         ======
           ?L_NEG_R1               00000EA3        ?L_DIV_MOD (?L_DIV_MOD)

    -------------------------------------------------------------------------
  LIBRARY MODULE, NAME : ?L_NEG

  SEGMENTS IN THE MODULE
  ======================
RCODE
  Relative segment, address: CODE 00000EB4 - 00000EC4 (0x11 bytes), align: 0
  Segment part 1.
           ENTRY                   ADDRESS         REF BY
           =====                   =======         ======
           ?L_NEG                  00000EB4        ?L_DIV_MOD (?L_DIV_MOD)
                                                   _LitobLarge (?xprintflarge)

    -------------------------------------------------------------------------
  LIBRARY MODULE, NAME : ?L_ADD

  SEGMENTS IN THE MODULE
  ======================
RCODE
  Relative segment, address: CODE 00000EC5 - 00000ED7 (0x13 bytes), align: 0
  Segment part 1.
           ENTRY                   ADDRESS         REF BY
           =====                   =======         ======
           ?L_ADD                  00000EC5        NT_GetTime (NTMR)

    -------------------------------------------------------------------------
  LIBRARY MODULE, NAME : ?L_AND_X

  SEGMENTS IN THE MODULE
  ======================
RCODE
  Relative segment, address: CODE 00000ED8 - 00000EEA (0x13 bytes), align: 0
  Segment part 1.
           ENTRY                   ADDRESS         REF BY
           =====                   =======         ======
           ?L_AND_X                00000ED8        NT_GetTime (NTMR)

    -------------------------------------------------------------------------
  LIBRARY MODULE, NAME : ?L_AND_TO_X

  SEGMENTS IN THE MODULE
  ======================
RCODE
  Relative segment, address: CODE 00000EEB - 00000EFD (0x13 bytes), align: 0
  Segment part 1.
           ENTRY                   ADDRESS         REF BY
           =====                   =======         ======
           ?L_AND_TO_X             00000EEB        _PrintfLarge (?xprintflarge)

    -------------------------------------------------------------------------
  LIBRARY MODULE, NAME : ?L_MOV_X

  SEGMENTS IN THE MODULE
  ======================
RCODE
  Relative segment, address: CODE 00000EFE - 00000F0C (0xf bytes), align: 0
  Segment part 0.
           ENTRY                   ADDRESS         REF BY
           =====                   =======         ======
           ?L_MOV_X                00000EFE        _LdtobLarge (?xprintflarge)
                                                   _LitobLarge (?xprintflarge)
                                                   _PrintfLarge (?xprintflarge)
                                                   scale (?xprintflarge)

    -------------------------------------------------------------------------
  LIBRARY MODULE, NAME : ?L_MOV_TO_X

  SEGMENTS IN THE MODULE
  ======================
RCODE
  Relative segment, address: CODE 00000F0D - 00000F1B (0xf bytes), align: 0
  Segment part 2.
           ENTRY                   ADDRESS         REF BY
           =====                   =======         ======
           ?L_MOV_TO_X             00000F0D        _LdtobLarge (?xprintflarge)
                                                   _LitobLarge (?xprintflarge)
                                                   _PrintfLarge (?xprintflarge)
                                                   scale (?xprintflarge)

    -------------------------------------------------------------------------
  LIBRARY MODULE, NAME : ?XLOAD_R2345

  SEGMENTS IN THE MODULE
  ======================
RCODE
  Relative segment, address: CODE 00000F1C - 00000F27 (0xc bytes), align: 0
  Segment part 0.
           ENTRY                   ADDRESS         REF BY
           =====                   =======         ======
           ?XLOAD_R2345            00000F1C        ReadTimer (NTMR)
                                                   _LdtobLarge (?xprintflarge)
                                                   scale (?xprintflarge)

    -------------------------------------------------------------------------
  LIBRARY MODULE, NAME : ?XSTORE_R2345

  SEGMENTS IN THE MODULE
  ======================
RCODE
  Relative segment, address: CODE 00000F28 - 00000F33 (0xc bytes), align: 0
  Segment part 0.
           ENTRY                   ADDRESS         REF BY
           =====                   =======         ======
           ?XSTORE_R2345           00000F28        _LdtobLarge (?xprintflarge)

    -------------------------------------------------------------------------
  LIBRARY MODULE, NAME : ?XLOAD_R4567

  SEGMENTS IN THE MODULE
  ======================
RCODE
  Relative segment, address: CODE 00000F34 - 00000F3F (0xc bytes), align: 0
  Segment part 0.
           ENTRY                   ADDRESS         REF BY
           =====                   =======         ======
           ?XLOAD_R4567            00000F34        _LdtobLarge (?xprintflarge)
                                                   _LitobLarge (?xprintflarge)

    -------------------------------------------------------------------------
  LIBRARY MODULE, NAME : ?XSTORE_R4567

  SEGMENTS IN THE MODULE
  ======================
RCODE
  Relative segment, address: CODE 00000F40 - 00000F4B (0xc bytes), align: 0
  Segment part 0.
           ENTRY                   ADDRESS         REF BY
           =====                   =======         ======
           ?XSTORE_R4567           00000F40        _LdtobLarge (?xprintflarge)

    -------------------------------------------------------------------------
  LIBRARY MODULE, NAME : ?XLOAD_R0123

  SEGMENTS IN THE MODULE
  ======================
RCODE
  Relative segment, address: CODE 00000F4C - 00000F57 (0xc bytes), align: 0
  Segment part 0.
           ENTRY                   ADDRESS         REF BY
           =====                   =======         ======
           ?XLOAD_R0123            00000F4C        _LdtobLarge (?xprintflarge)
                                                   _LitobLarge (?xprintflarge)
                                                   _PrintfLarge (?xprintflarge)

    -------------------------------------------------------------------------
  LIBRARY MODULE, NAME : ?XSTORE_R0123

  SEGMENTS IN THE MODULE
  ======================
RCODE
  Relative segment, address: CODE 00000F58 - 00000F63 (0xc bytes), align: 0
  Segment part 0.
           ENTRY                   ADDRESS         REF BY
           =====                   =======         ======
           ?XSTORE_R0123           00000F58        _LdtobLarge (?xprintflarge)
                                                   _PrintfLarge (?xprintflarge)

    -------------------------------------------------------------------------
  LIBRARY MODULE, NAME : ?MOVE_LONG8_XDATA_IDATA

  SEGMENTS IN THE MODULE
  ======================
RCODE
  Relative segment, address: CODE 00000F64 - 00000F70 (0xd bytes), align: 0
  Segment part 0.
           ENTRY                   ADDRESS         REF BY
           =====                   =======         ======
           ?MOVE_LONG8_XDATA_IDATA
                                   00000F64        ?PUSH_XSTACK_I (?PUSH_XSTACK_I)

    -------------------------------------------------------------------------
  LIBRARY MODULE, NAME : ?MOVE_LONG8_XDATA_XDATA

  SEGMENTS IN THE MODULE
  ======================
RCODE
  Relative segment, address: CODE 00000F71 - 00000F91 (0x21 bytes), align: 0
  Segment part 0.
           ENTRY                   ADDRESS         REF BY
           =====                   =======         ======
           ?MOVE_LONG8_XDATA_XDATA
                                   00000F71        ?PUSH_XSTACK8_X (?PUSH_XSTACK8_X)
                                                   div (?div)

    -------------------------------------------------------------------------
  LIBRARY MODULE, NAME : ?S_DIV_MOD

  SEGMENTS IN THE MODULE
  ======================
RCODE
  Relative segment, address: CODE 00000F92 - 00000FD2 (0x41 bytes), align: 0
  Segment part 0.
           ENTRY                   ADDRESS         REF BY
           =====                   =======         ======
           ?S_DIV_MOD              00000FCB        div (?div)
    -------------------------------------------------------------------------
RCODE
  Relative segment, address: CODE 00000FD3 - 0000102B (0x59 bytes), align: 0
  Segment part 1.             Intra module refs:   ?S_DIV_MOD
           ENTRY                   ADDRESS         REF BY
           =====                   =======         ======
           ?US_DIV_MOD             00000FD3 

    -------------------------------------------------------------------------
  LIBRARY MODULE, NAME : ?SS_SHR

  SEGMENTS IN THE MODULE
  ======================
RCODE
  Relative segment, address: CODE 0000102C - 0000102E (0x3 bytes), align: 0
  Segment part 1.             Intra module refs:   Segment part 2
           ENTRY                   ADDRESS         REF BY
           =====                   =======         ======
           ?SS_SHR                 0000102C        scale (?xprintflarge)
    -------------------------------------------------------------------------
RCODE
  Relative segment, address: CODE 0000102F - 0000103B (0xd bytes), align: 0
  Segment part 2.             Intra module refs:   ?SS_SHR

    -------------------------------------------------------------------------
  LIBRARY MODULE, NAME : ?US_SHR

  SEGMENTS IN THE MODULE
  ======================
RCODE
  Relative segment, address: CODE 0000103C - 0000103E (0x3 bytes), align: 0
  Segment part 1.             Intra module refs:   Segment part 2
           ENTRY                   ADDRESS         REF BY
           =====                   =======         ======
           ?US_SHR                 0000103C        _LdtobLarge (?xprintflarge)
    -------------------------------------------------------------------------
RCODE
  Relative segment, address: CODE 0000103F - 0000104A (0xc bytes), align: 0
  Segment part 2.             Intra module refs:   ?US_SHR

    -------------------------------------------------------------------------
  LIBRARY MODULE, NAME : ?ALLOC_XSTACK8

  SEGMENTS IN THE MODULE
  ======================
RCODE
  Relative segment, address: CODE 0000104B - 00001060 (0x16 bytes), align: 0
  Segment part 0.
           ENTRY                   ADDRESS         REF BY
           =====                   =======         ======
           ?ALLOC_XSTACK8          0000104B        ReadTimer (NTMR)
                                                   _GenldLarge (?xprintflarge)
                                                   _LdtobLarge (?xprintflarge)
                                                   _LitobLarge (?xprintflarge)
                                                   _PrintfLarge (?xprintflarge)
                                                   __dwrite (?__dwrite)
                                                   __exit (?__exit)
                                                   delete_test (utest_frame)
                                                   div (?div)
                                                   insert3_test (utest_frame)
                                                   insert4_test (utest_frame)
                                                   pad (?xprintflarge)
                                                   printf (?printf)
                                                   putchar (?putchar)
                                                   raw_data_test (utest_fbuf)
                                                   scale (?xprintflarge)
                                                   tot_len_test (utest_frame)

    -------------------------------------------------------------------------
  LIBRARY MODULE, NAME : ?DEALLOC_XSTACK8

  SEGMENTS IN THE MODULE
  ======================
RCODE
  Relative segment, address: CODE 00001061 - 0000107B (0x1b bytes), align: 0
  Segment part 0.
           ENTRY                   ADDRESS         REF BY
           =====                   =======         ======
           ?DEALLOC_XSTACK8        00001061        ReadTimer (NTMR)
                                                   Segment part 83 (?xprintflarge)
                                                   _GenldLarge (?xprintflarge)
                                                   _LdtobLarge (?xprintflarge)
                                                   _PrintfLarge (?xprintflarge)
                                                   __dwrite (?__dwrite)
                                                   __write (?__write)
                                                   delete_test (utest_frame)
                                                   div (?div)
                                                   fbuf_create (fbuf)
                                                   frame_create (frame)
                                                   insert3_test (utest_frame)
                                                   insert4_test (utest_frame)
                                                   main (utest)
                                                   pad (?xprintflarge)
                                                   printf (?printf)
                                                   putchar (?putchar)
                                                   raw_data_test (utest_fbuf)
                                                   tot_len_test (utest_frame)
                                                   umsg (utest_suite)
                                                   umsg_line (utest_suite)
                                                   umsg_summary (utest_suite)

    -------------------------------------------------------------------------
  LIBRARY MODULE, NAME : ?ADD_XSTACK_DISP8

  SEGMENTS IN THE MODULE
  ======================
RCODE
  Relative segment, address: CODE 0000107C - 00001096 (0x1b bytes), align: 0
  Segment part 1.
           ENTRY                   ADDRESS         REF BY
           =====                   =======         ======
           ?ADD_XSTACK_DISP0_8     0000107C        ?PUSH_XSTACK_I (?PUSH_XSTACK_I)

    -------------------------------------------------------------------------
  LIBRARY MODULE, NAME : ?XSTACK_DISP8

  SEGMENTS IN THE MODULE
  ======================
RCODE
  Relative segment, address: CODE 00001097 - 000010A0 (0xa bytes), align: 0
  Segment part 1.
           ENTRY                   ADDRESS         REF BY
           =====                   =======         ======
           ?XSTACK_DISP0_8         00001097        ReadTimer (NTMR)
                                                   _GenldLarge (?xprintflarge)
                                                   _LdtobLarge (?xprintflarge)
                                                   _LitobLarge (?xprintflarge)
                                                   _PrintfLarge (?xprintflarge)
                                                   _PutcharsLarge (?xprintflarge)
                                                   __dwrite (?__dwrite)
                                                   delete_test (utest_frame)
                                                   div (?div)
                                                   insert3_test (utest_frame)
                                                   insert4_test (utest_frame)
                                                   memcpy (?memcpy)
                                                   memory_compare (utest_suite)
                                                   pad (?xprintflarge)
                                                   scale (?xprintflarge)

    -------------------------------------------------------------------------
  LIBRARY MODULE, NAME : ?XSTACK_DISP8_RP

  SEGMENTS IN THE MODULE
  ======================
RCODE
  Relative segment, address: CODE 000010A1 - 000010A8 (0x8 bytes), align: 0
  Segment part 0.
           ENTRY                   ADDRESS         REF BY
           =====                   =======         ======
           ?XSTACK_DISP100_8       000010A1        _GenldLarge (?xprintflarge)
                                                   _LdtobLarge (?xprintflarge)
                                                   _PrintfLarge (?xprintflarge)
                                                   pad (?xprintflarge)
                                                   printf (?printf)
    -------------------------------------------------------------------------
RCODE
  Relative segment, address: CODE 000010A9 - 000010B0 (0x8 bytes), align: 0
  Segment part 1.
           ENTRY                   ADDRESS         REF BY
           =====                   =======         ======
           ?XSTACK_DISP101_8       000010A9        _PrintfLarge (?xprintflarge)
                                                   raw_data_test (utest_fbuf)
                                                   tot_len_test (utest_frame)
    -------------------------------------------------------------------------
RCODE
  Relative segment, address: CODE 000010B1 - 000010B8 (0x8 bytes), align: 0
  Segment part 2.
           ENTRY                   ADDRESS         REF BY
           =====                   =======         ======
           ?XSTACK_DISP102_8       000010B1        _PrintfLarge (?xprintflarge)
                                                   putchar (?putchar)

    -------------------------------------------------------------------------
  LIBRARY MODULE, NAME : ?CALL_IND

  SEGMENTS IN THE MODULE
  ======================
RCODE
  Relative segment, address: CODE 000010B9 - 000010BA (0x2 bytes), align: 0
  Segment part 0.
           ENTRY                   ADDRESS         REF BY
           =====                   =======         ======
           ?CALL_IND               000010B9        TimerCompareInterrupt (NTMR)
                                                   _PutcharLarge (?xprintflarge)

    -------------------------------------------------------------------------
  LIBRARY MODULE, NAME : ?BANKED_ENTER_XDATA

  SEGMENTS IN THE MODULE
  ======================
RCODE
  Relative segment, address: CODE 000010BB - 00001126 (0x6c bytes), align: 0
  Segment part 1.
           ENTRY                   ADDRESS         REF BY
           =====                   =======         ======
           ?BANKED_ENTER_XDATA     000010BB        NT_GetTime (NTMR)
                                                   _GenldLarge (?xprintflarge)
                                                   _LdtobLarge (?xprintflarge)
                                                   _LitobLarge (?xprintflarge)
                                                   _PrintfLarge (?xprintflarge)
                                                   _Prout (?xprout)
                                                   _PutcharLarge (?xprintflarge)
                                                   _PutcharsLarge (?xprintflarge)
                                                   __exit (?__exit)
                                                   __xdata_free (?xxmemxfree)
                                                   __xdata_malloc (?xxmemxmalloc)
                                                   delete_test (utest_fbuf)
                                                   delete_test (utest_frame)
                                                   div (?div)
                                                   fbuf_create (fbuf)
                                                   fbuf_delete (fbuf)
                                                   frame_create (frame)
                                                   frame_delete (frame)
                                                   frame_insert_head (frame)
                                                   free (fbuf)
                                                   insert1_test (utest_frame)
                                                   insert2_test (utest_frame)
                                                   insert3_test (utest_frame)
                                                   insert4_test (utest_frame)
                                                   malloc (fbuf)
                                                   memcpy (?memcpy)
                                                   memory_compare (utest_suite)
                                                   pad (?xprintflarge)
                                                   printf (?printf)
                                                   putchar (?putchar)
                                                   raw_data_test (utest_fbuf)
                                                   scale (?xprintflarge)
                                                   test_create (utest_fbuf)
                                                   test_logic (utest_fbuf)
                                                   tot_len_test (utest_frame)
                                                   umsg (utest_suite)
                                                   umsg_line (utest_suite)

    -------------------------------------------------------------------------
  LIBRARY MODULE, NAME : ?BANKED_LEAVE_XDATA

  SEGMENTS IN THE MODULE
  ======================
RCODE
  Relative segment, address: CODE 00001127 - 0000116C (0x46 bytes), align: 0
  Segment part 1.
           ENTRY                   ADDRESS         REF BY
           =====                   =======         ======
           ?BANKED_LEAVE_XDATA     00001127        NT_GetTime (NTMR)
                                                   Segment part 34 (?xprintflarge)
                                                   Segment part 84 (?xprintflarge)
                                                   _Prout (?xprout)
                                                   __xdata_free (?xxmemxfree)
                                                   __xdata_malloc (?xxmemxmalloc)
                                                   delete_test (utest_fbuf)
                                                   delete_test (utest_frame)
                                                   div (?div)
                                                   fbuf_create (fbuf)
                                                   fbuf_delete (fbuf)
                                                   frame_create (frame)
                                                   frame_delete (frame)
                                                   frame_insert_head (frame)
                                                   free (fbuf)
                                                   insert1_test (utest_frame)
                                                   insert2_test (utest_frame)
                                                   insert3_test (utest_frame)
                                                   insert4_test (utest_frame)
                                                   malloc (fbuf)
                                                   memcpy (?memcpy)
                                                   memory_compare (utest_suite)
                                                   printf (?printf)
                                                   putchar (?putchar)
                                                   raw_data_test (utest_fbuf)
                                                   test_create (utest_fbuf)
                                                   test_logic (utest_fbuf)
                                                   tot_len_test (utest_frame)
                                                   umsg (utest_suite)
                                                   umsg_line (utest_suite)

    -------------------------------------------------------------------------
  LIBRARY MODULE, NAME : ?INTERRUPT_ENTER_XSP

  SEGMENTS IN THE MODULE
  ======================
RCODE
  Relative segment, address: CODE 0000116D - 000011CB (0x5f bytes), align: 0
  Segment part 1.
           ENTRY                   ADDRESS         REF BY
           =====                   =======         ======
           ?INTERRUPT_ENTER_XSP    0000116D        TimerCompareInterrupt (NTMR)

    -------------------------------------------------------------------------
  LIBRARY MODULE, NAME : ?INTERRUPT_LEAVE_XSP

  SEGMENTS IN THE MODULE
  ======================
RCODE
  Relative segment, address: CODE 000011CC - 00001223 (0x58 bytes), align: 0
  Segment part 1.
           ENTRY                   ADDRESS         REF BY
           =====                   =======         ======
           ?INTERRUPT_LEAVE_XSP    000011CC        TimerCompareInterrupt (NTMR)

    -------------------------------------------------------------------------
  LIBRARY MODULE, NAME : ?PUSH_XSTACK_I

  SEGMENTS IN THE MODULE
  ======================
RCODE
  Relative segment, address: CODE 00001224 - 00001227 (0x4 bytes), align: 0
  Segment part 2.
           ENTRY                   ADDRESS         REF BY
           =====                   =======         ======
           ?PUSH_XSTACK_I_TWO      00001224        _GenldLarge (?xprintflarge)
                                                   _LdtobLarge (?xprintflarge)
                                                   _PrintfLarge (?xprintflarge)
                                                   fbuf_create (fbuf)
                                                   frame_create (frame)
                                                   main (utest)
                                                   pad (?xprintflarge)
                                                   printf (?printf)
                                                   putchar (?putchar)
                                                   raw_data_test (utest_fbuf)
                                                   umsg (utest_suite)
                                                   umsg_line (utest_suite)
    -------------------------------------------------------------------------
RCODE
  Relative segment, address: CODE 00001228 - 00001234 (0xd bytes), align: 0
  Segment part 4.             Intra module refs:   ?PUSH_XSTACK_I_TWO
           ENTRY                   ADDRESS         REF BY
           =====                   =======         ======
           ?PUSH_XSTACK_I          00001228 

    -------------------------------------------------------------------------
  LIBRARY MODULE, NAME : ?PUSH_XSTACK8_X

  SEGMENTS IN THE MODULE
  ======================
RCODE
  Relative segment, address: CODE 00001235 - 00001238 (0x4 bytes), align: 0
  Segment part 3.
           ENTRY                   ADDRESS         REF BY
           =====                   =======         ======
           ?PUSH_XSTACK8_X_TWO     00001235        _LdtobLarge (?xprintflarge)
                                                   _PrintfLarge (?xprintflarge)
                                                   __write (?__write)
                                                   umsg_summary (utest_suite)
    -------------------------------------------------------------------------
RCODE
  Relative segment, address: CODE 00001239 - 00001261 (0x29 bytes), align: 0
  Segment part 5.             Intra module refs:   ?PUSH_XSTACK8_X_TWO
           ENTRY                   ADDRESS         REF BY
           =====                   =======         ======
           ?PUSH_XSTACK8_X         00001239 

    -------------------------------------------------------------------------
  LIBRARY MODULE, NAME : ?UC_SWITCH_SPARSE

  SEGMENTS IN THE MODULE
  ======================
RCODE
  Relative segment, address: CODE 00001262 - 00001268 (0x7 bytes), align: 0
  Segment part 0.
           ENTRY                   ADDRESS         REF BY
           =====                   =======         ======
           ?UC_SWITCH_SPARSE       00001262        _PrintfLarge (?xprintflarge)
           ?UC_SS_CFI_INV_BEGINS   00001262 
    -------------------------------------------------------------------------
RCODE
  Relative segment, address: CODE 00001269 - 0000128A (0x22 bytes), align: 0
  Segment part 2.             Intra module refs:   Segment part 0
           ENTRY                   ADDRESS         REF BY
           =====                   =======         ======
           ?UC_SWITCH_SPARSE_LEAVE
                                   0000127F        Segment part 0 (?UC_JMP_IF_IN_RANGE)
                                                   Segment part 0 (?UC_JMP_IF_VALUE)
    -------------------------------------------------------------------------
RCODE
  Relative segment, address: CODE 0000128B - 0000128B (0x1 bytes), align: 0
  Segment part 4.             Intra module refs:   Segment part 0
           ENTRY                   ADDRESS         REF BY
           =====                   =======         ======
           ?UC_SS_CFI_INV_ENDS     0000128C 

    -------------------------------------------------------------------------
  LIBRARY MODULE, NAME : ?UC_JMP_IF_IN_RANGE

  SEGMENTS IN THE MODULE
  ======================
RCODE
  Relative segment, address: CODE 0000128C - 000012AA (0x1f bytes), align: 0
  Segment part 0.
           ENTRY                   ADDRESS         REF BY
           =====                   =======         ======
           ?UC_JMP_IF_IN_RANGE     0000128C        ?UC_SWITCH_SPARSE_LEAVE (?UC_SWITCH_SPARSE)
           ?UC_JR_CFI_INV_BEGINS   0000128C 
           ?UC_JR_CFI_INV_ENDS     000012AB 

    -------------------------------------------------------------------------
  LIBRARY MODULE, NAME : ?UC_JMP_IF_VALUE

  SEGMENTS IN THE MODULE
  ======================
RCODE
  Relative segment, address: CODE 000012AB - 000012C0 (0x16 bytes), align: 0
  Segment part 0.
           ENTRY                   ADDRESS         REF BY
           =====                   =======         ======
           ?UC_JMP_IF_VALUE        000012AB        ?UC_SWITCH_SPARSE_LEAVE (?UC_SWITCH_SPARSE)
           ?UC_JMP_IF_VALUE_CFI_INV_BEGINS
                                   000012AB 
           ?UC_JMP_IF_VALUE_CFI_INV_ENDS
                                   000012C1 

    -------------------------------------------------------------------------
  LIBRARY MODULE, NAME : ?memchr

  SEGMENTS IN THE MODULE
  ======================
<BANKED_CODE> 1 (was BANKED_CODE)
  Relative segment, address: CODE 00004245 - 0000427C (0x38 bytes), align: 0
  Segment part 8.             Intra module refs:   __iar_Memchr::?relay
           ENTRY                   ADDRESS         REF BY
           =====                   =======         ======
           __iar_Memchr            00004245 
               is indirectly called
               XSTACK = 00000002 ( 00000000 )
               ISTACK = 00000000 ( 00000002 )
    -------------------------------------------------------------------------
BANK_RELAYS
  Relative segment, address: CODE 000005A4 - 000005A9 (0x6 bytes), align: 0
  Segment part 9.
           ENTRY                   ADDRESS         REF BY
           =====                   =======         ======
           __iar_Memchr::?relay    000005A4        _PrintfLarge (?xprintflarge)

    -------------------------------------------------------------------------
  LIBRARY MODULE, NAME : ?memcpy

  SEGMENTS IN THE MODULE
  ======================
<BANKED_CODE> 1 (was BANKED_CODE)
  Relative segment, address: CODE 00004208 - 00004244 (0x3d bytes), align: 0
  Segment part 6.             Intra module refs:   memcpy::?relay
           ENTRY                   ADDRESS         REF BY
           =====                   =======         ======
           memcpy                  00004208 
               is indirectly called
               XSTACK = 00000002 ( 00000009 )
               ISTACK = 00000000 ( 00000001 )
    -------------------------------------------------------------------------
BANK_RELAYS
  Relative segment, address: CODE 000005AA - 000005AF (0x6 bytes), align: 0
  Segment part 7.
           ENTRY                   ADDRESS         REF BY
           =====                   =======         ======
           memcpy::?relay          000005AA        _GenldLarge (?xprintflarge)
                                                   _LdtobLarge (?xprintflarge)
                                                   fbuf_create (fbuf)

    -------------------------------------------------------------------------
  LIBRARY MODULE, NAME : ?memset

  SEGMENTS IN THE MODULE
  ======================
<BANKED_CODE> 1 (was BANKED_CODE)
  Relative segment, address: CODE 0000427D - 000042A8 (0x2c bytes), align: 0
  Segment part 6.             Intra module refs:   memset::?relay
           ENTRY                   ADDRESS         REF BY
           =====                   =======         ======
           memset                  0000427D 
               is indirectly called
               XSTACK = 00000002 ( 00000000 )
               ISTACK = 00000000 ( 00000002 )
    -------------------------------------------------------------------------
BANK_RELAYS
  Relative segment, address: CODE 000005B0 - 000005B5 (0x6 bytes), align: 0
  Segment part 7.
           ENTRY                   ADDRESS         REF BY
           =====                   =======         ======
           memset::?relay          000005B0        frame_create (frame)

    -------------------------------------------------------------------------
  LIBRARY MODULE, NAME : ?printf

  SEGMENTS IN THE MODULE
  ======================
<BANKED_CODE> 1 (was BANKED_CODE)
  Relative segment, address: CODE 00004181 - 000041CA (0x4a bytes), align: 0
  Segment part 6.             Intra module refs:   printf::?relay
           ENTRY                   ADDRESS         REF BY
           =====                   =======         ======
           printf                  00004181 
               calls direct
               XSTACK = 00000000 ( 00000010 )
    -------------------------------------------------------------------------
BANK_RELAYS
  Relative segment, address: CODE 000005B6 - 000005BB (0x6 bytes), align: 0
  Segment part 7.
           ENTRY                   ADDRESS         REF BY
           =====                   =======         ======
           printf::?relay          000005B6        fbuf_create (fbuf)
                                                   main (utest)
                                                   umsg (utest_suite)
                                                   umsg_line (utest_suite)
                                                   umsg_summary (utest_suite)

    -------------------------------------------------------------------------
  LIBRARY MODULE, NAME : ?putchar

  SEGMENTS IN THE MODULE
  ======================
<BANKED_CODE> 1 (was BANKED_CODE)
  Relative segment, address: CODE 000040D7 - 0000412F (0x59 bytes), align: 0
  Segment part 6.             Intra module refs:   putchar::?relay
           ENTRY                   ADDRESS         REF BY
           =====                   =======         ======
           putchar                 000040D7 
               calls direct
               XSTACK = 00000000 ( 0000000D )
               ISTACK = 00000000 ( 00000001 )
    -------------------------------------------------------------------------
BANK_RELAYS
  Relative segment, address: CODE 000005BC - 000005C1 (0x6 bytes), align: 0
  Segment part 7.
           ENTRY                   ADDRESS         REF BY
           =====                   =======         ======
           putchar::?relay         000005BC        _Prout (?xprout)

    -------------------------------------------------------------------------
  LIBRARY MODULE, NAME : ?strchr

  SEGMENTS IN THE MODULE
  ======================
<BANKED_CODE> 1 (was BANKED_CODE)
  Relative segment, address: CODE 000042FA - 0000431E (0x25 bytes), align: 0
  Segment part 8.             Intra module refs:   __iar_Strchr::?relay
           ENTRY                   ADDRESS         REF BY
           =====                   =======         ======
           __iar_Strchr            000042FA 
               is indirectly called
               ISTACK = 00000000 ( 00000002 )
    -------------------------------------------------------------------------
BANK_RELAYS
  Relative segment, address: CODE 000005C2 - 000005C7 (0x6 bytes), align: 0
  Segment part 9.
           ENTRY                   ADDRESS         REF BY
           =====                   =======         ======
           __iar_Strchr::?relay    000005C2        _PrintfLarge (?xprintflarge)

    -------------------------------------------------------------------------
  LIBRARY MODULE, NAME : ?strlen

  SEGMENTS IN THE MODULE
  ======================
<BANKED_CODE> 1 (was BANKED_CODE)
  Relative segment, address: CODE 00004343 - 00004360 (0x1e bytes), align: 0
  Segment part 6.             Intra module refs:   strlen::?relay
           ENTRY                   ADDRESS         REF BY
           =====                   =======         ======
           strlen                  00004343 
               is indirectly called
               ISTACK = 00000000 ( 00000002 )
    -------------------------------------------------------------------------
BANK_RELAYS
  Relative segment, address: CODE 000005C8 - 000005CD (0x6 bytes), align: 0
  Segment part 7.
           ENTRY                   ADDRESS         REF BY
           =====                   =======         ======
           strlen::?relay          000005C8        _PrintfLarge (?xprintflarge)

    -------------------------------------------------------------------------
  LIBRARY MODULE, NAME : ?xgetmemchunk

  SEGMENTS IN THE MODULE
  ======================
<BANKED_CODE> 1 (was BANKED_CODE)
  Relative segment, address: CODE 000041CB - 00004207 (0x3d bytes), align: 0
  Segment part 7.             Intra module refs:   __xdata_GetMemChunk::?relay
           ENTRY                   ADDRESS         REF BY
           =====                   =======         ======
           __xdata_GetMemChunk     000041CB 
               ISTACK = 00000000 ( 00000002 )
    -------------------------------------------------------------------------
XDATA_Z
  Relative segment, address: XDATA 00000F08 - 00000F09 (0x2 bytes), align: 0
  Segment part 6.             Intra module refs:   __xdata_GetMemChunk
    -------------------------------------------------------------------------
BANK_RELAYS
  Relative segment, address: CODE 000005CE - 000005D3 (0x6 bytes), align: 0
  Segment part 8.
           ENTRY                   ADDRESS         REF BY
           =====                   =======         ======
           __xdata_GetMemChunk::?relay
                                   000005CE        __xdata_malloc (?xxmemxmalloc)

    -------------------------------------------------------------------------
  LIBRARY MODULE, NAME : ?xprintflarge

  SEGMENTS IN THE MODULE
  ======================
<BANKED_CODE> 1 (was BANKED_CODE)
  Relative segment, address: CODE 000012FD - 00001B8D (0x891 bytes), align: 0
  Segment part 32.            Intra module refs:   _PrintfLarge::?relay
           ENTRY                   ADDRESS         REF BY
           =====                   =======         ======
           _PrintfLarge            000012FD 
               calls direct
               XSTACK = 00000004 ( 00000070 )
               ISTACK = 00000000 ( 00000002 )
    -------------------------------------------------------------------------
<BANKED_CODE> 1 (was BANKED_CODE)
  Relative segment, address: CODE 00001B8E - 00001B92 (0x5 bytes), align: 0
  Segment part 34.            Intra module refs:   _PrintfLarge
                                                   _PutcharLarge
    -------------------------------------------------------------------------
<BANKED_CODE> 1 (was BANKED_CODE)
  Relative segment, address: CODE 00001B93 - 00001B9D (0xb bytes), align: 0
  Segment part 35.            Intra module refs:   _PrintfLarge
    -------------------------------------------------------------------------
<BANKED_CODE> 1 (was BANKED_CODE)
  Relative segment, address: CODE 00001B9E - 00001BBB (0x1e bytes), align: 0
  Segment part 36.            Intra module refs:   _PrintfLarge
    -------------------------------------------------------------------------
<BANKED_CODE> 1 (was BANKED_CODE)
  Relative segment, address: CODE 00001BBC - 00001BC3 (0x8 bytes), align: 0
  Segment part 37.            Intra module refs:   _PrintfLarge
    -------------------------------------------------------------------------
<BANKED_CODE> 1 (was BANKED_CODE)
  Relative segment, address: CODE 00001BC4 - 00001BC9 (0x6 bytes), align: 0
  Segment part 38.            Intra module refs:   _PrintfLarge
    -------------------------------------------------------------------------
<BANKED_CODE> 1 (was BANKED_CODE)
  Relative segment, address: CODE 00001BCA - 00001BCF (0x6 bytes), align: 0
  Segment part 39.            Intra module refs:   _PrintfLarge
    -------------------------------------------------------------------------
<BANKED_CODE> 1 (was BANKED_CODE)
  Relative segment, address: CODE 00001BD0 - 00001BDB (0xc bytes), align: 0
  Segment part 40.            Intra module refs:   _PrintfLarge
    -------------------------------------------------------------------------
<BANKED_CODE> 1 (was BANKED_CODE)
  Relative segment, address: CODE 00001BDC - 00001BE1 (0x6 bytes), align: 0
  Segment part 41.            Intra module refs:   _PrintfLarge
    -------------------------------------------------------------------------
<BANKED_CODE> 1 (was BANKED_CODE)
  Relative segment, address: CODE 00001BE2 - 00001BE7 (0x6 bytes), align: 0
  Segment part 42.            Intra module refs:   _PrintfLarge
    -------------------------------------------------------------------------
<BANKED_CODE> 1 (was BANKED_CODE)
  Relative segment, address: CODE 00001BE8 - 00001BEF (0x8 bytes), align: 0
  Segment part 43.            Intra module refs:   Segment part 41
                                                   Segment part 42
                                                   Segment part 45
    -------------------------------------------------------------------------
<BANKED_CODE> 1 (was BANKED_CODE)
  Relative segment, address: CODE 00001BF0 - 00001BFA (0xb bytes), align: 0
  Segment part 44.            Intra module refs:   Segment part 38
                                                   Segment part 43
    -------------------------------------------------------------------------
<BANKED_CODE> 1 (was BANKED_CODE)
  Relative segment, address: CODE 00001BFB - 00001C00 (0x6 bytes), align: 0
  Segment part 45.            Intra module refs:   _PrintfLarge
    -------------------------------------------------------------------------
<BANKED_CODE> 1 (was BANKED_CODE)
  Relative segment, address: CODE 00001C01 - 00001C0B (0xb bytes), align: 0
  Segment part 46.            Intra module refs:   _PrintfLarge
    -------------------------------------------------------------------------
<BANKED_CODE> 1 (was BANKED_CODE)
  Relative segment, address: CODE 00001C0C - 00001C16 (0xb bytes), align: 0
  Segment part 47.            Intra module refs:   _PrintfLarge
    -------------------------------------------------------------------------
<BANKED_CODE> 1 (was BANKED_CODE)
  Relative segment, address: CODE 00001C17 - 00001C21 (0xb bytes), align: 0
  Segment part 48.            Intra module refs:   _PrintfLarge
    -------------------------------------------------------------------------
<BANKED_CODE> 1 (was BANKED_CODE)
  Relative segment, address: CODE 00001C22 - 00001C2D (0xc bytes), align: 0
  Segment part 49.            Intra module refs:   _PrintfLarge
    -------------------------------------------------------------------------
<BANKED_CODE> 1 (was BANKED_CODE)
  Relative segment, address: CODE 00001C2E - 00001C31 (0x4 bytes), align: 0
  Segment part 50.            Intra module refs:   _PrintfLarge
    -------------------------------------------------------------------------
<BANKED_CODE> 1 (was BANKED_CODE)
  Relative segment, address: CODE 00001C32 - 00001C3E (0xd bytes), align: 0
  Segment part 51.            Intra module refs:   Segment part 50
                                                   Segment part 54
    -------------------------------------------------------------------------
<BANKED_CODE> 1 (was BANKED_CODE)
  Relative segment, address: CODE 00001C3F - 00001C42 (0x4 bytes), align: 0
  Segment part 52.            Intra module refs:   Segment part 51
                                                   Segment part 55
    -------------------------------------------------------------------------
<BANKED_CODE> 1 (was BANKED_CODE)
  Relative segment, address: CODE 00001C43 - 00001C48 (0x6 bytes), align: 0
  Segment part 53.            Intra module refs:   Segment part 107
                                                   Segment part 48
                                                   Segment part 52
    -------------------------------------------------------------------------
<BANKED_CODE> 1 (was BANKED_CODE)
  Relative segment, address: CODE 00001C49 - 00001C51 (0x9 bytes), align: 0
  Segment part 54.            Intra module refs:   _PrintfLarge
    -------------------------------------------------------------------------
<BANKED_CODE> 1 (was BANKED_CODE)
  Relative segment, address: CODE 00001C52 - 00001C5D (0xc bytes), align: 0
  Segment part 55.            Intra module refs:   _PrintfLarge
    -------------------------------------------------------------------------
<BANKED_CODE> 1 (was BANKED_CODE)
  Relative segment, address: CODE 00001C5E - 00001C6F (0x12 bytes), align: 0
  Segment part 56.            Intra module refs:   Segment part 51
                                                   Segment part 55
    -------------------------------------------------------------------------
<BANKED_CODE> 1 (was BANKED_CODE)
  Relative segment, address: CODE 00001C70 - 00001C73 (0x4 bytes), align: 0
  Segment part 57.            Intra module refs:   _PrintfLarge
    -------------------------------------------------------------------------
<BANKED_CODE> 1 (was BANKED_CODE)
  Relative segment, address: CODE 00001C74 - 00001C81 (0xe bytes), align: 0
  Segment part 58.            Intra module refs:   Segment part 57
                                                   Segment part 59
    -------------------------------------------------------------------------
<BANKED_CODE> 1 (was BANKED_CODE)
  Relative segment, address: CODE 00001C82 - 00001C8A (0x9 bytes), align: 0
  Segment part 59.            Intra module refs:   _PrintfLarge
    -------------------------------------------------------------------------
<BANKED_CODE> 1 (was BANKED_CODE)
  Relative segment, address: CODE 00001C8B - 00001C9D (0x13 bytes), align: 0
  Segment part 60.            Intra module refs:   _PrintfLarge
    -------------------------------------------------------------------------
<BANKED_CODE> 1 (was BANKED_CODE)
  Relative segment, address: CODE 00001C9E - 00001CA6 (0x9 bytes), align: 0
  Segment part 61.            Intra module refs:   Segment part 58
                                                   Segment part 60
    -------------------------------------------------------------------------
<BANKED_CODE> 1 (was BANKED_CODE)
  Relative segment, address: CODE 00001CA7 - 00001D1C (0x76 bytes), align: 0
  Segment part 62.            Intra module refs:   pad::?relay
           LOCAL                   ADDRESS         
           =====                   =======         
           pad                     00001CA7 
               calls direct
               XSTACK = 0000006E ( 00000015 )
               ISTACK = 00000000 ( 00000001 )
    -------------------------------------------------------------------------
<BANKED_CODE> 1 (was BANKED_CODE)
  Relative segment, address: CODE 00001D1D - 0000202D (0x311 bytes), align: 0
  Segment part 64.            Intra module refs:   _LitobLarge::?relay
           LOCAL                   ADDRESS         
           =====                   =======         
           _LitobLarge             00001D1D 
               XSTACK = 0000006C ( 00000023 )
               ISTACK = 00000000 ( 00000002 )
    -------------------------------------------------------------------------
<BANKED_CODE> 1 (was BANKED_CODE)
  Relative segment, address: CODE 0000202E - 0000202E (0x1 bytes), align: 0
  Segment part 66.            Intra module refs:   _LitobLarge
    -------------------------------------------------------------------------
<BANKED_CODE> 1 (was BANKED_CODE)
  Relative segment, address: CODE 0000202F - 00002035 (0x7 bytes), align: 0
  Segment part 67.            Intra module refs:   Segment part 135
                                                   Segment part 66
    -------------------------------------------------------------------------
<BANKED_CODE> 1 (was BANKED_CODE)
  Relative segment, address: CODE 00002036 - 0000203B (0x6 bytes), align: 0
  Segment part 68.            Intra module refs:   _GenldLarge
    -------------------------------------------------------------------------
<BANKED_CODE> 1 (was BANKED_CODE)
  Relative segment, address: CODE 0000203C - 0000203F (0x4 bytes), align: 0
  Segment part 69.            Intra module refs:   Segment part 68
                                                   _GenldLarge
                                                   _LitobLarge
                                                   _PrintfLarge
    -------------------------------------------------------------------------
<BANKED_CODE> 1 (was BANKED_CODE)
  Relative segment, address: CODE 00002040 - 00002043 (0x4 bytes), align: 0
  Segment part 70.            Intra module refs:   Segment part 135
                                                   Segment part 139
                                                   Segment part 144
                                                   Segment part 39
                                                   Segment part 46
                                                   Segment part 69
    -------------------------------------------------------------------------
<BANKED_CODE> 1 (was BANKED_CODE)
  Relative segment, address: CODE 00002044 - 0000204D (0xa bytes), align: 0
  Segment part 71.            Intra module refs:   Segment part 130
                                                   Segment part 134
                                                   Segment part 137
                                                   Segment part 70
    -------------------------------------------------------------------------
<BANKED_CODE> 1 (was BANKED_CODE)
  Relative segment, address: CODE 0000204E - 00002055 (0x8 bytes), align: 0
  Segment part 72.            Intra module refs:   _LitobLarge
                                                   _PrintfLarge
    -------------------------------------------------------------------------
<BANKED_CODE> 1 (was BANKED_CODE)
  Relative segment, address: CODE 00002056 - 0000205A (0x5 bytes), align: 0
  Segment part 73.            Intra module refs:   _LitobLarge
                                                   _PrintfLarge
    -------------------------------------------------------------------------
<BANKED_CODE> 1 (was BANKED_CODE)
  Relative segment, address: CODE 0000205B - 0000206B (0x11 bytes), align: 0
  Segment part 74.            Intra module refs:   _LitobLarge
    -------------------------------------------------------------------------
<BANKED_CODE> 1 (was BANKED_CODE)
  Relative segment, address: CODE 0000206C - 00002070 (0x5 bytes), align: 0
  Segment part 75.            Intra module refs:   _LdtobLarge
                                                   _LitobLarge
                                                   _PrintfLarge
    -------------------------------------------------------------------------
<BANKED_CODE> 1 (was BANKED_CODE)
  Relative segment, address: CODE 00002071 - 00002074 (0x4 bytes), align: 0
  Segment part 76.            Intra module refs:   _LdtobLarge
                                                   _LitobLarge
    -------------------------------------------------------------------------
<BANKED_CODE> 1 (was BANKED_CODE)
  Relative segment, address: CODE 00002075 - 0000207D (0x9 bytes), align: 0
  Segment part 77.            Intra module refs:   Segment part 76
                                                   _LdtobLarge
    -------------------------------------------------------------------------
<BANKED_CODE> 1 (was BANKED_CODE)
  Relative segment, address: CODE 0000207E - 000020FE (0x81 bytes), align: 0
  Segment part 78.            Intra module refs:   scale::?relay
           LOCAL                   ADDRESS         
           =====                   =======         
           scale                   0000207E 
               XSTACK = 00000052 ( 00000014 )
    -------------------------------------------------------------------------
<BANKED_CODE> 1 (was BANKED_CODE)
  Relative segment, address: CODE 000020FF - 00002108 (0xa bytes), align: 0
  Segment part 80.            Intra module refs:   _PrintfLarge
                                                   scale
    -------------------------------------------------------------------------
<BANKED_CODE> 1 (was BANKED_CODE)
  Relative segment, address: CODE 00002109 - 000025EE (0x4e6 bytes), align: 0
  Segment part 81.            Intra module refs:   _LdtobLarge::?relay
           LOCAL                   ADDRESS         
           =====                   =======         
           _LdtobLarge             00002109 
               calls direct
               XSTACK = 0000006C ( 00000054 )
               ISTACK = 00000000 ( 00000001 )
    -------------------------------------------------------------------------
<BANKED_CODE> 1 (was BANKED_CODE)
  Relative segment, address: CODE 000025EF - 000025F1 (0x3 bytes), align: 0
  Segment part 83.            Intra module refs:   _GenldLarge
                                                   _LdtobLarge
                                                   _LitobLarge
                                                   pad
                                                   scale
    -------------------------------------------------------------------------
<BANKED_CODE> 1 (was BANKED_CODE)
  Relative segment, address: CODE 000025F2 - 000025F6 (0x5 bytes), align: 0
  Segment part 84.            Intra module refs:   Segment part 83
                                                   _PutcharsLarge
    -------------------------------------------------------------------------
<BANKED_CODE> 1 (was BANKED_CODE)
  Relative segment, address: CODE 000025F7 - 000025FF (0x9 bytes), align: 0
  Segment part 85.            Intra module refs:   _LdtobLarge
    -------------------------------------------------------------------------
<BANKED_CODE> 1 (was BANKED_CODE)
  Relative segment, address: CODE 00002600 - 00002601 (0x2 bytes), align: 0
  Segment part 86.            Intra module refs:   _GenldLarge
                                                   _LdtobLarge
    -------------------------------------------------------------------------
<BANKED_CODE> 1 (was BANKED_CODE)
  Relative segment, address: CODE 00002602 - 00002606 (0x5 bytes), align: 0
  Segment part 87.            Intra module refs:   Segment part 86
                                                   _GenldLarge
    -------------------------------------------------------------------------
<BANKED_CODE> 1 (was BANKED_CODE)
  Relative segment, address: CODE 00002607 - 00002608 (0x2 bytes), align: 0
  Segment part 88.            Intra module refs:   Segment part 87
                                                   _GenldLarge
                                                   _LdtobLarge
    -------------------------------------------------------------------------
<BANKED_CODE> 1 (was BANKED_CODE)
  Relative segment, address: CODE 00002609 - 00002610 (0x8 bytes), align: 0
  Segment part 89.            Intra module refs:   Segment part 88
                                                   _GenldLarge
                                                   _LdtobLarge
                                                   _LitobLarge
                                                   _PrintfLarge
                                                   _PutcharsLarge
    -------------------------------------------------------------------------
<BANKED_CODE> 1 (was BANKED_CODE)
  Relative segment, address: CODE 00002611 - 00002615 (0x5 bytes), align: 0
  Segment part 90.            Intra module refs:   _LdtobLarge
                                                   _LitobLarge
    -------------------------------------------------------------------------
<BANKED_CODE> 1 (was BANKED_CODE)
  Relative segment, address: CODE 00002616 - 00002624 (0xf bytes), align: 0
  Segment part 91.            Intra module refs:   _LdtobLarge
    -------------------------------------------------------------------------
<BANKED_CODE> 1 (was BANKED_CODE)
  Relative segment, address: CODE 00002625 - 0000262D (0x9 bytes), align: 0
  Segment part 92.            Intra module refs:   _LdtobLarge
                                                   _LitobLarge
    -------------------------------------------------------------------------
<BANKED_CODE> 1 (was BANKED_CODE)
  Relative segment, address: CODE 0000262E - 00002631 (0x4 bytes), align: 0
  Segment part 93.            Intra module refs:   _LdtobLarge
                                                   _PrintfLarge
    -------------------------------------------------------------------------
<BANKED_CODE> 1 (was BANKED_CODE)
  Relative segment, address: CODE 00002632 - 00002633 (0x2 bytes), align: 0
  Segment part 94.            Intra module refs:   _GenldLarge
                                                   _LdtobLarge
    -------------------------------------------------------------------------
<BANKED_CODE> 1 (was BANKED_CODE)
  Relative segment, address: CODE 00002634 - 00002638 (0x5 bytes), align: 0
  Segment part 95.            Intra module refs:   Segment part 94
                                                   _LdtobLarge
                                                   _LitobLarge
                                                   _PrintfLarge
                                                   _PutcharLarge
                                                   scale
    -------------------------------------------------------------------------
<BANKED_CODE> 1 (was BANKED_CODE)
  Relative segment, address: CODE 00002639 - 0000263D (0x5 bytes), align: 0
  Segment part 96.            Intra module refs:   Segment part 124
                                                   Segment part 37
                                                   Segment part 95
                                                   _GenldLarge
                                                   _LitobLarge
    -------------------------------------------------------------------------
<BANKED_CODE> 1 (was BANKED_CODE)
  Relative segment, address: CODE 0000263E - 00002647 (0xa bytes), align: 0
  Segment part 97.            Intra module refs:   _LdtobLarge
                                                   _LitobLarge
    -------------------------------------------------------------------------
<BANKED_CODE> 1 (was BANKED_CODE)
  Relative segment, address: CODE 00002648 - 0000264D (0x6 bytes), align: 0
  Segment part 98.            Intra module refs:   _GenldLarge
                                                   _LdtobLarge
                                                   _LitobLarge
    -------------------------------------------------------------------------
<BANKED_CODE> 1 (was BANKED_CODE)
  Relative segment, address: CODE 0000264E - 00002651 (0x4 bytes), align: 0
  Segment part 99.            Intra module refs:   _GenldLarge
                                                   _LdtobLarge
                                                   _LitobLarge
    -------------------------------------------------------------------------
<BANKED_CODE> 1 (was BANKED_CODE)
  Relative segment, address: CODE 00002652 - 00002652 (0x1 bytes), align: 0
  Segment part 100.           Intra module refs:   Segment part 148
                                                   Segment part 99
    -------------------------------------------------------------------------
<BANKED_CODE> 1 (was BANKED_CODE)
  Relative segment, address: CODE 00002653 - 0000265A (0x8 bytes), align: 0
  Segment part 101.           Intra module refs:   Segment part 100
                                                   Segment part 46
                                                   _LdtobLarge
    -------------------------------------------------------------------------
<BANKED_CODE> 1 (was BANKED_CODE)
  Relative segment, address: CODE 0000265B - 0000265B (0x1 bytes), align: 0
  Segment part 102.           Intra module refs:   _LdtobLarge
                                                   _PrintfLarge
    -------------------------------------------------------------------------
<BANKED_CODE> 1 (was BANKED_CODE)
  Relative segment, address: CODE 0000265C - 0000265D (0x2 bytes), align: 0
  Segment part 103.           Intra module refs:   Segment part 102
                                                   _LdtobLarge
    -------------------------------------------------------------------------
<BANKED_CODE> 1 (was BANKED_CODE)
  Relative segment, address: CODE 0000265E - 0000265E (0x1 bytes), align: 0
  Segment part 104.           Intra module refs:   Segment part 103
                                                   _GenldLarge
                                                   _LdtobLarge
                                                   _LitobLarge
    -------------------------------------------------------------------------
<BANKED_CODE> 1 (was BANKED_CODE)
  Relative segment, address: CODE 0000265F - 00002664 (0x6 bytes), align: 0
  Segment part 105.           Intra module refs:   Segment part 104
                                                   _PrintfLarge
    -------------------------------------------------------------------------
<BANKED_CODE> 1 (was BANKED_CODE)
  Relative segment, address: CODE 00002665 - 0000266A (0x6 bytes), align: 0
  Segment part 106.           Intra module refs:   _GenldLarge
                                                   _LitobLarge
    -------------------------------------------------------------------------
<BANKED_CODE> 1 (was BANKED_CODE)
  Relative segment, address: CODE 0000266B - 0000266E (0x4 bytes), align: 0
  Segment part 107.           Intra module refs:   Segment part 106
                                                   _LdtobLarge
                                                   _LitobLarge
                                                   _PrintfLarge
    -------------------------------------------------------------------------
<BANKED_CODE> 1 (was BANKED_CODE)
  Relative segment, address: CODE 0000266F - 00002679 (0xb bytes), align: 0
  Segment part 108.           Intra module refs:   _LdtobLarge
    -------------------------------------------------------------------------
<BANKED_CODE> 1 (was BANKED_CODE)
  Relative segment, address: CODE 0000267A - 0000267F (0x6 bytes), align: 0
  Segment part 109.           Intra module refs:   _GenldLarge
                                                   _LdtobLarge
                                                   _LitobLarge
                                                   _PrintfLarge
    -------------------------------------------------------------------------
<BANKED_CODE> 1 (was BANKED_CODE)
  Relative segment, address: CODE 00002680 - 0000268D (0xe bytes), align: 0
  Segment part 110.           Intra module refs:   _LdtobLarge
    -------------------------------------------------------------------------
<BANKED_CODE> 1 (was BANKED_CODE)
  Relative segment, address: CODE 0000268E - 0000268E (0x1 bytes), align: 0
  Segment part 111.           Intra module refs:   Segment part 110
                                                   _LdtobLarge
    -------------------------------------------------------------------------
<BANKED_CODE> 1 (was BANKED_CODE)
  Relative segment, address: CODE 0000268F - 00002694 (0x6 bytes), align: 0
  Segment part 112.           Intra module refs:   Segment part 111
                                                   _LdtobLarge
    -------------------------------------------------------------------------
<BANKED_CODE> 1 (was BANKED_CODE)
  Relative segment, address: CODE 00002695 - 0000269A (0x6 bytes), align: 0
  Segment part 113.           Intra module refs:   Segment part 112
                                                   _GenldLarge
                                                   _LdtobLarge
                                                   _LitobLarge
                                                   _PrintfLarge
                                                   _PutcharLarge
    -------------------------------------------------------------------------
<BANKED_CODE> 1 (was BANKED_CODE)
  Relative segment, address: CODE 0000269B - 00002B8C (0x4f2 bytes), align: 0
  Segment part 114.           Intra module refs:   _GenldLarge::?relay
           LOCAL                   ADDRESS         
           =====                   =======         
           _GenldLarge             0000269B 
               calls direct
               XSTACK = 00000054 ( 0000002F )
               ISTACK = 00000000 ( 00000001 )
    -------------------------------------------------------------------------
<BANKED_CODE> 1 (was BANKED_CODE)
  Relative segment, address: CODE 00002B8D - 00002B92 (0x6 bytes), align: 0
  Segment part 116.           Intra module refs:   Segment part 74
                                                   _GenldLarge
                                                   _PutcharsLarge
                                                   pad
    -------------------------------------------------------------------------
<BANKED_CODE> 1 (was BANKED_CODE)
  Relative segment, address: CODE 00002B93 - 00002B9F (0xd bytes), align: 0
  Segment part 117.           Intra module refs:   _GenldLarge
    -------------------------------------------------------------------------
<BANKED_CODE> 1 (was BANKED_CODE)
  Relative segment, address: CODE 00002BA0 - 00002BAE (0xf bytes), align: 0
  Segment part 118.           Intra module refs:   _GenldLarge
    -------------------------------------------------------------------------
<BANKED_CODE> 1 (was BANKED_CODE)
  Relative segment, address: CODE 00002BAF - 00002BB4 (0x6 bytes), align: 0
  Segment part 119.           Intra module refs:   _GenldLarge
                                                   _LdtobLarge
    -------------------------------------------------------------------------
<BANKED_CODE> 1 (was BANKED_CODE)
  Relative segment, address: CODE 00002BB5 - 00002BBF (0xb bytes), align: 0
  Segment part 120.           Intra module refs:   _GenldLarge
    -------------------------------------------------------------------------
<BANKED_CODE> 1 (was BANKED_CODE)
  Relative segment, address: CODE 00002BC0 - 00002BC7 (0x8 bytes), align: 0
  Segment part 121.           Intra module refs:   Segment part 120
                                                   _LdtobLarge
                                                   pad
    -------------------------------------------------------------------------
<BANKED_CODE> 1 (was BANKED_CODE)
  Relative segment, address: CODE 00002BC8 - 00002BCB (0x4 bytes), align: 0
  Segment part 122.           Intra module refs:   _GenldLarge
                                                   _PrintfLarge
    -------------------------------------------------------------------------
<BANKED_CODE> 1 (was BANKED_CODE)
  Relative segment, address: CODE 00002BCC - 00002BCF (0x4 bytes), align: 0
  Segment part 123.           Intra module refs:   Segment part 122
                                                   Segment part 131
    -------------------------------------------------------------------------
<BANKED_CODE> 1 (was BANKED_CODE)
  Relative segment, address: CODE 00002BD0 - 00002BD7 (0x8 bytes), align: 0
  Segment part 124.           Intra module refs:   Segment part 123
                                                   Segment part 127
    -------------------------------------------------------------------------
<BANKED_CODE> 1 (was BANKED_CODE)
  Relative segment, address: CODE 00002BD8 - 00002BDD (0x6 bytes), align: 0
  Segment part 125.           Intra module refs:   _GenldLarge
                                                   _PrintfLarge
                                                   _PutcharsLarge
    -------------------------------------------------------------------------
<BANKED_CODE> 1 (was BANKED_CODE)
  Relative segment, address: CODE 00002BDE - 00002BE1 (0x4 bytes), align: 0
  Segment part 126.           Intra module refs:   _GenldLarge
                                                   _PrintfLarge
    -------------------------------------------------------------------------
<BANKED_CODE> 1 (was BANKED_CODE)
  Relative segment, address: CODE 00002BE2 - 00002BE6 (0x5 bytes), align: 0
  Segment part 127.           Intra module refs:   Segment part 126
                                                   Segment part 128
                                                   Segment part 138
                                                   Segment part 47
                                                   Segment part 72
    -------------------------------------------------------------------------
<BANKED_CODE> 1 (was BANKED_CODE)
  Relative segment, address: CODE 00002BE7 - 00002BEF (0x9 bytes), align: 0
  Segment part 128.           Intra module refs:   _GenldLarge
                                                   _LdtobLarge
    -------------------------------------------------------------------------
<BANKED_CODE> 1 (was BANKED_CODE)
  Relative segment, address: CODE 00002BF0 - 00002BF3 (0x4 bytes), align: 0
  Segment part 129.           Intra module refs:   _GenldLarge
    -------------------------------------------------------------------------
<BANKED_CODE> 1 (was BANKED_CODE)
  Relative segment, address: CODE 00002BF4 - 00002C00 (0xd bytes), align: 0
  Segment part 130.           Intra module refs:   Segment part 129
                                                   Segment part 147
    -------------------------------------------------------------------------
<BANKED_CODE> 1 (was BANKED_CODE)
  Relative segment, address: CODE 00002C01 - 00002C08 (0x8 bytes), align: 0
  Segment part 131.           Intra module refs:   _GenldLarge
                                                   _PrintfLarge
    -------------------------------------------------------------------------
<BANKED_CODE> 1 (was BANKED_CODE)
  Relative segment, address: CODE 00002C09 - 00002C0E (0x6 bytes), align: 0
  Segment part 132.           Intra module refs:   _GenldLarge
    -------------------------------------------------------------------------
<BANKED_CODE> 1 (was BANKED_CODE)
  Relative segment, address: CODE 00002C0F - 00002C1A (0xc bytes), align: 0
  Segment part 133.           Intra module refs:   _GenldLarge
    -------------------------------------------------------------------------
<BANKED_CODE> 1 (was BANKED_CODE)
  Relative segment, address: CODE 00002C1B - 00002C22 (0x8 bytes), align: 0
  Segment part 134.           Intra module refs:   Segment part 133
                                                   Segment part 73
    -------------------------------------------------------------------------
<BANKED_CODE> 1 (was BANKED_CODE)
  Relative segment, address: CODE 00002C23 - 00002C29 (0x7 bytes), align: 0
  Segment part 135.           Intra module refs:   _GenldLarge
    -------------------------------------------------------------------------
<BANKED_CODE> 1 (was BANKED_CODE)
  Relative segment, address: CODE 00002C2A - 00002C35 (0xc bytes), align: 0
  Segment part 136.           Intra module refs:   _GenldLarge
    -------------------------------------------------------------------------
<BANKED_CODE> 1 (was BANKED_CODE)
  Relative segment, address: CODE 00002C36 - 00002C3D (0x8 bytes), align: 0
  Segment part 137.           Intra module refs:   Segment part 132
                                                   Segment part 136
    -------------------------------------------------------------------------
<BANKED_CODE> 1 (was BANKED_CODE)
  Relative segment, address: CODE 00002C3E - 00002C47 (0xa bytes), align: 0
  Segment part 138.           Intra module refs:   _GenldLarge
    -------------------------------------------------------------------------
<BANKED_CODE> 1 (was BANKED_CODE)
  Relative segment, address: CODE 00002C48 - 00002C4D (0x6 bytes), align: 0
  Segment part 139.           Intra module refs:   _GenldLarge
                                                   _LitobLarge
    -------------------------------------------------------------------------
<BANKED_CODE> 1 (was BANKED_CODE)
  Relative segment, address: CODE 00002C4E - 00002C52 (0x5 bytes), align: 0
  Segment part 140.           Intra module refs:   _GenldLarge
                                                   _PrintfLarge
                                                   _PutcharLarge
    -------------------------------------------------------------------------
<BANKED_CODE> 1 (was BANKED_CODE)
  Relative segment, address: CODE 00002C53 - 00002C5A (0x8 bytes), align: 0
  Segment part 141.           Intra module refs:   _GenldLarge
    -------------------------------------------------------------------------
<BANKED_CODE> 1 (was BANKED_CODE)
  Relative segment, address: CODE 00002C5B - 00002C63 (0x9 bytes), align: 0
  Segment part 142.           Intra module refs:   Segment part 141
                                                   _GenldLarge
    -------------------------------------------------------------------------
<BANKED_CODE> 1 (was BANKED_CODE)
  Relative segment, address: CODE 00002C64 - 00002C6B (0x8 bytes), align: 0
  Segment part 143.           Intra module refs:   _GenldLarge
    -------------------------------------------------------------------------
<BANKED_CODE> 1 (was BANKED_CODE)
  Relative segment, address: CODE 00002C6C - 00002C7D (0x12 bytes), align: 0
  Segment part 144.           Intra module refs:   _GenldLarge
    -------------------------------------------------------------------------
<BANKED_CODE> 1 (was BANKED_CODE)
  Relative segment, address: CODE 00002C7E - 00002C86 (0x9 bytes), align: 0
  Segment part 145.           Intra module refs:   Segment part 144
                                                   _GenldLarge
    -------------------------------------------------------------------------
<BANKED_CODE> 1 (was BANKED_CODE)
  Relative segment, address: CODE 00002C87 - 00002C92 (0xc bytes), align: 0
  Segment part 146.           Intra module refs:   Segment part 144
                                                   _GenldLarge
    -------------------------------------------------------------------------
<BANKED_CODE> 1 (was BANKED_CODE)
  Relative segment, address: CODE 00002C93 - 00002C9D (0xb bytes), align: 0
  Segment part 147.           Intra module refs:   _GenldLarge
    -------------------------------------------------------------------------
<BANKED_CODE> 1 (was BANKED_CODE)
  Relative segment, address: CODE 00002C9E - 00002CA6 (0x9 bytes), align: 0
  Segment part 148.           Intra module refs:   Segment part 147
                                                   Segment part 151
    -------------------------------------------------------------------------
<BANKED_CODE> 1 (was BANKED_CODE)
  Relative segment, address: CODE 00002CA7 - 00002CAF (0x9 bytes), align: 0
  Segment part 149.           Intra module refs:   Segment part 140
                                                   Segment part 148
                                                   Segment part 93
    -------------------------------------------------------------------------
<BANKED_CODE> 1 (was BANKED_CODE)
  Relative segment, address: CODE 00002CB0 - 00002CB0 (0x1 bytes), align: 0
  Segment part 150.           Intra module refs:   _GenldLarge
    -------------------------------------------------------------------------
<BANKED_CODE> 1 (was BANKED_CODE)
  Relative segment, address: CODE 00002CB1 - 00002CB3 (0x3 bytes), align: 0
  Segment part 151.           Intra module refs:   Segment part 150
                                                   _GenldLarge
    -------------------------------------------------------------------------
<BANKED_CODE> 1 (was BANKED_CODE)
  Relative segment, address: CODE 00002CB4 - 00002CC3 (0x10 bytes), align: 0
  Segment part 152.           Intra module refs:   Segment part 151
                                                   _GenldLarge
    -------------------------------------------------------------------------
<BANKED_CODE> 1 (was BANKED_CODE)
  Relative segment, address: CODE 00002CC4 - 00002D16 (0x53 bytes), align: 0
  Segment part 153.           Intra module refs:   _PutcharLarge::?relay
           LOCAL                   ADDRESS         
           =====                   =======         
           _PutcharLarge           00002CC4 
               XSTACK = 0000006C ( 0000000E )
    -------------------------------------------------------------------------
<BANKED_CODE> 1 (was BANKED_CODE)
  Relative segment, address: CODE 00002D17 - 00002D68 (0x52 bytes), align: 0
  Segment part 155.           Intra module refs:   _PutcharsLarge::?relay
           LOCAL                   ADDRESS         
           =====                   =======         
           _PutcharsLarge          00002D17 
               calls direct
               XSTACK = 00000070 ( 00000010 )
    -------------------------------------------------------------------------
<BANKED_CODE> 1 (was BANKED_CODE)
  Relative segment, address: CODE 00002D69 - 00002D73 (0xb bytes), align: 0
  Segment part 157.           Intra module refs:   Segment part 119
                                                   _PutcharsLarge
    -------------------------------------------------------------------------
XDATA_ID
  Relative segment, address: CODE 00000483 - 00000489 (0x7 bytes), align: 0
  Segment part 7.             Intra module refs:   Segment part 6
    -------------------------------------------------------------------------
XDATA_ID
  Relative segment, address: CODE 0000048A - 0000048D (0x4 bytes), align: 0
  Segment part 9.             Intra module refs:   Segment part 8
    -------------------------------------------------------------------------
XDATA_ID
  Relative segment, address: CODE 0000048E - 00000491 (0x4 bytes), align: 0
  Segment part 11.            Intra module refs:   Segment part 10
    -------------------------------------------------------------------------
XDATA_ID
  Relative segment, address: CODE 00000492 - 00000495 (0x4 bytes), align: 0
  Segment part 13.            Intra module refs:   Segment part 12
    -------------------------------------------------------------------------
XDATA_ID
  Relative segment, address: CODE 00000496 - 00000499 (0x4 bytes), align: 0
  Segment part 15.            Intra module refs:   Segment part 14
    -------------------------------------------------------------------------
XDATA_ID
  Relative segment, address: CODE 0000049A - 0000049B (0x2 bytes), align: 0
  Segment part 17.            Intra module refs:   Segment part 16
    -------------------------------------------------------------------------
XDATA_ID
  Relative segment, address: CODE 0000049C - 0000049F (0x4 bytes), align: 0
  Segment part 19.            Intra module refs:   __Constant_ffff
    -------------------------------------------------------------------------
XDATA_ID
  Relative segment, address: CODE 000004A0 - 000004A3 (0x4 bytes), align: 0
  Segment part 21.            Intra module refs:   __Constant_0
    -------------------------------------------------------------------------
XDATA_ID
  Relative segment, address: CODE 000004A4 - 000004A7 (0x4 bytes), align: 0
  Segment part 23.            Intra module refs:   __Constant_7597
    -------------------------------------------------------------------------
XDATA_ID
  Relative segment, address: CODE 000004A8 - 000004AB (0x4 bytes), align: 0
  Segment part 25.            Intra module refs:   __Constant_186a0
    -------------------------------------------------------------------------
XDATA_ID
  Relative segment, address: CODE 000004AC - 000004AF (0x4 bytes), align: 0
  Segment part 27.            Intra module refs:   __Constant_3f800000
    -------------------------------------------------------------------------
XDATA_ID
  Relative segment, address: CODE 000004B0 - 000004B3 (0x4 bytes), align: 0
  Segment part 31.            Intra module refs:   __Constant_4cbebc20
    -------------------------------------------------------------------------
BANK_RELAYS
  Relative segment, address: CODE 000005D4 - 000005D9 (0x6 bytes), align: 0
  Segment part 33.
           ENTRY                   ADDRESS         REF BY
           =====                   =======         ======
           _PrintfLarge::?relay    000005D4        printf (?printf)
    -------------------------------------------------------------------------
BANK_RELAYS
  Relative segment, address: CODE 000005DA - 000005DF (0x6 bytes), align: 0
  Segment part 63.            Intra module refs:   _PrintfLarge
           LOCAL                   ADDRESS         
           =====                   =======         
           pad::?relay             000005DA 
    -------------------------------------------------------------------------
BANK_RELAYS
  Relative segment, address: CODE 000005E0 - 000005E5 (0x6 bytes), align: 0
  Segment part 65.            Intra module refs:   _PrintfLarge
           LOCAL                   ADDRESS         
           =====                   =======         
           _LitobLarge::?relay     000005E0 
    -------------------------------------------------------------------------
BANK_RELAYS
  Relative segment, address: CODE 000005E6 - 000005EB (0x6 bytes), align: 0
  Segment part 79.            Intra module refs:   _LdtobLarge
           LOCAL                   ADDRESS         
           =====                   =======         
           scale::?relay           000005E6 
    -------------------------------------------------------------------------
BANK_RELAYS
  Relative segment, address: CODE 000005EC - 000005F1 (0x6 bytes), align: 0
  Segment part 82.            Intra module refs:   _PrintfLarge
           LOCAL                   ADDRESS         
           =====                   =======         
           _LdtobLarge::?relay     000005EC 
    -------------------------------------------------------------------------
BANK_RELAYS
  Relative segment, address: CODE 000005F2 - 000005F7 (0x6 bytes), align: 0
  Segment part 115.           Intra module refs:   _LdtobLarge
           LOCAL                   ADDRESS         
           =====                   =======         
           _GenldLarge::?relay     000005F2 
    -------------------------------------------------------------------------
BANK_RELAYS
  Relative segment, address: CODE 000005F8 - 000005FD (0x6 bytes), align: 0
  Segment part 154.           Intra module refs:   _PrintfLarge
                                                   _PutcharsLarge
           LOCAL                   ADDRESS         
           =====                   =======         
           _PutcharLarge::?relay   000005F8 
    -------------------------------------------------------------------------
BANK_RELAYS
  Relative segment, address: CODE 000005FE - 00000603 (0x6 bytes), align: 0
  Segment part 156.           Intra module refs:   _PrintfLarge
                                                   pad
           LOCAL                   ADDRESS         
           =====                   =======         
           _PutcharsLarge::?relay
                                   000005FE 
    -------------------------------------------------------------------------
XDATA_I
  Relative segment, address: XDATA 000012DC - 000012E2 (0x7 bytes), align: 0
  Segment part 6.             Intra module refs:   _PrintfLarge
    -------------------------------------------------------------------------
XDATA_I
  Relative segment, address: XDATA 000012E3 - 000012E6 (0x4 bytes), align: 0
  Segment part 8.             Intra module refs:   _LdtobLarge
    -------------------------------------------------------------------------
XDATA_I
  Relative segment, address: XDATA 000012E7 - 000012EA (0x4 bytes), align: 0
  Segment part 10.            Intra module refs:   _LdtobLarge
    -------------------------------------------------------------------------
XDATA_I
  Relative segment, address: XDATA 000012EB - 000012EE (0x4 bytes), align: 0
  Segment part 12.            Intra module refs:   _LdtobLarge
    -------------------------------------------------------------------------
XDATA_I
  Relative segment, address: XDATA 000012EF - 000012F2 (0x4 bytes), align: 0
  Segment part 14.            Intra module refs:   _LdtobLarge
    -------------------------------------------------------------------------
XDATA_I
  Relative segment, address: XDATA 000012F3 - 000012F4 (0x2 bytes), align: 0
  Segment part 16.            Intra module refs:   _GenldLarge
    -------------------------------------------------------------------------
XDATA_I
  Relative segment, address: XDATA 000012F5 - 000012F8 (0x4 bytes), align: 0
  Segment part 18.            Intra module refs:   _PrintfLarge
           ENTRY                   ADDRESS         REF BY
           =====                   =======         ======
           __Constant_ffff         000012F5 
    -------------------------------------------------------------------------
XDATA_I
  Relative segment, address: XDATA 000012F9 - 000012FC (0x4 bytes), align: 0
  Segment part 20.            Intra module refs:   _LdtobLarge
                                                   _LitobLarge
                                                   _PrintfLarge
           ENTRY                   ADDRESS         REF BY
           =====                   =======         ======
           __Constant_0            000012F9 
    -------------------------------------------------------------------------
XDATA_I
  Relative segment, address: XDATA 000012FD - 00001300 (0x4 bytes), align: 0
  Segment part 22.            Intra module refs:   _LdtobLarge
           ENTRY                   ADDRESS         REF BY
           =====                   =======         ======
           __Constant_7597         000012FD 
    -------------------------------------------------------------------------
XDATA_I
  Relative segment, address: XDATA 00001301 - 00001304 (0x4 bytes), align: 0
  Segment part 24.            Intra module refs:   _LdtobLarge
           ENTRY                   ADDRESS         REF BY
           =====                   =======         ======
           __Constant_186a0        00001301 
    -------------------------------------------------------------------------
XDATA_I
  Relative segment, address: XDATA 00001305 - 00001308 (0x4 bytes), align: 0
  Segment part 26.            Intra module refs:   _LdtobLarge
           ENTRY                   ADDRESS         REF BY
           =====                   =======         ======
           __Constant_3f800000     00001305 
    -------------------------------------------------------------------------
XDATA_I
  Relative segment, address: XDATA 00001309 - 0000130C (0x4 bytes), align: 0
  Segment part 30.            Intra module refs:   _LdtobLarge
           ENTRY                   ADDRESS         REF BY
           =====                   =======         ======
           __Constant_4cbebc20     00001309 

    -------------------------------------------------------------------------
  LIBRARY MODULE, NAME : ?xprout

  SEGMENTS IN THE MODULE
  ======================
<BANKED_CODE> 1 (was BANKED_CODE)
  Relative segment, address: CODE 000042A9 - 000042D3 (0x2b bytes), align: 0
  Segment part 6.             Intra module refs:   _Prout::?relay
           ENTRY                   ADDRESS         REF BY
           =====                   =======         ======
           _Prout                  000042A9 
               calls direct
               XSTACK = 00000000 ( 0000000E )
    -------------------------------------------------------------------------
BANK_RELAYS
  Relative segment, address: CODE 00000604 - 00000609 (0x6 bytes), align: 0
  Segment part 7.
           ENTRY                   ADDRESS         REF BY
           =====                   =======         ======
           _Prout::?relay          00000604        printf (?printf)

    -------------------------------------------------------------------------
  LIBRARY MODULE, NAME : ?xxmemxfree

  SEGMENTS IN THE MODULE
  ======================
<BANKED_CODE> 1 (was BANKED_CODE)
  Relative segment, address: CODE 00003CD6 - 00003E0D (0x138 bytes), align: 0
  Segment part 6.             Intra module refs:   __xdata_free::?relay
           ENTRY                   ADDRESS         REF BY
           =====                   =======         ======
           __xdata_free            00003CD6 
               XSTACK = 0000000A ( 0000000E )
    -------------------------------------------------------------------------
<BANKED_CODE> 1 (was BANKED_CODE)
  Relative segment, address: CODE 00003E0E - 00003E15 (0x8 bytes), align: 0
  Segment part 8.             Intra module refs:   __xdata_free
    -------------------------------------------------------------------------
BANK_RELAYS
  Relative segment, address: CODE 0000060A - 0000060F (0x6 bytes), align: 0
  Segment part 7.
           ENTRY                   ADDRESS         REF BY
           =====                   =======         ======
           __xdata_free::?relay    0000060A        __xdata_malloc (?xxmemxmalloc)
                                                   free (fbuf)

    -------------------------------------------------------------------------
  LIBRARY MODULE, NAME : ?xxmemxmalloc

  SEGMENTS IN THE MODULE
  ======================
XDATA_Z
  Relative segment, address: XDATA 00000F0A - 00000F0D (0x4 bytes), align: 0
  Segment part 6.             Intra module refs:   __xdata_malloc
           ENTRY                   ADDRESS         REF BY
           =====                   =======         ======
           __xdata_Aldata          00000F0A        __xdata_free (?xxmemxfree)
    -------------------------------------------------------------------------
<BANKED_CODE> 1 (was BANKED_CODE)
  Relative segment, address: CODE 0000382E - 000039A0 (0x173 bytes), align: 0
  Segment part 8.             Intra module refs:   __xdata_malloc::?relay
           ENTRY                   ADDRESS         REF BY
           =====                   =======         ======
           __xdata_malloc          0000382E 
               calls direct
               XSTACK = 0000000A ( 0000000F )
    -------------------------------------------------------------------------
<BANKED_CODE> 1 (was BANKED_CODE)
  Relative segment, address: CODE 000039A1 - 000039A9 (0x9 bytes), align: 0
  Segment part 10.            Intra module refs:   __xdata_malloc
    -------------------------------------------------------------------------
<BANKED_CODE> 1 (was BANKED_CODE)
  Relative segment, address: CODE 000039AA - 000039AD (0x4 bytes), align: 0
  Segment part 11.            Intra module refs:   __xdata_malloc
    -------------------------------------------------------------------------
<BANKED_CODE> 1 (was BANKED_CODE)
  Relative segment, address: CODE 000039AE - 000039B3 (0x6 bytes), align: 0
  Segment part 12.            Intra module refs:   Segment part 11
                                                   __xdata_malloc
    -------------------------------------------------------------------------
<BANKED_CODE> 1 (was BANKED_CODE)
  Relative segment, address: CODE 000039B4 - 000039B7 (0x4 bytes), align: 0
  Segment part 13.            Intra module refs:   __xdata_malloc
    -------------------------------------------------------------------------
<BANKED_CODE> 1 (was BANKED_CODE)
  Relative segment, address: CODE 000039B8 - 000039BD (0x6 bytes), align: 0
  Segment part 14.            Intra module refs:   Segment part 12
                                                   Segment part 13
                                                   __xdata_malloc
    -------------------------------------------------------------------------
<BANKED_CODE> 1 (was BANKED_CODE)
  Relative segment, address: CODE 000039BE - 000039C5 (0x8 bytes), align: 0
  Segment part 15.            Intra module refs:   __xdata_malloc
    -------------------------------------------------------------------------
BANK_RELAYS
  Relative segment, address: CODE 00000610 - 00000615 (0x6 bytes), align: 0
  Segment part 9.
           ENTRY                   ADDRESS         REF BY
           =====                   =======         ======
           __xdata_malloc::?relay
                                   00000610        malloc (fbuf)




                ****************************************
                *                                      *
                *      SEGMENTS IN ADDRESS ORDER       *
                *                                      *
                ****************************************


SEGMENT              SPACE    START ADDRESS   END ADDRESS     SIZE  TYPE  ALIGN
=======              =====    =============   ===========     ====  ====  =====
INTVEC               CODE          00000000 - 0000002D          2E   com    0
CSTART               CODE          0000002E - 000000B4          87   rel    0
BDATA_ID             CODE               000000B5                     dse    0
BIT_ID               CODE               000000B5                     dse    0
DATA_ID              CODE               000000B5                     dse    0
IDATA_ID             CODE               000000B5                     dse    0
IXDATA_ID            CODE               000000B5                     dse    0
PDATA_ID             CODE               000000B5                     dse    0
XDATA_ID             CODE          000000B5 - 000004B3         3FF   rel    0
BANK_RELAYS          CODE          000004B4 - 00000615         162   rel    0
RCODE                CODE          00000616 - 000012C0         CAB   rel    0
CODE_N               CODE               000012C1                     dse    0
DIFUNCT              CODE               000012C1                     rel    0
CODE_C               CODE               000012C1                     dse    0
NEAR_CODE            CODE          000012C1 - 000012FC          3C   rel    0
<BANKED_CODE> 1      CODE          000012FD - 0000438D        3091   rel    0
REGISTERS            DATA          00000000 - 00000007           8   rel    0
VREG                 DATA          00000008 - 0000000F           8   rel    0
PSP                  DATA               00000010                     dse    0
XSP                  DATA          00000010 - 00000011           2   rel    0
BREG                 BIT        00000020.0  -  00000020.7        8   rel    0
SFR_AN               DATA          00000080 - 00000080           1   rel    0
                     DATA          00000091 - 00000091           1 
                     DATA          00000094 - 00000097           4 
                     DATA          0000009D - 0000009E           2 
                     DATA          000000A2 - 000000A5           4 
                     DATA          000000A8 - 000000A8           1 
                     DATA          000000AD - 000000AD           1 
                     DATA          000000B3 - 000000B3           1 
                     DATA          000000C0 - 000000C0           1 
                     DATA          000000C6 - 000000C6           1 
                     DATA          000000D2 - 000000D7           6 
                     DATA          000000D9 - 000000D9           1 
                     DATA          000000E1 - 000000E1           1 
                     DATA          000000E9 - 000000E9           1 
                     DATA          000000FD - 000000FD           1 
XSTACK               XDATA         00000001 - 00000EFF         EFF   rel    0
XDATA_Z              XDATA         00000F00 - 00000F0D           E   rel    0
XDATA_I              XDATA         00000F0E - 0000130C         3FF   rel    0
XDATA_HEAP           XDATA         0000130D - 0000140B          FF   dse    0
ISTACK               IDATA         000000C0 - 000000FF          40   rel    0

                ****************************************
                *                                      *
                *        END OF CROSS REFERENCE        *
                *                                      *
                ****************************************

 17 294 bytes of CODE  memory
     18 bytes of DATA  memory (+ 27 absolute )
  5 131 bytes of XDATA memory
     64 bytes of IDATA memory
      8 bits  of BIT   memory

Errors: none
Warnings: none

