################################################################################
#                                                                              #
#      IAR Universal Linker V6.4.6.89                                          #
#                                                                              #
#           Link time     =  26/Nov/2019  19:33:23                             #
#           Target CPU    =  x51                                               #
#           List file     =  "\\vmware-host\Shared Folders\Projects\WMNU\IAR\P #
#                            RJ_UNITEST\Debug\List\unitest.map"                #
#           Output file 1 =  "\\vmware-host\Shared Folders\Projects\WMNU\IAR\P #
#                            RJ_UNITEST\Debug\Exe\unitest.d51"                 #
#                            Format: ubrof10                                   #
#                            UBROF version 10.0.6                              #
#                            Using library modules for C-SPY (-rt)             #
#           Command line  =  -f                                                #
#                            C:\Users\08A4~1\AppData\Local\Temp\EW356D.tmp     #
#                            ("\\vmware-host\Shared Folders\Projects\WMNU\IAR\ #
#                            PRJ_UNITEST\Debug\Obj\coder.r51"                  #
#                            "\\vmware-host\Shared Folders\Projects\WMNU\IAR\P #
#                            RJ_UNITEST\Debug\Obj\delays.r51"                  #
#                            "\\vmware-host\Shared Folders\Projects\WMNU\IAR\P #
#                            RJ_UNITEST\Debug\Obj\fbuf.r51"                    #
#                            "\\vmware-host\Shared Folders\Projects\WMNU\IAR\P #
#                            RJ_UNITEST\Debug\Obj\frame.r51"                   #
#                            "\\vmware-host\Shared Folders\Projects\WMNU\IAR\P #
#                            RJ_UNITEST\Debug\Obj\LLC.r51"                     #
#                            "\\vmware-host\Shared Folders\Projects\WMNU\IAR\P #
#                            RJ_UNITEST\Debug\Obj\MAC.r51"                     #
#                            "\\vmware-host\Shared Folders\Projects\WMNU\IAR\P #
#                            RJ_UNITEST\Debug\Obj\NTMR.r51"                    #
#                            "\\vmware-host\Shared Folders\Projects\WMNU\IAR\P #
#                            RJ_UNITEST\Debug\Obj\nwdebuger.r51"               #
#                            "\\vmware-host\Shared Folders\Projects\WMNU\IAR\P #
#                            RJ_UNITEST\Debug\Obj\RADIO.r51"                   #
#                            "\\vmware-host\Shared Folders\Projects\WMNU\IAR\P #
#                            RJ_UNITEST\Debug\Obj\TIC.r51"                     #
#                            "\\vmware-host\Shared Folders\Projects\WMNU\IAR\P #
#                            RJ_UNITEST\Debug\Obj\utest.r51"                   #
#                            "\\vmware-host\Shared Folders\Projects\WMNU\IAR\P #
#                            RJ_UNITEST\Debug\Obj\utest_coder.r51"             #
#                            "\\vmware-host\Shared Folders\Projects\WMNU\IAR\P #
#                            RJ_UNITEST\Debug\Obj\utest_delays.r51"            #
#                            "\\vmware-host\Shared Folders\Projects\WMNU\IAR\P #
#                            RJ_UNITEST\Debug\Obj\utest_fbuf.r51"              #
#                            "\\vmware-host\Shared Folders\Projects\WMNU\IAR\P #
#                            RJ_UNITEST\Debug\Obj\utest_frame.r51"             #
#                            "\\vmware-host\Shared Folders\Projects\WMNU\IAR\P #
#                            RJ_UNITEST\Debug\Obj\utest_Frames.r51"            #
#                            "\\vmware-host\Shared Folders\Projects\WMNU\IAR\P #
#                            RJ_UNITEST\Debug\Obj\utest_LLC.r51"               #
#                            "\\vmware-host\Shared Folders\Projects\WMNU\IAR\P #
#                            RJ_UNITEST\Debug\Obj\utest_MAC.r51"               #
#                            "\\vmware-host\Shared Folders\Projects\WMNU\IAR\P #
#                            RJ_UNITEST\Debug\Obj\utest_NTMR.r51"              #
#                            "\\vmware-host\Shared Folders\Projects\WMNU\IAR\P #
#                            RJ_UNITEST\Debug\Obj\utest_printf_uart.r51"       #
#                            "\\vmware-host\Shared Folders\Projects\WMNU\IAR\P #
#                            RJ_UNITEST\Debug\Obj\utest_radio.r51"             #
#                            "\\vmware-host\Shared Folders\Projects\WMNU\IAR\P #
#                            RJ_UNITEST\Debug\Obj\utest_suite.r51"             #
#                            "\\vmware-host\Shared Folders\Projects\WMNU\IAR\P #
#                            RJ_UNITEST\Debug\Obj\utest_TIC.r51"               #
#                            -o                                                #
#                            "\\vmware-host\Shared Folders\Projects\WMNU\IAR\P #
#                            RJ_UNITEST\Debug\Exe\unitest.d51"                 #
#                            -l                                                #
#                            "\\vmware-host\Shared Folders\Projects\WMNU\IAR\P #
#                            RJ_UNITEST\Debug\List\unitest.map"                #
#                            -xmsno                                            #
#                            "-IC:\Program Files (x86)\IAR Systems\Embedded Wo #
#                            rkbench 8.0\8051\LIB\"                            #
#                            -f                                                #
#                            "C:\Program Files (x86)\IAR Systems\Embedded Work #
#                            bench 8.0\8051\config\devices\Texas Instruments\l #
#                            nk51ew_CC2530F256_banked.xcl"                     #
#                            (-D_IDATA0_START=0x00 -D_IDATA0_END=0xFF          #
#                            -D_PDATA0_START=0x1E00 -D_PDATA0_END=0x1EFF       #
#                            -D_IXDATA0_START=0x0001 -D_IXDATA0_END=0x1EFF     #
#                            -D_XDATA0_START=_IXDATA0_START                    #
#                            -D_XDATA0_END=_IXDATA0_END                        #
#                            -D_NEAR_CODE_START=0x0000                         #
#                            -D_FIRST_BANK_ADDR=0x10000 -D?REGISTER_BANK=0x0   #
#                            -D_REGISTER_BANK_START=0x0 -D_BREG_START=0x00     #
#                            -D?VB=0x20 -Z(BIT)BREG=_BREG_START                #
#                            -Z(BIT)BIT_N=0-7F                                 #
#                            -Z(DATA)REGISTERS+8=_REGISTER_BANK_START          #
#                            -Z(DATA)BDATA_Z,BDATA_N,BDATA_I=20-2F             #
#                            -Z(DATA)VREG=08-7F -Z(DATA)PSP,XSP=08-7F          #
#                            -Z(DATA)DOVERLAY=08-7F                            #
#                            -Z(DATA)DATA_I,DATA_Z,DATA_N=08-7F                #
#                            -U(IDATA)0-7F=(DATA)0-7F                          #
#                            -Z(IDATA)IDATA_I,IDATA_Z,IDATA_N=08-_IDATA0_END   #
#                            -Z(IDATA)ISTACK+_IDATA_STACK_SIZE#08-_IDATA0_END  #
#                            -Z(IDATA)IOVERLAY=08-FF -Z(CODE)INTVEC=0          #
#                            -Z(CODE)CSTART=_NEAR_CODE_START-(_CODEBANK_START- #
#                            1)                                                #
#                            -Z(CODE)BIT_ID,BDATA_ID,DATA_ID,IDATA_ID,IXDATA_I #
#                            D,PDATA_ID,XDATA_ID=_NEAR_CODE_START-(_CODEBANK_S #
#                            TART-1)                                           #
#                            -Z(CODE)BANK_RELAYS,RCODE,DIFUNCT,CODE_C,CODE_N,N #
#                            EAR_CODE=_NEAR_CODE_START-(_CODEBANK_START-1)     #
#                            -P(CODE)BANKED_CODE=_NEAR_CODE_START-(_CODEBANK_S #
#                            TART-1),[(_CODEBANK_START+_FIRST_BANK_ADDR)-(_COD #
#                            EBANK_END+_FIRST_BANK_ADDR)]*_NR_OF_BANKS+10000   #
#                            -Z(CODE)CHECKSUM#(_CODEBANK_START-1)              #
#                            -Z(XDATA)PDATA_Z,PDATA_I=_PDATA0_START-_PDATA0_EN #
#                            D                                                 #
#                            -P(XDATA)PDATA_N=_PDATA0_START-_PDATA0_END        #
#                            -Z(XDATA)PSTACK+_PDATA_STACK_SIZE=_PDATA0_START-_ #
#                            PDATA0_END                                        #
#                            -Z(XDATA)EXT_STACK+_EXTENDED_STACK_SIZE=_EXTENDED #
#                            _STACK_START                                      #
#                            -Z(XDATA)XSTACK+_XDATA_STACK_SIZE=_XDATA0_START-_ #
#                            XDATA0_END                                        #
#                            -Z(XDATA)IXDATA_Z,IXDATA_I=_IXDATA0_START-_IXDATA #
#                            0_END                                             #
#                            -P(XDATA)IXDATA_N=_IXDATA0_START-_IXDATA0_END     #
#                            -Z(XDATA)XDATA_Z,XDATA_I=_XDATA0_START-_XDATA0_EN #
#                            D                                                 #
#                            -P(XDATA)XDATA_N=_XDATA0_START-_XDATA0_END        #
#                            -Z(XDATA)XDATA_HEAP+_XDATA_HEAP_SIZE=_XDATA0_STAR #
#                            T-_XDATA0_END                                     #
#                            -Z(CONST)XDATA_ROM_C=_XDATA0_START-_XDATA0_END    #
#                            -cx51                                             #
#                            -M(CODE)[(_CODEBANK_START+_FIRST_BANK_ADDR)-(_COD #
#                            EBANK_END+_FIRST_BANK_ADDR)]*_NR_OF_BANKS+0x10000 #
#                            =0x8000                                           #
#                            -ww69=i -D_BANK0_START=0x00000                    #
#                            -D_BANK0_END=0x07FFF -D_BANK1_START=0x18000       #
#                            -D_BANK1_END=0x1FFFF -D_BANK2_START=0x28000       #
#                            -D_BANK2_END=0x2FFFF -D_BANK3_START=0x38000       #
#                            -D_BANK3_END=0x3FFFF -D_BANK4_START=0x48000       #
#                            -D_BANK4_END=0x4FFFF -D_BANK5_START=0x58000       #
#                            -D_BANK5_END=0x5FFFF -D_BANK6_START=0x68000       #
#                            -D_BANK6_END=0x6FFFF -D_BANK7_START=0x78000       #
#                            -D_BANK7_END=0x7FFFF                              #
#                            -P(CODE)BANK0=_BANK0_START-_BANK0_END             #
#                            -P(CODE)BANK1=_BANK1_START-_BANK1_END             #
#                            -P(CODE)BANK2=_BANK2_START-_BANK2_END             #
#                            -P(CODE)BANK3=_BANK3_START-_BANK3_END             #
#                            -P(CODE)BANK4=_BANK4_START-_BANK4_END             #
#                            -P(CODE)BANK5=_BANK5_START-_BANK5_END             #
#                            -P(CODE)BANK6=_BANK6_START-_BANK6_END             #
#                            -P(CODE)BANK7=_BANK7_START-_BANK7_END             #
#                            -D_FLASH_LOCK_BITS_START=0x7FFF0                  #
#                            -D_FLASH_LOCK_BITS_END=0x7FFFF                    #
#                            -Z(CODE)FLASH_LOCK_BITS=_FLASH_LOCK_BITS_START-_F #
#                            LASH_LOCK_BITS_END                                #
#                            -U(CODE)0x0000=(CODE)_FLASH_LOCK_BITS_START-_FLAS #
#                            H_LOCK_BITS_END)                                  #
#                            -D_NR_OF_VIRTUAL_REGISTERS=8 -D?PBANK=0x93        #
#                            -D?CBANK=0x9F -D?CBANK_MASK=0xFF                  #
#                            -e?BCALL_FF=?BCALL -e?BRET_FF=?BRET               #
#                            -e?BDISPATCH_FF=?BDISPATCH                        #
#                            -D_CODEBANK_START=0x8000 -D_CODEBANK_END=0xFFFF   #
#                            -D_NR_OF_BANKS=0x07                               #
#                            "-IC:\Program Files (x86)\IAR Systems\Embedded Wo #
#                            rkbench 8.0\8051\CONFIG\"                         #
#                            -e_PrintfLarge=_Printf -e_ScanfLarge=_Scanf -rt   #
#                            -s __program_start                                #
#                            "C:\Program Files (x86)\IAR Systems\Embedded Work #
#                            bench 8.0\8051\LIB\DLIB\dl-pli-blxd-1e16x01n.r51" #
#                            -D_IDATA_STACK_SIZE=0x40 -D?ESP=0 -D?ESP_MASK=0   #
#                            -D_EXTENDED_STACK_START=0                         #
#                            -D_EXTENDED_STACK_SIZE=0                          #
#                            -D_PDATA_STACK_SIZE=0x80                          #
#                            -D_XDATA_STACK_SIZE=0x400                         #
#                            -D_XDATA_HEAP_SIZE=0x1300                         #
#                            -D_FAR_HEAP_SIZE=0x0FF -D_HUGE_HEAP_SIZE=0x0FF    #
#                            -D_FAR22_HEAP_SIZE=0x0FF)                         #
#                                                                              #
#                           Copyright (C) 1987-2016 IAR Systems AB.            #
################################################################################





                ****************************************
                *                                      *
                *           CROSS REFERENCE            *
                *                                      *
                ****************************************

       Program entry at : CODE      00000085  Relocatable, from module : CSTARTUP




                ****************************************
                *                                      *
                *            RUNTIME MODEL             *
                *                                      *
                ****************************************

  __Heap_Handler             = Basic
  __SystemLibrary            = DLib
  __calling_convention       = xdata_reentrant
  __code_model               = banked
  __core                     = plain
  __data_model               = large
  __dlib_file_descriptor     = 0
  __dlib_full_locale_support = 0
  __dptr_size                = 16
  __extended_stack           = disabled
  __location_for_constants   = data
  __number_of_dptrs          = 1
  __register_banks           = *
  __rt_version               = 1

                ****************************************
                *                                      *
                *    AUTOMATIC SYMBOL REDIRECTIONS     *
                *                                      *
                ****************************************

                  There are no automatic symbol redirections.



                ****************************************
                *                                      *
                *              MODULE MAP              *
                *                                      *
                ****************************************


  DEFINED ABSOLUTE ENTRIES
    *************************************************************************

  DEFINED ABSOLUTE ENTRIES
  PROGRAM MODULE, NAME : ?ABS_ENTRY_MOD

Absolute parts
           ENTRY                   ADDRESS         REF BY
           =====                   =======         ======
           _FAR22_HEAP_SIZE        000000FF 
           _HUGE_HEAP_SIZE         000000FF 
           _FAR_HEAP_SIZE          000000FF 
           _XDATA_HEAP_SIZE        00001300 
           _XDATA_STACK_SIZE       00000400 
           _PDATA_STACK_SIZE       00000080 
           _EXTENDED_STACK_SIZE    00000000 
           _EXTENDED_STACK_START   00000000 
           ?ESP_MASK               00000000 
           ?ESP                    00000000 
           _IDATA_STACK_SIZE       00000040 
           _NR_OF_BANKS            00000007 
           _CODEBANK_END           0000FFFF 
           _CODEBANK_START         00008000 
           ?CBANK_MASK             000000FF 
           ?CBANK                  0000009F        ?RESET_CODE_BANK (CSTARTUP)
                                                   Segment part 0 (?BANKED_CODE_SUPPORT)
           ?PBANK                  00000093 
           _NR_OF_VIRTUAL_REGISTERS
                                   00000008 
           _FLASH_LOCK_BITS_END    0003FFFF 
           _FLASH_LOCK_BITS_START
                                   0003FFF0 
           _BANK7_END              0003FFFF 
           _BANK7_START            00038000 
           _BANK6_END              00037FFF 
           _BANK6_START            00030000 
           _BANK5_END              0002FFFF 
           _BANK5_START            00028000 
           _BANK4_END              00027FFF 
           _BANK4_START            00020000 
           _BANK3_END              0001FFFF 
           _BANK3_START            00018000 
           _BANK2_END              00017FFF 
           _BANK2_START            00010000 
           _BANK1_END              0000FFFF 
           _BANK1_START            00008000 
           _BANK0_END              00007FFF 
           _BANK0_START            00000000 
           ?VB                     00000020        ?BANKED_ENTER_XDATA (?BANKED_ENTER_XDATA)
                                                   ?BANKED_LEAVE_XDATA (?BANKED_LEAVE_XDATA)
                                                   ?INTERRUPT_ENTER_XSP (?INTERRUPT_ENTER_XSP)
                                                   ?INTERRUPT_LEAVE_XSP (?INTERRUPT_LEAVE_XSP)
                                                   AES_StreamCoder (?__write)
                                                   MAC_TX_HNDL (?__write)
                                                   RI_Receive (?__write)
                                                   RI_Send (?__write)
                                                   RecvData (?__write)
                                                   SendData (?__write)
                                                   TIC_SetTXState (?__write)
           _BREG_START             00000000 
           _REGISTER_BANK_START    00000000 
           ?REGISTER_BANK          00000000        Segment part 6 (CSTARTUP)
           _FIRST_BANK_ADDR        00010000 
           _NEAR_CODE_START        00000000 
           _XDATA0_END             00001EFF 
           _XDATA0_START           00000001 
           _IXDATA0_END            00001EFF 
           _IXDATA0_START          00000001 
           _PDATA0_END             00001EFF 
           _PDATA0_START           00001E00 
           _IDATA0_END             000000FF 
           _IDATA0_START           00000000 
    *************************************************************************

  FILE NAME : \\vmware-host\Shared Folders\Projects\WMNU\IAR\PRJ_UNITEST\Debug\Obj\coder.r51
  PROGRAM MODULE, NAME : ?__write

  SEGMENTS IN THE MODULE
  ======================
SFR_AN
  Relative segment, address: DATA 00000080 - 00000080 (0x1 bytes), align: 0
  Segment part 1. ROOT 
           ENTRY                   ADDRESS         REF BY
           =====                   =======         ======
           _A_P0                   00000080 
           LOCAL                   ADDRESS         
           =====                   =======         
           P0                      00000080 
    -------------------------------------------------------------------------
SFR_AN
  Relative segment, address: DATA 00000086 - 00000086 (0x1 bytes), align: 0
  Segment part 2. ROOT        Intra module refs:   MyLowLevelPutchar
                                                   uart_init
           ENTRY                   ADDRESS         REF BY
           =====                   =======         ======
           U0CSR                   00000086 
    -------------------------------------------------------------------------
SFR_AN
  Relative segment, address: DATA 00000090 - 00000090 (0x1 bytes), align: 0
  Segment part 3. ROOT        Intra module refs:   LED
           ENTRY                   ADDRESS         REF BY
           =====                   =======         ======
           _A_P1                   00000090 
           LOCAL                   ADDRESS         
           =====                   =======         
           P1                      00000090 
    -------------------------------------------------------------------------
SFR_AN
  Relative segment, address: DATA 00000091 - 00000091 (0x1 bytes), align: 0
  Segment part 4. ROOT        Intra module refs:   SendData
           ENTRY                   ADDRESS         REF BY
           =====                   =======         ======
           RFIRQF1                 00000091 
    -------------------------------------------------------------------------
SFR_AN
  Relative segment, address: DATA 00000094 - 00000094 (0x1 bytes), align: 0
  Segment part 5. ROOT        Intra module refs:   TIM_init
           ENTRY                   ADDRESS         REF BY
           =====                   =======         ======
           T2CTRL                  00000094 
    -------------------------------------------------------------------------
SFR_AN
  Relative segment, address: DATA 00000095 - 00000095 (0x1 bytes), align: 0
  Segment part 6. ROOT        Intra module refs:   NT_WaitTime
                                                   ReadTimer
                                                   loadTimerCompare
           ENTRY                   ADDRESS         REF BY
           =====                   =======         ======
           ST0                     00000095 
    -------------------------------------------------------------------------
SFR_AN
  Relative segment, address: DATA 00000096 - 00000096 (0x1 bytes), align: 0
  Segment part 7. ROOT        Intra module refs:   NT_WaitTime
                                                   ReadTimer
                                                   loadTimerCompare
           ENTRY                   ADDRESS         REF BY
           =====                   =======         ======
           ST1                     00000096 
    -------------------------------------------------------------------------
SFR_AN
  Relative segment, address: DATA 00000097 - 00000097 (0x1 bytes), align: 0
  Segment part 8. ROOT        Intra module refs:   NT_WaitTime
                                                   ReadTimer
                                                   loadTimerCompare
           ENTRY                   ADDRESS         REF BY
           =====                   =======         ======
           ST2                     00000097 
    -------------------------------------------------------------------------
SFR_AN
  Relative segment, address: DATA 0000009D - 0000009D (0x1 bytes), align: 0
  Segment part 9. ROOT        Intra module refs:   NT_WaitTime
                                                   ReadTimer
           ENTRY                   ADDRESS         REF BY
           =====                   =======         ======
           SLEEPSTA                0000009D 
    -------------------------------------------------------------------------
SFR_AN
  Relative segment, address: DATA 0000009E - 0000009E (0x1 bytes), align: 0
  Segment part 10. ROOT       Intra module refs:   SetCPU32M
           ENTRY                   ADDRESS         REF BY
           =====                   =======         ======
           CLKCONSTA               0000009E 
    -------------------------------------------------------------------------
SFR_AN
  Relative segment, address: DATA 000000A2 - 000000A2 (0x1 bytes), align: 0
  Segment part 11. ROOT       Intra module refs:   TIM_TimeStamp
           ENTRY                   ADDRESS         REF BY
           =====                   =======         ======
           T2M0                    000000A2 
    -------------------------------------------------------------------------
SFR_AN
  Relative segment, address: DATA 000000A3 - 000000A3 (0x1 bytes), align: 0
  Segment part 12. ROOT       Intra module refs:   TIM_TimeStamp
           ENTRY                   ADDRESS         REF BY
           =====                   =======         ======
           T2M1                    000000A3 
    -------------------------------------------------------------------------
SFR_AN
  Relative segment, address: DATA 000000A4 - 000000A4 (0x1 bytes), align: 0
  Segment part 13. ROOT       Intra module refs:   TIM_TimeStamp
           ENTRY                   ADDRESS         REF BY
           =====                   =======         ======
           T2MOVF0                 000000A4 
    -------------------------------------------------------------------------
SFR_AN
  Relative segment, address: DATA 000000A5 - 000000A5 (0x1 bytes), align: 0
  Segment part 14. ROOT       Intra module refs:   TIM_TimeStamp
           ENTRY                   ADDRESS         REF BY
           =====                   =======         ======
           T2MOVF1                 000000A5 
    -------------------------------------------------------------------------
SFR_AN
  Relative segment, address: DATA 000000A8 - 000000A8 (0x1 bytes), align: 0
  Segment part 15. ROOT       Intra module refs:   NT_IRQEnable
                                                   isIRQEnable
                                                   test_create
           ENTRY                   ADDRESS         REF BY
           =====                   =======         ======
           _A_IEN0                 000000A8 
           LOCAL                   ADDRESS         
           =====                   =======         
           IEN0                    000000A8 
    -------------------------------------------------------------------------
SFR_AN
  Relative segment, address: DATA 000000AD - 000000AD (0x1 bytes), align: 0
  Segment part 16. ROOT       Intra module refs:   loadTimerCompare
           ENTRY                   ADDRESS         REF BY
           =====                   =======         ======
           STLOAD                  000000AD 
    -------------------------------------------------------------------------
SFR_AN
  Relative segment, address: DATA 000000B3 - 000000B3 (0x1 bytes), align: 0
  Segment part 17. ROOT       Intra module refs:   AES_StreamCoder
           ENTRY                   ADDRESS         REF BY
           =====                   =======         ======
           ENCCS                   000000B3 
    -------------------------------------------------------------------------
SFR_AN
  Relative segment, address: DATA 000000C0 - 000000C0 (0x1 bytes), align: 0
  Segment part 18. ROOT       Intra module refs:   NT_IRQEnable
                                                   TimerCompareInterrupt
           ENTRY                   ADDRESS         REF BY
           =====                   =======         ======
           _A_IRCON                000000C0 
           LOCAL                   ADDRESS         
           =====                   =======         
           IRCON                   000000C0 
    -------------------------------------------------------------------------
SFR_AN
  Relative segment, address: DATA 000000C1 - 000000C1 (0x1 bytes), align: 0
  Segment part 19. ROOT       Intra module refs:   MyLowLevelPutchar
           ENTRY                   ADDRESS         REF BY
           =====                   =======         ======
           U0DBUF                  000000C1 
    -------------------------------------------------------------------------
SFR_AN
  Relative segment, address: DATA 000000C2 - 000000C2 (0x1 bytes), align: 0
  Segment part 20. ROOT       Intra module refs:   uart_init
           ENTRY                   ADDRESS         REF BY
           =====                   =======         ======
           U0BAUD                  000000C2 
    -------------------------------------------------------------------------
SFR_AN
  Relative segment, address: DATA 000000C5 - 000000C5 (0x1 bytes), align: 0
  Segment part 21. ROOT       Intra module refs:   uart_init
           ENTRY                   ADDRESS         REF BY
           =====                   =======         ======
           U0GCR                   000000C5 
    -------------------------------------------------------------------------
SFR_AN
  Relative segment, address: DATA 000000C6 - 000000C6 (0x1 bytes), align: 0
  Segment part 22. ROOT       Intra module refs:   SetCPU32M
           ENTRY                   ADDRESS         REF BY
           =====                   =======         ======
           CLKCONCMD               000000C6 
    -------------------------------------------------------------------------
SFR_AN
  Relative segment, address: DATA 000000D2 - 000000D2 (0x1 bytes), align: 0
  Segment part 23. ROOT       Intra module refs:   AES_init
           ENTRY                   ADDRESS         REF BY
           =====                   =======         ======
           DMA1CFGL                000000D2 
    -------------------------------------------------------------------------
SFR_AN
  Relative segment, address: DATA 000000D3 - 000000D3 (0x1 bytes), align: 0
  Segment part 24. ROOT       Intra module refs:   AES_init
           ENTRY                   ADDRESS         REF BY
           =====                   =======         ======
           DMA1CFGH                000000D3 
    -------------------------------------------------------------------------
SFR_AN
  Relative segment, address: DATA 000000D4 - 000000D4 (0x1 bytes), align: 0
  Segment part 25. ROOT       Intra module refs:   AES_init
           ENTRY                   ADDRESS         REF BY
           =====                   =======         ======
           DMA0CFGL                000000D4 
    -------------------------------------------------------------------------
SFR_AN
  Relative segment, address: DATA 000000D5 - 000000D5 (0x1 bytes), align: 0
  Segment part 26. ROOT       Intra module refs:   AES_init
           ENTRY                   ADDRESS         REF BY
           =====                   =======         ======
           DMA0CFGH                000000D5 
    -------------------------------------------------------------------------
SFR_AN
  Relative segment, address: DATA 000000D6 - 000000D6 (0x1 bytes), align: 0
  Segment part 27. ROOT       Intra module refs:   AES_StreamCoder
           ENTRY                   ADDRESS         REF BY
           =====                   =======         ======
           DMAARM                  000000D6 
    -------------------------------------------------------------------------
SFR_AN
  Relative segment, address: DATA 000000D7 - 000000D7 (0x1 bytes), align: 0
  Segment part 28. ROOT       Intra module refs:   AES_StreamCoder
           ENTRY                   ADDRESS         REF BY
           =====                   =======         ======
           DMAREQ                  000000D7 
    -------------------------------------------------------------------------
SFR_AN
  Relative segment, address: DATA 000000D9 - 000000D9 (0x1 bytes), align: 0
  Segment part 29. ROOT       Intra module refs:   LoadTXData
                                                   UnLoadRXData
           ENTRY                   ADDRESS         REF BY
           =====                   =======         ======
           RFD                     000000D9 
    -------------------------------------------------------------------------
SFR_AN
  Relative segment, address: DATA 000000E1 - 000000E1 (0x1 bytes), align: 0
  Segment part 30. ROOT       Intra module refs:   LoadTXData
                                                   RecvData
                                                   SendData
                                                   random_core_init
           ENTRY                   ADDRESS         REF BY
           =====                   =======         ======
           RFST                    000000E1 
    -------------------------------------------------------------------------
SFR_AN
  Relative segment, address: DATA 000000E9 - 000000E9 (0x1 bytes), align: 0
  Segment part 31. ROOT       Intra module refs:   RecvData
                                                   SendData
           ENTRY                   ADDRESS         REF BY
           =====                   =======         ======
           RFIRQF0                 000000E9 
    -------------------------------------------------------------------------
SFR_AN
  Relative segment, address: DATA 000000F1 - 000000F1 (0x1 bytes), align: 0
  Segment part 32. ROOT       Intra module refs:   uart_init
           ENTRY                   ADDRESS         REF BY
           =====                   =======         ======
           PERCFG                  000000F1 
    -------------------------------------------------------------------------
SFR_AN
  Relative segment, address: DATA 000000F3 - 000000F3 (0x1 bytes), align: 0
  Segment part 33. ROOT       Intra module refs:   uart_init
           ENTRY                   ADDRESS         REF BY
           =====                   =======         ======
           P0SEL                   000000F3 
    -------------------------------------------------------------------------
SFR_AN
  Relative segment, address: DATA 000000FD - 000000FD (0x1 bytes), align: 0
  Segment part 34. ROOT 
           ENTRY                   ADDRESS         REF BY
           =====                   =======         ======
           P0DIR                   000000FD 
    -------------------------------------------------------------------------
SFR_AN
  Relative segment, address: DATA 000000FE - 000000FE (0x1 bytes), align: 0
  Segment part 35. ROOT       Intra module refs:   utestSigTraceInit
           ENTRY                   ADDRESS         REF BY
           =====                   =======         ======
           P1DIR                   000000FE 
    -------------------------------------------------------------------------
XDATA_Z
  Relative segment, address: XDATA 00000401 - 00000408 (0x8 bytes), align: 0
  Segment part 381.           Intra module refs:   AES_StreamCoder
                                                   AES_init
           ENTRY                   ADDRESS         REF BY
           =====                   =======         ======
           DMA_AES_DW              00000401 
    -------------------------------------------------------------------------
XDATA_Z
  Relative segment, address: XDATA 00000409 - 00000410 (0x8 bytes), align: 0
  Segment part 382.           Intra module refs:   AES_StreamCoder
                                                   AES_init
           ENTRY                   ADDRESS         REF BY
           =====                   =======         ======
           DMA_AES_UP              00000409 
    -------------------------------------------------------------------------
<BANKED_CODE> 1 (was BANKED_CODE)
  Relative segment, address: CODE 000015E4 - 000016D2 (0xef bytes), align: 0
  Segment part 454.           Intra module refs:   AES_init::?relay
           ENTRY                   ADDRESS         REF BY
           =====                   =======         ======
           AES_init                000015E4 
               XSTACK = 000000BC ( 00000000 )
               ISTACK = 00000000 ( 00000002 )
    -------------------------------------------------------------------------
<BANKED_CODE> 1 (was BANKED_CODE)
  Relative segment, address: CODE 000016D3 - 00001912 (0x240 bytes), align: 0
  Segment part 456.           Intra module refs:   AES_StreamCoder::?relay
           ENTRY                   ADDRESS         REF BY
           =====                   =======         ======
           AES_StreamCoder         000016D3 
               calls direct
               XSTACK = 00000058 ( 00000027 )
    -------------------------------------------------------------------------
XDATA_I
  Relative segment, address: XDATA 000006A5 - 000006B5 (0x11 bytes), align: 0
  Segment part 42.            Intra module refs:   fbuf_create
    -------------------------------------------------------------------------
XDATA_I
  Relative segment, address: XDATA 000006B6 - 000006BC (0x7 bytes), align: 0
  Segment part 44.            Intra module refs:   fbuf_create
    -------------------------------------------------------------------------
XDATA_I
  Relative segment, address: XDATA 000006BD - 000006D0 (0x14 bytes), align: 0
  Segment part 46.            Intra module refs:   fbuf_create
    -------------------------------------------------------------------------
XDATA_I
  Relative segment, address: XDATA 000006D1 - 000006EB (0x1b bytes), align: 0
  Segment part 48.            Intra module refs:   fbuf_create
    -------------------------------------------------------------------------
XDATA_I
  Relative segment, address: XDATA 000006EC - 000006F8 (0xd bytes), align: 0
  Segment part 50.            Intra module refs:   fbuf_create
    -------------------------------------------------------------------------
XDATA_I
  Relative segment, address: XDATA 000006F9 - 00000702 (0xa bytes), align: 0
  Segment part 52.            Intra module refs:   fbuf_create
    -------------------------------------------------------------------------
XDATA_I
  Relative segment, address: XDATA 00000703 - 00000713 (0x11 bytes), align: 0
  Segment part 54.            Intra module refs:   frame_create
                                                   frame_merge
    -------------------------------------------------------------------------
XDATA_I
  Relative segment, address: XDATA 00000714 - 0000071B (0x8 bytes), align: 0
  Segment part 56.            Intra module refs:   frame_create
                                                   frame_merge
    -------------------------------------------------------------------------
XDATA_I
  Relative segment, address: XDATA 0000071C - 00000725 (0xa bytes), align: 0
  Segment part 58.            Intra module refs:   frame_create
                                                   frame_merge
    -------------------------------------------------------------------------
XDATA_I
  Relative segment, address: XDATA 00000726 - 00000740 (0x1b bytes), align: 0
  Segment part 60.            Intra module refs:   frame_create
                                                   frame_merge
    -------------------------------------------------------------------------
XDATA_I
  Relative segment, address: XDATA 00000741 - 0000074D (0xd bytes), align: 0
  Segment part 62.            Intra module refs:   frame_create
                                                   frame_merge
    -------------------------------------------------------------------------
XDATA_I
  Relative segment, address: XDATA 0000074E - 00000753 (0x6 bytes), align: 0
  Segment part 64.            Intra module refs:   frame_merge
    -------------------------------------------------------------------------
XDATA_I
  Relative segment, address: XDATA 00000754 - 00000764 (0x11 bytes), align: 0
  Segment part 68.            Intra module refs:   LLC_AddTask
                                                   LLC_RX_HNDL
                                                   LLC_TimeAlloc
    -------------------------------------------------------------------------
XDATA_I
  Relative segment, address: XDATA 00000765 - 0000076A (0x6 bytes), align: 0
  Segment part 70.            Intra module refs:   LLC_AddTask
                                                   LLC_RX_HNDL
                                                   LLC_TimeAlloc
    -------------------------------------------------------------------------
XDATA_I
  Relative segment, address: XDATA 0000076B - 00000785 (0x1b bytes), align: 0
  Segment part 74.            Intra module refs:   LLC_AddTask
                                                   LLC_RX_HNDL
                                                   LLC_TimeAlloc
    -------------------------------------------------------------------------
XDATA_I
  Relative segment, address: XDATA 00000786 - 00000792 (0xd bytes), align: 0
  Segment part 76.            Intra module refs:   LLC_AddTask
                                                   LLC_RX_HNDL
                                                   LLC_TimeAlloc
    -------------------------------------------------------------------------
XDATA_I
  Relative segment, address: XDATA 00000793 - 000007AA (0x18 bytes), align: 0
  Segment part 78.            Intra module refs:   LLC_TimeAlloc
    -------------------------------------------------------------------------
XDATA_I
  Relative segment, address: XDATA 000007AB - 000007B2 (0x8 bytes), align: 0
  Segment part 80.            Intra module refs:   LLC_AddTask
    -------------------------------------------------------------------------
XDATA_I
  Relative segment, address: XDATA 000007B3 - 000007CA (0x18 bytes), align: 0
  Segment part 82.            Intra module refs:   LLC_AddTask
    -------------------------------------------------------------------------
XDATA_I
  Relative segment, address: XDATA 000007CB - 000007DD (0x13 bytes), align: 0
  Segment part 84.            Intra module refs:   LLC_AddTask
    -------------------------------------------------------------------------
XDATA_I
  Relative segment, address: XDATA 000007DE - 000007FF (0x22 bytes), align: 0
  Segment part 86.            Intra module refs:   LLC_AddTask
    -------------------------------------------------------------------------
XDATA_I
  Relative segment, address: XDATA 00000800 - 00000814 (0x15 bytes), align: 0
  Segment part 88.            Intra module refs:   LLC_RX_HNDL
    -------------------------------------------------------------------------
XDATA_I
  Relative segment, address: XDATA 00000815 - 00000825 (0x11 bytes), align: 0
  Segment part 90.            Intra module refs:   MAC_GetTXState
                                                   MAC_RX_HNDL
                                                   MAC_Send
                                                   MAC_TX_HNDL
    -------------------------------------------------------------------------
XDATA_I
  Relative segment, address: XDATA 00000826 - 0000082B (0x6 bytes), align: 0
  Segment part 92.            Intra module refs:   MAC_GetTXState
                                                   MAC_RX_HNDL
                                                   MAC_Send
                                                   MAC_TX_HNDL
    -------------------------------------------------------------------------
XDATA_I
  Relative segment, address: XDATA 0000082C - 00000838 (0xd bytes), align: 0
  Segment part 94.            Intra module refs:   MAC_GetTXState
                                                   MAC_RX_HNDL
                                                   MAC_TX_HNDL
    -------------------------------------------------------------------------
XDATA_I
  Relative segment, address: XDATA 00000839 - 00000853 (0x1b bytes), align: 0
  Segment part 96.            Intra module refs:   MAC_GetTXState
                                                   MAC_RX_HNDL
                                                   MAC_Send
                                                   MAC_TX_HNDL
    -------------------------------------------------------------------------
XDATA_I
  Relative segment, address: XDATA 00000854 - 00000860 (0xd bytes), align: 0
  Segment part 98.            Intra module refs:   MAC_GetTXState
                                                   MAC_RX_HNDL
                                                   MAC_Send
                                                   MAC_TX_HNDL
    -------------------------------------------------------------------------
XDATA_I
  Relative segment, address: XDATA 00000861 - 00000869 (0x9 bytes), align: 0
  Segment part 100.           Intra module refs:   MAC_Send
    -------------------------------------------------------------------------
XDATA_I
  Relative segment, address: XDATA 0000086A - 00000876 (0xd bytes), align: 0
  Segment part 102.           Intra module refs:   MAC_Send
    -------------------------------------------------------------------------
XDATA_I
  Relative segment, address: XDATA 00000877 - 00000889 (0x13 bytes), align: 0
  Segment part 104.           Intra module refs:   MAC_TX_HNDL
    -------------------------------------------------------------------------
XDATA_I
  Relative segment, address: XDATA 0000088A - 0000089A (0x11 bytes), align: 0
  Segment part 106.           Intra module refs:   NT_SetCompare
                                                   NT_SetTime
    -------------------------------------------------------------------------
XDATA_I
  Relative segment, address: XDATA 0000089B - 000008A1 (0x7 bytes), align: 0
  Segment part 108.           Intra module refs:   NT_SetCompare
                                                   NT_SetTime
                                                   calcCompareTime
    -------------------------------------------------------------------------
XDATA_I
  Relative segment, address: XDATA 000008A2 - 000008B1 (0x10 bytes), align: 0
  Segment part 110.           Intra module refs:   NT_SetCompare
                                                   NT_SetTime
    -------------------------------------------------------------------------
XDATA_I
  Relative segment, address: XDATA 000008B2 - 000008CC (0x1b bytes), align: 0
  Segment part 112.           Intra module refs:   NT_SetCompare
                                                   NT_SetTime
    -------------------------------------------------------------------------
XDATA_I
  Relative segment, address: XDATA 000008CD - 000008D9 (0xd bytes), align: 0
  Segment part 114.           Intra module refs:   NT_SetCompare
                                                   NT_SetTime
    -------------------------------------------------------------------------
XDATA_I
  Relative segment, address: XDATA 000008DA - 000008EC (0x13 bytes), align: 0
  Segment part 116.           Intra module refs:   calcCompareTime
    -------------------------------------------------------------------------
XDATA_I
  Relative segment, address: XDATA 000008ED - 0000090C (0x20 bytes), align: 0
  Segment part 118.           Intra module refs:   calcCompareTime
    -------------------------------------------------------------------------
XDATA_I
  Relative segment, address: XDATA 0000090D - 0000091D (0x11 bytes), align: 0
  Segment part 120.           Intra module refs:   RI_Send
                                                   setFreq
    -------------------------------------------------------------------------
XDATA_I
  Relative segment, address: XDATA 0000091E - 00000925 (0x8 bytes), align: 0
  Segment part 122.           Intra module refs:   RI_Send
                                                   setFreq
    -------------------------------------------------------------------------
XDATA_I
  Relative segment, address: XDATA 00000926 - 0000092D (0x8 bytes), align: 0
  Segment part 124.           Intra module refs:   RI_Send
    -------------------------------------------------------------------------
XDATA_I
  Relative segment, address: XDATA 0000092E - 00000948 (0x1b bytes), align: 0
  Segment part 126.           Intra module refs:   RI_Send
                                                   setFreq
    -------------------------------------------------------------------------
XDATA_I
  Relative segment, address: XDATA 00000949 - 00000955 (0xd bytes), align: 0
  Segment part 128.           Intra module refs:   RI_Send
                                                   setFreq
    -------------------------------------------------------------------------
XDATA_I
  Relative segment, address: XDATA 00000956 - 0000096D (0x18 bytes), align: 0
  Segment part 130.           Intra module refs:   setFreq
    -------------------------------------------------------------------------
XDATA_I
  Relative segment, address: XDATA 0000096E - 0000097E (0x11 bytes), align: 0
  Segment part 132.           Intra module refs:   Callback_execution
                                                   TIC_SetRXCallback
                                                   TIC_SetSECallback
                                                   TIC_SetTXCallback
                                                   TIC_SetTXState
                                                   TIC_SetTimer
    -------------------------------------------------------------------------
XDATA_I
  Relative segment, address: XDATA 0000097F - 00000984 (0x6 bytes), align: 0
  Segment part 134.           Intra module refs:   Callback_execution
                                                   TIC_HW_Timer_IRQ
                                                   TIC_SetRXCallback
                                                   TIC_SetSECallback
                                                   TIC_SetTXCallback
                                                   TIC_SetTXState
                                                   TIC_SetTimer
    -------------------------------------------------------------------------
XDATA_I
  Relative segment, address: XDATA 00000985 - 00000997 (0x13 bytes), align: 0
  Segment part 136.           Intra module refs:   TIC_SetTimer
    -------------------------------------------------------------------------
XDATA_I
  Relative segment, address: XDATA 00000998 - 000009B2 (0x1b bytes), align: 0
  Segment part 138.           Intra module refs:   Callback_execution
                                                   TIC_SetRXCallback
                                                   TIC_SetSECallback
                                                   TIC_SetTXCallback
                                                   TIC_SetTXState
                                                   TIC_SetTimer
    -------------------------------------------------------------------------
XDATA_I
  Relative segment, address: XDATA 000009B3 - 000009BF (0xd bytes), align: 0
  Segment part 140.           Intra module refs:   Callback_execution
                                                   TIC_SetRXCallback
                                                   TIC_SetSECallback
                                                   TIC_SetTXCallback
                                                   TIC_SetTXState
                                                   TIC_SetTimer
    -------------------------------------------------------------------------
XDATA_I
  Relative segment, address: XDATA 000009C0 - 000009CF (0x10 bytes), align: 0
  Segment part 142.           Intra module refs:   TIC_SetTXState
    -------------------------------------------------------------------------
XDATA_I
  Relative segment, address: XDATA 000009D0 - 000009DA (0xb bytes), align: 0
  Segment part 144.           Intra module refs:   TIC_SetRXCallback
                                                   TIC_SetSECallback
                                                   TIC_SetTXCallback
    -------------------------------------------------------------------------
XDATA_I
  Relative segment, address: XDATA 000009DB - 000009ED (0x13 bytes), align: 0
  Segment part 146.           Intra module refs:   TIC_HW_Timer_IRQ
    -------------------------------------------------------------------------
XDATA_I
  Relative segment, address: XDATA 000009EE - 000009FE (0x11 bytes), align: 0
  Segment part 148.           Intra module refs:   Callback_execution
    -------------------------------------------------------------------------
XDATA_I
  Relative segment, address: XDATA 000009FF - 00000A0A (0xc bytes), align: 0
  Segment part 150.           Intra module refs:   TIC_HW_Timer_IRQ
    -------------------------------------------------------------------------
XDATA_I
  Relative segment, address: XDATA 00000A0B - 00000A1D (0x13 bytes), align: 0
  Segment part 152.           Intra module refs:   main
    -------------------------------------------------------------------------
XDATA_I
  Relative segment, address: XDATA 00000A1E - 00000A25 (0x8 bytes), align: 0
  Segment part 154.           Intra module refs:   main
    -------------------------------------------------------------------------
XDATA_I
  Relative segment, address: XDATA 00000A26 - 00000A37 (0x12 bytes), align: 0
  Segment part 156.           Intra module refs:   main
    -------------------------------------------------------------------------
XDATA_I
  Relative segment, address: XDATA 00000A38 - 00000A4A (0x13 bytes), align: 0
  Segment part 158.           Intra module refs:   main
    -------------------------------------------------------------------------
XDATA_I
  Relative segment, address: XDATA 00000A4B - 00000A5F (0x15 bytes), align: 0
  Segment part 160.           Intra module refs:   main
    -------------------------------------------------------------------------
XDATA_I
  Relative segment, address: XDATA 00000A60 - 00000A62 (0x3 bytes), align: 0
  Segment part 162.           Intra module refs:   main
    -------------------------------------------------------------------------
XDATA_I
  Relative segment, address: XDATA 00000A63 - 00000A6C (0xa bytes), align: 0
  Segment part 300.           Intra module refs:   test_create
    -------------------------------------------------------------------------
XDATA_I
  Relative segment, address: XDATA 00000A6D - 00000A7F (0x13 bytes), align: 0
  Segment part 302.           Intra module refs:   test_create
    -------------------------------------------------------------------------
XDATA_I
  Relative segment, address: XDATA 00000A80 - 00000A8B (0xc bytes), align: 0
  Segment part 304.           Intra module refs:   test_create
    -------------------------------------------------------------------------
XDATA_I
  Relative segment, address: XDATA 00000A8C - 00000AB9 (0x2e bytes), align: 0
  Segment part 306.           Intra module refs:   test_create
    -------------------------------------------------------------------------
XDATA_I
  Relative segment, address: XDATA 00000ABA - 00000AE2 (0x29 bytes), align: 0
  Segment part 366.           Intra module refs:   umsg_line
    -------------------------------------------------------------------------
XDATA_I
  Relative segment, address: XDATA 00000AE3 - 00000AE7 (0x5 bytes), align: 0
  Segment part 368.           Intra module refs:   umsg_line
    -------------------------------------------------------------------------
XDATA_I
  Relative segment, address: XDATA 00000AE8 - 00000AF9 (0x12 bytes), align: 0
  Segment part 370.           Intra module refs:   umsg_summary
    -------------------------------------------------------------------------
XDATA_I
  Relative segment, address: XDATA 00000AFA - 00000B06 (0xd bytes), align: 0
  Segment part 372.           Intra module refs:   umsg_summary
    -------------------------------------------------------------------------
XDATA_I
  Relative segment, address: XDATA 00000B07 - 00000B13 (0xd bytes), align: 0
  Segment part 374.           Intra module refs:   umsg_summary
    -------------------------------------------------------------------------
XDATA_I
  Relative segment, address: XDATA 00000B14 - 00000B22 (0xf bytes), align: 0
  Segment part 376.           Intra module refs:   umsg_summary
    -------------------------------------------------------------------------
XDATA_I
  Relative segment, address: XDATA 00000B23 - 00000B31 (0xf bytes), align: 0
  Segment part 378.           Intra module refs:   umsg_summary
    -------------------------------------------------------------------------
XDATA_I
  Relative segment, address: XDATA 00000B32 - 00000B35 (0x4 bytes), align: 0
  Segment part 383.           Intra module refs:   Interval
           LOCAL                   ADDRESS         
           =====                   =======         
           MAC_TIMER_MAX           00000B32 
    -------------------------------------------------------------------------
XDATA_Z
  Relative segment, address: XDATA 00000411 - 00000414 (0x4 bytes), align: 0
  Segment part 385.           Intra module refs:   DelayCalibrate
                                                   TIM_delay
           LOCAL                   ADDRESS         
           =====                   =======         
           DELAY_CALIBRATE_TICS    00000411 
    -------------------------------------------------------------------------
<BANKED_CODE> 1 (was BANKED_CODE)
  Relative segment, address: CODE 00001913 - 00001923 (0x11 bytes), align: 0
  Segment part 468.           Intra module refs:   TIM_init::?relay
           ENTRY                   ADDRESS         REF BY
           =====                   =======         ======
           TIM_init                00001913 
               calls direct
               XSTACK = 000000BC ( 00000000 )
               ISTACK = 00000000 ( 00000002 )
    -------------------------------------------------------------------------
<BANKED_CODE> 1 (was BANKED_CODE)
  Relative segment, address: CODE 00001924 - 00001960 (0x3d bytes), align: 0
  Segment part 470.           Intra module refs:   TIM_TimeStamp::?relay
           ENTRY                   ADDRESS         REF BY
           =====                   =======         ======
           TIM_TimeStamp           00001924 
               XSTACK = 0000005B ( 00000000 )
               ISTACK = 00000000 ( 00000003 )
    -------------------------------------------------------------------------
<BANKED_CODE> 1 (was BANKED_CODE)
  Relative segment, address: CODE 00001961 - 000019F3 (0x93 bytes), align: 0
  Segment part 472.           Intra module refs:   DelayCalibrate::?relay
           LOCAL                   ADDRESS         
           =====                   =======         
           DelayCalibrate          00001961 
               calls direct
               XSTACK = 00000000 ( 00000028 )
    -------------------------------------------------------------------------
<BANKED_CODE> 1 (was BANKED_CODE)
  Relative segment, address: CODE 000019F4 - 00001A96 (0xa3 bytes), align: 0
  Segment part 474.           Intra module refs:   Interval::?relay
           LOCAL                   ADDRESS         
           =====                   =======         
           Interval                000019F4 
               XSTACK = 00000024 ( 00000012 )
    -------------------------------------------------------------------------
<BANKED_CODE> 1 (was BANKED_CODE)
  Relative segment, address: CODE 00001A97 - 00001AF4 (0x5e bytes), align: 0
  Segment part 476.           Intra module refs:   TIM_passedTime::?relay
           ENTRY                   ADDRESS         REF BY
           =====                   =======         ======
           TIM_passedTime          00001A97 
               calls direct
               XSTACK = 0000005B ( 00000012 )
    -------------------------------------------------------------------------
<BANKED_CODE> 1 (was BANKED_CODE)
  Relative segment, address: CODE 00001AF5 - 00001B79 (0x85 bytes), align: 0
  Segment part 478.           Intra module refs:   TIM_delay::?relay
           ENTRY                   ADDRESS         REF BY
           =====                   =======         ======
           TIM_delay               00001AF5 
               calls direct
               XSTACK = 00000028 ( 00000024 )
    -------------------------------------------------------------------------
<BANKED_CODE> 1 (was BANKED_CODE)
  Relative segment, address: CODE 00001B7A - 00001CCC (0x153 bytes), align: 0
  Segment part 482.           Intra module refs:   fbuf_create::?relay
           ENTRY                   ADDRESS         REF BY
           =====                   =======         ======
           fbuf_create             00001B7A 
               calls direct
               XSTACK = 00000096 ( 00000014 )
               ISTACK = 00000000 ( 00000001 )
    -------------------------------------------------------------------------
<BANKED_CODE> 1 (was BANKED_CODE)
  Relative segment, address: CODE 00001CCD - 00001D5A (0x8e bytes), align: 0
  Segment part 490.           Intra module refs:   frame_create::?relay
           ENTRY                   ADDRESS         REF BY
           =====                   =======         ======
           frame_create            00001CCD 
               calls direct
               XSTACK = 00000096 ( 0000000E )
    -------------------------------------------------------------------------
<BANKED_CODE> 1 (was BANKED_CODE)
  Relative segment, address: CODE 00001D5B - 00001D9C (0x42 bytes), align: 0
  Segment part 492.           Intra module refs:   frame_delete::?relay
           ENTRY                   ADDRESS         REF BY
           =====                   =======         ======
           frame_delete            00001D5B 
               calls direct
               XSTACK = 00000096 ( 0000000C )
    -------------------------------------------------------------------------
<BANKED_CODE> 1 (was BANKED_CODE)
  Relative segment, address: CODE 00001D9D - 00001DE4 (0x48 bytes), align: 0
  Segment part 494.           Intra module refs:   frame_insert_head::?relay
           ENTRY                   ADDRESS         REF BY
           =====                   =======         ======
           frame_insert_head       00001D9D 
               XSTACK = 00000096 ( 00000009 )
    -------------------------------------------------------------------------
<BANKED_CODE> 1 (was BANKED_CODE)
  Relative segment, address: CODE 00001DE5 - 00001F40 (0x15c bytes), align: 0
  Segment part 502.           Intra module refs:   frame_merge::?relay
           ENTRY                   ADDRESS         REF BY
           =====                   =======         ======
           frame_merge             00001DE5 
               calls direct
               XSTACK = 00000019 ( 00000018 )
               ISTACK = 00000000 ( 00000001 )
    -------------------------------------------------------------------------
<BANKED_CODE> 1 (was BANKED_CODE)
  Relative segment, address: CODE 00001F41 - 00001F71 (0x31 bytes), align: 0
  Segment part 504.           Intra module refs:   frame_len::?relay
           ENTRY                   ADDRESS         REF BY
           =====                   =======         ======
           frame_len               00001F41 
               XSTACK = 0000001C ( 00000000 )
               ISTACK = 00000000 ( 00000002 )
    -------------------------------------------------------------------------
XDATA_Z
  Relative segment, address: XDATA 00000415 - 00000415 (0x1 bytes), align: 0
  Segment part 386.           Intra module refs:   LLC_AddTask
                                                   LLC_Init
                                                   LLC_Shelduler
           LOCAL                   ADDRESS         
           =====                   =======         
           tasksBLOCK              00000415 
    -------------------------------------------------------------------------
XDATA_Z
  Relative segment, address: XDATA 00000416 - 00000417 (0x2 bytes), align: 0
  Segment part 387.           Intra module refs:   LLC_AddTask
                                                   LLC_Init
                                                   LLC_Shelduler
           LOCAL                   ADDRESS         
           =====                   =======         
           FirstTask               00000416 
    -------------------------------------------------------------------------
XDATA_Z
  Relative segment, address: XDATA 00000418 - 00000418 (0x1 bytes), align: 0
  Segment part 388.           Intra module refs:   LLC_AddTask
                                                   LLC_GetTaskLen
                                                   LLC_Init
                                                   LLC_Shelduler
           LOCAL                   ADDRESS         
           =====                   =======         
           nbrTasks                00000418 
    -------------------------------------------------------------------------
XDATA_Z
  Relative segment, address: XDATA 00000419 - 0000041A (0x2 bytes), align: 0
  Segment part 389.           Intra module refs:   LLC_RX_HNDL
           LOCAL                   ADDRESS         
           =====                   =======         
           RXCallback              00000419 
    -------------------------------------------------------------------------
XDATA_Z
  Relative segment, address: XDATA 0000041B - 0000041E (0x4 bytes), align: 0
  Segment part 390.           Intra module refs:   LLC_RunTimeAlloc
                                                   LLC_TimeAlloc
           LOCAL                   ADDRESS         
           =====                   =======         
           HeadAllocFunc           0000041B 
    -------------------------------------------------------------------------
<BANKED_CODE> 1 (was BANKED_CODE)
  Relative segment, address: CODE 00001F72 - 00001FA3 (0x32 bytes), align: 0
  Segment part 506.           Intra module refs:   LLC_Init::?relay
           ENTRY                   ADDRESS         REF BY
           =====                   =======         ======
           LLC_Init                00001F72 
               calls direct
               XSTACK = 0000001A ( 00000000 )
               ISTACK = 00000000 ( 00000002 )
    -------------------------------------------------------------------------
<BANKED_CODE> 1 (was BANKED_CODE)
  Relative segment, address: CODE 00001FA4 - 00001FB3 (0x10 bytes), align: 0
  Segment part 508.           Intra module refs:   LLC_GetTaskLen::?relay
           ENTRY                   ADDRESS         REF BY
           =====                   =======         ======
           LLC_GetTaskLen          00001FA4 
               XSTACK = 0000001A ( 00000000 )
               ISTACK = 00000000 ( 00000002 )
    -------------------------------------------------------------------------
<BANKED_CODE> 1 (was BANKED_CODE)
  Relative segment, address: CODE 00001FB4 - 00002048 (0x95 bytes), align: 0
  Segment part 512.           Intra module refs:   LLC_TimeAlloc::?relay
           ENTRY                   ADDRESS         REF BY
           =====                   =======         ======
           LLC_TimeAlloc           00001FB4 
               calls direct
               XSTACK = 0000001A ( 00000010 )
    -------------------------------------------------------------------------
<BANKED_CODE> 1 (was BANKED_CODE)
  Relative segment, address: CODE 00002049 - 000021DA (0x192 bytes), align: 0
  Segment part 514.           Intra module refs:   LLC_AddTask::?relay
           ENTRY                   ADDRESS         REF BY
           =====                   =======         ======
           LLC_AddTask             00002049 
               calls direct
               XSTACK = 0000001A ( 00000012 )
               ISTACK = 00000000 ( 00000001 )
    -------------------------------------------------------------------------
<BANKED_CODE> 1 (was BANKED_CODE)
  Relative segment, address: CODE 000021DB - 0000229A (0xc0 bytes), align: 0
  Segment part 516.           Intra module refs:   LLC_Shelduler::?relay
           LOCAL                   ADDRESS         
           =====                   =======         
           LLC_Shelduler           000021DB 
               calls direct
               XSTACK = 00000009 ( 0000000D )
    -------------------------------------------------------------------------
<BANKED_CODE> 1 (was BANKED_CODE)
  Relative segment, address: CODE 0000229B - 000022AE (0x14 bytes), align: 0
  Segment part 518.           Intra module refs:   LLC_SE_HNDL::?relay
           LOCAL                   ADDRESS         
           =====                   =======         
           LLC_SE_HNDL             0000229B 
               calls direct, is indirectly called
               XSTACK = 00000000 ( 00000009 )
    -------------------------------------------------------------------------
<BANKED_CODE> 1 (was BANKED_CODE)
  Relative segment, address: CODE 000022AF - 00002311 (0x63 bytes), align: 0
  Segment part 520.           Intra module refs:   LLC_RX_HNDL::?relay
           LOCAL                   ADDRESS         
           =====                   =======         
           LLC_RX_HNDL             000022AF 
               calls direct, is indirectly called
               XSTACK = 00000000 ( 0000000E )
    -------------------------------------------------------------------------
<BANKED_CODE> 1 (was BANKED_CODE)
  Relative segment, address: CODE 00002312 - 00002354 (0x43 bytes), align: 0
  Segment part 522.           Intra module refs:   LLC_RunTimeAlloc::?relay
           LOCAL                   ADDRESS         
           =====                   =======         
           LLC_RunTimeAlloc        00002312 
               XSTACK = 00000009 ( 00000009 )
    -------------------------------------------------------------------------
XDATA_Z
  Relative segment, address: XDATA 0000041F - 00000420 (0x2 bytes), align: 0
  Segment part 391.           Intra module refs:   MAC_RX_HNDL
                                                   MAC_SetRXCallback
           LOCAL                   ADDRESS         
           =====                   =======         
           RXCallback              0000041F 
    -------------------------------------------------------------------------
XDATA_Z
  Relative segment, address: XDATA 00000421 - 00000422 (0x2 bytes), align: 0
  Segment part 392.           Intra module refs:   MAC_TX_HNDL
           ENTRY                   ADDRESS         REF BY
           =====                   =======         ======
           isACK_OK                00000421 
    -------------------------------------------------------------------------
XDATA_I
  Relative segment, address: XDATA 00000B36 - 00000B45 (0x10 bytes), align: 0
  Segment part 393.           Intra module refs:   MAC_Init
           ENTRY                   ADDRESS         REF BY
           =====                   =======         ======
           KEY                     00000B36 
    -------------------------------------------------------------------------
XDATA_I
  Relative segment, address: XDATA 00000B46 - 00000B55 (0x10 bytes), align: 0
  Segment part 395.           Intra module refs:   MAC_Init
           ENTRY                   ADDRESS         REF BY
           =====                   =======         ======
           IV                      00000B46 
    -------------------------------------------------------------------------
XDATA_I
  Relative segment, address: XDATA 00000B56 - 00000B59 (0x4 bytes), align: 0
  Segment part 420.           Intra module refs:   DelayCalibrate
           ENTRY                   ADDRESS         REF BY
           =====                   =======         ======
           __Constant_1f4          00000B56 
    -------------------------------------------------------------------------
XDATA_I
  Relative segment, address: XDATA 00000B5A - 00000B5D (0x4 bytes), align: 0
  Segment part 422.           Intra module refs:   DelayCalibrate
           ENTRY                   ADDRESS         REF BY
           =====                   =======         ======
           __Constant_fffffe0c     00000B5A 
    -------------------------------------------------------------------------
XDATA_I
  Relative segment, address: XDATA 00000B5E - 00000B61 (0x4 bytes), align: 0
  Segment part 424.           Intra module refs:   DelayCalibrate
                                                   TIM_delay
           ENTRY                   ADDRESS         REF BY
           =====                   =======         ======
           __Constant_20           00000B5E 
    -------------------------------------------------------------------------
XDATA_I
  Relative segment, address: XDATA 00000B62 - 00000B65 (0x4 bytes), align: 0
  Segment part 426.           Intra module refs:   TIM_passedTime
           ENTRY                   ADDRESS         REF BY
           =====                   =======         ======
           __Constant_3d000000     00000B62 
    -------------------------------------------------------------------------
XDATA_I
  Relative segment, address: XDATA 00000B66 - 00000B69 (0x4 bytes), align: 0
  Segment part 428.           Intra module refs:   MAC_TX_HNDL
           ENTRY                   ADDRESS         REF BY
           =====                   =======         ======
           __Constant_7d0          00000B66 
    -------------------------------------------------------------------------
XDATA_I
  Relative segment, address: XDATA 00000B6A - 00000B6D (0x4 bytes), align: 0
  Segment part 430.           Intra module refs:   calcCompareTime
           ENTRY                   ADDRESS         REF BY
           =====                   =======         ======
           __Constant_ffff8000     00000B6A 
    -------------------------------------------------------------------------
XDATA_I
  Relative segment, address: XDATA 00000B6E - 00000B71 (0x4 bytes), align: 0
  Segment part 432.           Intra module refs:   calcCompareTime
           ENTRY                   ADDRESS         REF BY
           =====                   =======         ======
           __Constant_8000         00000B6E 
    -------------------------------------------------------------------------
XDATA_I
  Relative segment, address: XDATA 00000B72 - 00000B75 (0x4 bytes), align: 0
  Segment part 434.           Intra module refs:   calcCompareTime
           ENTRY                   ADDRESS         REF BY
           =====                   =======         ======
           __Constant_ffffff       00000B72 
    -------------------------------------------------------------------------
XDATA_I
  Relative segment, address: XDATA 00000B76 - 00000B79 (0x4 bytes), align: 0
  Segment part 436.           Intra module refs:   NT_GetTime
                                                   NT_WaitTime
           ENTRY                   ADDRESS         REF BY
           =====                   =======         ======
           __Constant_7fff         00000B76 
    -------------------------------------------------------------------------
XDATA_I
  Relative segment, address: XDATA 00000B7A - 00000B7D (0x4 bytes), align: 0
  Segment part 438.           Intra module refs:   RI_Receive
                                                   RI_Send
           ENTRY                   ADDRESS         REF BY
           =====                   =======         ======
           __Constant_447a0000     00000B7A 
    -------------------------------------------------------------------------
XDATA_I
  Relative segment, address: XDATA 00000B7E - 00000B81 (0x4 bytes), align: 0
  Segment part 440.           Intra module refs:   RI_Receive
                                                   RI_Send
                                                   clocks_update
           ENTRY                   ADDRESS         REF BY
           =====                   =======         ======
           __Constant_1            00000B7E 
    -------------------------------------------------------------------------
XDATA_I
  Relative segment, address: XDATA 00000B82 - 00000B85 (0x4 bytes), align: 0
  Segment part 442.           Intra module refs:   RI_Receive
           ENTRY                   ADDRESS         REF BY
           =====                   =======         ======
           __Constant_3e8          00000B82 
    -------------------------------------------------------------------------
XDATA_I
  Relative segment, address: XDATA 00000B86 - 00000B89 (0x4 bytes), align: 0
  Segment part 444.           Intra module refs:   clocks_update
           ENTRY                   ADDRESS         REF BY
           =====                   =======         ======
           __Constant_15180        00000B86 
    -------------------------------------------------------------------------
XDATA_I
  Relative segment, address: XDATA 00000B8A - 00000B8D (0x4 bytes), align: 0
  Segment part 446.           Intra module refs:   _LdtobLarge (?xprintflarge)
           ENTRY                   ADDRESS         REF BY
           =====                   =======         ======
           __Constant_a            00000B8A 
    -------------------------------------------------------------------------
XDATA_Z
  Relative segment, address: XDATA 00000423 - 00000580 (0x15e bytes), align: 0
  Segment part 397.           Intra module refs:   MAC_GetTXState
                                                   MAC_Init
                                                   MAC_RX_HNDL
                                                   MAC_Send
                                                   MAC_TX_HNDL
           ENTRY                   ADDRESS         REF BY
           =====                   =======         ======
           MACSlotTable            00000423 
    -------------------------------------------------------------------------
<BANKED_CODE> 1 (was BANKED_CODE)
  Relative segment, address: CODE 00002355 - 000023A6 (0x52 bytes), align: 0
  Segment part 526.           Intra module refs:   MAC_Init::?relay
           ENTRY                   ADDRESS         REF BY
           =====                   =======         ======
           MAC_Init                00002355 
               calls direct
               XSTACK = 0000002A ( 0000000C )
    -------------------------------------------------------------------------
<BANKED_CODE> 1 (was BANKED_CODE)
  Relative segment, address: CODE 000023A7 - 000024F8 (0x152 bytes), align: 0
  Segment part 532.           Intra module refs:   MAC_Send::?relay
           ENTRY                   ADDRESS         REF BY
           =====                   =======         ======
           MAC_Send                000023A7 
               calls direct
               XSTACK = 0000001A ( 00000010 )
               ISTACK = 00000000 ( 00000001 )
    -------------------------------------------------------------------------
<BANKED_CODE> 1 (was BANKED_CODE)
  Relative segment, address: CODE 000024F9 - 0000250B (0x13 bytes), align: 0
  Segment part 538.           Intra module refs:   MAC_SetRXCallback::?relay
           ENTRY                   ADDRESS         REF BY
           =====                   =======         ======
           MAC_SetRXCallback       000024F9 
               ISTACK = 00000000 ( 00000002 )
    -------------------------------------------------------------------------
<BANKED_CODE> 1 (was BANKED_CODE)
  Relative segment, address: CODE 0000250C - 0000257A (0x6f bytes), align: 0
  Segment part 540.           Intra module refs:   MAC_GetTXState::?relay
           ENTRY                   ADDRESS         REF BY
           =====                   =======         ======
           MAC_GetTXState          0000250C 
               calls direct
               XSTACK = 0000001A ( 0000000E )
    -------------------------------------------------------------------------
<BANKED_CODE> 1 (was BANKED_CODE)
  Relative segment, address: CODE 0000257B - 00002619 (0x9f bytes), align: 0
  Segment part 544.           Intra module refs:   MAC_RX_HNDL::?relay
           LOCAL                   ADDRESS         
           =====                   =======         
           MAC_RX_HNDL             0000257B 
               calls direct, is indirectly called
               XSTACK = 00000000 ( 00000010 )
    -------------------------------------------------------------------------
<BANKED_CODE> 1 (was BANKED_CODE)
  Relative segment, address: CODE 0000261A - 00002941 (0x328 bytes), align: 0
  Segment part 546.           Intra module refs:   MAC_TX_HNDL::?relay
           LOCAL                   ADDRESS         
           =====                   =======         
           MAC_TX_HNDL             0000261A 
               calls direct, is indirectly called
               XSTACK = 00000000 ( 00000010 )
               ISTACK = 00000000 ( 00000001 )
    -------------------------------------------------------------------------
XDATA_Z
  Relative segment, address: XDATA 00000581 - 00000582 (0x2 bytes), align: 0
  Segment part 398.           Intra module refs:   NT_SetEventCallback
                                                   TimerCompareInterrupt
           LOCAL                   ADDRESS         
           =====                   =======         
           EventCallback           00000581 
    -------------------------------------------------------------------------
XDATA_Z
  Relative segment, address: XDATA 00000583 - 00000586 (0x4 bytes), align: 0
  Segment part 399.           Intra module refs:   NT_SetCompare
                                                   NT_SetTime
           LOCAL                   ADDRESS         
           =====                   =======         
           COMPARE_TIME            00000583 
    -------------------------------------------------------------------------
XDATA_Z
  Relative segment, address: XDATA 00000587 - 00000588 (0x2 bytes), align: 0
  Segment part 400.           Intra module refs:   NT_GetTime
                                                   NT_SetTime
                                                   NT_WaitTime
                                                   calcCompareTime
           ENTRY                   ADDRESS         REF BY
           =====                   =======         ======
           TOFFSET                 00000587 
    -------------------------------------------------------------------------
<BANKED_CODE> 1 (was BANKED_CODE)
  Relative segment, address: CODE 00002942 - 000029DE (0x9d bytes), align: 0
  Segment part 550.           Intra module refs:   NT_SetTime::?relay
           ENTRY                   ADDRESS         REF BY
           =====                   =======         ======
           NT_SetTime              00002942 
               calls direct
               XSTACK = 0000000A ( 00000012 )
    -------------------------------------------------------------------------
<BANKED_CODE> 1 (was BANKED_CODE)
  Relative segment, address: CODE 000029DF - 00002B5C (0x17e bytes), align: 0
  Segment part 552.           Intra module refs:   calcCompareTime::?relay
           LOCAL                   ADDRESS         
           =====                   =======         
           calcCompareTime         000029DF 
               calls direct
               XSTACK = 0000000C ( 00000024 )
               ISTACK = 00000000 ( 00000002 )
    -------------------------------------------------------------------------
<BANKED_CODE> 1 (was BANKED_CODE)
  Relative segment, address: CODE 00002B5D - 00002BDE (0x82 bytes), align: 0
  Segment part 554.           Intra module refs:   NT_SetCompare::?relay
           ENTRY                   ADDRESS         REF BY
           =====                   =======         ======
           NT_SetCompare           00002B5D 
               calls direct
               XSTACK = 0000000E ( 00000010 )
    -------------------------------------------------------------------------
<BANKED_CODE> 1 (was BANKED_CODE)
  Relative segment, address: CODE 00002BDF - 00002BF1 (0x13 bytes), align: 0
  Segment part 556.           Intra module refs:   NT_IRQEnable::?relay
           LOCAL                   ADDRESS         
           =====                   =======         
           NT_IRQEnable            00002BDF 
               XSTACK = 0000000F ( 00000000 )
    -------------------------------------------------------------------------
<BANKED_CODE> 1 (was BANKED_CODE)
  Relative segment, address: CODE 00002BF2 - 00002BFC (0xb bytes), align: 0
  Segment part 558.           Intra module refs:   isIRQEnable::?relay
           LOCAL                   ADDRESS         
           =====                   =======         
           isIRQEnable             00002BF2 
               XSTACK = 0000000E ( 00000000 )
    -------------------------------------------------------------------------
<BANKED_CODE> 1 (was BANKED_CODE)
  Relative segment, address: CODE 00002BFD - 00002C0F (0x13 bytes), align: 0
  Segment part 560.           Intra module refs:   NT_SetEventCallback::?relay
           ENTRY                   ADDRESS         REF BY
           =====                   =======         ======
           NT_SetEventCallback     00002BFD 
               XSTACK = 00000009 ( 00000000 )
               ISTACK = 00000000 ( 00000002 )
    -------------------------------------------------------------------------
<BANKED_CODE> 1 (was BANKED_CODE)
  Relative segment, address: CODE 00002C10 - 00002C46 (0x37 bytes), align: 0
  Segment part 562.           Intra module refs:   NT_GetTime::?relay
           ENTRY                   ADDRESS         REF BY
           =====                   =======         ======
           NT_GetTime              00002C10 
               calls direct
               XSTACK = 00000020 ( 00000010 )
    -------------------------------------------------------------------------
NEAR_CODE
  Relative segment, address: CODE 000015A8 - 000015E3 (0x3c bytes), align: 0
  Segment part 788.           Intra module refs:   TimerCompareInterrupt::??INTVEC 43
           ENTRY                   ADDRESS         REF BY
           =====                   =======         ======
           TimerCompareInterrupt   000015A8 
               interrupt function
               calls direct
               XSTACK = 00000000 ( 0000000F )
    -------------------------------------------------------------------------
<BANKED_CODE> 1 (was BANKED_CODE)
  Relative segment, address: CODE 00002C47 - 00002CC4 (0x7e bytes), align: 0
  Segment part 564.           Intra module refs:   NT_WaitTime::?relay
           ENTRY                   ADDRESS         REF BY
           =====                   =======         ======
           NT_WaitTime             00002C47 
               XSTACK = 0000000F ( 0000000C )
    -------------------------------------------------------------------------
XDATA_Z
  Relative segment, address: XDATA 00000589 - 0000058C (0x4 bytes), align: 0
  Segment part 401.           Intra module refs:   NT_WaitTime
           LOCAL                   ADDRESS         
           =====                   =======         
           NT_WaitTime::val        00000589 
    -------------------------------------------------------------------------
<BANKED_CODE> 1 (was BANKED_CODE)
  Relative segment, address: CODE 00002CC5 - 00002CFF (0x3b bytes), align: 0
  Segment part 566.           Intra module refs:   ReadTimer::?relay
           LOCAL                   ADDRESS         
           =====                   =======         
           ReadTimer               00002CC5 
               XSTACK = 0000001C ( 00000000 )
               ISTACK = 00000000 ( 00000002 )
    -------------------------------------------------------------------------
XDATA_Z
  Relative segment, address: XDATA 0000058D - 00000590 (0x4 bytes), align: 0
  Segment part 402.           Intra module refs:   ReadTimer
           LOCAL                   ADDRESS         
           =====                   =======         
           ReadTimer::ret_val      0000058D 
    -------------------------------------------------------------------------
<BANKED_CODE> 1 (was BANKED_CODE)
  Relative segment, address: CODE 00002D00 - 00002D45 (0x46 bytes), align: 0
  Segment part 568.           Intra module refs:   loadTimerCompare::?relay
           LOCAL                   ADDRESS         
           =====                   =======         
           loadTimerCompare        00002D00 
               XSTACK = 0000000C ( 00000010 )
    -------------------------------------------------------------------------
<BANKED_CODE> 1 (was BANKED_CODE)
  Relative segment, address: CODE 00002D46 - 00002D58 (0x13 bytes), align: 0
  Segment part 570.           Intra module refs:   uart_init::?relay
           LOCAL                   ADDRESS         
           =====                   =======         
           uart_init               00002D46 
    -------------------------------------------------------------------------
<BANKED_CODE> 1 (was BANKED_CODE)
  Relative segment, address: CODE 00002D59 - 00002D64 (0xc bytes), align: 0
  Segment part 572.           Intra module refs:   SetCPU32M::?relay
           LOCAL                   ADDRESS         
           =====                   =======         
           SetCPU32M               00002D59 
    -------------------------------------------------------------------------
<BANKED_CODE> 1 (was BANKED_CODE)
  Relative segment, address: CODE 00002D65 - 00002D75 (0x11 bytes), align: 0
  Segment part 574.           Intra module refs:   nwDebugerInit::?relay
           ENTRY                   ADDRESS         REF BY
           =====                   =======         ======
           nwDebugerInit           00002D65 
               calls direct
               ISTACK = 00000000 ( 00000002 )
    -------------------------------------------------------------------------
<BANKED_CODE> 1 (was BANKED_CODE)
  Relative segment, address: CODE 00002D76 - 00002D81 (0xc bytes), align: 0
  Segment part 576.           Intra module refs:   MyLowLevelPutchar::?relay
           ENTRY                   ADDRESS         REF BY
           =====                   =======         ======
           MyLowLevelPutchar       00002D76 
               XSTACK = 00000010 ( 00000000 )
    -------------------------------------------------------------------------
<BANKED_CODE> 1 (was BANKED_CODE)
  Relative segment, address: CODE 00002D82 - 00002E1D (0x9c bytes), align: 0
  Segment part 578.           Intra module refs:   __write::?relay
           ENTRY                   ADDRESS         REF BY
           =====                   =======         ======
           __write                 00002D82 
               calls direct
               XSTACK = 00000002 ( 00000010 )
    -------------------------------------------------------------------------
XDATA_Z
  Relative segment, address: XDATA 00000591 - 00000594 (0x4 bytes), align: 0
  Segment part 403.           Intra module refs:   RI_Receive
                                                   RI_Send
           LOCAL                   ADDRESS         
           =====                   =======         
           RI_UPTIME               00000591 
    -------------------------------------------------------------------------
XDATA_Z
  Relative segment, address: XDATA 00000595 - 00000598 (0x4 bytes), align: 0
  Segment part 404.           Intra module refs:   RI_Receive
           LOCAL                   ADDRESS         
           =====                   =======         
           RI_CRC_ERROR            00000595 
    -------------------------------------------------------------------------
XDATA_Z
  Relative segment, address: XDATA 00000599 - 0000059C (0x4 bytes), align: 0
  Segment part 405.           Intra module refs:   RI_Send
           LOCAL                   ADDRESS         
           =====                   =======         
           RI_CCA_REJECT           00000599 
    -------------------------------------------------------------------------
XDATA_Z
  Relative segment, address: XDATA 0000059D - 000005AC (0x10 bytes), align: 0
  Segment part 406.           Intra module refs:   RI_BitRawCrypt
                                                   RI_BitRawDecrypt
                                                   RI_setIV
           LOCAL                   ADDRESS         
           =====                   =======         
           IV                      0000059D 
    -------------------------------------------------------------------------
XDATA_Z
  Relative segment, address: XDATA 000005AD - 000005BC (0x10 bytes), align: 0
  Segment part 407.           Intra module refs:   RI_BitRawCrypt
                                                   RI_BitRawDecrypt
                                                   RI_setKEY
           LOCAL                   ADDRESS         
           =====                   =======         
           KEY                     000005AD 
    -------------------------------------------------------------------------
XDATA_Z
  Relative segment, address: XDATA 000005BD - 000005C0 (0x4 bytes), align: 0
  Segment part 408.           Intra module refs:   RI_BitRawCrypt
                                                   RI_BitRawDecrypt
                                                   RI_Receive
                                                   RI_SetChannel
                                                   RI_StreamCrypt
                                                   RI_cfg
                                                   RI_init
                                                   setFreq
           ENTRY                   ADDRESS         REF BY
           =====                   =======         ======
           RADIO_CFG               000005BD 
    -------------------------------------------------------------------------
<BANKED_CODE> 1 (was BANKED_CODE)
  Relative segment, address: CODE 00002E1E - 00002E46 (0x29 bytes), align: 0
  Segment part 580.           Intra module refs:   RI_setIV::?relay
           ENTRY                   ADDRESS         REF BY
           =====                   =======         ======
           RI_setIV                00002E1E 
               calls direct
               XSTACK = 00000096 ( 0000000C )
    -------------------------------------------------------------------------
<BANKED_CODE> 1 (was BANKED_CODE)
  Relative segment, address: CODE 00002E47 - 00002E6F (0x29 bytes), align: 0
  Segment part 582.           Intra module refs:   RI_setKEY::?relay
           ENTRY                   ADDRESS         REF BY
           =====                   =======         ======
           RI_setKEY               00002E47 
               calls direct
               XSTACK = 00000096 ( 0000000C )
    -------------------------------------------------------------------------
<BANKED_CODE> 1 (was BANKED_CODE)
  Relative segment, address: CODE 00002E70 - 00002E95 (0x26 bytes), align: 0
  Segment part 584.           Intra module refs:   RI_init::?relay
           ENTRY                   ADDRESS         REF BY
           =====                   =======         ======
           RI_init                 00002E70 
               calls direct
               XSTACK = 00000096 ( 00000000 )
               ISTACK = 00000000 ( 00000002 )
    -------------------------------------------------------------------------
<BANKED_CODE> 1 (was BANKED_CODE)
  Relative segment, address: CODE 00002E96 - 00002F02 (0x6d bytes), align: 0
  Segment part 586.           Intra module refs:   RI_cfg::?relay
           LOCAL                   ADDRESS         
           =====                   =======         
           RI_cfg                  00002E96 
               calls direct
               XSTACK = 0000002E ( 00000001 )
               ISTACK = 00000000 ( 00000003 )
    -------------------------------------------------------------------------
<BANKED_CODE> 1 (was BANKED_CODE)
  Relative segment, address: CODE 00002F03 - 00002F22 (0x20 bytes), align: 0
  Segment part 588.           Intra module refs:   RI_SetChannel::?relay
           ENTRY                   ADDRESS         REF BY
           =====                   =======         ======
           RI_SetChannel           00002F03 
               XSTACK = 00000096 ( 00000000 )
               ISTACK = 00000000 ( 00000002 )
    -------------------------------------------------------------------------
<BANKED_CODE> 1 (was BANKED_CODE)
  Relative segment, address: CODE 00002F23 - 00002FFB (0xd9 bytes), align: 0
  Segment part 590.           Intra module refs:   RI_Send::?relay
           ENTRY                   ADDRESS         REF BY
           =====                   =======         ======
           RI_Send                 00002F23 
               calls direct
               XSTACK = 00000020 ( 00000028 )
    -------------------------------------------------------------------------
<BANKED_CODE> 1 (was BANKED_CODE)
  Relative segment, address: CODE 00002FFC - 000030C7 (0xcc bytes), align: 0
  Segment part 592.           Intra module refs:   SendData::?relay
           LOCAL                   ADDRESS         
           =====                   =======         
           SendData                00002FFC 
               calls direct
               XSTACK = 00000024 ( 0000000F )
    -------------------------------------------------------------------------
<BANKED_CODE> 1 (was BANKED_CODE)
  Relative segment, address: CODE 000030C8 - 000030F9 (0x32 bytes), align: 0
  Segment part 594.           Intra module refs:   LoadTXData::?relay
           LOCAL                   ADDRESS         
           =====                   =======         
           LoadTXData              000030C8 
               XSTACK = 0000000F ( 00000000 )
               ISTACK = 00000000 ( 00000002 )
    -------------------------------------------------------------------------
<BANKED_CODE> 1 (was BANKED_CODE)
  Relative segment, address: CODE 000030FA - 00003121 (0x28 bytes), align: 0
  Segment part 596.           Intra module refs:   UnLoadRXData::?relay
           LOCAL                   ADDRESS         
           =====                   =======         
           UnLoadRXData            000030FA 
               XSTACK = 0000002E ( 00000000 )
               ISTACK = 00000000 ( 00000003 )
    -------------------------------------------------------------------------
<BANKED_CODE> 1 (was BANKED_CODE)
  Relative segment, address: CODE 00003122 - 0000319A (0x79 bytes), align: 0
  Segment part 598.           Intra module refs:   setFreq::?relay
           LOCAL                   ADDRESS         
           =====                   =======         
           setFreq                 00003122 
               calls direct
               XSTACK = 00000001 ( 0000000F )
               ISTACK = 00000000 ( 00000001 )
    -------------------------------------------------------------------------
<BANKED_CODE> 1 (was BANKED_CODE)
  Relative segment, address: CODE 0000319B - 000033FF (0x265 bytes), align: 0
  Segment part 600.           Intra module refs:   RI_Receive::?relay
           ENTRY                   ADDRESS         REF BY
           =====                   =======         ======
           RI_Receive              0000319B 
               calls direct
               XSTACK = 00000034 ( 00000030 )
               ISTACK = 00000000 ( 00000001 )
    -------------------------------------------------------------------------
<BANKED_CODE> 1 (was BANKED_CODE)
  Relative segment, address: CODE 00003400 - 00003497 (0x98 bytes), align: 0
  Segment part 602.           Intra module refs:   RecvData::?relay
           LOCAL                   ADDRESS         
           =====                   =======         
           RecvData                00003400 
               calls direct
               XSTACK = 00000030 ( 00000020 )
    -------------------------------------------------------------------------
<BANKED_CODE> 1 (was BANKED_CODE)
  Relative segment, address: CODE 00003498 - 000034B9 (0x22 bytes), align: 0
  Segment part 610.           Intra module refs:   bits_count::?relay
           LOCAL                   ADDRESS         
           =====                   =======         
           bits_count              00003498 
               XSTACK = 00000009 ( 00000000 )
    -------------------------------------------------------------------------
<BANKED_CODE> 1 (was BANKED_CODE)
  Relative segment, address: CODE 000034BA - 000034EE (0x35 bytes), align: 0
  Segment part 612.           Intra module refs:   getRNDByte::?relay
           LOCAL                   ADDRESS         
           =====                   =======         
           getRNDByte              000034BA 
               XSTACK = 00000009 ( 00000000 )
               ISTACK = 00000000 ( 00000002 )
    -------------------------------------------------------------------------
<BANKED_CODE> 1 (was BANKED_CODE)
  Relative segment, address: CODE 000034EF - 00003524 (0x36 bytes), align: 0
  Segment part 614.           Intra module refs:   readRandom::?relay
           LOCAL                   ADDRESS         
           =====                   =======         
           readRandom              000034EF 
               calls direct
               XSTACK = 00000009 ( 00000009 )
    -------------------------------------------------------------------------
<BANKED_CODE> 1 (was BANKED_CODE)
  Relative segment, address: CODE 00003525 - 00003572 (0x4e bytes), align: 0
  Segment part 616.           Intra module refs:   random_core_init::?relay
           LOCAL                   ADDRESS         
           =====                   =======         
           random_core_init        00003525 
               calls direct
               XSTACK = 00000000 ( 00000009 )
    -------------------------------------------------------------------------
<BANKED_CODE> 1 (was BANKED_CODE)
  Relative segment, address: CODE 00003573 - 00003589 (0x17 bytes), align: 0
  Segment part 618.           Intra module refs:   RI_StreamCrypt::?relay
           ENTRY                   ADDRESS         REF BY
           =====                   =======         ======
           RI_StreamCrypt          00003573 
               XSTACK = 00000096 ( 00000000 )
               ISTACK = 00000000 ( 00000002 )
    -------------------------------------------------------------------------
<BANKED_CODE> 1 (was BANKED_CODE)
  Relative segment, address: CODE 0000358A - 000035C9 (0x40 bytes), align: 0
  Segment part 620.           Intra module refs:   RI_BitRawCrypt::?relay
           LOCAL                   ADDRESS         
           =====                   =======         
           RI_BitRawCrypt          0000358A 
               calls direct
               XSTACK = 0000000F ( 00000010 )
    -------------------------------------------------------------------------
<BANKED_CODE> 1 (was BANKED_CODE)
  Relative segment, address: CODE 000035CA - 00003609 (0x40 bytes), align: 0
  Segment part 622.           Intra module refs:   RI_BitRawDecrypt::?relay
           LOCAL                   ADDRESS         
           =====                   =======         
           RI_BitRawDecrypt        000035CA 
               calls direct
               XSTACK = 0000002E ( 00000010 )
    -------------------------------------------------------------------------
XDATA_Z
  Relative segment, address: XDATA 000005C1 - 000005C4 (0x4 bytes), align: 0
  Segment part 409.           Intra module refs:   clocks_update
           LOCAL                   ADDRESS         
           =====                   =======         
           NODE_UPTIME             000005C1 
    -------------------------------------------------------------------------
XDATA_Z
  Relative segment, address: XDATA 000005C5 - 000005C8 (0x4 bytes), align: 0
  Segment part 410.           Intra module refs:   clocks_update
           LOCAL                   ADDRESS         
           =====                   =======         
           NODE_RTC                000005C5 
    -------------------------------------------------------------------------
XDATA_Z
  Relative segment, address: XDATA 000005C9 - 000005CC (0x4 bytes), align: 0
  Segment part 411.           Intra module refs:   clocks_update
           LOCAL                   ADDRESS         
           =====                   =======         
           NODE_NONCE              000005C9 
    -------------------------------------------------------------------------
XDATA_Z
  Relative segment, address: XDATA 000005CD - 000005CE (0x2 bytes), align: 0
  Segment part 412.           Intra module refs:   TIC_HW_Timer_IRQ
                                                   TIC_SetRXCallback
           LOCAL                   ADDRESS         
           =====                   =======         
           RXCallback              000005CD 
    -------------------------------------------------------------------------
XDATA_Z
  Relative segment, address: XDATA 000005CF - 000005D0 (0x2 bytes), align: 0
  Segment part 413.           Intra module refs:   TIC_HW_Timer_IRQ
                                                   TIC_SetTXCallback
           LOCAL                   ADDRESS         
           =====                   =======         
           TXCallback              000005CF 
    -------------------------------------------------------------------------
XDATA_Z
  Relative segment, address: XDATA 000005D1 - 000005D2 (0x2 bytes), align: 0
  Segment part 414.           Intra module refs:   TIC_HW_Timer_IRQ
                                                   TIC_SetSECallback
           LOCAL                   ADDRESS         
           =====                   =======         
           SECallback              000005D1 
    -------------------------------------------------------------------------
XDATA_Z
  Relative segment, address: XDATA 000005D3 - 00000604 (0x32 bytes), align: 0
  Segment part 415.           Intra module refs:   TIC_HW_Timer_IRQ
                                                   TIC_SetTXState
                                                   TIC_TDMAShelduler
           LOCAL                   ADDRESS         
           =====                   =======         
           TSStateTable            000005D3 
    -------------------------------------------------------------------------
XDATA_Z
  Relative segment, address: XDATA 00000605 - 0000060C (0x8 bytes), align: 0
  Segment part 416.           Intra module refs:   TIC_HW_Timer_IRQ
                                                   TIC_Init
           LOCAL                   ADDRESS         
           =====                   =======         
           TimeStampTS0            00000605 
    -------------------------------------------------------------------------
<BANKED_CODE> 1 (was BANKED_CODE)
  Relative segment, address: CODE 0000360A - 00003630 (0x27 bytes), align: 0
  Segment part 626.           Intra module refs:   TIC_Init::?relay
           ENTRY                   ADDRESS         REF BY
           =====                   =======         ======
           TIC_Init                0000360A 
               calls direct
               XSTACK = 00000096 ( 00000000 )
               ISTACK = 00000000 ( 00000002 )
    -------------------------------------------------------------------------
<BANKED_CODE> 1 (was BANKED_CODE)
  Relative segment, address: CODE 00003631 - 0000368E (0x5e bytes), align: 0
  Segment part 630.           Intra module refs:   TIC_SetTimer::?relay
           ENTRY                   ADDRESS         REF BY
           =====                   =======         ======
           TIC_SetTimer            00003631 
               calls direct
               XSTACK = 00000000 ( 0000000E )
    -------------------------------------------------------------------------
<BANKED_CODE> 1 (was BANKED_CODE)
  Relative segment, address: CODE 0000368F - 0000370F (0x81 bytes), align: 0
  Segment part 634.           Intra module refs:   TIC_SetTXState::?relay
           ENTRY                   ADDRESS         REF BY
           =====                   =======         ======
           TIC_SetTXState          0000368F 
               calls direct
               XSTACK = 0000000C ( 0000000E )
    -------------------------------------------------------------------------
<BANKED_CODE> 1 (was BANKED_CODE)
  Relative segment, address: CODE 00003710 - 00003760 (0x51 bytes), align: 0
  Segment part 642.           Intra module refs:   TIC_SetRXCallback::?relay
           ENTRY                   ADDRESS         REF BY
           =====                   =======         ======
           TIC_SetRXCallback       00003710 
               calls direct
               XSTACK = 0000000C ( 0000000E )
    -------------------------------------------------------------------------
<BANKED_CODE> 1 (was BANKED_CODE)
  Relative segment, address: CODE 00003761 - 000037B1 (0x51 bytes), align: 0
  Segment part 644.           Intra module refs:   TIC_SetTXCallback::?relay
           ENTRY                   ADDRESS         REF BY
           =====                   =======         ======
           TIC_SetTXCallback       00003761 
               calls direct
               XSTACK = 0000000C ( 0000000E )
    -------------------------------------------------------------------------
<BANKED_CODE> 1 (was BANKED_CODE)
  Relative segment, address: CODE 000037B2 - 00003802 (0x51 bytes), align: 0
  Segment part 646.           Intra module refs:   TIC_SetSECallback::?relay
           ENTRY                   ADDRESS         REF BY
           =====                   =======         ======
           TIC_SetSECallback       000037B2 
               calls direct
               XSTACK = 0000001A ( 0000000E )
    -------------------------------------------------------------------------
<BANKED_CODE> 1 (was BANKED_CODE)
  Relative segment, address: CODE 00003803 - 0000383F (0x3d bytes), align: 0
  Segment part 654.           Intra module refs:   TIC_getCurrentTS::?relay
           LOCAL                   ADDRESS         
           =====                   =======         
           TIC_getCurrentTS        00003803 
               XSTACK = 0000000C ( 0000000A )
    -------------------------------------------------------------------------
<BANKED_CODE> 1 (was BANKED_CODE)
  Relative segment, address: CODE 00003840 - 00003863 (0x24 bytes), align: 0
  Segment part 656.           Intra module refs:   incrementTS::?relay
           LOCAL                   ADDRESS         
           =====                   =======         
           incrementTS             00003840 
               XSTACK = 00000001 ( 00000000 )
               ISTACK = 00000000 ( 00000002 )
    -------------------------------------------------------------------------
<BANKED_CODE> 1 (was BANKED_CODE)
  Relative segment, address: CODE 00003864 - 000038A6 (0x43 bytes), align: 0
  Segment part 658.           Intra module refs:   set_capture_time::?relay
           LOCAL                   ADDRESS         
           =====                   =======         
           set_capture_time        00003864 
               calls direct
               XSTACK = 00000001 ( 00000009 )
    -------------------------------------------------------------------------
<BANKED_CODE> 1 (was BANKED_CODE)
  Relative segment, address: CODE 000038A7 - 00003902 (0x5c bytes), align: 0
  Segment part 660.           Intra module refs:   TIC_TDMAShelduler::?relay
           LOCAL                   ADDRESS         
           =====                   =======         
           TIC_TDMAShelduler       000038A7 
               calls direct
               XSTACK = 0000000C ( 00000001 )
               ISTACK = 00000000 ( 00000003 )
    -------------------------------------------------------------------------
<BANKED_CODE> 1 (was BANKED_CODE)
  Relative segment, address: CODE 00003903 - 0000395A (0x58 bytes), align: 0
  Segment part 662.           Intra module refs:   Callback_execution::?relay
           LOCAL                   ADDRESS         
           =====                   =======         
           Callback_execution      00003903 
               calls direct
               XSTACK = 0000000C ( 00000010 )
    -------------------------------------------------------------------------
<BANKED_CODE> 1 (was BANKED_CODE)
  Relative segment, address: CODE 0000395B - 00003A0C (0xb2 bytes), align: 0
  Segment part 664.           Intra module refs:   TIC_HW_Timer_IRQ::?relay
           LOCAL                   ADDRESS         
           =====                   =======         
           TIC_HW_Timer_IRQ        0000395B 
               calls direct, is indirectly called
               XSTACK = 00000000 ( 00000010 )
    -------------------------------------------------------------------------
<BANKED_CODE> 1 (was BANKED_CODE)
  Relative segment, address: CODE 00003A0D - 00003A6A (0x5e bytes), align: 0
  Segment part 666.           Intra module refs:   clocks_update::?relay
           LOCAL                   ADDRESS         
           =====                   =======         
           clocks_update           00003A0D 
               XSTACK = 0000000C ( 0000000C )
    -------------------------------------------------------------------------
<BANKED_CODE> 1 (was BANKED_CODE)
  Relative segment, address: CODE 00003A6B - 00003AD6 (0x6c bytes), align: 0
  Segment part 672.
           ENTRY                   ADDRESS         REF BY
           =====                   =======         ======
           main                    00003A6B        ?call_main (?cmain)
               calls direct
               XSTACK = 00000000 ( 00000004 )
    -------------------------------------------------------------------------
<BANKED_CODE> 1 (was BANKED_CODE)
  Relative segment, address: CODE 00003AD7 - 00003AFB (0x25 bytes), align: 0
  Segment part 722.           Intra module refs:   timealloc::?relay
           LOCAL                   ADDRESS         
           =====                   =======         
           timealloc               00003AD7 
               calls direct, is indirectly called
               ISTACK = 00000000 ( 00000002 )
    -------------------------------------------------------------------------
XDATA_Z
  Relative segment, address: XDATA 0000060D - 0000060D (0x1 bytes), align: 0
  Segment part 417.           Intra module refs:   timealloc
           LOCAL                   ADDRESS         
           =====                   =======         
           timealloc::led_stat     0000060D 
    -------------------------------------------------------------------------
<BANKED_CODE> 1 (was BANKED_CODE)
  Relative segment, address: CODE 00003AFC - 00003B8D (0x92 bytes), align: 0
  Segment part 724.           Intra module refs:   getFrame::?relay
           LOCAL                   ADDRESS         
           =====                   =======         
           getFrame                00003AFC 
               calls direct
               XSTACK = 0000001A ( 00000012 )
               ISTACK = 00000000 ( 00000001 )
    -------------------------------------------------------------------------
<BANKED_CODE> 1 (was BANKED_CODE)
  Relative segment, address: CODE 00003B8E - 00003C72 (0xe5 bytes), align: 0
  Segment part 726.           Intra module refs:   test_create::?relay
           LOCAL                   ADDRESS         
           =====                   =======         
           test_create             00003B8E 
               calls direct
               XSTACK = 00000000 ( 00000020 )
    -------------------------------------------------------------------------
<BANKED_CODE> 1 (was BANKED_CODE)
  Relative segment, address: CODE 00003C73 - 00003C80 (0xe bytes), align: 0
  Segment part 728.           Intra module refs:   suite_LLC_HW::?relay
           ENTRY                   ADDRESS         REF BY
           =====                   =======         ======
           suite_LLC_HW            00003C73 
               calls direct
               ISTACK = 00000000 ( 00000002 )
    -------------------------------------------------------------------------
<BANKED_CODE> 1 (was BANKED_CODE)
  Relative segment, address: CODE 00003C81 - 00003C86 (0x6 bytes), align: 0
  Segment part 760.           Intra module refs:   utestSigTraceInit::?relay
           ENTRY                   ADDRESS         REF BY
           =====                   =======         ======
           utestSigTraceInit       00003C81 
    -------------------------------------------------------------------------
<BANKED_CODE> 1 (was BANKED_CODE)
  Relative segment, address: CODE 00003C87 - 00003CAB (0x25 bytes), align: 0
  Segment part 762.           Intra module refs:   LED::?relay
           ENTRY                   ADDRESS         REF BY
           =====                   =======         ======
           LED                     00003C87 
               XSTACK = 00000034 ( 00000000 )
    -------------------------------------------------------------------------
XDATA_Z
  Relative segment, address: XDATA 0000060E - 00000611 (0x4 bytes), align: 0
  Segment part 419.           Intra module refs:   umsg_summary
           LOCAL                   ADDRESS         
           =====                   =======         
           utest_summary           0000060E 
    -------------------------------------------------------------------------
<BANKED_CODE> 1 (was BANKED_CODE)
  Relative segment, address: CODE 00003CAC - 00003CD8 (0x2d bytes), align: 0
  Segment part 770.           Intra module refs:   umsg_line::?relay
           ENTRY                   ADDRESS         REF BY
           =====                   =======         ======
           umsg_line               00003CAC 
               calls direct
               XSTACK = 00000000 ( 0000000C )
    -------------------------------------------------------------------------
<BANKED_CODE> 1 (was BANKED_CODE)
  Relative segment, address: CODE 00003CD9 - 00003D2A (0x52 bytes), align: 0
  Segment part 772.           Intra module refs:   umsg_summary::?relay
           ENTRY                   ADDRESS         REF BY
           =====                   =======         ======
           umsg_summary            00003CD9 
               calls direct
               XSTACK = 00000000 ( 00000002 )
               ISTACK = 00000000 ( 00000002 )
    -------------------------------------------------------------------------
<BANKED_CODE> 1 (was BANKED_CODE)
  Relative segment, address: CODE 00003D2B - 00003D3F (0x15 bytes), align: 0
  Segment part 784.           Intra module refs:   free::?relay
           ENTRY                   ADDRESS         REF BY
           =====                   =======         ======
           free                    00003D2B 
               calls direct
               XSTACK = 0000002E ( 00000009 )
    -------------------------------------------------------------------------
<BANKED_CODE> 1 (was BANKED_CODE)
  Relative segment, address: CODE 00003D40 - 00003D54 (0x15 bytes), align: 0
  Segment part 786.           Intra module refs:   malloc::?relay
           ENTRY                   ADDRESS         REF BY
           =====                   =======         ======
           malloc                  00003D40 
               calls direct
               XSTACK = 0000002E ( 00000009 )
    -------------------------------------------------------------------------
<BANKED_CODE> 1 (was BANKED_CODE)
  Relative segment, address: CODE 00003D55 - 00003D56 (0x2 bytes), align: 0
  Segment part 789.           Intra module refs:   STACK_FAILURE::?relay
           ENTRY                   ADDRESS         REF BY
           =====                   =======         ======
           STACK_FAILURE           00003D55 
               XSTACK = 00000024 ( 00000000 )
    -------------------------------------------------------------------------
INTVEC
  Common segment, address: CODE 00000000 - 0000002D (0x2e bytes), align: 0
  Segment part 36. ROOT 
           ENTRY                   ADDRESS         REF BY
           =====                   =======         ======
           TimerCompareInterrupt::??INTVEC 43
                                   0000002B 
    -------------------------------------------------------------------------
XDATA_ID
  Relative segment, address: CODE 000000B5 - 000000C5 (0x11 bytes), align: 0
  Segment part 43.            Intra module refs:   Segment part 42
    -------------------------------------------------------------------------
XDATA_ID
  Relative segment, address: CODE 000000C6 - 000000CC (0x7 bytes), align: 0
  Segment part 45.            Intra module refs:   Segment part 44
    -------------------------------------------------------------------------
XDATA_ID
  Relative segment, address: CODE 000000CD - 000000E0 (0x14 bytes), align: 0
  Segment part 47.            Intra module refs:   Segment part 46
    -------------------------------------------------------------------------
XDATA_ID
  Relative segment, address: CODE 000000E1 - 000000FB (0x1b bytes), align: 0
  Segment part 49.            Intra module refs:   Segment part 48
    -------------------------------------------------------------------------
XDATA_ID
  Relative segment, address: CODE 000000FC - 00000108 (0xd bytes), align: 0
  Segment part 51.            Intra module refs:   Segment part 50
    -------------------------------------------------------------------------
XDATA_ID
  Relative segment, address: CODE 00000109 - 00000112 (0xa bytes), align: 0
  Segment part 53.            Intra module refs:   Segment part 52
    -------------------------------------------------------------------------
XDATA_ID
  Relative segment, address: CODE 00000113 - 00000123 (0x11 bytes), align: 0
  Segment part 55.            Intra module refs:   Segment part 54
    -------------------------------------------------------------------------
XDATA_ID
  Relative segment, address: CODE 00000124 - 0000012B (0x8 bytes), align: 0
  Segment part 57.            Intra module refs:   Segment part 56
    -------------------------------------------------------------------------
XDATA_ID
  Relative segment, address: CODE 0000012C - 00000135 (0xa bytes), align: 0
  Segment part 59.            Intra module refs:   Segment part 58
    -------------------------------------------------------------------------
XDATA_ID
  Relative segment, address: CODE 00000136 - 00000150 (0x1b bytes), align: 0
  Segment part 61.            Intra module refs:   Segment part 60
    -------------------------------------------------------------------------
XDATA_ID
  Relative segment, address: CODE 00000151 - 0000015D (0xd bytes), align: 0
  Segment part 63.            Intra module refs:   Segment part 62
    -------------------------------------------------------------------------
XDATA_ID
  Relative segment, address: CODE 0000015E - 00000163 (0x6 bytes), align: 0
  Segment part 65.            Intra module refs:   Segment part 64
    -------------------------------------------------------------------------
XDATA_ID
  Relative segment, address: CODE 00000164 - 00000174 (0x11 bytes), align: 0
  Segment part 69.            Intra module refs:   Segment part 68
    -------------------------------------------------------------------------
XDATA_ID
  Relative segment, address: CODE 00000175 - 0000017A (0x6 bytes), align: 0
  Segment part 71.            Intra module refs:   Segment part 70
    -------------------------------------------------------------------------
XDATA_ID
  Relative segment, address: CODE 0000017B - 00000195 (0x1b bytes), align: 0
  Segment part 75.            Intra module refs:   Segment part 74
    -------------------------------------------------------------------------
XDATA_ID
  Relative segment, address: CODE 00000196 - 000001A2 (0xd bytes), align: 0
  Segment part 77.            Intra module refs:   Segment part 76
    -------------------------------------------------------------------------
XDATA_ID
  Relative segment, address: CODE 000001A3 - 000001BA (0x18 bytes), align: 0
  Segment part 79.            Intra module refs:   Segment part 78
    -------------------------------------------------------------------------
XDATA_ID
  Relative segment, address: CODE 000001BB - 000001C2 (0x8 bytes), align: 0
  Segment part 81.            Intra module refs:   Segment part 80
    -------------------------------------------------------------------------
XDATA_ID
  Relative segment, address: CODE 000001C3 - 000001DA (0x18 bytes), align: 0
  Segment part 83.            Intra module refs:   Segment part 82
    -------------------------------------------------------------------------
XDATA_ID
  Relative segment, address: CODE 000001DB - 000001ED (0x13 bytes), align: 0
  Segment part 85.            Intra module refs:   Segment part 84
    -------------------------------------------------------------------------
XDATA_ID
  Relative segment, address: CODE 000001EE - 0000020F (0x22 bytes), align: 0
  Segment part 87.            Intra module refs:   Segment part 86
    -------------------------------------------------------------------------
XDATA_ID
  Relative segment, address: CODE 00000210 - 00000224 (0x15 bytes), align: 0
  Segment part 89.            Intra module refs:   Segment part 88
    -------------------------------------------------------------------------
XDATA_ID
  Relative segment, address: CODE 00000225 - 00000235 (0x11 bytes), align: 0
  Segment part 91.            Intra module refs:   Segment part 90
    -------------------------------------------------------------------------
XDATA_ID
  Relative segment, address: CODE 00000236 - 0000023B (0x6 bytes), align: 0
  Segment part 93.            Intra module refs:   Segment part 92
    -------------------------------------------------------------------------
XDATA_ID
  Relative segment, address: CODE 0000023C - 00000248 (0xd bytes), align: 0
  Segment part 95.            Intra module refs:   Segment part 94
    -------------------------------------------------------------------------
XDATA_ID
  Relative segment, address: CODE 00000249 - 00000263 (0x1b bytes), align: 0
  Segment part 97.            Intra module refs:   Segment part 96
    -------------------------------------------------------------------------
XDATA_ID
  Relative segment, address: CODE 00000264 - 00000270 (0xd bytes), align: 0
  Segment part 99.            Intra module refs:   Segment part 98
    -------------------------------------------------------------------------
XDATA_ID
  Relative segment, address: CODE 00000271 - 00000279 (0x9 bytes), align: 0
  Segment part 101.           Intra module refs:   Segment part 100
    -------------------------------------------------------------------------
XDATA_ID
  Relative segment, address: CODE 0000027A - 00000286 (0xd bytes), align: 0
  Segment part 103.           Intra module refs:   Segment part 102
    -------------------------------------------------------------------------
XDATA_ID
  Relative segment, address: CODE 00000287 - 00000299 (0x13 bytes), align: 0
  Segment part 105.           Intra module refs:   Segment part 104
    -------------------------------------------------------------------------
XDATA_ID
  Relative segment, address: CODE 0000029A - 000002AA (0x11 bytes), align: 0
  Segment part 107.           Intra module refs:   Segment part 106
    -------------------------------------------------------------------------
XDATA_ID
  Relative segment, address: CODE 000002AB - 000002B1 (0x7 bytes), align: 0
  Segment part 109.           Intra module refs:   Segment part 108
    -------------------------------------------------------------------------
XDATA_ID
  Relative segment, address: CODE 000002B2 - 000002C1 (0x10 bytes), align: 0
  Segment part 111.           Intra module refs:   Segment part 110
    -------------------------------------------------------------------------
XDATA_ID
  Relative segment, address: CODE 000002C2 - 000002DC (0x1b bytes), align: 0
  Segment part 113.           Intra module refs:   Segment part 112
    -------------------------------------------------------------------------
XDATA_ID
  Relative segment, address: CODE 000002DD - 000002E9 (0xd bytes), align: 0
  Segment part 115.           Intra module refs:   Segment part 114
    -------------------------------------------------------------------------
XDATA_ID
  Relative segment, address: CODE 000002EA - 000002FC (0x13 bytes), align: 0
  Segment part 117.           Intra module refs:   Segment part 116
    -------------------------------------------------------------------------
XDATA_ID
  Relative segment, address: CODE 000002FD - 0000031C (0x20 bytes), align: 0
  Segment part 119.           Intra module refs:   Segment part 118
    -------------------------------------------------------------------------
XDATA_ID
  Relative segment, address: CODE 0000031D - 0000032D (0x11 bytes), align: 0
  Segment part 121.           Intra module refs:   Segment part 120
    -------------------------------------------------------------------------
XDATA_ID
  Relative segment, address: CODE 0000032E - 00000335 (0x8 bytes), align: 0
  Segment part 123.           Intra module refs:   Segment part 122
    -------------------------------------------------------------------------
XDATA_ID
  Relative segment, address: CODE 00000336 - 0000033D (0x8 bytes), align: 0
  Segment part 125.           Intra module refs:   Segment part 124
    -------------------------------------------------------------------------
XDATA_ID
  Relative segment, address: CODE 0000033E - 00000358 (0x1b bytes), align: 0
  Segment part 127.           Intra module refs:   Segment part 126
    -------------------------------------------------------------------------
XDATA_ID
  Relative segment, address: CODE 00000359 - 00000365 (0xd bytes), align: 0
  Segment part 129.           Intra module refs:   Segment part 128
    -------------------------------------------------------------------------
XDATA_ID
  Relative segment, address: CODE 00000366 - 0000037D (0x18 bytes), align: 0
  Segment part 131.           Intra module refs:   Segment part 130
    -------------------------------------------------------------------------
XDATA_ID
  Relative segment, address: CODE 0000037E - 0000038E (0x11 bytes), align: 0
  Segment part 133.           Intra module refs:   Segment part 132
    -------------------------------------------------------------------------
XDATA_ID
  Relative segment, address: CODE 0000038F - 00000394 (0x6 bytes), align: 0
  Segment part 135.           Intra module refs:   Segment part 134
    -------------------------------------------------------------------------
XDATA_ID
  Relative segment, address: CODE 00000395 - 000003A7 (0x13 bytes), align: 0
  Segment part 137.           Intra module refs:   Segment part 136
    -------------------------------------------------------------------------
XDATA_ID
  Relative segment, address: CODE 000003A8 - 000003C2 (0x1b bytes), align: 0
  Segment part 139.           Intra module refs:   Segment part 138
    -------------------------------------------------------------------------
XDATA_ID
  Relative segment, address: CODE 000003C3 - 000003CF (0xd bytes), align: 0
  Segment part 141.           Intra module refs:   Segment part 140
    -------------------------------------------------------------------------
XDATA_ID
  Relative segment, address: CODE 000003D0 - 000003DF (0x10 bytes), align: 0
  Segment part 143.           Intra module refs:   Segment part 142
    -------------------------------------------------------------------------
XDATA_ID
  Relative segment, address: CODE 000003E0 - 000003EA (0xb bytes), align: 0
  Segment part 145.           Intra module refs:   Segment part 144
    -------------------------------------------------------------------------
XDATA_ID
  Relative segment, address: CODE 000003EB - 000003FD (0x13 bytes), align: 0
  Segment part 147.           Intra module refs:   Segment part 146
    -------------------------------------------------------------------------
XDATA_ID
  Relative segment, address: CODE 000003FE - 0000040E (0x11 bytes), align: 0
  Segment part 149.           Intra module refs:   Segment part 148
    -------------------------------------------------------------------------
XDATA_ID
  Relative segment, address: CODE 0000040F - 0000041A (0xc bytes), align: 0
  Segment part 151.           Intra module refs:   Segment part 150
    -------------------------------------------------------------------------
XDATA_ID
  Relative segment, address: CODE 0000041B - 0000042D (0x13 bytes), align: 0
  Segment part 153.           Intra module refs:   Segment part 152
    -------------------------------------------------------------------------
XDATA_ID
  Relative segment, address: CODE 0000042E - 00000435 (0x8 bytes), align: 0
  Segment part 155.           Intra module refs:   Segment part 154
    -------------------------------------------------------------------------
XDATA_ID
  Relative segment, address: CODE 00000436 - 00000447 (0x12 bytes), align: 0
  Segment part 157.           Intra module refs:   Segment part 156
    -------------------------------------------------------------------------
XDATA_ID
  Relative segment, address: CODE 00000448 - 0000045A (0x13 bytes), align: 0
  Segment part 159.           Intra module refs:   Segment part 158
    -------------------------------------------------------------------------
XDATA_ID
  Relative segment, address: CODE 0000045B - 0000046F (0x15 bytes), align: 0
  Segment part 161.           Intra module refs:   Segment part 160
    -------------------------------------------------------------------------
XDATA_ID
  Relative segment, address: CODE 00000470 - 00000472 (0x3 bytes), align: 0
  Segment part 163.           Intra module refs:   Segment part 162
    -------------------------------------------------------------------------
XDATA_ID
  Relative segment, address: CODE 00000473 - 0000047C (0xa bytes), align: 0
  Segment part 301.           Intra module refs:   Segment part 300
    -------------------------------------------------------------------------
XDATA_ID
  Relative segment, address: CODE 0000047D - 0000048F (0x13 bytes), align: 0
  Segment part 303.           Intra module refs:   Segment part 302
    -------------------------------------------------------------------------
XDATA_ID
  Relative segment, address: CODE 00000490 - 0000049B (0xc bytes), align: 0
  Segment part 305.           Intra module refs:   Segment part 304
    -------------------------------------------------------------------------
XDATA_ID
  Relative segment, address: CODE 0000049C - 000004C9 (0x2e bytes), align: 0
  Segment part 307.           Intra module refs:   Segment part 306
    -------------------------------------------------------------------------
XDATA_ID
  Relative segment, address: CODE 000004CA - 000004F2 (0x29 bytes), align: 0
  Segment part 367.           Intra module refs:   Segment part 366
    -------------------------------------------------------------------------
XDATA_ID
  Relative segment, address: CODE 000004F3 - 000004F7 (0x5 bytes), align: 0
  Segment part 369.           Intra module refs:   Segment part 368
    -------------------------------------------------------------------------
XDATA_ID
  Relative segment, address: CODE 000004F8 - 00000509 (0x12 bytes), align: 0
  Segment part 371.           Intra module refs:   Segment part 370
    -------------------------------------------------------------------------
XDATA_ID
  Relative segment, address: CODE 0000050A - 00000516 (0xd bytes), align: 0
  Segment part 373.           Intra module refs:   Segment part 372
    -------------------------------------------------------------------------
XDATA_ID
  Relative segment, address: CODE 00000517 - 00000523 (0xd bytes), align: 0
  Segment part 375.           Intra module refs:   Segment part 374
    -------------------------------------------------------------------------
XDATA_ID
  Relative segment, address: CODE 00000524 - 00000532 (0xf bytes), align: 0
  Segment part 377.           Intra module refs:   Segment part 376
    -------------------------------------------------------------------------
XDATA_ID
  Relative segment, address: CODE 00000533 - 00000541 (0xf bytes), align: 0
  Segment part 379.           Intra module refs:   Segment part 378
    -------------------------------------------------------------------------
XDATA_ID
  Relative segment, address: CODE 00000542 - 00000545 (0x4 bytes), align: 0
  Segment part 384.           Intra module refs:   MAC_TIMER_MAX
    -------------------------------------------------------------------------
XDATA_ID
  Relative segment, address: CODE 00000546 - 00000555 (0x10 bytes), align: 0
  Segment part 394.           Intra module refs:   KEY
    -------------------------------------------------------------------------
XDATA_ID
  Relative segment, address: CODE 00000556 - 00000565 (0x10 bytes), align: 0
  Segment part 396.           Intra module refs:   IV
    -------------------------------------------------------------------------
XDATA_ID
  Relative segment, address: CODE 00000566 - 00000569 (0x4 bytes), align: 0
  Segment part 421.           Intra module refs:   __Constant_1f4
    -------------------------------------------------------------------------
XDATA_ID
  Relative segment, address: CODE 0000056A - 0000056D (0x4 bytes), align: 0
  Segment part 423.           Intra module refs:   __Constant_fffffe0c
    -------------------------------------------------------------------------
XDATA_ID
  Relative segment, address: CODE 0000056E - 00000571 (0x4 bytes), align: 0
  Segment part 425.           Intra module refs:   __Constant_20
    -------------------------------------------------------------------------
XDATA_ID
  Relative segment, address: CODE 00000572 - 00000575 (0x4 bytes), align: 0
  Segment part 427.           Intra module refs:   __Constant_3d000000
    -------------------------------------------------------------------------
XDATA_ID
  Relative segment, address: CODE 00000576 - 00000579 (0x4 bytes), align: 0
  Segment part 429.           Intra module refs:   __Constant_7d0
    -------------------------------------------------------------------------
XDATA_ID
  Relative segment, address: CODE 0000057A - 0000057D (0x4 bytes), align: 0
  Segment part 431.           Intra module refs:   __Constant_ffff8000
    -------------------------------------------------------------------------
XDATA_ID
  Relative segment, address: CODE 0000057E - 00000581 (0x4 bytes), align: 0
  Segment part 433.           Intra module refs:   __Constant_8000
    -------------------------------------------------------------------------
XDATA_ID
  Relative segment, address: CODE 00000582 - 00000585 (0x4 bytes), align: 0
  Segment part 435.           Intra module refs:   __Constant_ffffff
    -------------------------------------------------------------------------
XDATA_ID
  Relative segment, address: CODE 00000586 - 00000589 (0x4 bytes), align: 0
  Segment part 437.           Intra module refs:   __Constant_7fff
    -------------------------------------------------------------------------
XDATA_ID
  Relative segment, address: CODE 0000058A - 0000058D (0x4 bytes), align: 0
  Segment part 439.           Intra module refs:   __Constant_447a0000
    -------------------------------------------------------------------------
XDATA_ID
  Relative segment, address: CODE 0000058E - 00000591 (0x4 bytes), align: 0
  Segment part 441.           Intra module refs:   __Constant_1
    -------------------------------------------------------------------------
XDATA_ID
  Relative segment, address: CODE 00000592 - 00000595 (0x4 bytes), align: 0
  Segment part 443.           Intra module refs:   __Constant_3e8
    -------------------------------------------------------------------------
XDATA_ID
  Relative segment, address: CODE 00000596 - 00000599 (0x4 bytes), align: 0
  Segment part 445.           Intra module refs:   __Constant_15180
    -------------------------------------------------------------------------
XDATA_ID
  Relative segment, address: CODE 0000059A - 0000059D (0x4 bytes), align: 0
  Segment part 447.           Intra module refs:   __Constant_a
    -------------------------------------------------------------------------
BANK_RELAYS
  Relative segment, address: CODE 000005DB - 000005E0 (0x6 bytes), align: 0
  Segment part 455.           Intra module refs:   MAC_Init
           ENTRY                   ADDRESS         REF BY
           =====                   =======         ======
           AES_init::?relay        000005DB 
    -------------------------------------------------------------------------
BANK_RELAYS
  Relative segment, address: CODE 000005E1 - 000005E6 (0x6 bytes), align: 0
  Segment part 457.           Intra module refs:   RI_BitRawCrypt
                                                   RI_BitRawDecrypt
           ENTRY                   ADDRESS         REF BY
           =====                   =======         ======
           AES_StreamCoder::?relay
                                   000005E1 
    -------------------------------------------------------------------------
BANK_RELAYS
  Relative segment, address: CODE 000005E7 - 000005EC (0x6 bytes), align: 0
  Segment part 469.           Intra module refs:   MAC_Init
           ENTRY                   ADDRESS         REF BY
           =====                   =======         ======
           TIM_init::?relay        000005E7 
    -------------------------------------------------------------------------
BANK_RELAYS
  Relative segment, address: CODE 000005ED - 000005F2 (0x6 bytes), align: 0
  Segment part 471.           Intra module refs:   DelayCalibrate
                                                   RI_Receive
                                                   RI_Send
                                                   RecvData
                                                   TIC_HW_Timer_IRQ
                                                   TIC_Init
                                                   TIM_delay
           ENTRY                   ADDRESS         REF BY
           =====                   =======         ======
           TIM_TimeStamp::?relay   000005ED 
    -------------------------------------------------------------------------
BANK_RELAYS
  Relative segment, address: CODE 000005F3 - 000005F8 (0x6 bytes), align: 0
  Segment part 473.           Intra module refs:   TIM_init
           LOCAL                   ADDRESS         
           =====                   =======         
           DelayCalibrate::?relay
                                   000005F3 
    -------------------------------------------------------------------------
BANK_RELAYS
  Relative segment, address: CODE 000005F9 - 000005FE (0x6 bytes), align: 0
  Segment part 475.           Intra module refs:   TIM_delay
                                                   TIM_passedTime
           LOCAL                   ADDRESS         
           =====                   =======         
           Interval::?relay        000005F9 
    -------------------------------------------------------------------------
BANK_RELAYS
  Relative segment, address: CODE 000005FF - 00000604 (0x6 bytes), align: 0
  Segment part 477.           Intra module refs:   DelayCalibrate
                                                   RI_Receive
                                                   RI_Send
                                                   RecvData
           ENTRY                   ADDRESS         REF BY
           =====                   =======         ======
           TIM_passedTime::?relay
                                   000005FF 
    -------------------------------------------------------------------------
BANK_RELAYS
  Relative segment, address: CODE 00000605 - 0000060A (0x6 bytes), align: 0
  Segment part 479.           Intra module refs:   DelayCalibrate
                                                   MAC_TX_HNDL
           ENTRY                   ADDRESS         REF BY
           =====                   =======         ======
           TIM_delay::?relay       00000605 
    -------------------------------------------------------------------------
BANK_RELAYS
  Relative segment, address: CODE 0000060B - 00000610 (0x6 bytes), align: 0
  Segment part 483.           Intra module refs:   RI_Receive
                                                   getFrame
           ENTRY                   ADDRESS         REF BY
           =====                   =======         ======
           fbuf_create::?relay     0000060B 
    -------------------------------------------------------------------------
BANK_RELAYS
  Relative segment, address: CODE 00000611 - 00000616 (0x6 bytes), align: 0
  Segment part 491.           Intra module refs:   RI_Receive
                                                   getFrame
           ENTRY                   ADDRESS         REF BY
           =====                   =======         ======
           frame_create::?relay    00000611 
    -------------------------------------------------------------------------
BANK_RELAYS
  Relative segment, address: CODE 00000617 - 0000061C (0x6 bytes), align: 0
  Segment part 493.           Intra module refs:   MAC_RX_HNDL
                                                   MAC_TX_HNDL
                                                   test_create
           ENTRY                   ADDRESS         REF BY
           =====                   =======         ======
           frame_delete::?relay    00000617 
    -------------------------------------------------------------------------
BANK_RELAYS
  Relative segment, address: CODE 0000061D - 00000622 (0x6 bytes), align: 0
  Segment part 495.           Intra module refs:   RI_Receive
                                                   getFrame
           ENTRY                   ADDRESS         REF BY
           =====                   =======         ======
           frame_insert_head::?relay
                                   0000061D 
    -------------------------------------------------------------------------
BANK_RELAYS
  Relative segment, address: CODE 00000623 - 00000628 (0x6 bytes), align: 0
  Segment part 503.           Intra module refs:   SendData
           ENTRY                   ADDRESS         REF BY
           =====                   =======         ======
           frame_merge::?relay     00000623 
    -------------------------------------------------------------------------
BANK_RELAYS
  Relative segment, address: CODE 00000629 - 0000062E (0x6 bytes), align: 0
  Segment part 505.           Intra module refs:   frame_merge
                                                   test_create
           ENTRY                   ADDRESS         REF BY
           =====                   =======         ======
           frame_len::?relay       00000629 
    -------------------------------------------------------------------------
BANK_RELAYS
  Relative segment, address: CODE 0000062F - 00000634 (0x6 bytes), align: 0
  Segment part 507.           Intra module refs:   test_create
           ENTRY                   ADDRESS         REF BY
           =====                   =======         ======
           LLC_Init::?relay        0000062F 
    -------------------------------------------------------------------------
BANK_RELAYS
  Relative segment, address: CODE 00000635 - 0000063A (0x6 bytes), align: 0
  Segment part 509.           Intra module refs:   test_create
           ENTRY                   ADDRESS         REF BY
           =====                   =======         ======
           LLC_GetTaskLen::?relay
                                   00000635 
    -------------------------------------------------------------------------
BANK_RELAYS
  Relative segment, address: CODE 0000063B - 00000640 (0x6 bytes), align: 0
  Segment part 513.           Intra module refs:   test_create
           ENTRY                   ADDRESS         REF BY
           =====                   =======         ======
           LLC_TimeAlloc::?relay   0000063B 
    -------------------------------------------------------------------------
BANK_RELAYS
  Relative segment, address: CODE 00000641 - 00000646 (0x6 bytes), align: 0
  Segment part 515.           Intra module refs:   test_create
           ENTRY                   ADDRESS         REF BY
           =====                   =======         ======
           LLC_AddTask::?relay     00000641 
    -------------------------------------------------------------------------
BANK_RELAYS
  Relative segment, address: CODE 00000647 - 0000064C (0x6 bytes), align: 0
  Segment part 517.           Intra module refs:   LLC_SE_HNDL
           LOCAL                   ADDRESS         
           =====                   =======         
           LLC_Shelduler::?relay   00000647 
    -------------------------------------------------------------------------
BANK_RELAYS
  Relative segment, address: CODE 0000064D - 00000652 (0x6 bytes), align: 0
  Segment part 519.           Intra module refs:   LLC_Init
           LOCAL                   ADDRESS         
           =====                   =======         
           LLC_SE_HNDL::?relay     0000064D 
    -------------------------------------------------------------------------
BANK_RELAYS
  Relative segment, address: CODE 00000653 - 00000658 (0x6 bytes), align: 0
  Segment part 521.           Intra module refs:   LLC_Init
           LOCAL                   ADDRESS         
           =====                   =======         
           LLC_RX_HNDL::?relay     00000653 
    -------------------------------------------------------------------------
BANK_RELAYS
  Relative segment, address: CODE 00000659 - 0000065E (0x6 bytes), align: 0
  Segment part 523.           Intra module refs:   LLC_SE_HNDL
           LOCAL                   ADDRESS         
           =====                   =======         
           LLC_RunTimeAlloc::?relay
                                   00000659 
    -------------------------------------------------------------------------
BANK_RELAYS
  Relative segment, address: CODE 0000065F - 00000664 (0x6 bytes), align: 0
  Segment part 527.           Intra module refs:   LLC_Init
           ENTRY                   ADDRESS         REF BY
           =====                   =======         ======
           MAC_Init::?relay        0000065F 
    -------------------------------------------------------------------------
BANK_RELAYS
  Relative segment, address: CODE 00000665 - 0000066A (0x6 bytes), align: 0
  Segment part 533.           Intra module refs:   LLC_Shelduler
           ENTRY                   ADDRESS         REF BY
           =====                   =======         ======
           MAC_Send::?relay        00000665 
    -------------------------------------------------------------------------
BANK_RELAYS
  Relative segment, address: CODE 0000066B - 00000670 (0x6 bytes), align: 0
  Segment part 539.           Intra module refs:   LLC_Init
           ENTRY                   ADDRESS         REF BY
           =====                   =======         ======
           MAC_SetRXCallback::?relay
                                   0000066B 
    -------------------------------------------------------------------------
BANK_RELAYS
  Relative segment, address: CODE 00000671 - 00000676 (0x6 bytes), align: 0
  Segment part 541.           Intra module refs:   LLC_Shelduler
           ENTRY                   ADDRESS         REF BY
           =====                   =======         ======
           MAC_GetTXState::?relay
                                   00000671 
    -------------------------------------------------------------------------
BANK_RELAYS
  Relative segment, address: CODE 00000677 - 0000067C (0x6 bytes), align: 0
  Segment part 545.           Intra module refs:   MAC_Init
           LOCAL                   ADDRESS         
           =====                   =======         
           MAC_RX_HNDL::?relay     00000677 
    -------------------------------------------------------------------------
BANK_RELAYS
  Relative segment, address: CODE 0000067D - 00000682 (0x6 bytes), align: 0
  Segment part 547.           Intra module refs:   MAC_Init
           LOCAL                   ADDRESS         
           =====                   =======         
           MAC_TX_HNDL::?relay     0000067D 
    -------------------------------------------------------------------------
BANK_RELAYS
  Relative segment, address: CODE 00000683 - 00000688 (0x6 bytes), align: 0
  Segment part 551.           Intra module refs:   TIC_SetTimer
           ENTRY                   ADDRESS         REF BY
           =====                   =======         ======
           NT_SetTime::?relay      00000683 
    -------------------------------------------------------------------------
BANK_RELAYS
  Relative segment, address: CODE 00000689 - 0000068E (0x6 bytes), align: 0
  Segment part 553.           Intra module refs:   NT_SetCompare
           LOCAL                   ADDRESS         
           =====                   =======         
           calcCompareTime::?relay
                                   00000689 
    -------------------------------------------------------------------------
BANK_RELAYS
  Relative segment, address: CODE 0000068F - 00000694 (0x6 bytes), align: 0
  Segment part 555.           Intra module refs:   NT_SetTime
                                                   TIC_Init
                                                   set_capture_time
           ENTRY                   ADDRESS         REF BY
           =====                   =======         ======
           NT_SetCompare::?relay   0000068F 
    -------------------------------------------------------------------------
BANK_RELAYS
  Relative segment, address: CODE 00000695 - 0000069A (0x6 bytes), align: 0
  Segment part 557.           Intra module refs:   NT_SetCompare
                                                   TimerCompareInterrupt
           LOCAL                   ADDRESS         
           =====                   =======         
           NT_IRQEnable::?relay    00000695 
    -------------------------------------------------------------------------
BANK_RELAYS
  Relative segment, address: CODE 0000069B - 000006A0 (0x6 bytes), align: 0
  Segment part 559.           Intra module refs:   NT_SetTime
           LOCAL                   ADDRESS         
           =====                   =======         
           isIRQEnable::?relay     0000069B 
    -------------------------------------------------------------------------
BANK_RELAYS
  Relative segment, address: CODE 000006A1 - 000006A6 (0x6 bytes), align: 0
  Segment part 561.           Intra module refs:   TIC_Init
           ENTRY                   ADDRESS         REF BY
           =====                   =======         ======
           NT_SetEventCallback::?relay
                                   000006A1 
    -------------------------------------------------------------------------
BANK_RELAYS
  Relative segment, address: CODE 000006A7 - 000006AC (0x6 bytes), align: 0
  Segment part 563.           Intra module refs:   RecvData
                                                   SendData
                                                   TimerCompareInterrupt
           ENTRY                   ADDRESS         REF BY
           =====                   =======         ======
           NT_GetTime::?relay      000006A7 
    -------------------------------------------------------------------------
BANK_RELAYS
  Relative segment, address: CODE 000006AD - 000006B2 (0x6 bytes), align: 0
  Segment part 565.           Intra module refs:   SendData
           ENTRY                   ADDRESS         REF BY
           =====                   =======         ======
           NT_WaitTime::?relay     000006AD 
    -------------------------------------------------------------------------
BANK_RELAYS
  Relative segment, address: CODE 000006B3 - 000006B8 (0x6 bytes), align: 0
  Segment part 567.           Intra module refs:   NT_GetTime
                                                   NT_SetTime
                                                   calcCompareTime
           LOCAL                   ADDRESS         
           =====                   =======         
           ReadTimer::?relay       000006B3 
    -------------------------------------------------------------------------
BANK_RELAYS
  Relative segment, address: CODE 000006B9 - 000006BE (0x6 bytes), align: 0
  Segment part 569.           Intra module refs:   NT_SetCompare
           LOCAL                   ADDRESS         
           =====                   =======         
           loadTimerCompare::?relay
                                   000006B9 
    -------------------------------------------------------------------------
BANK_RELAYS
  Relative segment, address: CODE 000006BF - 000006C4 (0x6 bytes), align: 0
  Segment part 571.           Intra module refs:   nwDebugerInit
           LOCAL                   ADDRESS         
           =====                   =======         
           uart_init::?relay       000006BF 
    -------------------------------------------------------------------------
BANK_RELAYS
  Relative segment, address: CODE 000006C5 - 000006CA (0x6 bytes), align: 0
  Segment part 573.           Intra module refs:   nwDebugerInit
           LOCAL                   ADDRESS         
           =====                   =======         
           SetCPU32M::?relay       000006C5 
    -------------------------------------------------------------------------
BANK_RELAYS
  Relative segment, address: CODE 000006CB - 000006D0 (0x6 bytes), align: 0
  Segment part 575.           Intra module refs:   main
           ENTRY                   ADDRESS         REF BY
           =====                   =======         ======
           nwDebugerInit::?relay   000006CB 
    -------------------------------------------------------------------------
BANK_RELAYS
  Relative segment, address: CODE 000006D1 - 000006D6 (0x6 bytes), align: 0
  Segment part 577.           Intra module refs:   __write
           ENTRY                   ADDRESS         REF BY
           =====                   =======         ======
           MyLowLevelPutchar::?relay
                                   000006D1 
    -------------------------------------------------------------------------
BANK_RELAYS
  Relative segment, address: CODE 000006D7 - 000006DC (0x6 bytes), align: 0
  Segment part 579.
           ENTRY                   ADDRESS         REF BY
           =====                   =======         ======
           __write::?relay         000006D7        putchar (?putchar)
    -------------------------------------------------------------------------
BANK_RELAYS
  Relative segment, address: CODE 000006DD - 000006E2 (0x6 bytes), align: 0
  Segment part 581.           Intra module refs:   MAC_Init
           ENTRY                   ADDRESS         REF BY
           =====                   =======         ======
           RI_setIV::?relay        000006DD 
    -------------------------------------------------------------------------
BANK_RELAYS
  Relative segment, address: CODE 000006E3 - 000006E8 (0x6 bytes), align: 0
  Segment part 583.           Intra module refs:   MAC_Init
           ENTRY                   ADDRESS         REF BY
           =====                   =======         ======
           RI_setKEY::?relay       000006E3 
    -------------------------------------------------------------------------
BANK_RELAYS
  Relative segment, address: CODE 000006E9 - 000006EE (0x6 bytes), align: 0
  Segment part 585.           Intra module refs:   MAC_Init
           ENTRY                   ADDRESS         REF BY
           =====                   =======         ======
           RI_init::?relay         000006E9 
    -------------------------------------------------------------------------
BANK_RELAYS
  Relative segment, address: CODE 000006EF - 000006F4 (0x6 bytes), align: 0
  Segment part 587.           Intra module refs:   RI_Receive
                                                   RI_Send
                                                   random_core_init
           LOCAL                   ADDRESS         
           =====                   =======         
           RI_cfg::?relay          000006EF 
    -------------------------------------------------------------------------
BANK_RELAYS
  Relative segment, address: CODE 000006F5 - 000006FA (0x6 bytes), align: 0
  Segment part 589.           Intra module refs:   MAC_RX_HNDL
                                                   MAC_TX_HNDL
           ENTRY                   ADDRESS         REF BY
           =====                   =======         ======
           RI_SetChannel::?relay   000006F5 
    -------------------------------------------------------------------------
BANK_RELAYS
  Relative segment, address: CODE 000006FB - 00000700 (0x6 bytes), align: 0
  Segment part 591.           Intra module refs:   MAC_TX_HNDL
           ENTRY                   ADDRESS         REF BY
           =====                   =======         ======
           RI_Send::?relay         000006FB 
    -------------------------------------------------------------------------
BANK_RELAYS
  Relative segment, address: CODE 00000701 - 00000706 (0x6 bytes), align: 0
  Segment part 593.           Intra module refs:   RI_Send
           LOCAL                   ADDRESS         
           =====                   =======         
           SendData::?relay        00000701 
    -------------------------------------------------------------------------
BANK_RELAYS
  Relative segment, address: CODE 00000707 - 0000070C (0x6 bytes), align: 0
  Segment part 595.           Intra module refs:   SendData
           LOCAL                   ADDRESS         
           =====                   =======         
           LoadTXData::?relay      00000707 
    -------------------------------------------------------------------------
BANK_RELAYS
  Relative segment, address: CODE 0000070D - 00000712 (0x6 bytes), align: 0
  Segment part 597.           Intra module refs:   RI_Receive
           LOCAL                   ADDRESS         
           =====                   =======         
           UnLoadRXData::?relay    0000070D 
    -------------------------------------------------------------------------
BANK_RELAYS
  Relative segment, address: CODE 00000713 - 00000718 (0x6 bytes), align: 0
  Segment part 599.           Intra module refs:   RI_cfg
           LOCAL                   ADDRESS         
           =====                   =======         
           setFreq::?relay         00000713 
    -------------------------------------------------------------------------
BANK_RELAYS
  Relative segment, address: CODE 00000719 - 0000071E (0x6 bytes), align: 0
  Segment part 601.           Intra module refs:   MAC_RX_HNDL
                                                   MAC_TX_HNDL
           ENTRY                   ADDRESS         REF BY
           =====                   =======         ======
           RI_Receive::?relay      00000719 
    -------------------------------------------------------------------------
BANK_RELAYS
  Relative segment, address: CODE 0000071F - 00000724 (0x6 bytes), align: 0
  Segment part 603.           Intra module refs:   RI_Receive
           LOCAL                   ADDRESS         
           =====                   =======         
           RecvData::?relay        0000071F 
    -------------------------------------------------------------------------
BANK_RELAYS
  Relative segment, address: CODE 00000725 - 0000072A (0x6 bytes), align: 0
  Segment part 611.           Intra module refs:   readRandom
           LOCAL                   ADDRESS         
           =====                   =======         
           bits_count::?relay      00000725 
    -------------------------------------------------------------------------
BANK_RELAYS
  Relative segment, address: CODE 0000072B - 00000730 (0x6 bytes), align: 0
  Segment part 613.           Intra module refs:   readRandom
           LOCAL                   ADDRESS         
           =====                   =======         
           getRNDByte::?relay      0000072B 
    -------------------------------------------------------------------------
BANK_RELAYS
  Relative segment, address: CODE 00000731 - 00000736 (0x6 bytes), align: 0
  Segment part 615.           Intra module refs:   random_core_init
           LOCAL                   ADDRESS         
           =====                   =======         
           readRandom::?relay      00000731 
    -------------------------------------------------------------------------
BANK_RELAYS
  Relative segment, address: CODE 00000737 - 0000073C (0x6 bytes), align: 0
  Segment part 617.           Intra module refs:   RI_init
           LOCAL                   ADDRESS         
           =====                   =======         
           random_core_init::?relay
                                   00000737 
    -------------------------------------------------------------------------
BANK_RELAYS
  Relative segment, address: CODE 0000073D - 00000742 (0x6 bytes), align: 0
  Segment part 619.           Intra module refs:   MAC_Init
           ENTRY                   ADDRESS         REF BY
           =====                   =======         ======
           RI_StreamCrypt::?relay
                                   0000073D 
    -------------------------------------------------------------------------
BANK_RELAYS
  Relative segment, address: CODE 00000743 - 00000748 (0x6 bytes), align: 0
  Segment part 621.           Intra module refs:   SendData
           LOCAL                   ADDRESS         
           =====                   =======         
           RI_BitRawCrypt::?relay
                                   00000743 
    -------------------------------------------------------------------------
BANK_RELAYS
  Relative segment, address: CODE 00000749 - 0000074E (0x6 bytes), align: 0
  Segment part 623.           Intra module refs:   RI_Receive
           LOCAL                   ADDRESS         
           =====                   =======         
           RI_BitRawDecrypt::?relay
                                   00000749 
    -------------------------------------------------------------------------
BANK_RELAYS
  Relative segment, address: CODE 0000074F - 00000754 (0x6 bytes), align: 0
  Segment part 627.           Intra module refs:   MAC_Init
           ENTRY                   ADDRESS         REF BY
           =====                   =======         ======
           TIC_Init::?relay        0000074F 
    -------------------------------------------------------------------------
BANK_RELAYS
  Relative segment, address: CODE 00000755 - 0000075A (0x6 bytes), align: 0
  Segment part 631.           Intra module refs:   TIC_Init
           ENTRY                   ADDRESS         REF BY
           =====                   =======         ======
           TIC_SetTimer::?relay    00000755 
    -------------------------------------------------------------------------
BANK_RELAYS
  Relative segment, address: CODE 0000075B - 00000760 (0x6 bytes), align: 0
  Segment part 635.           Intra module refs:   MAC_Send
                                                   MAC_TX_HNDL
           ENTRY                   ADDRESS         REF BY
           =====                   =======         ======
           TIC_SetTXState::?relay
                                   0000075B 
    -------------------------------------------------------------------------
BANK_RELAYS
  Relative segment, address: CODE 00000761 - 00000766 (0x6 bytes), align: 0
  Segment part 643.           Intra module refs:   MAC_Init
           ENTRY                   ADDRESS         REF BY
           =====                   =======         ======
           TIC_SetRXCallback::?relay
                                   00000761 
    -------------------------------------------------------------------------
BANK_RELAYS
  Relative segment, address: CODE 00000767 - 0000076C (0x6 bytes), align: 0
  Segment part 645.           Intra module refs:   MAC_Init
           ENTRY                   ADDRESS         REF BY
           =====                   =======         ======
           TIC_SetTXCallback::?relay
                                   00000767 
    -------------------------------------------------------------------------
BANK_RELAYS
  Relative segment, address: CODE 0000076D - 00000772 (0x6 bytes), align: 0
  Segment part 647.           Intra module refs:   LLC_Init
           ENTRY                   ADDRESS         REF BY
           =====                   =======         ======
           TIC_SetSECallback::?relay
                                   0000076D 
    -------------------------------------------------------------------------
BANK_RELAYS
  Relative segment, address: CODE 00000773 - 00000778 (0x6 bytes), align: 0
  Segment part 655.           Intra module refs:   TIC_HW_Timer_IRQ
           LOCAL                   ADDRESS         
           =====                   =======         
           TIC_getCurrentTS::?relay
                                   00000773 
    -------------------------------------------------------------------------
BANK_RELAYS
  Relative segment, address: CODE 00000779 - 0000077E (0x6 bytes), align: 0
  Segment part 657.           Intra module refs:   TIC_TDMAShelduler
           LOCAL                   ADDRESS         
           =====                   =======         
           incrementTS::?relay     00000779 
    -------------------------------------------------------------------------
BANK_RELAYS
  Relative segment, address: CODE 0000077F - 00000784 (0x6 bytes), align: 0
  Segment part 659.           Intra module refs:   TIC_TDMAShelduler
           LOCAL                   ADDRESS         
           =====                   =======         
           set_capture_time::?relay
                                   0000077F 
    -------------------------------------------------------------------------
BANK_RELAYS
  Relative segment, address: CODE 00000785 - 0000078A (0x6 bytes), align: 0
  Segment part 661.           Intra module refs:   TIC_HW_Timer_IRQ
           LOCAL                   ADDRESS         
           =====                   =======         
           TIC_TDMAShelduler::?relay
                                   00000785 
    -------------------------------------------------------------------------
BANK_RELAYS
  Relative segment, address: CODE 0000078B - 00000790 (0x6 bytes), align: 0
  Segment part 663.           Intra module refs:   TIC_HW_Timer_IRQ
           LOCAL                   ADDRESS         
           =====                   =======         
           Callback_execution::?relay
                                   0000078B 
    -------------------------------------------------------------------------
BANK_RELAYS
  Relative segment, address: CODE 00000791 - 00000796 (0x6 bytes), align: 0
  Segment part 665.           Intra module refs:   TIC_Init
           LOCAL                   ADDRESS         
           =====                   =======         
           TIC_HW_Timer_IRQ::?relay
                                   00000791 
    -------------------------------------------------------------------------
BANK_RELAYS
  Relative segment, address: CODE 00000797 - 0000079C (0x6 bytes), align: 0
  Segment part 667.           Intra module refs:   TIC_HW_Timer_IRQ
           LOCAL                   ADDRESS         
           =====                   =======         
           clocks_update::?relay   00000797 
    -------------------------------------------------------------------------
BANK_RELAYS
  Relative segment, address: CODE 0000079D - 000007A2 (0x6 bytes), align: 0
  Segment part 723.           Intra module refs:   test_create
           LOCAL                   ADDRESS         
           =====                   =======         
           timealloc::?relay       0000079D 
    -------------------------------------------------------------------------
BANK_RELAYS
  Relative segment, address: CODE 000007A3 - 000007A8 (0x6 bytes), align: 0
  Segment part 725.           Intra module refs:   test_create
           LOCAL                   ADDRESS         
           =====                   =======         
           getFrame::?relay        000007A3 
    -------------------------------------------------------------------------
BANK_RELAYS
  Relative segment, address: CODE 000007A9 - 000007AE (0x6 bytes), align: 0
  Segment part 727.           Intra module refs:   suite_LLC_HW
           LOCAL                   ADDRESS         
           =====                   =======         
           test_create::?relay     000007A9 
    -------------------------------------------------------------------------
BANK_RELAYS
  Relative segment, address: CODE 000007AF - 000007B4 (0x6 bytes), align: 0
  Segment part 729.           Intra module refs:   main
           ENTRY                   ADDRESS         REF BY
           =====                   =======         ======
           suite_LLC_HW::?relay    000007AF 
    -------------------------------------------------------------------------
BANK_RELAYS
  Relative segment, address: CODE 000007B5 - 000007BA (0x6 bytes), align: 0
  Segment part 761.           Intra module refs:   main
           ENTRY                   ADDRESS         REF BY
           =====                   =======         ======
           utestSigTraceInit::?relay
                                   000007B5 
    -------------------------------------------------------------------------
BANK_RELAYS
  Relative segment, address: CODE 000007BB - 000007C0 (0x6 bytes), align: 0
  Segment part 763.           Intra module refs:   timealloc
           ENTRY                   ADDRESS         REF BY
           =====                   =======         ======
           LED::?relay             000007BB 
    -------------------------------------------------------------------------
BANK_RELAYS
  Relative segment, address: CODE 000007C1 - 000007C6 (0x6 bytes), align: 0
  Segment part 771.           Intra module refs:   umsg_summary
           ENTRY                   ADDRESS         REF BY
           =====                   =======         ======
           umsg_line::?relay       000007C1 
    -------------------------------------------------------------------------
BANK_RELAYS
  Relative segment, address: CODE 000007C7 - 000007CC (0x6 bytes), align: 0
  Segment part 773.           Intra module refs:   main
           ENTRY                   ADDRESS         REF BY
           =====                   =======         ======
           umsg_summary::?relay    000007C7 
    -------------------------------------------------------------------------
BANK_RELAYS
  Relative segment, address: CODE 000007CD - 000007D2 (0x6 bytes), align: 0
  Segment part 785.           Intra module refs:   LLC_Shelduler
                                                   RI_Receive
                                                   SendData
                                                   frame_delete
           ENTRY                   ADDRESS         REF BY
           =====                   =======         ======
           free::?relay            000007CD 
    -------------------------------------------------------------------------
BANK_RELAYS
  Relative segment, address: CODE 000007D3 - 000007D8 (0x6 bytes), align: 0
  Segment part 787.           Intra module refs:   LLC_AddTask
                                                   LLC_TimeAlloc
                                                   RI_Receive
                                                   fbuf_create
                                                   frame_create
                                                   frame_merge
           ENTRY                   ADDRESS         REF BY
           =====                   =======         ======
           malloc::?relay          000007D3 
    -------------------------------------------------------------------------
BANK_RELAYS
  Relative segment, address: CODE 000007D9 - 000007DE (0x6 bytes), align: 0
  Segment part 790.           Intra module refs:   Callback_execution
                                                   LLC_AddTask
                                                   LLC_RX_HNDL
                                                   LLC_TimeAlloc
                                                   MAC_GetTXState
                                                   MAC_RX_HNDL
                                                   MAC_Send
                                                   MAC_TX_HNDL
                                                   NT_SetCompare
                                                   NT_SetTime
                                                   RI_Send
                                                   TIC_SetRXCallback
                                                   TIC_SetSECallback
                                                   TIC_SetTXCallback
                                                   TIC_SetTXState
                                                   TIC_SetTimer
                                                   fbuf_create
                                                   frame_create
                                                   frame_merge
                                                   setFreq
           ENTRY                   ADDRESS         REF BY
           =====                   =======         ======
           STACK_FAILURE::?relay   000007D9 

    *************************************************************************

  FILE NAME : \\vmware-host\Shared Folders\Projects\WMNU\IAR\PRJ_UNITEST\Debug\Obj\delays.r51
    *************************************************************************

  FILE NAME : \\vmware-host\Shared Folders\Projects\WMNU\IAR\PRJ_UNITEST\Debug\Obj\fbuf.r51
    *************************************************************************

  FILE NAME : \\vmware-host\Shared Folders\Projects\WMNU\IAR\PRJ_UNITEST\Debug\Obj\frame.r51
    *************************************************************************

  FILE NAME : \\vmware-host\Shared Folders\Projects\WMNU\IAR\PRJ_UNITEST\Debug\Obj\LLC.r51
    *************************************************************************

  FILE NAME : \\vmware-host\Shared Folders\Projects\WMNU\IAR\PRJ_UNITEST\Debug\Obj\MAC.r51
    *************************************************************************

  FILE NAME : \\vmware-host\Shared Folders\Projects\WMNU\IAR\PRJ_UNITEST\Debug\Obj\NTMR.r51
    *************************************************************************

  FILE NAME : \\vmware-host\Shared Folders\Projects\WMNU\IAR\PRJ_UNITEST\Debug\Obj\nwdebuger.r51
    *************************************************************************

  FILE NAME : \\vmware-host\Shared Folders\Projects\WMNU\IAR\PRJ_UNITEST\Debug\Obj\RADIO.r51
    *************************************************************************

  FILE NAME : \\vmware-host\Shared Folders\Projects\WMNU\IAR\PRJ_UNITEST\Debug\Obj\TIC.r51
    *************************************************************************

  FILE NAME : \\vmware-host\Shared Folders\Projects\WMNU\IAR\PRJ_UNITEST\Debug\Obj\utest.r51
    *************************************************************************

  FILE NAME : \\vmware-host\Shared Folders\Projects\WMNU\IAR\PRJ_UNITEST\Debug\Obj\utest_coder.r51
    *************************************************************************

  FILE NAME : \\vmware-host\Shared Folders\Projects\WMNU\IAR\PRJ_UNITEST\Debug\Obj\utest_delays.r51
    *************************************************************************

  FILE NAME : \\vmware-host\Shared Folders\Projects\WMNU\IAR\PRJ_UNITEST\Debug\Obj\utest_fbuf.r51
    *************************************************************************

  FILE NAME : \\vmware-host\Shared Folders\Projects\WMNU\IAR\PRJ_UNITEST\Debug\Obj\utest_frame.r51
    *************************************************************************

  FILE NAME : \\vmware-host\Shared Folders\Projects\WMNU\IAR\PRJ_UNITEST\Debug\Obj\utest_Frames.r51
    *************************************************************************

  FILE NAME : \\vmware-host\Shared Folders\Projects\WMNU\IAR\PRJ_UNITEST\Debug\Obj\utest_LLC.r51
    *************************************************************************

  FILE NAME : \\vmware-host\Shared Folders\Projects\WMNU\IAR\PRJ_UNITEST\Debug\Obj\utest_MAC.r51
    *************************************************************************

  FILE NAME : \\vmware-host\Shared Folders\Projects\WMNU\IAR\PRJ_UNITEST\Debug\Obj\utest_NTMR.r51
    *************************************************************************

  FILE NAME : \\vmware-host\Shared Folders\Projects\WMNU\IAR\PRJ_UNITEST\Debug\Obj\utest_printf_uart.r51
    *************************************************************************

  FILE NAME : \\vmware-host\Shared Folders\Projects\WMNU\IAR\PRJ_UNITEST\Debug\Obj\utest_radio.r51
    *************************************************************************

  FILE NAME : \\vmware-host\Shared Folders\Projects\WMNU\IAR\PRJ_UNITEST\Debug\Obj\utest_suite.r51
    *************************************************************************

  FILE NAME : \\vmware-host\Shared Folders\Projects\WMNU\IAR\PRJ_UNITEST\Debug\Obj\utest_TIC.r51
    *************************************************************************

  FILE NAME : C:\Program Files (x86)\IAR Systems\Embedded Workbench 8.0\8051\LIB\DLIB\dl-pli-blxd-1e16x01n.r51
  LIBRARY MODULE, NAME : ?__dbg_break

  SEGMENTS IN THE MODULE
  ======================
<BANKED_CODE> 1 (was BANKED_CODE)
  Relative segment, address: CODE 00005EF8 - 00005EFA (0x3 bytes), align: 0
  Segment part 6.             Intra module refs:   __DebugBreak::?relay
           ENTRY                   ADDRESS         REF BY
           =====                   =======         ======
           __DebugBreak            00005EF8 
    -------------------------------------------------------------------------
BANK_RELAYS
  Relative segment, address: CODE 000007DF - 000007E4 (0x6 bytes), align: 0
  Segment part 7.
           ENTRY                   ADDRESS         REF BY
           =====                   =======         ======
           __DebugBreak::?relay    000007DF        __exit (?__exit)

    -------------------------------------------------------------------------
  LIBRARY MODULE, NAME : ?__exit

  SEGMENTS IN THE MODULE
  ======================
<BANKED_CODE> 1 (was BANKED_CODE)
  Relative segment, address: CODE 00005EA8 - 00005ECB (0x24 bytes), align: 0
  Segment part 6.
           ENTRY                   ADDRESS         REF BY
           =====                   =======         ======
           __exit                  00005EA8        Segment part 10 (?cexit)
               calls direct
               XSTACK = 00000000 ( 0000000B )

    -------------------------------------------------------------------------
  LIBRARY MODULE, NAME : ?cexit

  SEGMENTS IN THE MODULE
  ======================
CSTART
  Relative segment, address: CODE 0000002E, align: 0
  Segment part 5.             Intra module refs:   _exit::?relay
           ENTRY                   ADDRESS         REF BY
           =====                   =======         ======
           _exit                   0000002E 
               calls direct
    -------------------------------------------------------------------------
CSTART
  Relative segment, address: CODE 0000002E - 00000038 (0xb bytes), align: 0
  Segment part 10.            Intra module refs:   _exit
    -------------------------------------------------------------------------
BANK_RELAYS
  Relative segment, address: CODE 000007E5 - 000007EA (0x6 bytes), align: 0
  Segment part 11.
           ENTRY                   ADDRESS         REF BY
           =====                   =======         ======
           _exit::?relay           000007E5        exit (?exit)

    -------------------------------------------------------------------------
  LIBRARY MODULE, NAME : ?cmain

  SEGMENTS IN THE MODULE
  ======================
CSTART
  Relative segment, address: CODE 00000039, align: 0
  Segment part 5.
           ENTRY                   ADDRESS         REF BY
           =====                   =======         ======
           ?cmain                  00000039        Segment part 13 (CSTARTUP)
               calls direct
    -------------------------------------------------------------------------
CSTART
  Relative segment, address: CODE 00000039 - 00000048 (0x10 bytes), align: 0
  Segment part 16.
           ENTRY                   ADDRESS         REF BY
           =====                   =======         ======
           __INIT_XDATA_Z          00000039        COMPARE_TIME (?__write)
                                                   DELAY_CALIBRATE_TICS (?__write)
                                                   DMA_AES_DW (?__write)
                                                   DMA_AES_UP (?__write)
                                                   EventCallback (?__write)
                                                   FirstTask (?__write)
                                                   HeadAllocFunc (?__write)
                                                   IV (?__write)
                                                   KEY (?__write)
                                                   MACSlotTable (?__write)
                                                   NODE_NONCE (?__write)
                                                   NODE_RTC (?__write)
                                                   NODE_UPTIME (?__write)
                                                   NT_WaitTime::val (?__write)
                                                   RADIO_CFG (?__write)
                                                   RI_CCA_REJECT (?__write)
                                                   RI_CRC_ERROR (?__write)
                                                   RI_UPTIME (?__write)
                                                   RXCallback (?__write)
                                                   ReadTimer::ret_val (?__write)
                                                   SECallback (?__write)
                                                   Segment part 11 (?rand)
                                                   Segment part 12 (?rand)
                                                   Segment part 13 (?rand)
                                                   Segment part 14 (?rand)
                                                   Segment part 6 (?xgetmemchunk)
                                                   TOFFSET (?__write)
                                                   TSStateTable (?__write)
                                                   TXCallback (?__write)
                                                   TimeStampTS0 (?__write)
                                                   _Randinit (?rand)
                                                   __iar_Tls_setup__Randinit (?rand)
                                                   __iar_Tls_setup__Randseed (?rand)
                                                   __xdata_Aldata (?xxmemxmalloc)
                                                   isACK_OK (?__write)
                                                   nbrTasks (?__write)
                                                   tasksBLOCK (?__write)
                                                   timealloc::led_stat (?__write)
                                                   utest_summary (?__write)
    -------------------------------------------------------------------------
CSTART
  Relative segment, address: CODE 00000049 - 0000006E (0x26 bytes), align: 0
  Segment part 33.
           ENTRY                   ADDRESS         REF BY
           =====                   =======         ======
           __INIT_XDATA_I          00000049        IV (?__write)
                                                   KEY (?__write)
                                                   MAC_TIMER_MAX (?__write)
                                                   Segment part 10 (?xprintflarge)
                                                   Segment part 100 (?__write)
                                                   Segment part 102 (?__write)
                                                   Segment part 104 (?__write)
                                                   Segment part 106 (?__write)
                                                   Segment part 108 (?__write)
                                                   Segment part 110 (?__write)
                                                   Segment part 112 (?__write)
                                                   Segment part 114 (?__write)
                                                   Segment part 116 (?__write)
                                                   Segment part 118 (?__write)
                                                   Segment part 12 (?xprintflarge)
                                                   Segment part 120 (?__write)
                                                   Segment part 122 (?__write)
                                                   Segment part 124 (?__write)
                                                   Segment part 126 (?__write)
                                                   Segment part 128 (?__write)
                                                   Segment part 130 (?__write)
                                                   Segment part 132 (?__write)
                                                   Segment part 134 (?__write)
                                                   Segment part 136 (?__write)
                                                   Segment part 138 (?__write)
                                                   Segment part 14 (?xprintflarge)
                                                   Segment part 140 (?__write)
                                                   Segment part 142 (?__write)
                                                   Segment part 144 (?__write)
                                                   Segment part 146 (?__write)
                                                   Segment part 148 (?__write)
                                                   Segment part 150 (?__write)
                                                   Segment part 152 (?__write)
                                                   Segment part 154 (?__write)
                                                   Segment part 156 (?__write)
                                                   Segment part 158 (?__write)
                                                   Segment part 16 (?xprintflarge)
                                                   Segment part 160 (?__write)
                                                   Segment part 162 (?__write)
                                                   Segment part 300 (?__write)
                                                   Segment part 302 (?__write)
                                                   Segment part 304 (?__write)
                                                   Segment part 306 (?__write)
                                                   Segment part 366 (?__write)
                                                   Segment part 368 (?__write)
                                                   Segment part 370 (?__write)
                                                   Segment part 372 (?__write)
                                                   Segment part 374 (?__write)
                                                   Segment part 376 (?__write)
                                                   Segment part 378 (?__write)
                                                   Segment part 42 (?__write)
                                                   Segment part 44 (?__write)
                                                   Segment part 46 (?__write)
                                                   Segment part 48 (?__write)
                                                   Segment part 50 (?__write)
                                                   Segment part 52 (?__write)
                                                   Segment part 54 (?__write)
                                                   Segment part 56 (?__write)
                                                   Segment part 58 (?__write)
                                                   Segment part 6 (?xprintflarge)
                                                   Segment part 60 (?__write)
                                                   Segment part 62 (?__write)
                                                   Segment part 64 (?__write)
                                                   Segment part 68 (?__write)
                                                   Segment part 70 (?__write)
                                                   Segment part 74 (?__write)
                                                   Segment part 76 (?__write)
                                                   Segment part 78 (?__write)
                                                   Segment part 8 (?xprintflarge)
                                                   Segment part 80 (?__write)
                                                   Segment part 82 (?__write)
                                                   Segment part 84 (?__write)
                                                   Segment part 86 (?__write)
                                                   Segment part 88 (?__write)
                                                   Segment part 90 (?__write)
                                                   Segment part 92 (?__write)
                                                   Segment part 94 (?__write)
                                                   Segment part 96 (?__write)
                                                   Segment part 98 (?__write)
                                                   _Randseed (?rand)
                                                   __Constant_0 (?xprintflarge)
                                                   __Constant_1 (?__write)
                                                   __Constant_15180 (?__write)
                                                   __Constant_186a0 (?xprintflarge)
                                                   __Constant_19660d (?rand)
                                                   __Constant_1f4 (?__write)
                                                   __Constant_20 (?__write)
                                                   __Constant_3c6ef35f (?rand)
                                                   __Constant_3d000000 (?__write)
                                                   __Constant_3e8 (?__write)
                                                   __Constant_3f800000 (?xprintflarge)
                                                   __Constant_447a0000 (?__write)
                                                   __Constant_4cbebc20 (?xprintflarge)
                                                   __Constant_7597 (?xprintflarge)
                                                   __Constant_7d0 (?__write)
                                                   __Constant_7fff (?__write)
                                                   __Constant_8000 (?__write)
                                                   __Constant_a (?__write)
                                                   __Constant_ffff (?xprintflarge)
                                                   __Constant_ffff8000 (?__write)
                                                   __Constant_fffffe0c (?__write)
                                                   __Constant_ffffff (?__write)
    -------------------------------------------------------------------------
DIFUNCT
  Relative segment, address: CODE 000015A8, align: 0
  Segment part 38. ROOT 
    -------------------------------------------------------------------------
CSTART
  Relative segment, address: CODE 0000006F - 00000084 (0x16 bytes), align: 0
  Segment part 40.            Intra module refs:   ?cmain
           ENTRY                   ADDRESS         REF BY
           =====                   =======         ======
           ?call_main              0000006F 

    -------------------------------------------------------------------------
  LIBRARY MODULE, NAME : CSTARTUP

  SEGMENTS IN THE MODULE
  ======================
REGISTERS
  Relative segment, address: DATA 00000000, align: 0
  Segment part 0.             Intra module refs:   Segment part 6
           ENTRY                   ADDRESS         REF BY
           =====                   =======         ======
           ?REGISTERS              00000000 
    -------------------------------------------------------------------------
ISTACK
  Relative segment, address: IDATA 000000C0, align: 0
  Segment part 1.             Intra module refs:   Segment part 6
           ENTRY                   ADDRESS         REF BY
           =====                   =======         ======
           ?ISTACK_START           000000C0 
    -------------------------------------------------------------------------
XSTACK
  Relative segment, address: XDATA 00000001, align: 0
  Segment part 3.             Intra module refs:   ?RESET_XSP
           ENTRY                   ADDRESS         REF BY
           =====                   =======         ======
           ?XSTACK_START           00000001 
    -------------------------------------------------------------------------
INTVEC
  Common segment, address: CODE 00000000 - 00000002 (0x3 bytes), align: 0
  Segment part 5. ROOT        Intra module refs:   Segment part 6
    -------------------------------------------------------------------------
CSTART
  Relative segment, address: CODE 00000085 - 0000008A (0x6 bytes), align: 0
  Segment part 6. ROOT        Intra module refs:   Segment part 5
           ENTRY                   ADDRESS         REF BY
           =====                   =======         ======
           __program_start         00000085        Absolute parts (?ABS_ENTRY_MOD)
           ?RESET_SP               00000088 
    -------------------------------------------------------------------------
CSTART
  Relative segment, address: CODE 0000008B - 00000090 (0x6 bytes), align: 0
  Segment part 8.
           ENTRY                   ADDRESS         REF BY
           =====                   =======         ======
           ?RESET_XSP              0000008B        ?XSP (VIRTUAL_REGISTERS)
    -------------------------------------------------------------------------
CSTART
  Relative segment, address: CODE 00000091 - 00000093 (0x3 bytes), align: 0
  Segment part 9.
           ENTRY                   ADDRESS         REF BY
           =====                   =======         ======
           ?RESET_CODE_BANK        00000091        Absolute parts (?BANKED_CODE_SUPPORT)
    -------------------------------------------------------------------------
CSTART
  Relative segment, address: CODE 00000094 - 00000096 (0x3 bytes), align: 0
  Segment part 13.            Intra module refs:   Absolute parts

    -------------------------------------------------------------------------
  LIBRARY MODULE, NAME : VIRTUAL_REGISTERS

  SEGMENTS IN THE MODULE
  ======================
BREG
  Relative segment, address: BIT 00000020.0 - 00000020.7 (0x8 bits), align: 0
  Segment part 0.
           ENTRY                   ADDRESS         REF BY
           =====                   =======         ======
           ?B0                     00000020.0      Absolute parts (CSTARTUP)
    -------------------------------------------------------------------------
VREG
  Relative segment, address: DATA 00000008 - 00000008 (0x1 bytes), align: 0
  Segment part 1.             Intra module refs:   ?V1
           ENTRY                   ADDRESS         REF BY
           =====                   =======         ======
           ?V0                     00000008        ?BANKED_ENTER_XDATA (?BANKED_ENTER_XDATA)
                                                   ?BANKED_LEAVE_XDATA (?BANKED_LEAVE_XDATA)
                                                   ?INTERRUPT_ENTER_XSP (?INTERRUPT_ENTER_XSP)
                                                   ?INTERRUPT_LEAVE_XSP (?INTERRUPT_LEAVE_XSP)
                                                   ?SL_GE_X (?SL_GE_X)
                                                   AES_StreamCoder (?__write)
                                                   Callback_execution (?__write)
                                                   DelayCalibrate (?__write)
                                                   Interval (?__write)
                                                   LLC_AddTask (?__write)
                                                   LLC_RX_HNDL (?__write)
                                                   LLC_Shelduler (?__write)
                                                   LLC_TimeAlloc (?__write)
                                                   MAC_GetTXState (?__write)
                                                   MAC_Init (?__write)
                                                   MAC_RX_HNDL (?__write)
                                                   MAC_Send (?__write)
                                                   MAC_TX_HNDL (?__write)
                                                   NT_GetTime (?__write)
                                                   NT_SetCompare (?__write)
                                                   NT_SetTime (?__write)
                                                   NT_WaitTime (?__write)
                                                   RI_BitRawCrypt (?__write)
                                                   RI_BitRawDecrypt (?__write)
                                                   RI_Receive (?__write)
                                                   RI_Send (?__write)
                                                   RI_setIV (?__write)
                                                   RI_setKEY (?__write)
                                                   RecvData (?__write)
                                                   Segment part 116 (?xprintflarge)
                                                   Segment part 117 (?xprintflarge)
                                                   Segment part 118 (?xprintflarge)
                                                   Segment part 120 (?xprintflarge)
                                                   Segment part 145 (?xprintflarge)
                                                   Segment part 146 (?xprintflarge)
                                                   Segment part 157 (?xprintflarge)
                                                   Segment part 39 (?xprintflarge)
                                                   Segment part 51 (?xprintflarge)
                                                   Segment part 55 (?xprintflarge)
                                                   Segment part 74 (?xprintflarge)
                                                   Segment part 87 (?xprintflarge)
                                                   SendData (?__write)
                                                   TIC_HW_Timer_IRQ (?__write)
                                                   TIC_SetRXCallback (?__write)
                                                   TIC_SetSECallback (?__write)
                                                   TIC_SetTXCallback (?__write)
                                                   TIC_SetTXState (?__write)
                                                   TIC_SetTimer (?__write)
                                                   TIC_getCurrentTS (?__write)
                                                   TIM_delay (?__write)
                                                   TIM_passedTime (?__write)
                                                   TimerCompareInterrupt (?__write)
                                                   _GenldLarge (?xprintflarge)
                                                   _LdtobLarge (?xprintflarge)
                                                   _LitobLarge (?xprintflarge)
                                                   _PrintfLarge (?xprintflarge)
                                                   _Prout (?xprout)
                                                   _PutcharLarge (?xprintflarge)
                                                   _PutcharsLarge (?xprintflarge)
                                                   __write (?__write)
                                                   __xdata_free (?xxmemxfree)
                                                   __xdata_malloc (?xxmemxmalloc)
                                                   calcCompareTime (?__write)
                                                   clocks_update (?__write)
                                                   div (?div)
                                                   fbuf_create (?__write)
                                                   frame_create (?__write)
                                                   frame_delete (?__write)
                                                   frame_merge (?__write)
                                                   getFrame (?__write)
                                                   loadTimerCompare (?__write)
                                                   main (?__write)
                                                   memcpy (?memcpy)
                                                   pad (?xprintflarge)
                                                   printf (?printf)
                                                   putchar (?putchar)
                                                   rand (?rand)
                                                   scale (?xprintflarge)
                                                   setFreq (?__write)
                                                   set_capture_time (?__write)
                                                   srand (?srand)
                                                   test_create (?__write)
                                                   umsg_line (?__write)
    -------------------------------------------------------------------------
VREG
  Relative segment, address: DATA 00000009 - 00000009 (0x1 bytes), align: 0
  Segment part 2.             Intra module refs:   ?V2
           ENTRY                   ADDRESS         REF BY
           =====                   =======         ======
           ?V1                     00000009        AES_StreamCoder (?__write)
                                                   DelayCalibrate (?__write)
                                                   Interval (?__write)
                                                   LLC_AddTask (?__write)
                                                   LLC_RX_HNDL (?__write)
                                                   LLC_Shelduler (?__write)
                                                   LLC_TimeAlloc (?__write)
                                                   MAC_GetTXState (?__write)
                                                   MAC_Init (?__write)
                                                   MAC_Send (?__write)
                                                   MAC_TX_HNDL (?__write)
                                                   NT_GetTime (?__write)
                                                   NT_SetCompare (?__write)
                                                   NT_SetTime (?__write)
                                                   NT_WaitTime (?__write)
                                                   RI_Receive (?__write)
                                                   RI_Send (?__write)
                                                   RI_setIV (?__write)
                                                   RI_setKEY (?__write)
                                                   RecvData (?__write)
                                                   Segment part 117 (?xprintflarge)
                                                   Segment part 118 (?xprintflarge)
                                                   Segment part 119 (?xprintflarge)
                                                   Segment part 121 (?xprintflarge)
                                                   Segment part 145 (?xprintflarge)
                                                   Segment part 146 (?xprintflarge)
                                                   Segment part 157 (?xprintflarge)
                                                   Segment part 44 (?xprintflarge)
                                                   Segment part 54 (?xprintflarge)
                                                   Segment part 74 (?xprintflarge)
                                                   Segment part 86 (?xprintflarge)
                                                   Segment part 88 (?xprintflarge)
                                                   SendData (?__write)
                                                   TIC_SetRXCallback (?__write)
                                                   TIC_SetSECallback (?__write)
                                                   TIC_SetTXCallback (?__write)
                                                   TIC_SetTXState (?__write)
                                                   TIC_SetTimer (?__write)
                                                   TIC_getCurrentTS (?__write)
                                                   TIM_delay (?__write)
                                                   TIM_passedTime (?__write)
                                                   TimerCompareInterrupt (?__write)
                                                   _GenldLarge (?xprintflarge)
                                                   _LdtobLarge (?xprintflarge)
                                                   _LitobLarge (?xprintflarge)
                                                   _PrintfLarge (?xprintflarge)
                                                   _Prout (?xprout)
                                                   _PutcharLarge (?xprintflarge)
                                                   _PutcharsLarge (?xprintflarge)
                                                   __write (?__write)
                                                   __xdata_free (?xxmemxfree)
                                                   __xdata_malloc (?xxmemxmalloc)
                                                   calcCompareTime (?__write)
                                                   clocks_update (?__write)
                                                   div (?div)
                                                   fbuf_create (?__write)
                                                   frame_create (?__write)
                                                   frame_delete (?__write)
                                                   frame_merge (?__write)
                                                   getFrame (?__write)
                                                   loadTimerCompare (?__write)
                                                   main (?__write)
                                                   pad (?xprintflarge)
                                                   printf (?printf)
                                                   putchar (?putchar)
                                                   rand (?rand)
                                                   scale (?xprintflarge)
                                                   setFreq (?__write)
                                                   srand (?srand)
                                                   test_create (?__write)
                                                   umsg_line (?__write)
    -------------------------------------------------------------------------
VREG
  Relative segment, address: DATA 0000000A - 0000000A (0x1 bytes), align: 0
  Segment part 3.             Intra module refs:   ?V3
           ENTRY                   ADDRESS         REF BY
           =====                   =======         ======
           ?V2                     0000000A        AES_StreamCoder (?__write)
                                                   Callback_execution (?__write)
                                                   DelayCalibrate (?__write)
                                                   Interval (?__write)
                                                   LLC_AddTask (?__write)
                                                   LLC_Shelduler (?__write)
                                                   LLC_TimeAlloc (?__write)
                                                   MAC_RX_HNDL (?__write)
                                                   MAC_Send (?__write)
                                                   MAC_TX_HNDL (?__write)
                                                   NT_GetTime (?__write)
                                                   NT_SetCompare (?__write)
                                                   NT_SetTime (?__write)
                                                   NT_WaitTime (?__write)
                                                   RI_BitRawCrypt (?__write)
                                                   RI_BitRawDecrypt (?__write)
                                                   RI_Receive (?__write)
                                                   RI_Send (?__write)
                                                   RecvData (?__write)
                                                   Segment part 118 (?xprintflarge)
                                                   Segment part 120 (?xprintflarge)
                                                   Segment part 146 (?xprintflarge)
                                                   Segment part 152 (?xprintflarge)
                                                   Segment part 74 (?xprintflarge)
                                                   SendData (?__write)
                                                   TIC_HW_Timer_IRQ (?__write)
                                                   TIM_delay (?__write)
                                                   TIM_passedTime (?__write)
                                                   _GenldLarge (?xprintflarge)
                                                   _LdtobLarge (?xprintflarge)
                                                   _LitobLarge (?xprintflarge)
                                                   _PrintfLarge (?xprintflarge)
                                                   _Prout (?xprout)
                                                   _PutcharLarge (?xprintflarge)
                                                   _PutcharsLarge (?xprintflarge)
                                                   __write (?__write)
                                                   __xdata_free (?xxmemxfree)
                                                   __xdata_malloc (?xxmemxmalloc)
                                                   calcCompareTime (?__write)
                                                   clocks_update (?__write)
                                                   fbuf_create (?__write)
                                                   frame_delete (?__write)
                                                   frame_merge (?__write)
                                                   getFrame (?__write)
                                                   loadTimerCompare (?__write)
                                                   pad (?xprintflarge)
                                                   rand (?rand)
                                                   scale (?xprintflarge)
                                                   srand (?srand)
                                                   test_create (?__write)
    -------------------------------------------------------------------------
VREG
  Relative segment, address: DATA 0000000B - 0000000B (0x1 bytes), align: 0
  Segment part 4.             Intra module refs:   ?V4
           ENTRY                   ADDRESS         REF BY
           =====                   =======         ======
           ?V3                     0000000B        AES_StreamCoder (?__write)
                                                   Callback_execution (?__write)
                                                   DelayCalibrate (?__write)
                                                   Interval (?__write)
                                                   LLC_AddTask (?__write)
                                                   LLC_Shelduler (?__write)
                                                   LLC_TimeAlloc (?__write)
                                                   MAC_RX_HNDL (?__write)
                                                   MAC_Send (?__write)
                                                   MAC_TX_HNDL (?__write)
                                                   NT_GetTime (?__write)
                                                   NT_SetCompare (?__write)
                                                   NT_SetTime (?__write)
                                                   NT_WaitTime (?__write)
                                                   RI_BitRawCrypt (?__write)
                                                   RI_BitRawDecrypt (?__write)
                                                   RI_Receive (?__write)
                                                   RI_Send (?__write)
                                                   RecvData (?__write)
                                                   Segment part 118 (?xprintflarge)
                                                   Segment part 120 (?xprintflarge)
                                                   Segment part 146 (?xprintflarge)
                                                   Segment part 152 (?xprintflarge)
                                                   Segment part 74 (?xprintflarge)
                                                   SendData (?__write)
                                                   TIC_HW_Timer_IRQ (?__write)
                                                   TIM_delay (?__write)
                                                   TIM_passedTime (?__write)
                                                   _GenldLarge (?xprintflarge)
                                                   _LdtobLarge (?xprintflarge)
                                                   _LitobLarge (?xprintflarge)
                                                   _PrintfLarge (?xprintflarge)
                                                   _PutcharsLarge (?xprintflarge)
                                                   __write (?__write)
                                                   __xdata_free (?xxmemxfree)
                                                   __xdata_malloc (?xxmemxmalloc)
                                                   calcCompareTime (?__write)
                                                   clocks_update (?__write)
                                                   fbuf_create (?__write)
                                                   frame_delete (?__write)
                                                   getFrame (?__write)
                                                   loadTimerCompare (?__write)
                                                   pad (?xprintflarge)
                                                   rand (?rand)
                                                   scale (?xprintflarge)
                                                   srand (?srand)
                                                   test_create (?__write)
    -------------------------------------------------------------------------
VREG
  Relative segment, address: DATA 0000000C - 0000000C (0x1 bytes), align: 0
  Segment part 5.             Intra module refs:   ?V5
           ENTRY                   ADDRESS         REF BY
           =====                   =======         ======
           ?V4                     0000000C        AES_StreamCoder (?__write)
                                                   DelayCalibrate (?__write)
                                                   Interval (?__write)
                                                   LLC_Shelduler (?__write)
                                                   NT_GetTime (?__write)
                                                   NT_SetTime (?__write)
                                                   RI_Receive (?__write)
                                                   RI_Send (?__write)
                                                   RecvData (?__write)
                                                   Segment part 141 (?xprintflarge)
                                                   Segment part 142 (?xprintflarge)
                                                   Segment part 74 (?xprintflarge)
                                                   SendData (?__write)
                                                   TIM_delay (?__write)
                                                   TIM_passedTime (?__write)
                                                   _GenldLarge (?xprintflarge)
                                                   _LdtobLarge (?xprintflarge)
                                                   _LitobLarge (?xprintflarge)
                                                   _PrintfLarge (?xprintflarge)
                                                   _Prout (?xprout)
                                                   _PutcharLarge (?xprintflarge)
                                                   _PutcharsLarge (?xprintflarge)
                                                   __write (?__write)
                                                   __xdata_free (?xxmemxfree)
                                                   __xdata_malloc (?xxmemxmalloc)
                                                   fbuf_create (?__write)
                                                   frame_merge (?__write)
                                                   getFrame (?__write)
                                                   pad (?xprintflarge)
                                                   rand (?rand)
                                                   scale (?xprintflarge)
                                                   test_create (?__write)
    -------------------------------------------------------------------------
VREG
  Relative segment, address: DATA 0000000D - 0000000D (0x1 bytes), align: 0
  Segment part 6.             Intra module refs:   ?V6
           ENTRY                   ADDRESS         REF BY
           =====                   =======         ======
           ?V5                     0000000D        AES_StreamCoder (?__write)
                                                   DelayCalibrate (?__write)
                                                   Interval (?__write)
                                                   NT_GetTime (?__write)
                                                   NT_SetTime (?__write)
                                                   RI_Receive (?__write)
                                                   RI_Send (?__write)
                                                   RecvData (?__write)
                                                   Segment part 141 (?xprintflarge)
                                                   Segment part 142 (?xprintflarge)
                                                   SendData (?__write)
                                                   TIM_delay (?__write)
                                                   TIM_passedTime (?__write)
                                                   _GenldLarge (?xprintflarge)
                                                   _LdtobLarge (?xprintflarge)
                                                   _LitobLarge (?xprintflarge)
                                                   _PrintfLarge (?xprintflarge)
                                                   _Prout (?xprout)
                                                   _PutcharLarge (?xprintflarge)
                                                   _PutcharsLarge (?xprintflarge)
                                                   __write (?__write)
                                                   __xdata_free (?xxmemxfree)
                                                   __xdata_malloc (?xxmemxmalloc)
                                                   frame_merge (?__write)
                                                   pad (?xprintflarge)
                                                   rand (?rand)
                                                   scale (?xprintflarge)
                                                   test_create (?__write)
    -------------------------------------------------------------------------
VREG
  Relative segment, address: DATA 0000000E - 0000000E (0x1 bytes), align: 0
  Segment part 7.             Intra module refs:   ?V7
           ENTRY                   ADDRESS         REF BY
           =====                   =======         ======
           ?V6                     0000000E        AES_StreamCoder (?__write)
                                                   DelayCalibrate (?__write)
                                                   Interval (?__write)
                                                   NT_GetTime (?__write)
                                                   RI_Receive (?__write)
                                                   RI_Send (?__write)
                                                   RecvData (?__write)
                                                   TIM_delay (?__write)
                                                   TIM_passedTime (?__write)
                                                   _GenldLarge (?xprintflarge)
                                                   _LdtobLarge (?xprintflarge)
                                                   _LitobLarge (?xprintflarge)
                                                   _PutcharsLarge (?xprintflarge)
                                                   __write (?__write)
                                                   __xdata_malloc (?xxmemxmalloc)
                                                   fbuf_create (?__write)
                                                   frame_merge (?__write)
                                                   getFrame (?__write)
                                                   pad (?xprintflarge)
                                                   rand (?rand)
                                                   scale (?xprintflarge)
                                                   test_create (?__write)
    -------------------------------------------------------------------------
VREG
  Relative segment, address: DATA 0000000F - 0000000F (0x1 bytes), align: 0
  Segment part 8.
           ENTRY                   ADDRESS         REF BY
           =====                   =======         ======
           ?V7                     0000000F        DelayCalibrate (?__write)
                                                   Interval (?__write)
                                                   NT_GetTime (?__write)
                                                   RI_Receive (?__write)
                                                   RI_Send (?__write)
                                                   RecvData (?__write)
                                                   TIM_delay (?__write)
                                                   TIM_passedTime (?__write)
                                                   _GenldLarge (?xprintflarge)
                                                   _LdtobLarge (?xprintflarge)
                                                   _LitobLarge (?xprintflarge)
                                                   _PutcharsLarge (?xprintflarge)
                                                   __write (?__write)
                                                   fbuf_create (?__write)
                                                   frame_merge (?__write)
                                                   getFrame (?__write)
                                                   pad (?xprintflarge)
                                                   rand (?rand)
                                                   scale (?xprintflarge)
                                                   test_create (?__write)
    -------------------------------------------------------------------------
XSP
  Relative segment, address: DATA 00000010 - 00000011 (0x2 bytes), align: 0
  Segment part 34.
           ENTRY                   ADDRESS         REF BY
           =====                   =======         ======
           ?XSP                    00000010        ?ADD_XSTACK_DISP0_8 (?ADD_XSTACK_DISP8)
                                                   ?ALLOC_XSTACK8 (?ALLOC_XSTACK8)
                                                   ?BANKED_ENTER_XDATA (?BANKED_ENTER_XDATA)
                                                   ?BANKED_LEAVE_XDATA (?BANKED_LEAVE_XDATA)
                                                   ?DEALLOC_XSTACK8 (?DEALLOC_XSTACK8)
                                                   ?INTERRUPT_ENTER_XSP (?INTERRUPT_ENTER_XSP)
                                                   ?INTERRUPT_LEAVE_XSP (?INTERRUPT_LEAVE_XSP)
                                                   ?PUSH_XSTACK8_X (?PUSH_XSTACK8_X)
                                                   ?RESET_XSP (CSTARTUP)
                                                   ?XSTACK_DISP0_8 (?XSTACK_DISP8)
                                                   ?XSTACK_DISP100_8 (?XSTACK_DISP8_RP)
                                                   ?XSTACK_DISP101_8 (?XSTACK_DISP8_RP)
                                                   ?XSTACK_DISP102_8 (?XSTACK_DISP8_RP)
                                                   AES_StreamCoder (?__write)
                                                   DelayCalibrate (?__write)
                                                   Interval (?__write)
                                                   RI_Receive (?__write)
                                                   RI_Send (?__write)
                                                   RI_cfg (?__write)
                                                   RecvData (?__write)
                                                   Segment part 110 (?xprintflarge)
                                                   Segment part 112 (?xprintflarge)
                                                   Segment part 133 (?xprintflarge)
                                                   Segment part 136 (?xprintflarge)
                                                   Segment part 144 (?xprintflarge)
                                                   Segment part 148 (?xprintflarge)
                                                   Segment part 68 (?xprintflarge)
                                                   Segment part 77 (?xprintflarge)
                                                   Segment part 8 (?div)
                                                   Segment part 91 (?xprintflarge)
                                                   SendData (?__write)
                                                   TIC_TDMAShelduler (?__write)
                                                   TIM_delay (?__write)
                                                   TIM_passedTime (?__write)
                                                   _GenldLarge (?xprintflarge)
                                                   _LdtobLarge (?xprintflarge)
                                                   _LitobLarge (?xprintflarge)
                                                   _PrintfLarge (?xprintflarge)
                                                   __exit (?__exit)
                                                   __iar_Memchr (?memchr)
                                                   calcCompareTime (?__write)
                                                   div (?div)
                                                   frame_merge (?__write)
                                                   getFrame (?__write)
                                                   loadTimerCompare (?__write)
                                                   memset (?memset)
                                                   pad (?xprintflarge)
                                                   printf (?printf)
                                                   putchar (?putchar)
                                                   scale (?xprintflarge)
                                                   setFreq (?__write)
                                                   test_create (?__write)

    -------------------------------------------------------------------------
  LIBRARY MODULE, NAME : ?div

  SEGMENTS IN THE MODULE
  ======================
<BANKED_CODE> 1 (was BANKED_CODE)
  Relative segment, address: CODE 00005C16 - 00005C82 (0x6d bytes), align: 0
  Segment part 6.             Intra module refs:   div::?relay
           ENTRY                   ADDRESS         REF BY
           =====                   =======         ======
           div                     00005C16 
               XSTACK = 00000002 ( 0000000E )
               ISTACK = 00000000 ( 00000002 )
    -------------------------------------------------------------------------
<BANKED_CODE> 1 (was BANKED_CODE)
  Relative segment, address: CODE 00005C83 - 00005C8E (0xc bytes), align: 0
  Segment part 8.             Intra module refs:   div
    -------------------------------------------------------------------------
BANK_RELAYS
  Relative segment, address: CODE 000007EB - 000007F0 (0x6 bytes), align: 0
  Segment part 7.
           ENTRY                   ADDRESS         REF BY
           =====                   =======         ======
           div::?relay             000007EB        _GenldLarge (?xprintflarge)

    -------------------------------------------------------------------------
  LIBRARY MODULE, NAME : ?exit

  SEGMENTS IN THE MODULE
  ======================
<BANKED_CODE> 1 (was BANKED_CODE)
  Relative segment, address: CODE 00005EEA - 00005EF7 (0xe bytes), align: 0
  Segment part 6.
           ENTRY                   ADDRESS         REF BY
           =====                   =======         ======
           exit                    00005EEA        ?call_main (?cmain)
               calls direct
               ISTACK = 00000000 ( 00000002 )

    -------------------------------------------------------------------------
  LIBRARY MODULE, NAME : ?BANKED_CODE_SUPPORT

  SEGMENTS IN THE MODULE
  ======================
CSTART
  Relative segment, address: CODE 00000097 - 000000B4 (0x1e bytes), align: 0
  Segment part 0.
           ENTRY                   ADDRESS         REF BY
           =====                   =======         ======
           ?BCALL_FF               00000097        ?call_main (?cmain)
                                                   Segment part 10 (?cexit)
           ?BRET_FF                0000009D        ?BANKED_LEAVE_XDATA (?BANKED_LEAVE_XDATA)
                                                   AES_init (?__write)
                                                   LED (?__write)
                                                   LLC_GetTaskLen (?__write)
                                                   LLC_Init (?__write)
                                                   LoadTXData (?__write)
                                                   MAC_SetRXCallback (?__write)
                                                   MyLowLevelPutchar (?__write)
                                                   NT_IRQEnable (?__write)
                                                   NT_SetEventCallback (?__write)
                                                   RI_SetChannel (?__write)
                                                   RI_StreamCrypt (?__write)
                                                   RI_cfg (?__write)
                                                   RI_init (?__write)
                                                   ReadTimer (?__write)
                                                   SetCPU32M (?__write)
                                                   TIC_Init (?__write)
                                                   TIC_TDMAShelduler (?__write)
                                                   TIM_TimeStamp (?__write)
                                                   TIM_init (?__write)
                                                   UnLoadRXData (?__write)
                                                   __DebugBreak (?__dbg_break)
                                                   __iar_Memchr (?memchr)
                                                   __iar_Strchr (?strchr)
                                                   __xdata_GetMemChunk (?xgetmemchunk)
                                                   bits_count (?__write)
                                                   exit (?exit)
                                                   frame_len (?__write)
                                                   getRNDByte (?__write)
                                                   incrementTS (?__write)
                                                   isIRQEnable (?__write)
                                                   main (?__write)
                                                   memset (?memset)
                                                   nwDebugerInit (?__write)
                                                   strlen (?strlen)
                                                   suite_LLC_HW (?__write)
                                                   timealloc (?__write)
                                                   uart_init (?__write)
                                                   umsg_summary (?__write)
                                                   utestSigTraceInit (?__write)
           ?BDISPATCH_FF           000000A0        AES_StreamCoder::?relay (?__write)
                                                   AES_init::?relay (?__write)
                                                   Callback_execution::?relay (?__write)
                                                   DelayCalibrate::?relay (?__write)
                                                   Interval::?relay (?__write)
                                                   LED::?relay (?__write)
                                                   LLC_AddTask::?relay (?__write)
                                                   LLC_GetTaskLen::?relay (?__write)
                                                   LLC_Init::?relay (?__write)
                                                   LLC_RX_HNDL::?relay (?__write)
                                                   LLC_RunTimeAlloc::?relay (?__write)
                                                   LLC_SE_HNDL::?relay (?__write)
                                                   LLC_Shelduler::?relay (?__write)
                                                   LLC_TimeAlloc::?relay (?__write)
                                                   LoadTXData::?relay (?__write)
                                                   MAC_GetTXState::?relay (?__write)
                                                   MAC_Init::?relay (?__write)
                                                   MAC_RX_HNDL::?relay (?__write)
                                                   MAC_Send::?relay (?__write)
                                                   MAC_SetRXCallback::?relay (?__write)
                                                   MAC_TX_HNDL::?relay (?__write)
                                                   MyLowLevelPutchar::?relay (?__write)
                                                   NT_GetTime::?relay (?__write)
                                                   NT_IRQEnable::?relay (?__write)
                                                   NT_SetCompare::?relay (?__write)
                                                   NT_SetEventCallback::?relay (?__write)
                                                   NT_SetTime::?relay (?__write)
                                                   NT_WaitTime::?relay (?__write)
                                                   RI_BitRawCrypt::?relay (?__write)
                                                   RI_BitRawDecrypt::?relay (?__write)
                                                   RI_Receive::?relay (?__write)
                                                   RI_Send::?relay (?__write)
                                                   RI_SetChannel::?relay (?__write)
                                                   RI_StreamCrypt::?relay (?__write)
                                                   RI_cfg::?relay (?__write)
                                                   RI_init::?relay (?__write)
                                                   RI_setIV::?relay (?__write)
                                                   RI_setKEY::?relay (?__write)
                                                   ReadTimer::?relay (?__write)
                                                   RecvData::?relay (?__write)
                                                   STACK_FAILURE::?relay (?__write)
                                                   SendData::?relay (?__write)
                                                   SetCPU32M::?relay (?__write)
                                                   TIC_HW_Timer_IRQ::?relay (?__write)
                                                   TIC_Init::?relay (?__write)
                                                   TIC_SetRXCallback::?relay (?__write)
                                                   TIC_SetSECallback::?relay (?__write)
                                                   TIC_SetTXCallback::?relay (?__write)
                                                   TIC_SetTXState::?relay (?__write)
                                                   TIC_SetTimer::?relay (?__write)
                                                   TIC_TDMAShelduler::?relay (?__write)
                                                   TIC_getCurrentTS::?relay (?__write)
                                                   TIM_TimeStamp::?relay (?__write)
                                                   TIM_delay::?relay (?__write)
                                                   TIM_init::?relay (?__write)
                                                   TIM_passedTime::?relay (?__write)
                                                   UnLoadRXData::?relay (?__write)
                                                   _GenldLarge::?relay (?xprintflarge)
                                                   _LdtobLarge::?relay (?xprintflarge)
                                                   _LitobLarge::?relay (?xprintflarge)
                                                   _PrintfLarge::?relay (?xprintflarge)
                                                   _Prout::?relay (?xprout)
                                                   _PutcharLarge::?relay (?xprintflarge)
                                                   _PutcharsLarge::?relay (?xprintflarge)
                                                   __DebugBreak::?relay (?__dbg_break)
                                                   __iar_Memchr::?relay (?memchr)
                                                   __iar_Strchr::?relay (?strchr)
                                                   __write::?relay (?__write)
                                                   __xdata_GetMemChunk::?relay (?xgetmemchunk)
                                                   __xdata_free::?relay (?xxmemxfree)
                                                   __xdata_malloc::?relay (?xxmemxmalloc)
                                                   _exit::?relay (?cexit)
                                                   bits_count::?relay (?__write)
                                                   calcCompareTime::?relay (?__write)
                                                   clocks_update::?relay (?__write)
                                                   div::?relay (?div)
                                                   fbuf_create::?relay (?__write)
                                                   frame_create::?relay (?__write)
                                                   frame_delete::?relay (?__write)
                                                   frame_insert_head::?relay (?__write)
                                                   frame_len::?relay (?__write)
                                                   frame_merge::?relay (?__write)
                                                   free::?relay (?__write)
                                                   getFrame::?relay (?__write)
                                                   getRNDByte::?relay (?__write)
                                                   incrementTS::?relay (?__write)
                                                   isIRQEnable::?relay (?__write)
                                                   loadTimerCompare::?relay (?__write)
                                                   malloc::?relay (?__write)
                                                   memcpy::?relay (?memcpy)
                                                   memset::?relay (?memset)
                                                   nwDebugerInit::?relay (?__write)
                                                   pad::?relay (?xprintflarge)
                                                   printf::?relay (?printf)
                                                   putchar::?relay (?putchar)
                                                   rand::?relay (?rand)
                                                   random_core_init::?relay (?__write)
                                                   readRandom::?relay (?__write)
                                                   scale::?relay (?xprintflarge)
                                                   setFreq::?relay (?__write)
                                                   set_capture_time::?relay (?__write)
                                                   srand::?relay (?srand)
                                                   strlen::?relay (?strlen)
                                                   suite_LLC_HW::?relay (?__write)
                                                   test_create::?relay (?__write)
                                                   timealloc::?relay (?__write)
                                                   uart_init::?relay (?__write)
                                                   umsg_line::?relay (?__write)
                                                   umsg_summary::?relay (?__write)
                                                   utestSigTraceInit::?relay (?__write)

    -------------------------------------------------------------------------
  LIBRARY MODULE, NAME : ?SL_GT_X

  SEGMENTS IN THE MODULE
  ======================
RCODE
  Relative segment, address: CODE 0000086F - 00000883 (0x15 bytes), align: 0
  Segment part 1.
           ENTRY                   ADDRESS         REF BY
           =====                   =======         ======
           ?SL_GT_X                0000086F        _PrintfLarge (?xprintflarge)

    -------------------------------------------------------------------------
  LIBRARY MODULE, NAME : ?SL_GE_X

  SEGMENTS IN THE MODULE
  ======================
RCODE
  Relative segment, address: CODE 00000884 - 000008A9 (0x26 bytes), align: 0
  Segment part 1.
           ENTRY                   ADDRESS         REF BY
           =====                   =======         ======
           ?SL_GE_X                00000884        _LitobLarge (?xprintflarge)

    -------------------------------------------------------------------------
  LIBRARY MODULE, NAME : ?UL_GT

  SEGMENTS IN THE MODULE
  ======================
RCODE
  Relative segment, address: CODE 000008AA - 000008B9 (0x10 bytes), align: 0
  Segment part 1.
           ENTRY                   ADDRESS         REF BY
           =====                   =======         ======
           ?UL_GT                  000008AA        RecvData (?__write)

    -------------------------------------------------------------------------
  LIBRARY MODULE, NAME : ?UL_GT_X

  SEGMENTS IN THE MODULE
  ======================
RCODE
  Relative segment, address: CODE 000008BA - 000008C9 (0x10 bytes), align: 0
  Segment part 1.
           ENTRY                   ADDRESS         REF BY
           =====                   =======         ======
           ?UL_GT_X                000008BA        Interval (?__write)
                                                   NT_WaitTime (?__write)
                                                   TIM_delay (?__write)
                                                   calcCompareTime (?__write)
                                                   clocks_update (?__write)

    -------------------------------------------------------------------------
  LIBRARY MODULE, NAME : ?L_TO_FLT

  SEGMENTS IN THE MODULE
  ======================
RCODE
  Relative segment, address: CODE 000008CA - 00000926 (0x5d bytes), align: 0
  Segment part 3.
           ENTRY                   ADDRESS         REF BY
           =====                   =======         ======
           ?UL_TO_FLT              000008CA        RI_Receive (?__write)
                                                   RI_Send (?__write)
                                                   TIM_passedTime (?__write)
                                                   _LdtobLarge (?xprintflarge)

    -------------------------------------------------------------------------
  LIBRARY MODULE, NAME : ?FLT_TO_L

  SEGMENTS IN THE MODULE
  ======================
RCODE
  Relative segment, address: CODE 00000927 - 00000931 (0xb bytes), align: 0
  Segment part 2.
           ENTRY                   ADDRESS         REF BY
           =====                   =======         ======
           ?FLT_TO_UL              00000927        TIM_passedTime (?__write)
                                                   _LdtobLarge (?xprintflarge)
    -------------------------------------------------------------------------
RCODE
  Relative segment, address: CODE 00000932 - 0000093D (0xc bytes), align: 0
  Segment part 6.             Intra module refs:   ?FLT_TO_UL
    -------------------------------------------------------------------------
RCODE
  Relative segment, address: CODE 0000093E - 0000098C (0x4f bytes), align: 0
  Segment part 7.             Intra module refs:   ?FLT_TO_UL

    -------------------------------------------------------------------------
  LIBRARY MODULE, NAME : ?FLT_TEST_ZERO

  SEGMENTS IN THE MODULE
  ======================
RCODE
  Relative segment, address: CODE 0000098D - 00000995 (0x9 bytes), align: 0
  Segment part 1.
           ENTRY                   ADDRESS         REF BY
           =====                   =======         ======
           ?FLT_TEST_ZERO_REW      0000098D        ?FLT_ADD (?FLT_ADD)
                                                   ?FLT_DIV (?FLT_DIV)
                                                   ?FLT_LT (?FLT_LT)
                                                   ?FLT_MUL (?FLT_MUL)

    -------------------------------------------------------------------------
  LIBRARY MODULE, NAME : ?FLT_TEST_ZERO_R1

  SEGMENTS IN THE MODULE
  ======================
RCODE
  Relative segment, address: CODE 00000996 - 0000099E (0x9 bytes), align: 0
  Segment part 1.
           ENTRY                   ADDRESS         REF BY
           =====                   =======         ======
           ?FLT_TEST_ZERO_R1_REW   00000996        ?FLT_ADD (?FLT_ADD)
                                                   ?FLT_DIV (?FLT_DIV)
                                                   ?FLT_LT (?FLT_LT)
                                                   ?FLT_MUL (?FLT_MUL)

    -------------------------------------------------------------------------
  LIBRARY MODULE, NAME : ?FLT_TEST_INF

  SEGMENTS IN THE MODULE
  ======================
RCODE
  Relative segment, address: CODE 0000099F - 000009A1 (0x3 bytes), align: 0
  Segment part 0.
           ENTRY                   ADDRESS         REF BY
           =====                   =======         ======
           ?FLT_TEST_INF_REW       0000099F        ?FLT_ADD (?FLT_ADD)
                                                   ?FLT_MUL (?FLT_MUL)
    -------------------------------------------------------------------------
RCODE
  Relative segment, address: CODE 000009A2 - 000009B2 (0x11 bytes), align: 0
  Segment part 1.             Intra module refs:   ?FLT_TEST_INF_REW
           ENTRY                   ADDRESS         REF BY
           =====                   =======         ======
           ?FLT_TEST_INF           000009A2        ?FLT_DIV (?FLT_DIV)

    -------------------------------------------------------------------------
  LIBRARY MODULE, NAME : ?FLT_TEST_INF_R1

  SEGMENTS IN THE MODULE
  ======================
RCODE
  Relative segment, address: CODE 000009B3 - 000009B5 (0x3 bytes), align: 0
  Segment part 0.
           ENTRY                   ADDRESS         REF BY
           =====                   =======         ======
           ?FLT_TEST_INF_R1_REW    000009B3        ?FLT_ADD (?FLT_ADD)
                                                   ?FLT_MUL (?FLT_MUL)
    -------------------------------------------------------------------------
RCODE
  Relative segment, address: CODE 000009B6 - 000009C6 (0x11 bytes), align: 0
  Segment part 1.             Intra module refs:   ?FLT_TEST_INF_R1_REW
           ENTRY                   ADDRESS         REF BY
           =====                   =======         ======
           ?FLT_TEST_INF_R1        000009B6        ?FLT_DIV (?FLT_DIV)

    -------------------------------------------------------------------------
  LIBRARY MODULE, NAME : ?FLT_TEST_NAN

  SEGMENTS IN THE MODULE
  ======================
RCODE
  Relative segment, address: CODE 000009C7 - 000009D5 (0xf bytes), align: 0
  Segment part 1.
           ENTRY                   ADDRESS         REF BY
           =====                   =======         ======
           ?FLT_TEST_NAN           000009C7        ?FLT_ADD (?FLT_ADD)
                                                   ?FLT_DIV (?FLT_DIV)
                                                   ?FLT_LT (?FLT_LT)
                                                   ?FLT_MUL (?FLT_MUL)
                                                   ?FLT_SUB (?FLT_ADD)

    -------------------------------------------------------------------------
  LIBRARY MODULE, NAME : ?FLT_TEST_NAN_R1

  SEGMENTS IN THE MODULE
  ======================
RCODE
  Relative segment, address: CODE 000009D6 - 000009E4 (0xf bytes), align: 0
  Segment part 1.
           ENTRY                   ADDRESS         REF BY
           =====                   =======         ======
           ?FLT_TEST_NAN_R1        000009D6        ?FLT_ADD (?FLT_ADD)
                                                   ?FLT_DIV (?FLT_DIV)
                                                   ?FLT_LT (?FLT_LT)
                                                   ?FLT_MUL (?FLT_MUL)
                                                   ?FLT_SUB (?FLT_ADD)

    -------------------------------------------------------------------------
  LIBRARY MODULE, NAME : ?FLT_LT

  SEGMENTS IN THE MODULE
  ======================
RCODE
  Relative segment, address: CODE 000009E5 - 00000A30 (0x4c bytes), align: 0
  Segment part 1.
           ENTRY                   ADDRESS         REF BY
           =====                   =======         ======
           ?FLT_LT                 000009E5        _LdtobLarge (?xprintflarge)

    -------------------------------------------------------------------------
  LIBRARY MODULE, NAME : ?FLT_MUL

  SEGMENTS IN THE MODULE
  ======================
RCODE
  Relative segment, address: CODE 00000A31 - 00000BB0 (0x180 bytes), align: 0
  Segment part 1.
           ENTRY                   ADDRESS         REF BY
           =====                   =======         ======
           ?FLT_MUL                00000A31        TIM_passedTime (?__write)
                                                   _LdtobLarge (?xprintflarge)
                                                   scale (?xprintflarge)

    -------------------------------------------------------------------------
  LIBRARY MODULE, NAME : ?FLT_ADD

  SEGMENTS IN THE MODULE
  ======================
RCODE
  Relative segment, address: CODE 00000BB1 - 00000BD5 (0x25 bytes), align: 0
  Segment part 1.
           ENTRY                   ADDRESS         REF BY
           =====                   =======         ======
           ?FLT_SUB                00000BB1        _LdtobLarge (?xprintflarge)
    -------------------------------------------------------------------------
RCODE
  Relative segment, address: CODE 00000BD6 - 00000DEF (0x21a bytes), align: 0
  Segment part 3.             Intra module refs:   ?FLT_SUB
           ENTRY                   ADDRESS         REF BY
           =====                   =======         ======
           ?FLT_ADD                00000BD6        RI_Receive (?__write)
                                                   RI_Send (?__write)

    -------------------------------------------------------------------------
  LIBRARY MODULE, NAME : ?FLT_DIV

  SEGMENTS IN THE MODULE
  ======================
RCODE
  Relative segment, address: CODE 00000DF0 - 00000FD5 (0x1e6 bytes), align: 0
  Segment part 1.
           ENTRY                   ADDRESS         REF BY
           =====                   =======         ======
           ?FLT_DIV                00000DF0        RI_Receive (?__write)
                                                   RI_Send (?__write)
                                                   _LdtobLarge (?xprintflarge)

    -------------------------------------------------------------------------
  LIBRARY MODULE, NAME : ?L_MUL

  SEGMENTS IN THE MODULE
  ======================
RCODE
  Relative segment, address: CODE 00000FD6 - 00000FD8 (0x3 bytes), align: 0
  Segment part 0.
           ENTRY                   ADDRESS         REF BY
           =====                   =======         ======
           ?L_MUL                  00000FD6        DelayCalibrate (?__write)
                                                   RI_Receive (?__write)
                                                   TIM_delay (?__write)
                                                   _LdtobLarge (?xprintflarge)
                                                   rand (?rand)
    -------------------------------------------------------------------------
RCODE
  Relative segment, address: CODE 00000FD9 - 00001055 (0x7d bytes), align: 0
  Segment part 1.             Intra module refs:   ?L_MUL
           ENTRY                   ADDRESS         REF BY
           =====                   =======         ======
           ?L_MUL_REW              00000FD9 

    -------------------------------------------------------------------------
  LIBRARY MODULE, NAME : ?UL_DIV_MOD

  SEGMENTS IN THE MODULE
  ======================
RCODE
  Relative segment, address: CODE 00001056 - 000010C4 (0x6f bytes), align: 0
  Segment part 1.
           ENTRY                   ADDRESS         REF BY
           =====                   =======         ======
           ?UL_DIV_MOD             00001056        ?L_DIV_MOD (?L_DIV_MOD)
                                                   _LdtobLarge (?xprintflarge)
                                                   _LitobLarge (?xprintflarge)

    -------------------------------------------------------------------------
  LIBRARY MODULE, NAME : ?L_DIV_MOD

  SEGMENTS IN THE MODULE
  ======================
RCODE
  Relative segment, address: CODE 000010C5 - 0000111B (0x57 bytes), align: 0
  Segment part 0.
           ENTRY                   ADDRESS         REF BY
           =====                   =======         ======
           ?L_DIV_MOD              000010EF        _LdtobLarge (?xprintflarge)

    -------------------------------------------------------------------------
  LIBRARY MODULE, NAME : ?L_NEG_R1

  SEGMENTS IN THE MODULE
  ======================
RCODE
  Relative segment, address: CODE 0000111C - 0000112C (0x11 bytes), align: 0
  Segment part 1.
           ENTRY                   ADDRESS         REF BY
           =====                   =======         ======
           ?L_NEG_R1               0000111C        ?L_DIV_MOD (?L_DIV_MOD)

    -------------------------------------------------------------------------
  LIBRARY MODULE, NAME : ?L_NEG

  SEGMENTS IN THE MODULE
  ======================
RCODE
  Relative segment, address: CODE 0000112D - 0000113D (0x11 bytes), align: 0
  Segment part 1.
           ENTRY                   ADDRESS         REF BY
           =====                   =======         ======
           ?L_NEG                  0000112D        ?L_DIV_MOD (?L_DIV_MOD)
                                                   _LitobLarge (?xprintflarge)

    -------------------------------------------------------------------------
  LIBRARY MODULE, NAME : ?UL_SHR

  SEGMENTS IN THE MODULE
  ======================
RCODE
  Relative segment, address: CODE 0000113E - 00001142 (0x5 bytes), align: 0
  Segment part 1.             Intra module refs:   Segment part 2
           ENTRY                   ADDRESS         REF BY
           =====                   =======         ======
           ?UL_SHR                 0000113E        rand (?rand)
    -------------------------------------------------------------------------
RCODE
  Relative segment, address: CODE 00001143 - 00001156 (0x14 bytes), align: 0
  Segment part 2.             Intra module refs:   ?UL_SHR

    -------------------------------------------------------------------------
  LIBRARY MODULE, NAME : ?L_ADD

  SEGMENTS IN THE MODULE
  ======================
RCODE
  Relative segment, address: CODE 00001157 - 00001169 (0x13 bytes), align: 0
  Segment part 1.
           ENTRY                   ADDRESS         REF BY
           =====                   =======         ======
           ?L_ADD                  00001157        NT_GetTime (?__write)

    -------------------------------------------------------------------------
  LIBRARY MODULE, NAME : ?L_ADD_X

  SEGMENTS IN THE MODULE
  ======================
RCODE
  Relative segment, address: CODE 0000116A - 0000117C (0x13 bytes), align: 0
  Segment part 1.
           ENTRY                   ADDRESS         REF BY
           =====                   =======         ======
           ?L_ADD_X                0000116A        DelayCalibrate (?__write)
                                                   Interval (?__write)
                                                   calcCompareTime (?__write)
                                                   rand (?rand)

    -------------------------------------------------------------------------
  LIBRARY MODULE, NAME : ?L_ADD_TO_X

  SEGMENTS IN THE MODULE
  ======================
RCODE
  Relative segment, address: CODE 0000117D - 0000118F (0x13 bytes), align: 0
  Segment part 1.
           ENTRY                   ADDRESS         REF BY
           =====                   =======         ======
           ?L_ADD_TO_X             0000117D        NT_WaitTime (?__write)
                                                   RI_Receive (?__write)
                                                   RI_Send (?__write)
                                                   clocks_update (?__write)

    -------------------------------------------------------------------------
  LIBRARY MODULE, NAME : ?L_SUB_X

  SEGMENTS IN THE MODULE
  ======================
RCODE
  Relative segment, address: CODE 00001190 - 000011A7 (0x18 bytes), align: 0
  Segment part 1.
           ENTRY                   ADDRESS         REF BY
           =====                   =======         ======
           ?L_SUB_X                00001190        Interval (?__write)
                                                   TIM_delay (?__write)

    -------------------------------------------------------------------------
  LIBRARY MODULE, NAME : ?L_AND_X

  SEGMENTS IN THE MODULE
  ======================
RCODE
  Relative segment, address: CODE 000011A8 - 000011BA (0x13 bytes), align: 0
  Segment part 1.
           ENTRY                   ADDRESS         REF BY
           =====                   =======         ======
           ?L_AND_X                000011A8        NT_GetTime (?__write)

    -------------------------------------------------------------------------
  LIBRARY MODULE, NAME : ?L_AND_TO_X

  SEGMENTS IN THE MODULE
  ======================
RCODE
  Relative segment, address: CODE 000011BB - 000011CD (0x13 bytes), align: 0
  Segment part 1.
           ENTRY                   ADDRESS         REF BY
           =====                   =======         ======
           ?L_AND_TO_X             000011BB        NT_WaitTime (?__write)
                                                   _PrintfLarge (?xprintflarge)
                                                   calcCompareTime (?__write)

    -------------------------------------------------------------------------
  LIBRARY MODULE, NAME : ?L_MOV_X

  SEGMENTS IN THE MODULE
  ======================
RCODE
  Relative segment, address: CODE 000011CE - 000011DC (0xf bytes), align: 0
  Segment part 0.
           ENTRY                   ADDRESS         REF BY
           =====                   =======         ======
           ?L_MOV_X                000011CE        DelayCalibrate (?__write)
                                                   Interval (?__write)
                                                   NT_SetTime (?__write)
                                                   NT_WaitTime (?__write)
                                                   RI_Receive (?__write)
                                                   RI_Send (?__write)
                                                   TIM_delay (?__write)
                                                   TIM_passedTime (?__write)
                                                   _LdtobLarge (?xprintflarge)
                                                   _LitobLarge (?xprintflarge)
                                                   _PrintfLarge (?xprintflarge)
                                                   calcCompareTime (?__write)
                                                   clocks_update (?__write)
                                                   rand (?rand)
                                                   scale (?xprintflarge)

    -------------------------------------------------------------------------
  LIBRARY MODULE, NAME : ?L_MOV_TO_X

  SEGMENTS IN THE MODULE
  ======================
RCODE
  Relative segment, address: CODE 000011DD - 000011EB (0xf bytes), align: 0
  Segment part 2.
           ENTRY                   ADDRESS         REF BY
           =====                   =======         ======
           ?L_MOV_TO_X             000011DD        DelayCalibrate (?__write)
                                                   RI_Receive (?__write)
                                                   RI_Send (?__write)
                                                   _LdtobLarge (?xprintflarge)
                                                   _LitobLarge (?xprintflarge)
                                                   _PrintfLarge (?xprintflarge)
                                                   calcCompareTime (?__write)
                                                   loadTimerCompare (?__write)
                                                   rand (?rand)
                                                   scale (?xprintflarge)
                                                   srand (?srand)

    -------------------------------------------------------------------------
  LIBRARY MODULE, NAME : ?XLOAD_R2345

  SEGMENTS IN THE MODULE
  ======================
RCODE
  Relative segment, address: CODE 000011EC - 000011F7 (0xc bytes), align: 0
  Segment part 0.
           ENTRY                   ADDRESS         REF BY
           =====                   =======         ======
           ?XLOAD_R2345            000011EC        DelayCalibrate (?__write)
                                                   MAC_TX_HNDL (?__write)
                                                   RI_Receive (?__write)
                                                   ReadTimer (?__write)
                                                   _LdtobLarge (?xprintflarge)
                                                   calcCompareTime (?__write)
                                                   scale (?xprintflarge)

    -------------------------------------------------------------------------
  LIBRARY MODULE, NAME : ?XSTORE_R2345

  SEGMENTS IN THE MODULE
  ======================
RCODE
  Relative segment, address: CODE 000011F8 - 00001203 (0xc bytes), align: 0
  Segment part 0.
           ENTRY                   ADDRESS         REF BY
           =====                   =======         ======
           ?XSTORE_R2345           000011F8        DelayCalibrate (?__write)
                                                   RI_Receive (?__write)
                                                   TIM_delay (?__write)
                                                   _LdtobLarge (?xprintflarge)
                                                   calcCompareTime (?__write)

    -------------------------------------------------------------------------
  LIBRARY MODULE, NAME : ?XLOAD_R4567

  SEGMENTS IN THE MODULE
  ======================
RCODE
  Relative segment, address: CODE 00001204 - 0000120F (0xc bytes), align: 0
  Segment part 0.
           ENTRY                   ADDRESS         REF BY
           =====                   =======         ======
           ?XLOAD_R4567            00001204        _LdtobLarge (?xprintflarge)
                                                   _LitobLarge (?xprintflarge)
                                                   rand (?rand)

    -------------------------------------------------------------------------
  LIBRARY MODULE, NAME : ?XSTORE_R4567

  SEGMENTS IN THE MODULE
  ======================
RCODE
  Relative segment, address: CODE 00001210 - 0000121B (0xc bytes), align: 0
  Segment part 0.
           ENTRY                   ADDRESS         REF BY
           =====                   =======         ======
           ?XSTORE_R4567           00001210        _LdtobLarge (?xprintflarge)
                                                   rand (?rand)

    -------------------------------------------------------------------------
  LIBRARY MODULE, NAME : ?XLOAD_R0123

  SEGMENTS IN THE MODULE
  ======================
RCODE
  Relative segment, address: CODE 0000121C - 00001227 (0xc bytes), align: 0
  Segment part 0.
           ENTRY                   ADDRESS         REF BY
           =====                   =======         ======
           ?XLOAD_R0123            0000121C        _LdtobLarge (?xprintflarge)
                                                   _LitobLarge (?xprintflarge)
                                                   _PrintfLarge (?xprintflarge)
                                                   calcCompareTime (?__write)
                                                   rand (?rand)

    -------------------------------------------------------------------------
  LIBRARY MODULE, NAME : ?XSTORE_R0123

  SEGMENTS IN THE MODULE
  ======================
RCODE
  Relative segment, address: CODE 00001228 - 00001233 (0xc bytes), align: 0
  Segment part 0.
           ENTRY                   ADDRESS         REF BY
           =====                   =======         ======
           ?XSTORE_R0123           00001228        RI_Send (?__write)
                                                   _LdtobLarge (?xprintflarge)
                                                   _PrintfLarge (?xprintflarge)
                                                   calcCompareTime (?__write)
                                                   rand (?rand)

    -------------------------------------------------------------------------
  LIBRARY MODULE, NAME : ?MOVE_LONG8_XDATA_IDATA

  SEGMENTS IN THE MODULE
  ======================
RCODE
  Relative segment, address: CODE 00001234 - 00001240 (0xd bytes), align: 0
  Segment part 0.
           ENTRY                   ADDRESS         REF BY
           =====                   =======         ======
           ?MOVE_LONG8_XDATA_IDATA
                                   00001234        ?PUSH_XSTACK_I (?PUSH_XSTACK_I)

    -------------------------------------------------------------------------
  LIBRARY MODULE, NAME : ?MOVE_LONG8_XDATA_XDATA

  SEGMENTS IN THE MODULE
  ======================
RCODE
  Relative segment, address: CODE 00001241 - 00001261 (0x21 bytes), align: 0
  Segment part 0.
           ENTRY                   ADDRESS         REF BY
           =====                   =======         ======
           ?MOVE_LONG8_XDATA_XDATA
                                   00001241        ?PUSH_XSTACK8_X (?PUSH_XSTACK8_X)
                                                   div (?div)
                                                   test_create (?__write)

    -------------------------------------------------------------------------
  LIBRARY MODULE, NAME : ?S_DIV_MOD

  SEGMENTS IN THE MODULE
  ======================
RCODE
  Relative segment, address: CODE 00001262 - 000012A2 (0x41 bytes), align: 0
  Segment part 0.
           ENTRY                   ADDRESS         REF BY
           =====                   =======         ======
           ?S_DIV_MOD              0000129B        div (?div)
    -------------------------------------------------------------------------
RCODE
  Relative segment, address: CODE 000012A3 - 000012FB (0x59 bytes), align: 0
  Segment part 1.             Intra module refs:   ?S_DIV_MOD
           ENTRY                   ADDRESS         REF BY
           =====                   =======         ======
           ?US_DIV_MOD             000012A3        TIC_getCurrentTS (?__write)

    -------------------------------------------------------------------------
  LIBRARY MODULE, NAME : ?SS_SHR

  SEGMENTS IN THE MODULE
  ======================
RCODE
  Relative segment, address: CODE 000012FC - 000012FE (0x3 bytes), align: 0
  Segment part 1.             Intra module refs:   Segment part 2
           ENTRY                   ADDRESS         REF BY
           =====                   =======         ======
           ?SS_SHR                 000012FC        scale (?xprintflarge)
    -------------------------------------------------------------------------
RCODE
  Relative segment, address: CODE 000012FF - 0000130B (0xd bytes), align: 0
  Segment part 2.             Intra module refs:   ?SS_SHR

    -------------------------------------------------------------------------
  LIBRARY MODULE, NAME : ?US_SHR

  SEGMENTS IN THE MODULE
  ======================
RCODE
  Relative segment, address: CODE 0000130C - 0000130E (0x3 bytes), align: 0
  Segment part 1.             Intra module refs:   Segment part 2
           ENTRY                   ADDRESS         REF BY
           =====                   =======         ======
           ?US_SHR                 0000130C        _LdtobLarge (?xprintflarge)
    -------------------------------------------------------------------------
RCODE
  Relative segment, address: CODE 0000130F - 0000131A (0xc bytes), align: 0
  Segment part 2.             Intra module refs:   ?US_SHR

    -------------------------------------------------------------------------
  LIBRARY MODULE, NAME : ?S_SHL

  SEGMENTS IN THE MODULE
  ======================
RCODE
  Relative segment, address: CODE 0000131B - 0000131D (0x3 bytes), align: 0
  Segment part 0.
           ENTRY                   ADDRESS         REF BY
           =====                   =======         ======
           ?S_SHL                  0000131B        rand (?rand)
    -------------------------------------------------------------------------
RCODE
  Relative segment, address: CODE 0000131E - 00001320 (0x3 bytes), align: 0
  Segment part 1.             Intra module refs:   Segment part 2
           ENTRY                   ADDRESS         REF BY
           =====                   =======         ======
           ?S_SHL_REW              0000131E 
    -------------------------------------------------------------------------
RCODE
  Relative segment, address: CODE 00001321 - 0000132D (0xd bytes), align: 0
  Segment part 2.             Intra module refs:   ?S_SHL
                                                   ?S_SHL_REW

    -------------------------------------------------------------------------
  LIBRARY MODULE, NAME : ?ALLOC_XSTACK8

  SEGMENTS IN THE MODULE
  ======================
RCODE
  Relative segment, address: CODE 0000132E - 00001343 (0x16 bytes), align: 0
  Segment part 0.
           ENTRY                   ADDRESS         REF BY
           =====                   =======         ======
           ?ALLOC_XSTACK8          0000132E        AES_StreamCoder (?__write)
                                                   DelayCalibrate (?__write)
                                                   Interval (?__write)
                                                   RI_Receive (?__write)
                                                   RI_Send (?__write)
                                                   RI_cfg (?__write)
                                                   RecvData (?__write)
                                                   SendData (?__write)
                                                   TIC_TDMAShelduler (?__write)
                                                   TIM_delay (?__write)
                                                   TIM_passedTime (?__write)
                                                   _GenldLarge (?xprintflarge)
                                                   _LdtobLarge (?xprintflarge)
                                                   _LitobLarge (?xprintflarge)
                                                   _PrintfLarge (?xprintflarge)
                                                   __exit (?__exit)
                                                   calcCompareTime (?__write)
                                                   div (?div)
                                                   frame_merge (?__write)
                                                   getFrame (?__write)
                                                   loadTimerCompare (?__write)
                                                   pad (?xprintflarge)
                                                   printf (?printf)
                                                   putchar (?putchar)
                                                   scale (?xprintflarge)
                                                   setFreq (?__write)
                                                   test_create (?__write)

    -------------------------------------------------------------------------
  LIBRARY MODULE, NAME : ?DEALLOC_XSTACK8

  SEGMENTS IN THE MODULE
  ======================
RCODE
  Relative segment, address: CODE 00001344 - 0000135E (0x1b bytes), align: 0
  Segment part 0.
           ENTRY                   ADDRESS         REF BY
           =====                   =======         ======
           ?DEALLOC_XSTACK8        00001344        AES_StreamCoder (?__write)
                                                   Callback_execution (?__write)
                                                   DelayCalibrate (?__write)
                                                   Interval (?__write)
                                                   LLC_AddTask (?__write)
                                                   LLC_RX_HNDL (?__write)
                                                   LLC_TimeAlloc (?__write)
                                                   MAC_GetTXState (?__write)
                                                   MAC_Init (?__write)
                                                   MAC_RX_HNDL (?__write)
                                                   MAC_Send (?__write)
                                                   MAC_TX_HNDL (?__write)
                                                   NT_SetCompare (?__write)
                                                   NT_SetTime (?__write)
                                                   RI_BitRawCrypt (?__write)
                                                   RI_BitRawDecrypt (?__write)
                                                   RI_Receive (?__write)
                                                   RI_Send (?__write)
                                                   RI_cfg (?__write)
                                                   RI_setIV (?__write)
                                                   RI_setKEY (?__write)
                                                   RecvData (?__write)
                                                   Segment part 83 (?xprintflarge)
                                                   SendData (?__write)
                                                   TIC_HW_Timer_IRQ (?__write)
                                                   TIC_SetRXCallback (?__write)
                                                   TIC_SetSECallback (?__write)
                                                   TIC_SetTXCallback (?__write)
                                                   TIC_SetTXState (?__write)
                                                   TIC_SetTimer (?__write)
                                                   TIC_TDMAShelduler (?__write)
                                                   TIM_delay (?__write)
                                                   TIM_passedTime (?__write)
                                                   _GenldLarge (?xprintflarge)
                                                   _LdtobLarge (?xprintflarge)
                                                   _PrintfLarge (?xprintflarge)
                                                   calcCompareTime (?__write)
                                                   div (?div)
                                                   fbuf_create (?__write)
                                                   frame_create (?__write)
                                                   frame_merge (?__write)
                                                   getFrame (?__write)
                                                   loadTimerCompare (?__write)
                                                   main (?__write)
                                                   pad (?xprintflarge)
                                                   printf (?printf)
                                                   putchar (?putchar)
                                                   setFreq (?__write)
                                                   test_create (?__write)
                                                   umsg_line (?__write)
                                                   umsg_summary (?__write)

    -------------------------------------------------------------------------
  LIBRARY MODULE, NAME : ?ADD_XSTACK_DISP8

  SEGMENTS IN THE MODULE
  ======================
RCODE
  Relative segment, address: CODE 0000135F - 00001379 (0x1b bytes), align: 0
  Segment part 1.
           ENTRY                   ADDRESS         REF BY
           =====                   =======         ======
           ?ADD_XSTACK_DISP0_8     0000135F        ?PUSH_XSTACK_I (?PUSH_XSTACK_I)

    -------------------------------------------------------------------------
  LIBRARY MODULE, NAME : ?XSTACK_DISP8

  SEGMENTS IN THE MODULE
  ======================
RCODE
  Relative segment, address: CODE 0000137A - 00001383 (0xa bytes), align: 0
  Segment part 1.
           ENTRY                   ADDRESS         REF BY
           =====                   =======         ======
           ?XSTACK_DISP0_8         0000137A        AES_StreamCoder (?__write)
                                                   DelayCalibrate (?__write)
                                                   RI_Receive (?__write)
                                                   RecvData (?__write)
                                                   _GenldLarge (?xprintflarge)
                                                   _LdtobLarge (?xprintflarge)
                                                   _LitobLarge (?xprintflarge)
                                                   _PrintfLarge (?xprintflarge)
                                                   _PutcharsLarge (?xprintflarge)
                                                   __write (?__write)
                                                   calcCompareTime (?__write)
                                                   div (?div)
                                                   frame_merge (?__write)
                                                   loadTimerCompare (?__write)
                                                   memcpy (?memcpy)
                                                   pad (?xprintflarge)
                                                   scale (?xprintflarge)

    -------------------------------------------------------------------------
  LIBRARY MODULE, NAME : ?XSTACK_DISP8_RP

  SEGMENTS IN THE MODULE
  ======================
RCODE
  Relative segment, address: CODE 00001384 - 0000138B (0x8 bytes), align: 0
  Segment part 0.
           ENTRY                   ADDRESS         REF BY
           =====                   =======         ======
           ?XSTACK_DISP100_8       00001384        RI_Receive (?__write)
                                                   _GenldLarge (?xprintflarge)
                                                   _LdtobLarge (?xprintflarge)
                                                   _PrintfLarge (?xprintflarge)
                                                   pad (?xprintflarge)
                                                   printf (?printf)
    -------------------------------------------------------------------------
RCODE
  Relative segment, address: CODE 0000138C - 00001393 (0x8 bytes), align: 0
  Segment part 1.
           ENTRY                   ADDRESS         REF BY
           =====                   =======         ======
           ?XSTACK_DISP101_8       0000138C        AES_StreamCoder (?__write)
                                                   DelayCalibrate (?__write)
                                                   RI_Receive (?__write)
                                                   RI_Send (?__write)
                                                   RecvData (?__write)
                                                   TIM_delay (?__write)
                                                   _PrintfLarge (?xprintflarge)
    -------------------------------------------------------------------------
RCODE
  Relative segment, address: CODE 00001394 - 0000139B (0x8 bytes), align: 0
  Segment part 2.
           ENTRY                   ADDRESS         REF BY
           =====                   =======         ======
           ?XSTACK_DISP102_8       00001394        AES_StreamCoder (?__write)
                                                   DelayCalibrate (?__write)
                                                   RI_Receive (?__write)
                                                   RI_Send (?__write)
                                                   TIM_delay (?__write)
                                                   _PrintfLarge (?xprintflarge)
                                                   putchar (?putchar)

    -------------------------------------------------------------------------
  LIBRARY MODULE, NAME : ?CALL_IND

  SEGMENTS IN THE MODULE
  ======================
RCODE
  Relative segment, address: CODE 0000139C - 0000139D (0x2 bytes), align: 0
  Segment part 0.
           ENTRY                   ADDRESS         REF BY
           =====                   =======         ======
           ?CALL_IND               0000139C        Callback_execution (?__write)
                                                   LLC_RX_HNDL (?__write)
                                                   LLC_RunTimeAlloc (?__write)
                                                   MAC_RX_HNDL (?__write)
                                                   MAC_TX_HNDL (?__write)
                                                   TimerCompareInterrupt (?__write)
                                                   _PutcharLarge (?xprintflarge)
                                                   rand (?rand)
                                                   srand (?srand)

    -------------------------------------------------------------------------
  LIBRARY MODULE, NAME : ?BANKED_ENTER_XDATA

  SEGMENTS IN THE MODULE
  ======================
RCODE
  Relative segment, address: CODE 0000139E - 00001409 (0x6c bytes), align: 0
  Segment part 1.
           ENTRY                   ADDRESS         REF BY
           =====                   =======         ======
           ?BANKED_ENTER_XDATA     0000139E        AES_StreamCoder (?__write)
                                                   Callback_execution (?__write)
                                                   DelayCalibrate (?__write)
                                                   Interval (?__write)
                                                   LLC_AddTask (?__write)
                                                   LLC_RX_HNDL (?__write)
                                                   LLC_RunTimeAlloc (?__write)
                                                   LLC_SE_HNDL (?__write)
                                                   LLC_Shelduler (?__write)
                                                   LLC_TimeAlloc (?__write)
                                                   MAC_GetTXState (?__write)
                                                   MAC_Init (?__write)
                                                   MAC_RX_HNDL (?__write)
                                                   MAC_Send (?__write)
                                                   MAC_TX_HNDL (?__write)
                                                   NT_GetTime (?__write)
                                                   NT_SetCompare (?__write)
                                                   NT_SetTime (?__write)
                                                   NT_WaitTime (?__write)
                                                   RI_BitRawCrypt (?__write)
                                                   RI_BitRawDecrypt (?__write)
                                                   RI_Receive (?__write)
                                                   RI_Send (?__write)
                                                   RI_setIV (?__write)
                                                   RI_setKEY (?__write)
                                                   RecvData (?__write)
                                                   SendData (?__write)
                                                   TIC_HW_Timer_IRQ (?__write)
                                                   TIC_SetRXCallback (?__write)
                                                   TIC_SetSECallback (?__write)
                                                   TIC_SetTXCallback (?__write)
                                                   TIC_SetTXState (?__write)
                                                   TIC_SetTimer (?__write)
                                                   TIC_getCurrentTS (?__write)
                                                   TIM_delay (?__write)
                                                   TIM_passedTime (?__write)
                                                   _GenldLarge (?xprintflarge)
                                                   _LdtobLarge (?xprintflarge)
                                                   _LitobLarge (?xprintflarge)
                                                   _PrintfLarge (?xprintflarge)
                                                   _Prout (?xprout)
                                                   _PutcharLarge (?xprintflarge)
                                                   _PutcharsLarge (?xprintflarge)
                                                   __exit (?__exit)
                                                   __write (?__write)
                                                   __xdata_free (?xxmemxfree)
                                                   __xdata_malloc (?xxmemxmalloc)
                                                   calcCompareTime (?__write)
                                                   clocks_update (?__write)
                                                   div (?div)
                                                   fbuf_create (?__write)
                                                   frame_create (?__write)
                                                   frame_delete (?__write)
                                                   frame_insert_head (?__write)
                                                   frame_merge (?__write)
                                                   free (?__write)
                                                   getFrame (?__write)
                                                   loadTimerCompare (?__write)
                                                   malloc (?__write)
                                                   memcpy (?memcpy)
                                                   pad (?xprintflarge)
                                                   printf (?printf)
                                                   putchar (?putchar)
                                                   rand (?rand)
                                                   random_core_init (?__write)
                                                   readRandom (?__write)
                                                   scale (?xprintflarge)
                                                   setFreq (?__write)
                                                   set_capture_time (?__write)
                                                   srand (?srand)
                                                   test_create (?__write)
                                                   umsg_line (?__write)

    -------------------------------------------------------------------------
  LIBRARY MODULE, NAME : ?BANKED_LEAVE_XDATA

  SEGMENTS IN THE MODULE
  ======================
RCODE
  Relative segment, address: CODE 0000140A - 0000144F (0x46 bytes), align: 0
  Segment part 1.
           ENTRY                   ADDRESS         REF BY
           =====                   =======         ======
           ?BANKED_LEAVE_XDATA     0000140A        AES_StreamCoder (?__write)
                                                   Callback_execution (?__write)
                                                   DelayCalibrate (?__write)
                                                   Interval (?__write)
                                                   LLC_AddTask (?__write)
                                                   LLC_RX_HNDL (?__write)
                                                   LLC_RunTimeAlloc (?__write)
                                                   LLC_SE_HNDL (?__write)
                                                   LLC_Shelduler (?__write)
                                                   LLC_TimeAlloc (?__write)
                                                   MAC_GetTXState (?__write)
                                                   MAC_Init (?__write)
                                                   MAC_RX_HNDL (?__write)
                                                   MAC_Send (?__write)
                                                   MAC_TX_HNDL (?__write)
                                                   NT_GetTime (?__write)
                                                   NT_SetCompare (?__write)
                                                   NT_SetTime (?__write)
                                                   NT_WaitTime (?__write)
                                                   RI_BitRawCrypt (?__write)
                                                   RI_BitRawDecrypt (?__write)
                                                   RI_Receive (?__write)
                                                   RI_Send (?__write)
                                                   RI_setIV (?__write)
                                                   RI_setKEY (?__write)
                                                   RecvData (?__write)
                                                   Segment part 34 (?xprintflarge)
                                                   Segment part 84 (?xprintflarge)
                                                   SendData (?__write)
                                                   TIC_HW_Timer_IRQ (?__write)
                                                   TIC_SetRXCallback (?__write)
                                                   TIC_SetSECallback (?__write)
                                                   TIC_SetTXCallback (?__write)
                                                   TIC_SetTXState (?__write)
                                                   TIC_SetTimer (?__write)
                                                   TIC_getCurrentTS (?__write)
                                                   TIM_delay (?__write)
                                                   TIM_passedTime (?__write)
                                                   _Prout (?xprout)
                                                   __write (?__write)
                                                   __xdata_free (?xxmemxfree)
                                                   __xdata_malloc (?xxmemxmalloc)
                                                   calcCompareTime (?__write)
                                                   clocks_update (?__write)
                                                   div (?div)
                                                   fbuf_create (?__write)
                                                   frame_create (?__write)
                                                   frame_delete (?__write)
                                                   frame_insert_head (?__write)
                                                   frame_merge (?__write)
                                                   free (?__write)
                                                   getFrame (?__write)
                                                   loadTimerCompare (?__write)
                                                   malloc (?__write)
                                                   memcpy (?memcpy)
                                                   printf (?printf)
                                                   putchar (?putchar)
                                                   rand (?rand)
                                                   random_core_init (?__write)
                                                   readRandom (?__write)
                                                   setFreq (?__write)
                                                   set_capture_time (?__write)
                                                   srand (?srand)
                                                   umsg_line (?__write)

    -------------------------------------------------------------------------
  LIBRARY MODULE, NAME : ?INTERRUPT_ENTER_XSP

  SEGMENTS IN THE MODULE
  ======================
RCODE
  Relative segment, address: CODE 00001450 - 000014AE (0x5f bytes), align: 0
  Segment part 1.
           ENTRY                   ADDRESS         REF BY
           =====                   =======         ======
           ?INTERRUPT_ENTER_XSP    00001450        TimerCompareInterrupt (?__write)

    -------------------------------------------------------------------------
  LIBRARY MODULE, NAME : ?INTERRUPT_LEAVE_XSP

  SEGMENTS IN THE MODULE
  ======================
RCODE
  Relative segment, address: CODE 000014AF - 00001506 (0x58 bytes), align: 0
  Segment part 1.
           ENTRY                   ADDRESS         REF BY
           =====                   =======         ======
           ?INTERRUPT_LEAVE_XSP    000014AF        TimerCompareInterrupt (?__write)

    -------------------------------------------------------------------------
  LIBRARY MODULE, NAME : ?PUSH_XSTACK_I

  SEGMENTS IN THE MODULE
  ======================
RCODE
  Relative segment, address: CODE 00001507 - 0000150A (0x4 bytes), align: 0
  Segment part 2.
           ENTRY                   ADDRESS         REF BY
           =====                   =======         ======
           ?PUSH_XSTACK_I_TWO      00001507        AES_StreamCoder (?__write)
                                                   Callback_execution (?__write)
                                                   LLC_AddTask (?__write)
                                                   LLC_RX_HNDL (?__write)
                                                   LLC_TimeAlloc (?__write)
                                                   MAC_GetTXState (?__write)
                                                   MAC_Init (?__write)
                                                   MAC_RX_HNDL (?__write)
                                                   MAC_Send (?__write)
                                                   MAC_TX_HNDL (?__write)
                                                   NT_SetCompare (?__write)
                                                   NT_SetTime (?__write)
                                                   RI_BitRawCrypt (?__write)
                                                   RI_BitRawDecrypt (?__write)
                                                   RI_Receive (?__write)
                                                   RI_Send (?__write)
                                                   RI_setIV (?__write)
                                                   RI_setKEY (?__write)
                                                   TIC_HW_Timer_IRQ (?__write)
                                                   TIC_SetRXCallback (?__write)
                                                   TIC_SetSECallback (?__write)
                                                   TIC_SetTXCallback (?__write)
                                                   TIC_SetTXState (?__write)
                                                   TIC_SetTimer (?__write)
                                                   _GenldLarge (?xprintflarge)
                                                   _LdtobLarge (?xprintflarge)
                                                   _PrintfLarge (?xprintflarge)
                                                   calcCompareTime (?__write)
                                                   fbuf_create (?__write)
                                                   frame_create (?__write)
                                                   frame_merge (?__write)
                                                   main (?__write)
                                                   pad (?xprintflarge)
                                                   printf (?printf)
                                                   putchar (?putchar)
                                                   setFreq (?__write)
                                                   test_create (?__write)
                                                   umsg_line (?__write)
    -------------------------------------------------------------------------
RCODE
  Relative segment, address: CODE 0000150B - 00001517 (0xd bytes), align: 0
  Segment part 4.             Intra module refs:   ?PUSH_XSTACK_I_TWO
           ENTRY                   ADDRESS         REF BY
           =====                   =======         ======
           ?PUSH_XSTACK_I          0000150B 

    -------------------------------------------------------------------------
  LIBRARY MODULE, NAME : ?PUSH_XSTACK8_X

  SEGMENTS IN THE MODULE
  ======================
RCODE
  Relative segment, address: CODE 00001518 - 0000151B (0x4 bytes), align: 0
  Segment part 1.
           ENTRY                   ADDRESS         REF BY
           =====                   =======         ======
           ?PUSH_XSTACK8_X_FOUR    00001518        calcCompareTime (?__write)
    -------------------------------------------------------------------------
RCODE
  Relative segment, address: CODE 0000151C - 0000151F (0x4 bytes), align: 0
  Segment part 3.
           ENTRY                   ADDRESS         REF BY
           =====                   =======         ======
           ?PUSH_XSTACK8_X_TWO     0000151C        _LdtobLarge (?xprintflarge)
                                                   _PrintfLarge (?xprintflarge)
                                                   umsg_summary (?__write)
    -------------------------------------------------------------------------
RCODE
  Relative segment, address: CODE 00001520 - 00001548 (0x29 bytes), align: 0
  Segment part 5.             Intra module refs:   ?PUSH_XSTACK8_X_FOUR
                                                   ?PUSH_XSTACK8_X_TWO
           ENTRY                   ADDRESS         REF BY
           =====                   =======         ======
           ?PUSH_XSTACK8_X         00001520 

    -------------------------------------------------------------------------
  LIBRARY MODULE, NAME : ?UC_SWITCH_SPARSE

  SEGMENTS IN THE MODULE
  ======================
RCODE
  Relative segment, address: CODE 00001549 - 0000154F (0x7 bytes), align: 0
  Segment part 0.
           ENTRY                   ADDRESS         REF BY
           =====                   =======         ======
           ?UC_SWITCH_SPARSE       00001549        _PrintfLarge (?xprintflarge)
           ?UC_SS_CFI_INV_BEGINS   00001549 
    -------------------------------------------------------------------------
RCODE
  Relative segment, address: CODE 00001550 - 00001571 (0x22 bytes), align: 0
  Segment part 2.             Intra module refs:   Segment part 0
           ENTRY                   ADDRESS         REF BY
           =====                   =======         ======
           ?UC_SWITCH_SPARSE_LEAVE
                                   00001566        Segment part 0 (?UC_JMP_IF_IN_RANGE)
                                                   Segment part 0 (?UC_JMP_IF_VALUE)
    -------------------------------------------------------------------------
RCODE
  Relative segment, address: CODE 00001572 - 00001572 (0x1 bytes), align: 0
  Segment part 4.             Intra module refs:   Segment part 0
           ENTRY                   ADDRESS         REF BY
           =====                   =======         ======
           ?UC_SS_CFI_INV_ENDS     00001573 

    -------------------------------------------------------------------------
  LIBRARY MODULE, NAME : ?UC_JMP_IF_IN_RANGE

  SEGMENTS IN THE MODULE
  ======================
RCODE
  Relative segment, address: CODE 00001573 - 00001591 (0x1f bytes), align: 0
  Segment part 0.
           ENTRY                   ADDRESS         REF BY
           =====                   =======         ======
           ?UC_JMP_IF_IN_RANGE     00001573        ?UC_SWITCH_SPARSE_LEAVE (?UC_SWITCH_SPARSE)
           ?UC_JR_CFI_INV_BEGINS   00001573 
           ?UC_JR_CFI_INV_ENDS     00001592 

    -------------------------------------------------------------------------
  LIBRARY MODULE, NAME : ?UC_JMP_IF_VALUE

  SEGMENTS IN THE MODULE
  ======================
RCODE
  Relative segment, address: CODE 00001592 - 000015A7 (0x16 bytes), align: 0
  Segment part 0.
           ENTRY                   ADDRESS         REF BY
           =====                   =======         ======
           ?UC_JMP_IF_VALUE        00001592        ?UC_SWITCH_SPARSE_LEAVE (?UC_SWITCH_SPARSE)
           ?UC_JMP_IF_VALUE_CFI_INV_BEGINS
                                   00001592 
           ?UC_JMP_IF_VALUE_CFI_INV_ENDS
                                   000015A8 

    -------------------------------------------------------------------------
  LIBRARY MODULE, NAME : ?memchr

  SEGMENTS IN THE MODULE
  ======================
<BANKED_CODE> 1 (was BANKED_CODE)
  Relative segment, address: CODE 00005DF4 - 00005E2B (0x38 bytes), align: 0
  Segment part 8.             Intra module refs:   __iar_Memchr::?relay
           ENTRY                   ADDRESS         REF BY
           =====                   =======         ======
           __iar_Memchr            00005DF4 
               is indirectly called
               XSTACK = 00000002 ( 00000000 )
               ISTACK = 00000000 ( 00000002 )
    -------------------------------------------------------------------------
BANK_RELAYS
  Relative segment, address: CODE 000007F1 - 000007F6 (0x6 bytes), align: 0
  Segment part 9.
           ENTRY                   ADDRESS         REF BY
           =====                   =======         ======
           __iar_Memchr::?relay    000007F1        _PrintfLarge (?xprintflarge)

    -------------------------------------------------------------------------
  LIBRARY MODULE, NAME : ?memcpy

  SEGMENTS IN THE MODULE
  ======================
<BANKED_CODE> 1 (was BANKED_CODE)
  Relative segment, address: CODE 00005D7A - 00005DB6 (0x3d bytes), align: 0
  Segment part 6.             Intra module refs:   memcpy::?relay
           ENTRY                   ADDRESS         REF BY
           =====                   =======         ======
           memcpy                  00005D7A 
               is indirectly called
               XSTACK = 00000002 ( 00000009 )
               ISTACK = 00000000 ( 00000001 )
    -------------------------------------------------------------------------
BANK_RELAYS
  Relative segment, address: CODE 000007F7 - 000007FC (0x6 bytes), align: 0
  Segment part 7.
           ENTRY                   ADDRESS         REF BY
           =====                   =======         ======
           memcpy::?relay          000007F7        AES_StreamCoder (?__write)
                                                   RI_setIV (?__write)
                                                   RI_setKEY (?__write)
                                                   _GenldLarge (?xprintflarge)
                                                   _LdtobLarge (?xprintflarge)
                                                   fbuf_create (?__write)
                                                   frame_merge (?__write)

    -------------------------------------------------------------------------
  LIBRARY MODULE, NAME : ?memset

  SEGMENTS IN THE MODULE
  ======================
<BANKED_CODE> 1 (was BANKED_CODE)
  Relative segment, address: CODE 00005E2C - 00005E57 (0x2c bytes), align: 0
  Segment part 6.             Intra module refs:   memset::?relay
           ENTRY                   ADDRESS         REF BY
           =====                   =======         ======
           memset                  00005E2C 
               is indirectly called
               XSTACK = 00000002 ( 00000000 )
               ISTACK = 00000000 ( 00000002 )
    -------------------------------------------------------------------------
BANK_RELAYS
  Relative segment, address: CODE 000007FD - 00000802 (0x6 bytes), align: 0
  Segment part 7.
           ENTRY                   ADDRESS         REF BY
           =====                   =======         ======
           memset::?relay          000007FD        AES_StreamCoder (?__write)
                                                   MAC_Init (?__write)
                                                   fbuf_create (?__write)
                                                   frame_create (?__write)

    -------------------------------------------------------------------------
  LIBRARY MODULE, NAME : ?printf

  SEGMENTS IN THE MODULE
  ======================
<BANKED_CODE> 1 (was BANKED_CODE)
  Relative segment, address: CODE 00005CE8 - 00005D31 (0x4a bytes), align: 0
  Segment part 6.             Intra module refs:   printf::?relay
           ENTRY                   ADDRESS         REF BY
           =====                   =======         ======
           printf                  00005CE8 
               calls direct
               XSTACK = 00000000 ( 00000010 )
    -------------------------------------------------------------------------
BANK_RELAYS
  Relative segment, address: CODE 00000803 - 00000808 (0x6 bytes), align: 0
  Segment part 7.
           ENTRY                   ADDRESS         REF BY
           =====                   =======         ======
           printf::?relay          00000803        Callback_execution (?__write)
                                                   LLC_AddTask (?__write)
                                                   LLC_RX_HNDL (?__write)
                                                   LLC_TimeAlloc (?__write)
                                                   MAC_GetTXState (?__write)
                                                   MAC_RX_HNDL (?__write)
                                                   MAC_Send (?__write)
                                                   MAC_TX_HNDL (?__write)
                                                   NT_SetCompare (?__write)
                                                   NT_SetTime (?__write)
                                                   RI_Send (?__write)
                                                   TIC_HW_Timer_IRQ (?__write)
                                                   TIC_SetRXCallback (?__write)
                                                   TIC_SetSECallback (?__write)
                                                   TIC_SetTXCallback (?__write)
                                                   TIC_SetTXState (?__write)
                                                   TIC_SetTimer (?__write)
                                                   calcCompareTime (?__write)
                                                   fbuf_create (?__write)
                                                   frame_create (?__write)
                                                   frame_merge (?__write)
                                                   main (?__write)
                                                   setFreq (?__write)
                                                   test_create (?__write)
                                                   umsg_line (?__write)
                                                   umsg_summary (?__write)

    -------------------------------------------------------------------------
  LIBRARY MODULE, NAME : ?putchar

  SEGMENTS IN THE MODULE
  ======================
<BANKED_CODE> 1 (was BANKED_CODE)
  Relative segment, address: CODE 00005C8F - 00005CE7 (0x59 bytes), align: 0
  Segment part 6.             Intra module refs:   putchar::?relay
           ENTRY                   ADDRESS         REF BY
           =====                   =======         ======
           putchar                 00005C8F 
               calls direct
               XSTACK = 00000000 ( 0000000D )
               ISTACK = 00000000 ( 00000001 )
    -------------------------------------------------------------------------
BANK_RELAYS
  Relative segment, address: CODE 00000809 - 0000080E (0x6 bytes), align: 0
  Segment part 7.
           ENTRY                   ADDRESS         REF BY
           =====                   =======         ======
           putchar::?relay         00000809        _Prout (?xprout)

    -------------------------------------------------------------------------
  LIBRARY MODULE, NAME : ?rand

  SEGMENTS IN THE MODULE
  ======================
XDATA_Z
  Relative segment, address: XDATA 00000612 - 00000612 (0x1 bytes), align: 0
  Segment part 6.             Intra module refs:   rand
           ENTRY                   ADDRESS         REF BY
           =====                   =======         ======
           _Randinit               00000612        srand (?srand)
    -------------------------------------------------------------------------
XDATA_Z
  Relative segment, address: XDATA 00000613 - 00000614 (0x2 bytes), align: 0
  Segment part 7.             Intra module refs:   rand
           ENTRY                   ADDRESS         REF BY
           =====                   =======         ======
           __iar_Tls_setup__Randinit
                                   00000613        srand (?srand)
    -------------------------------------------------------------------------
XDATA_I
  Relative segment, address: XDATA 00000B8E - 00000B91 (0x4 bytes), align: 0
  Segment part 8.             Intra module refs:   rand
           ENTRY                   ADDRESS         REF BY
           =====                   =======         ======
           _Randseed               00000B8E        srand (?srand)
    -------------------------------------------------------------------------
XDATA_I
  Relative segment, address: XDATA 00000B92 - 00000B95 (0x4 bytes), align: 0
  Segment part 15.            Intra module refs:   rand
           ENTRY                   ADDRESS         REF BY
           =====                   =======         ======
           __Constant_19660d       00000B92 
    -------------------------------------------------------------------------
XDATA_I
  Relative segment, address: XDATA 00000B96 - 00000B99 (0x4 bytes), align: 0
  Segment part 17.            Intra module refs:   rand
           ENTRY                   ADDRESS         REF BY
           =====                   =======         ======
           __Constant_3c6ef35f     00000B96 
    -------------------------------------------------------------------------
XDATA_Z
  Relative segment, address: XDATA 00000615 - 00000616 (0x2 bytes), align: 0
  Segment part 10.            Intra module refs:   rand
           ENTRY                   ADDRESS         REF BY
           =====                   =======         ======
           __iar_Tls_setup__Randseed
                                   00000615        srand (?srand)
    -------------------------------------------------------------------------
XDATA_Z
  Relative segment, address: XDATA 00000617 - 0000061A (0x4 bytes), align: 0
  Segment part 11.            Intra module refs:   rand
    -------------------------------------------------------------------------
XDATA_Z
  Relative segment, address: XDATA 0000061B - 0000061C (0x2 bytes), align: 0
  Segment part 12.            Intra module refs:   rand
    -------------------------------------------------------------------------
XDATA_Z
  Relative segment, address: XDATA 0000061D - 0000069C (0x80 bytes), align: 0
  Segment part 13.            Intra module refs:   rand
    -------------------------------------------------------------------------
XDATA_Z
  Relative segment, address: XDATA 0000069D - 0000069E (0x2 bytes), align: 0
  Segment part 14.            Intra module refs:   rand
    -------------------------------------------------------------------------
<BANKED_CODE> 1 (was BANKED_CODE)
  Relative segment, address: CODE 00005966 - 00005AC7 (0x162 bytes), align: 0
  Segment part 19.            Intra module refs:   rand::?relay
           ENTRY                   ADDRESS         REF BY
           =====                   =======         ======
           rand                    00005966 
               XSTACK = 00000000 ( 00000010 )
    -------------------------------------------------------------------------
<BANKED_CODE> 1 (was BANKED_CODE)
  Relative segment, address: CODE 00005AC8 - 00005ACD (0x6 bytes), align: 0
  Segment part 21.            Intra module refs:   rand
    -------------------------------------------------------------------------
<BANKED_CODE> 1 (was BANKED_CODE)
  Relative segment, address: CODE 00005ACE - 00005AD5 (0x8 bytes), align: 0
  Segment part 22.            Intra module refs:   rand
    -------------------------------------------------------------------------
XDATA_ID
  Relative segment, address: CODE 0000059E - 000005A1 (0x4 bytes), align: 0
  Segment part 9.             Intra module refs:   _Randseed
    -------------------------------------------------------------------------
XDATA_ID
  Relative segment, address: CODE 000005A2 - 000005A5 (0x4 bytes), align: 0
  Segment part 16.            Intra module refs:   __Constant_19660d
    -------------------------------------------------------------------------
XDATA_ID
  Relative segment, address: CODE 000005A6 - 000005A9 (0x4 bytes), align: 0
  Segment part 18.            Intra module refs:   __Constant_3c6ef35f
    -------------------------------------------------------------------------
BANK_RELAYS
  Relative segment, address: CODE 0000080F - 00000814 (0x6 bytes), align: 0
  Segment part 20.
           ENTRY                   ADDRESS         REF BY
           =====                   =======         ======
           rand::?relay            0000080F        random_core_init (?__write)

    -------------------------------------------------------------------------
  LIBRARY MODULE, NAME : ?srand

  SEGMENTS IN THE MODULE
  ======================
<BANKED_CODE> 1 (was BANKED_CODE)
  Relative segment, address: CODE 00005D32 - 00005D79 (0x48 bytes), align: 0
  Segment part 6.             Intra module refs:   srand::?relay
           ENTRY                   ADDRESS         REF BY
           =====                   =======         ======
           srand                   00005D32 
               XSTACK = 00000000 ( 0000000C )
    -------------------------------------------------------------------------
BANK_RELAYS
  Relative segment, address: CODE 00000815 - 0000081A (0x6 bytes), align: 0
  Segment part 7.
           ENTRY                   ADDRESS         REF BY
           =====                   =======         ======
           srand::?relay           00000815        random_core_init (?__write)

    -------------------------------------------------------------------------
  LIBRARY MODULE, NAME : ?strchr

  SEGMENTS IN THE MODULE
  ======================
<BANKED_CODE> 1 (was BANKED_CODE)
  Relative segment, address: CODE 00005E83 - 00005EA7 (0x25 bytes), align: 0
  Segment part 8.             Intra module refs:   __iar_Strchr::?relay
           ENTRY                   ADDRESS         REF BY
           =====                   =======         ======
           __iar_Strchr            00005E83 
               is indirectly called
               ISTACK = 00000000 ( 00000002 )
    -------------------------------------------------------------------------
BANK_RELAYS
  Relative segment, address: CODE 0000081B - 00000820 (0x6 bytes), align: 0
  Segment part 9.
           ENTRY                   ADDRESS         REF BY
           =====                   =======         ======
           __iar_Strchr::?relay    0000081B        _PrintfLarge (?xprintflarge)

    -------------------------------------------------------------------------
  LIBRARY MODULE, NAME : ?strlen

  SEGMENTS IN THE MODULE
  ======================
<BANKED_CODE> 1 (was BANKED_CODE)
  Relative segment, address: CODE 00005ECC - 00005EE9 (0x1e bytes), align: 0
  Segment part 6.             Intra module refs:   strlen::?relay
           ENTRY                   ADDRESS         REF BY
           =====                   =======         ======
           strlen                  00005ECC 
               is indirectly called
               ISTACK = 00000000 ( 00000002 )
    -------------------------------------------------------------------------
BANK_RELAYS
  Relative segment, address: CODE 00000821 - 00000826 (0x6 bytes), align: 0
  Segment part 7.
           ENTRY                   ADDRESS         REF BY
           =====                   =======         ======
           strlen::?relay          00000821        _PrintfLarge (?xprintflarge)

    -------------------------------------------------------------------------
  LIBRARY MODULE, NAME : ?xgetmemchunk

  SEGMENTS IN THE MODULE
  ======================
<BANKED_CODE> 1 (was BANKED_CODE)
  Relative segment, address: CODE 00005DB7 - 00005DF3 (0x3d bytes), align: 0
  Segment part 7.             Intra module refs:   __xdata_GetMemChunk::?relay
           ENTRY                   ADDRESS         REF BY
           =====                   =======         ======
           __xdata_GetMemChunk     00005DB7 
               ISTACK = 00000000 ( 00000002 )
    -------------------------------------------------------------------------
XDATA_Z
  Relative segment, address: XDATA 0000069F - 000006A0 (0x2 bytes), align: 0
  Segment part 6.             Intra module refs:   __xdata_GetMemChunk
    -------------------------------------------------------------------------
BANK_RELAYS
  Relative segment, address: CODE 00000827 - 0000082C (0x6 bytes), align: 0
  Segment part 8.
           ENTRY                   ADDRESS         REF BY
           =====                   =======         ======
           __xdata_GetMemChunk::?relay
                                   00000827        __xdata_malloc (?xxmemxmalloc)

    -------------------------------------------------------------------------
  LIBRARY MODULE, NAME : ?xprintflarge

  SEGMENTS IN THE MODULE
  ======================
<BANKED_CODE> 1 (was BANKED_CODE)
  Relative segment, address: CODE 00003D57 - 000045E7 (0x891 bytes), align: 0
  Segment part 32.            Intra module refs:   _PrintfLarge::?relay
           ENTRY                   ADDRESS         REF BY
           =====                   =======         ======
           _PrintfLarge            00003D57 
               calls direct
               XSTACK = 00000004 ( 00000070 )
               ISTACK = 00000000 ( 00000002 )
    -------------------------------------------------------------------------
<BANKED_CODE> 1 (was BANKED_CODE)
  Relative segment, address: CODE 000045E8 - 000045EC (0x5 bytes), align: 0
  Segment part 34.            Intra module refs:   _PrintfLarge
                                                   _PutcharLarge
    -------------------------------------------------------------------------
<BANKED_CODE> 1 (was BANKED_CODE)
  Relative segment, address: CODE 000045ED - 000045F7 (0xb bytes), align: 0
  Segment part 35.            Intra module refs:   _PrintfLarge
    -------------------------------------------------------------------------
<BANKED_CODE> 1 (was BANKED_CODE)
  Relative segment, address: CODE 000045F8 - 00004615 (0x1e bytes), align: 0
  Segment part 36.            Intra module refs:   _PrintfLarge
    -------------------------------------------------------------------------
<BANKED_CODE> 1 (was BANKED_CODE)
  Relative segment, address: CODE 00004616 - 0000461D (0x8 bytes), align: 0
  Segment part 37.            Intra module refs:   _PrintfLarge
    -------------------------------------------------------------------------
<BANKED_CODE> 1 (was BANKED_CODE)
  Relative segment, address: CODE 0000461E - 00004623 (0x6 bytes), align: 0
  Segment part 38.            Intra module refs:   _PrintfLarge
    -------------------------------------------------------------------------
<BANKED_CODE> 1 (was BANKED_CODE)
  Relative segment, address: CODE 00004624 - 00004629 (0x6 bytes), align: 0
  Segment part 39.            Intra module refs:   _PrintfLarge
    -------------------------------------------------------------------------
<BANKED_CODE> 1 (was BANKED_CODE)
  Relative segment, address: CODE 0000462A - 00004635 (0xc bytes), align: 0
  Segment part 40.            Intra module refs:   _PrintfLarge
    -------------------------------------------------------------------------
<BANKED_CODE> 1 (was BANKED_CODE)
  Relative segment, address: CODE 00004636 - 0000463B (0x6 bytes), align: 0
  Segment part 41.            Intra module refs:   _PrintfLarge
    -------------------------------------------------------------------------
<BANKED_CODE> 1 (was BANKED_CODE)
  Relative segment, address: CODE 0000463C - 00004641 (0x6 bytes), align: 0
  Segment part 42.            Intra module refs:   _PrintfLarge
    -------------------------------------------------------------------------
<BANKED_CODE> 1 (was BANKED_CODE)
  Relative segment, address: CODE 00004642 - 00004649 (0x8 bytes), align: 0
  Segment part 43.            Intra module refs:   Segment part 41
                                                   Segment part 42
                                                   Segment part 45
    -------------------------------------------------------------------------
<BANKED_CODE> 1 (was BANKED_CODE)
  Relative segment, address: CODE 0000464A - 00004654 (0xb bytes), align: 0
  Segment part 44.            Intra module refs:   Segment part 38
                                                   Segment part 43
    -------------------------------------------------------------------------
<BANKED_CODE> 1 (was BANKED_CODE)
  Relative segment, address: CODE 00004655 - 0000465A (0x6 bytes), align: 0
  Segment part 45.            Intra module refs:   _PrintfLarge
    -------------------------------------------------------------------------
<BANKED_CODE> 1 (was BANKED_CODE)
  Relative segment, address: CODE 0000465B - 00004665 (0xb bytes), align: 0
  Segment part 46.            Intra module refs:   _PrintfLarge
    -------------------------------------------------------------------------
<BANKED_CODE> 1 (was BANKED_CODE)
  Relative segment, address: CODE 00004666 - 00004670 (0xb bytes), align: 0
  Segment part 47.            Intra module refs:   _PrintfLarge
    -------------------------------------------------------------------------
<BANKED_CODE> 1 (was BANKED_CODE)
  Relative segment, address: CODE 00004671 - 0000467B (0xb bytes), align: 0
  Segment part 48.            Intra module refs:   _PrintfLarge
    -------------------------------------------------------------------------
<BANKED_CODE> 1 (was BANKED_CODE)
  Relative segment, address: CODE 0000467C - 00004687 (0xc bytes), align: 0
  Segment part 49.            Intra module refs:   _PrintfLarge
    -------------------------------------------------------------------------
<BANKED_CODE> 1 (was BANKED_CODE)
  Relative segment, address: CODE 00004688 - 0000468B (0x4 bytes), align: 0
  Segment part 50.            Intra module refs:   _PrintfLarge
    -------------------------------------------------------------------------
<BANKED_CODE> 1 (was BANKED_CODE)
  Relative segment, address: CODE 0000468C - 00004698 (0xd bytes), align: 0
  Segment part 51.            Intra module refs:   Segment part 50
                                                   Segment part 54
    -------------------------------------------------------------------------
<BANKED_CODE> 1 (was BANKED_CODE)
  Relative segment, address: CODE 00004699 - 0000469C (0x4 bytes), align: 0
  Segment part 52.            Intra module refs:   Segment part 51
                                                   Segment part 55
    -------------------------------------------------------------------------
<BANKED_CODE> 1 (was BANKED_CODE)
  Relative segment, address: CODE 0000469D - 000046A2 (0x6 bytes), align: 0
  Segment part 53.            Intra module refs:   Segment part 107
                                                   Segment part 48
                                                   Segment part 52
    -------------------------------------------------------------------------
<BANKED_CODE> 1 (was BANKED_CODE)
  Relative segment, address: CODE 000046A3 - 000046AB (0x9 bytes), align: 0
  Segment part 54.            Intra module refs:   _PrintfLarge
    -------------------------------------------------------------------------
<BANKED_CODE> 1 (was BANKED_CODE)
  Relative segment, address: CODE 000046AC - 000046B7 (0xc bytes), align: 0
  Segment part 55.            Intra module refs:   _PrintfLarge
    -------------------------------------------------------------------------
<BANKED_CODE> 1 (was BANKED_CODE)
  Relative segment, address: CODE 000046B8 - 000046C9 (0x12 bytes), align: 0
  Segment part 56.            Intra module refs:   Segment part 51
                                                   Segment part 55
    -------------------------------------------------------------------------
<BANKED_CODE> 1 (was BANKED_CODE)
  Relative segment, address: CODE 000046CA - 000046CD (0x4 bytes), align: 0
  Segment part 57.            Intra module refs:   _PrintfLarge
    -------------------------------------------------------------------------
<BANKED_CODE> 1 (was BANKED_CODE)
  Relative segment, address: CODE 000046CE - 000046DB (0xe bytes), align: 0
  Segment part 58.            Intra module refs:   Segment part 57
                                                   Segment part 59
    -------------------------------------------------------------------------
<BANKED_CODE> 1 (was BANKED_CODE)
  Relative segment, address: CODE 000046DC - 000046E4 (0x9 bytes), align: 0
  Segment part 59.            Intra module refs:   _PrintfLarge
    -------------------------------------------------------------------------
<BANKED_CODE> 1 (was BANKED_CODE)
  Relative segment, address: CODE 000046E5 - 000046F7 (0x13 bytes), align: 0
  Segment part 60.            Intra module refs:   _PrintfLarge
    -------------------------------------------------------------------------
<BANKED_CODE> 1 (was BANKED_CODE)
  Relative segment, address: CODE 000046F8 - 00004700 (0x9 bytes), align: 0
  Segment part 61.            Intra module refs:   Segment part 58
                                                   Segment part 60
    -------------------------------------------------------------------------
<BANKED_CODE> 1 (was BANKED_CODE)
  Relative segment, address: CODE 00004701 - 00004776 (0x76 bytes), align: 0
  Segment part 62.            Intra module refs:   pad::?relay
           LOCAL                   ADDRESS         
           =====                   =======         
           pad                     00004701 
               calls direct
               XSTACK = 0000006E ( 00000015 )
               ISTACK = 00000000 ( 00000001 )
    -------------------------------------------------------------------------
<BANKED_CODE> 1 (was BANKED_CODE)
  Relative segment, address: CODE 00004777 - 00004A87 (0x311 bytes), align: 0
  Segment part 64.            Intra module refs:   _LitobLarge::?relay
           LOCAL                   ADDRESS         
           =====                   =======         
           _LitobLarge             00004777 
               XSTACK = 0000006C ( 00000023 )
               ISTACK = 00000000 ( 00000002 )
    -------------------------------------------------------------------------
<BANKED_CODE> 1 (was BANKED_CODE)
  Relative segment, address: CODE 00004A88 - 00004A88 (0x1 bytes), align: 0
  Segment part 66.            Intra module refs:   _LitobLarge
    -------------------------------------------------------------------------
<BANKED_CODE> 1 (was BANKED_CODE)
  Relative segment, address: CODE 00004A89 - 00004A8F (0x7 bytes), align: 0
  Segment part 67.            Intra module refs:   Segment part 135
                                                   Segment part 66
    -------------------------------------------------------------------------
<BANKED_CODE> 1 (was BANKED_CODE)
  Relative segment, address: CODE 00004A90 - 00004A95 (0x6 bytes), align: 0
  Segment part 68.            Intra module refs:   _GenldLarge
    -------------------------------------------------------------------------
<BANKED_CODE> 1 (was BANKED_CODE)
  Relative segment, address: CODE 00004A96 - 00004A99 (0x4 bytes), align: 0
  Segment part 69.            Intra module refs:   Segment part 68
                                                   _GenldLarge
                                                   _LitobLarge
                                                   _PrintfLarge
    -------------------------------------------------------------------------
<BANKED_CODE> 1 (was BANKED_CODE)
  Relative segment, address: CODE 00004A9A - 00004A9D (0x4 bytes), align: 0
  Segment part 70.            Intra module refs:   Segment part 135
                                                   Segment part 139
                                                   Segment part 144
                                                   Segment part 39
                                                   Segment part 46
                                                   Segment part 69
    -------------------------------------------------------------------------
<BANKED_CODE> 1 (was BANKED_CODE)
  Relative segment, address: CODE 00004A9E - 00004AA7 (0xa bytes), align: 0
  Segment part 71.            Intra module refs:   Segment part 130
                                                   Segment part 134
                                                   Segment part 137
                                                   Segment part 70
    -------------------------------------------------------------------------
<BANKED_CODE> 1 (was BANKED_CODE)
  Relative segment, address: CODE 00004AA8 - 00004AAF (0x8 bytes), align: 0
  Segment part 72.            Intra module refs:   _LitobLarge
                                                   _PrintfLarge
    -------------------------------------------------------------------------
<BANKED_CODE> 1 (was BANKED_CODE)
  Relative segment, address: CODE 00004AB0 - 00004AB4 (0x5 bytes), align: 0
  Segment part 73.            Intra module refs:   _LitobLarge
                                                   _PrintfLarge
    -------------------------------------------------------------------------
<BANKED_CODE> 1 (was BANKED_CODE)
  Relative segment, address: CODE 00004AB5 - 00004AC5 (0x11 bytes), align: 0
  Segment part 74.            Intra module refs:   _LitobLarge
    -------------------------------------------------------------------------
<BANKED_CODE> 1 (was BANKED_CODE)
  Relative segment, address: CODE 00004AC6 - 00004ACA (0x5 bytes), align: 0
  Segment part 75.            Intra module refs:   _LdtobLarge
                                                   _LitobLarge
                                                   _PrintfLarge
    -------------------------------------------------------------------------
<BANKED_CODE> 1 (was BANKED_CODE)
  Relative segment, address: CODE 00004ACB - 00004ACE (0x4 bytes), align: 0
  Segment part 76.            Intra module refs:   _LdtobLarge
                                                   _LitobLarge
    -------------------------------------------------------------------------
<BANKED_CODE> 1 (was BANKED_CODE)
  Relative segment, address: CODE 00004ACF - 00004AD7 (0x9 bytes), align: 0
  Segment part 77.            Intra module refs:   Segment part 76
                                                   _LdtobLarge
    -------------------------------------------------------------------------
<BANKED_CODE> 1 (was BANKED_CODE)
  Relative segment, address: CODE 00004AD8 - 00004B58 (0x81 bytes), align: 0
  Segment part 78.            Intra module refs:   scale::?relay
           LOCAL                   ADDRESS         
           =====                   =======         
           scale                   00004AD8 
               XSTACK = 00000052 ( 00000014 )
    -------------------------------------------------------------------------
<BANKED_CODE> 1 (was BANKED_CODE)
  Relative segment, address: CODE 00004B59 - 00004B62 (0xa bytes), align: 0
  Segment part 80.            Intra module refs:   _PrintfLarge
                                                   scale
    -------------------------------------------------------------------------
<BANKED_CODE> 1 (was BANKED_CODE)
  Relative segment, address: CODE 00004B63 - 00005048 (0x4e6 bytes), align: 0
  Segment part 81.            Intra module refs:   _LdtobLarge::?relay
           LOCAL                   ADDRESS         
           =====                   =======         
           _LdtobLarge             00004B63 
               calls direct
               XSTACK = 0000006C ( 00000054 )
               ISTACK = 00000000 ( 00000001 )
    -------------------------------------------------------------------------
<BANKED_CODE> 1 (was BANKED_CODE)
  Relative segment, address: CODE 00005049 - 0000504B (0x3 bytes), align: 0
  Segment part 83.            Intra module refs:   _GenldLarge
                                                   _LdtobLarge
                                                   _LitobLarge
                                                   pad
                                                   scale
    -------------------------------------------------------------------------
<BANKED_CODE> 1 (was BANKED_CODE)
  Relative segment, address: CODE 0000504C - 00005050 (0x5 bytes), align: 0
  Segment part 84.            Intra module refs:   Segment part 83
                                                   _PutcharsLarge
    -------------------------------------------------------------------------
<BANKED_CODE> 1 (was BANKED_CODE)
  Relative segment, address: CODE 00005051 - 00005059 (0x9 bytes), align: 0
  Segment part 85.            Intra module refs:   _LdtobLarge
    -------------------------------------------------------------------------
<BANKED_CODE> 1 (was BANKED_CODE)
  Relative segment, address: CODE 0000505A - 0000505B (0x2 bytes), align: 0
  Segment part 86.            Intra module refs:   _GenldLarge
                                                   _LdtobLarge
    -------------------------------------------------------------------------
<BANKED_CODE> 1 (was BANKED_CODE)
  Relative segment, address: CODE 0000505C - 00005060 (0x5 bytes), align: 0
  Segment part 87.            Intra module refs:   Segment part 86
                                                   _GenldLarge
    -------------------------------------------------------------------------
<BANKED_CODE> 1 (was BANKED_CODE)
  Relative segment, address: CODE 00005061 - 00005062 (0x2 bytes), align: 0
  Segment part 88.            Intra module refs:   Segment part 87
                                                   _GenldLarge
                                                   _LdtobLarge
    -------------------------------------------------------------------------
<BANKED_CODE> 1 (was BANKED_CODE)
  Relative segment, address: CODE 00005063 - 0000506A (0x8 bytes), align: 0
  Segment part 89.            Intra module refs:   Segment part 88
                                                   _GenldLarge
                                                   _LdtobLarge
                                                   _LitobLarge
                                                   _PrintfLarge
                                                   _PutcharsLarge
    -------------------------------------------------------------------------
<BANKED_CODE> 1 (was BANKED_CODE)
  Relative segment, address: CODE 0000506B - 0000506F (0x5 bytes), align: 0
  Segment part 90.            Intra module refs:   _LdtobLarge
                                                   _LitobLarge
    -------------------------------------------------------------------------
<BANKED_CODE> 1 (was BANKED_CODE)
  Relative segment, address: CODE 00005070 - 0000507E (0xf bytes), align: 0
  Segment part 91.            Intra module refs:   _LdtobLarge
    -------------------------------------------------------------------------
<BANKED_CODE> 1 (was BANKED_CODE)
  Relative segment, address: CODE 0000507F - 00005087 (0x9 bytes), align: 0
  Segment part 92.            Intra module refs:   _LdtobLarge
                                                   _LitobLarge
    -------------------------------------------------------------------------
<BANKED_CODE> 1 (was BANKED_CODE)
  Relative segment, address: CODE 00005088 - 0000508B (0x4 bytes), align: 0
  Segment part 93.            Intra module refs:   _LdtobLarge
                                                   _PrintfLarge
    -------------------------------------------------------------------------
<BANKED_CODE> 1 (was BANKED_CODE)
  Relative segment, address: CODE 0000508C - 0000508D (0x2 bytes), align: 0
  Segment part 94.            Intra module refs:   _GenldLarge
                                                   _LdtobLarge
    -------------------------------------------------------------------------
<BANKED_CODE> 1 (was BANKED_CODE)
  Relative segment, address: CODE 0000508E - 00005092 (0x5 bytes), align: 0
  Segment part 95.            Intra module refs:   Segment part 94
                                                   _LdtobLarge
                                                   _LitobLarge
                                                   _PrintfLarge
                                                   _PutcharLarge
                                                   scale
    -------------------------------------------------------------------------
<BANKED_CODE> 1 (was BANKED_CODE)
  Relative segment, address: CODE 00005093 - 00005097 (0x5 bytes), align: 0
  Segment part 96.            Intra module refs:   Segment part 124
                                                   Segment part 37
                                                   Segment part 95
                                                   _GenldLarge
                                                   _LitobLarge
    -------------------------------------------------------------------------
<BANKED_CODE> 1 (was BANKED_CODE)
  Relative segment, address: CODE 00005098 - 000050A1 (0xa bytes), align: 0
  Segment part 97.            Intra module refs:   _LdtobLarge
                                                   _LitobLarge
    -------------------------------------------------------------------------
<BANKED_CODE> 1 (was BANKED_CODE)
  Relative segment, address: CODE 000050A2 - 000050A7 (0x6 bytes), align: 0
  Segment part 98.            Intra module refs:   _GenldLarge
                                                   _LdtobLarge
                                                   _LitobLarge
    -------------------------------------------------------------------------
<BANKED_CODE> 1 (was BANKED_CODE)
  Relative segment, address: CODE 000050A8 - 000050AB (0x4 bytes), align: 0
  Segment part 99.            Intra module refs:   _GenldLarge
                                                   _LdtobLarge
                                                   _LitobLarge
    -------------------------------------------------------------------------
<BANKED_CODE> 1 (was BANKED_CODE)
  Relative segment, address: CODE 000050AC - 000050AC (0x1 bytes), align: 0
  Segment part 100.           Intra module refs:   Segment part 148
                                                   Segment part 99
    -------------------------------------------------------------------------
<BANKED_CODE> 1 (was BANKED_CODE)
  Relative segment, address: CODE 000050AD - 000050B4 (0x8 bytes), align: 0
  Segment part 101.           Intra module refs:   Segment part 100
                                                   Segment part 46
                                                   _LdtobLarge
    -------------------------------------------------------------------------
<BANKED_CODE> 1 (was BANKED_CODE)
  Relative segment, address: CODE 000050B5 - 000050B5 (0x1 bytes), align: 0
  Segment part 102.           Intra module refs:   _LdtobLarge
                                                   _PrintfLarge
    -------------------------------------------------------------------------
<BANKED_CODE> 1 (was BANKED_CODE)
  Relative segment, address: CODE 000050B6 - 000050B7 (0x2 bytes), align: 0
  Segment part 103.           Intra module refs:   Segment part 102
                                                   _LdtobLarge
    -------------------------------------------------------------------------
<BANKED_CODE> 1 (was BANKED_CODE)
  Relative segment, address: CODE 000050B8 - 000050B8 (0x1 bytes), align: 0
  Segment part 104.           Intra module refs:   Segment part 103
                                                   _GenldLarge
                                                   _LdtobLarge
                                                   _LitobLarge
    -------------------------------------------------------------------------
<BANKED_CODE> 1 (was BANKED_CODE)
  Relative segment, address: CODE 000050B9 - 000050BE (0x6 bytes), align: 0
  Segment part 105.           Intra module refs:   Segment part 104
                                                   _PrintfLarge
    -------------------------------------------------------------------------
<BANKED_CODE> 1 (was BANKED_CODE)
  Relative segment, address: CODE 000050BF - 000050C4 (0x6 bytes), align: 0
  Segment part 106.           Intra module refs:   _GenldLarge
                                                   _LitobLarge
    -------------------------------------------------------------------------
<BANKED_CODE> 1 (was BANKED_CODE)
  Relative segment, address: CODE 000050C5 - 000050C8 (0x4 bytes), align: 0
  Segment part 107.           Intra module refs:   Segment part 106
                                                   _LdtobLarge
                                                   _LitobLarge
                                                   _PrintfLarge
    -------------------------------------------------------------------------
<BANKED_CODE> 1 (was BANKED_CODE)
  Relative segment, address: CODE 000050C9 - 000050D3 (0xb bytes), align: 0
  Segment part 108.           Intra module refs:   _LdtobLarge
    -------------------------------------------------------------------------
<BANKED_CODE> 1 (was BANKED_CODE)
  Relative segment, address: CODE 000050D4 - 000050D9 (0x6 bytes), align: 0
  Segment part 109.           Intra module refs:   _GenldLarge
                                                   _LdtobLarge
                                                   _LitobLarge
                                                   _PrintfLarge
    -------------------------------------------------------------------------
<BANKED_CODE> 1 (was BANKED_CODE)
  Relative segment, address: CODE 000050DA - 000050E7 (0xe bytes), align: 0
  Segment part 110.           Intra module refs:   _LdtobLarge
    -------------------------------------------------------------------------
<BANKED_CODE> 1 (was BANKED_CODE)
  Relative segment, address: CODE 000050E8 - 000050E8 (0x1 bytes), align: 0
  Segment part 111.           Intra module refs:   Segment part 110
                                                   _LdtobLarge
    -------------------------------------------------------------------------
<BANKED_CODE> 1 (was BANKED_CODE)
  Relative segment, address: CODE 000050E9 - 000050EE (0x6 bytes), align: 0
  Segment part 112.           Intra module refs:   Segment part 111
                                                   _LdtobLarge
    -------------------------------------------------------------------------
<BANKED_CODE> 1 (was BANKED_CODE)
  Relative segment, address: CODE 000050EF - 000050F4 (0x6 bytes), align: 0
  Segment part 113.           Intra module refs:   Segment part 112
                                                   _GenldLarge
                                                   _LdtobLarge
                                                   _LitobLarge
                                                   _PrintfLarge
                                                   _PutcharLarge
    -------------------------------------------------------------------------
<BANKED_CODE> 1 (was BANKED_CODE)
  Relative segment, address: CODE 000050F5 - 000055E6 (0x4f2 bytes), align: 0
  Segment part 114.           Intra module refs:   _GenldLarge::?relay
           LOCAL                   ADDRESS         
           =====                   =======         
           _GenldLarge             000050F5 
               calls direct
               XSTACK = 00000054 ( 0000002F )
               ISTACK = 00000000 ( 00000001 )
    -------------------------------------------------------------------------
<BANKED_CODE> 1 (was BANKED_CODE)
  Relative segment, address: CODE 000055E7 - 000055EC (0x6 bytes), align: 0
  Segment part 116.           Intra module refs:   Segment part 74
                                                   _GenldLarge
                                                   _PutcharsLarge
                                                   pad
    -------------------------------------------------------------------------
<BANKED_CODE> 1 (was BANKED_CODE)
  Relative segment, address: CODE 000055ED - 000055F9 (0xd bytes), align: 0
  Segment part 117.           Intra module refs:   _GenldLarge
    -------------------------------------------------------------------------
<BANKED_CODE> 1 (was BANKED_CODE)
  Relative segment, address: CODE 000055FA - 00005608 (0xf bytes), align: 0
  Segment part 118.           Intra module refs:   _GenldLarge
    -------------------------------------------------------------------------
<BANKED_CODE> 1 (was BANKED_CODE)
  Relative segment, address: CODE 00005609 - 0000560E (0x6 bytes), align: 0
  Segment part 119.           Intra module refs:   _GenldLarge
                                                   _LdtobLarge
    -------------------------------------------------------------------------
<BANKED_CODE> 1 (was BANKED_CODE)
  Relative segment, address: CODE 0000560F - 00005619 (0xb bytes), align: 0
  Segment part 120.           Intra module refs:   _GenldLarge
    -------------------------------------------------------------------------
<BANKED_CODE> 1 (was BANKED_CODE)
  Relative segment, address: CODE 0000561A - 00005621 (0x8 bytes), align: 0
  Segment part 121.           Intra module refs:   Segment part 120
                                                   _LdtobLarge
                                                   pad
    -------------------------------------------------------------------------
<BANKED_CODE> 1 (was BANKED_CODE)
  Relative segment, address: CODE 00005622 - 00005625 (0x4 bytes), align: 0
  Segment part 122.           Intra module refs:   _GenldLarge
                                                   _PrintfLarge
    -------------------------------------------------------------------------
<BANKED_CODE> 1 (was BANKED_CODE)
  Relative segment, address: CODE 00005626 - 00005629 (0x4 bytes), align: 0
  Segment part 123.           Intra module refs:   Segment part 122
                                                   Segment part 131
    -------------------------------------------------------------------------
<BANKED_CODE> 1 (was BANKED_CODE)
  Relative segment, address: CODE 0000562A - 00005631 (0x8 bytes), align: 0
  Segment part 124.           Intra module refs:   Segment part 123
                                                   Segment part 127
    -------------------------------------------------------------------------
<BANKED_CODE> 1 (was BANKED_CODE)
  Relative segment, address: CODE 00005632 - 00005637 (0x6 bytes), align: 0
  Segment part 125.           Intra module refs:   _GenldLarge
                                                   _PrintfLarge
                                                   _PutcharsLarge
    -------------------------------------------------------------------------
<BANKED_CODE> 1 (was BANKED_CODE)
  Relative segment, address: CODE 00005638 - 0000563B (0x4 bytes), align: 0
  Segment part 126.           Intra module refs:   _GenldLarge
                                                   _PrintfLarge
    -------------------------------------------------------------------------
<BANKED_CODE> 1 (was BANKED_CODE)
  Relative segment, address: CODE 0000563C - 00005640 (0x5 bytes), align: 0
  Segment part 127.           Intra module refs:   Segment part 126
                                                   Segment part 128
                                                   Segment part 138
                                                   Segment part 47
                                                   Segment part 72
    -------------------------------------------------------------------------
<BANKED_CODE> 1 (was BANKED_CODE)
  Relative segment, address: CODE 00005641 - 00005649 (0x9 bytes), align: 0
  Segment part 128.           Intra module refs:   _GenldLarge
                                                   _LdtobLarge
    -------------------------------------------------------------------------
<BANKED_CODE> 1 (was BANKED_CODE)
  Relative segment, address: CODE 0000564A - 0000564D (0x4 bytes), align: 0
  Segment part 129.           Intra module refs:   _GenldLarge
    -------------------------------------------------------------------------
<BANKED_CODE> 1 (was BANKED_CODE)
  Relative segment, address: CODE 0000564E - 0000565A (0xd bytes), align: 0
  Segment part 130.           Intra module refs:   Segment part 129
                                                   Segment part 147
    -------------------------------------------------------------------------
<BANKED_CODE> 1 (was BANKED_CODE)
  Relative segment, address: CODE 0000565B - 00005662 (0x8 bytes), align: 0
  Segment part 131.           Intra module refs:   _GenldLarge
                                                   _PrintfLarge
    -------------------------------------------------------------------------
<BANKED_CODE> 1 (was BANKED_CODE)
  Relative segment, address: CODE 00005663 - 00005668 (0x6 bytes), align: 0
  Segment part 132.           Intra module refs:   _GenldLarge
    -------------------------------------------------------------------------
<BANKED_CODE> 1 (was BANKED_CODE)
  Relative segment, address: CODE 00005669 - 00005674 (0xc bytes), align: 0
  Segment part 133.           Intra module refs:   _GenldLarge
    -------------------------------------------------------------------------
<BANKED_CODE> 1 (was BANKED_CODE)
  Relative segment, address: CODE 00005675 - 0000567C (0x8 bytes), align: 0
  Segment part 134.           Intra module refs:   Segment part 133
                                                   Segment part 73
    -------------------------------------------------------------------------
<BANKED_CODE> 1 (was BANKED_CODE)
  Relative segment, address: CODE 0000567D - 00005683 (0x7 bytes), align: 0
  Segment part 135.           Intra module refs:   _GenldLarge
    -------------------------------------------------------------------------
<BANKED_CODE> 1 (was BANKED_CODE)
  Relative segment, address: CODE 00005684 - 0000568F (0xc bytes), align: 0
  Segment part 136.           Intra module refs:   _GenldLarge
    -------------------------------------------------------------------------
<BANKED_CODE> 1 (was BANKED_CODE)
  Relative segment, address: CODE 00005690 - 00005697 (0x8 bytes), align: 0
  Segment part 137.           Intra module refs:   Segment part 132
                                                   Segment part 136
    -------------------------------------------------------------------------
<BANKED_CODE> 1 (was BANKED_CODE)
  Relative segment, address: CODE 00005698 - 000056A1 (0xa bytes), align: 0
  Segment part 138.           Intra module refs:   _GenldLarge
    -------------------------------------------------------------------------
<BANKED_CODE> 1 (was BANKED_CODE)
  Relative segment, address: CODE 000056A2 - 000056A7 (0x6 bytes), align: 0
  Segment part 139.           Intra module refs:   _GenldLarge
                                                   _LitobLarge
    -------------------------------------------------------------------------
<BANKED_CODE> 1 (was BANKED_CODE)
  Relative segment, address: CODE 000056A8 - 000056AC (0x5 bytes), align: 0
  Segment part 140.           Intra module refs:   _GenldLarge
                                                   _PrintfLarge
                                                   _PutcharLarge
    -------------------------------------------------------------------------
<BANKED_CODE> 1 (was BANKED_CODE)
  Relative segment, address: CODE 000056AD - 000056B4 (0x8 bytes), align: 0
  Segment part 141.           Intra module refs:   _GenldLarge
    -------------------------------------------------------------------------
<BANKED_CODE> 1 (was BANKED_CODE)
  Relative segment, address: CODE 000056B5 - 000056BD (0x9 bytes), align: 0
  Segment part 142.           Intra module refs:   Segment part 141
                                                   _GenldLarge
    -------------------------------------------------------------------------
<BANKED_CODE> 1 (was BANKED_CODE)
  Relative segment, address: CODE 000056BE - 000056C5 (0x8 bytes), align: 0
  Segment part 143.           Intra module refs:   _GenldLarge
    -------------------------------------------------------------------------
<BANKED_CODE> 1 (was BANKED_CODE)
  Relative segment, address: CODE 000056C6 - 000056D7 (0x12 bytes), align: 0
  Segment part 144.           Intra module refs:   _GenldLarge
    -------------------------------------------------------------------------
<BANKED_CODE> 1 (was BANKED_CODE)
  Relative segment, address: CODE 000056D8 - 000056E0 (0x9 bytes), align: 0
  Segment part 145.           Intra module refs:   Segment part 144
                                                   _GenldLarge
    -------------------------------------------------------------------------
<BANKED_CODE> 1 (was BANKED_CODE)
  Relative segment, address: CODE 000056E1 - 000056EC (0xc bytes), align: 0
  Segment part 146.           Intra module refs:   Segment part 144
                                                   _GenldLarge
    -------------------------------------------------------------------------
<BANKED_CODE> 1 (was BANKED_CODE)
  Relative segment, address: CODE 000056ED - 000056F7 (0xb bytes), align: 0
  Segment part 147.           Intra module refs:   _GenldLarge
    -------------------------------------------------------------------------
<BANKED_CODE> 1 (was BANKED_CODE)
  Relative segment, address: CODE 000056F8 - 00005700 (0x9 bytes), align: 0
  Segment part 148.           Intra module refs:   Segment part 147
                                                   Segment part 151
    -------------------------------------------------------------------------
<BANKED_CODE> 1 (was BANKED_CODE)
  Relative segment, address: CODE 00005701 - 00005709 (0x9 bytes), align: 0
  Segment part 149.           Intra module refs:   Segment part 140
                                                   Segment part 148
                                                   Segment part 93
    -------------------------------------------------------------------------
<BANKED_CODE> 1 (was BANKED_CODE)
  Relative segment, address: CODE 0000570A - 0000570A (0x1 bytes), align: 0
  Segment part 150.           Intra module refs:   _GenldLarge
    -------------------------------------------------------------------------
<BANKED_CODE> 1 (was BANKED_CODE)
  Relative segment, address: CODE 0000570B - 0000570D (0x3 bytes), align: 0
  Segment part 151.           Intra module refs:   Segment part 150
                                                   _GenldLarge
    -------------------------------------------------------------------------
<BANKED_CODE> 1 (was BANKED_CODE)
  Relative segment, address: CODE 0000570E - 0000571D (0x10 bytes), align: 0
  Segment part 152.           Intra module refs:   Segment part 151
                                                   _GenldLarge
    -------------------------------------------------------------------------
<BANKED_CODE> 1 (was BANKED_CODE)
  Relative segment, address: CODE 0000571E - 00005770 (0x53 bytes), align: 0
  Segment part 153.           Intra module refs:   _PutcharLarge::?relay
           LOCAL                   ADDRESS         
           =====                   =======         
           _PutcharLarge           0000571E 
               XSTACK = 0000006C ( 0000000E )
    -------------------------------------------------------------------------
<BANKED_CODE> 1 (was BANKED_CODE)
  Relative segment, address: CODE 00005771 - 000057C2 (0x52 bytes), align: 0
  Segment part 155.           Intra module refs:   _PutcharsLarge::?relay
           LOCAL                   ADDRESS         
           =====                   =======         
           _PutcharsLarge          00005771 
               calls direct
               XSTACK = 00000070 ( 00000010 )
    -------------------------------------------------------------------------
<BANKED_CODE> 1 (was BANKED_CODE)
  Relative segment, address: CODE 000057C3 - 000057CD (0xb bytes), align: 0
  Segment part 157.           Intra module refs:   Segment part 119
                                                   _PutcharsLarge
    -------------------------------------------------------------------------
XDATA_ID
  Relative segment, address: CODE 000005AA - 000005B0 (0x7 bytes), align: 0
  Segment part 7.             Intra module refs:   Segment part 6
    -------------------------------------------------------------------------
XDATA_ID
  Relative segment, address: CODE 000005B1 - 000005B4 (0x4 bytes), align: 0
  Segment part 9.             Intra module refs:   Segment part 8
    -------------------------------------------------------------------------
XDATA_ID
  Relative segment, address: CODE 000005B5 - 000005B8 (0x4 bytes), align: 0
  Segment part 11.            Intra module refs:   Segment part 10
    -------------------------------------------------------------------------
XDATA_ID
  Relative segment, address: CODE 000005B9 - 000005BC (0x4 bytes), align: 0
  Segment part 13.            Intra module refs:   Segment part 12
    -------------------------------------------------------------------------
XDATA_ID
  Relative segment, address: CODE 000005BD - 000005C0 (0x4 bytes), align: 0
  Segment part 15.            Intra module refs:   Segment part 14
    -------------------------------------------------------------------------
XDATA_ID
  Relative segment, address: CODE 000005C1 - 000005C2 (0x2 bytes), align: 0
  Segment part 17.            Intra module refs:   Segment part 16
    -------------------------------------------------------------------------
XDATA_ID
  Relative segment, address: CODE 000005C3 - 000005C6 (0x4 bytes), align: 0
  Segment part 19.            Intra module refs:   __Constant_ffff
    -------------------------------------------------------------------------
XDATA_ID
  Relative segment, address: CODE 000005C7 - 000005CA (0x4 bytes), align: 0
  Segment part 21.            Intra module refs:   __Constant_0
    -------------------------------------------------------------------------
XDATA_ID
  Relative segment, address: CODE 000005CB - 000005CE (0x4 bytes), align: 0
  Segment part 23.            Intra module refs:   __Constant_7597
    -------------------------------------------------------------------------
XDATA_ID
  Relative segment, address: CODE 000005CF - 000005D2 (0x4 bytes), align: 0
  Segment part 25.            Intra module refs:   __Constant_186a0
    -------------------------------------------------------------------------
XDATA_ID
  Relative segment, address: CODE 000005D3 - 000005D6 (0x4 bytes), align: 0
  Segment part 27.            Intra module refs:   __Constant_3f800000
    -------------------------------------------------------------------------
XDATA_ID
  Relative segment, address: CODE 000005D7 - 000005DA (0x4 bytes), align: 0
  Segment part 31.            Intra module refs:   __Constant_4cbebc20
    -------------------------------------------------------------------------
BANK_RELAYS
  Relative segment, address: CODE 0000082D - 00000832 (0x6 bytes), align: 0
  Segment part 33.
           ENTRY                   ADDRESS         REF BY
           =====                   =======         ======
           _PrintfLarge::?relay    0000082D        printf (?printf)
    -------------------------------------------------------------------------
BANK_RELAYS
  Relative segment, address: CODE 00000833 - 00000838 (0x6 bytes), align: 0
  Segment part 63.            Intra module refs:   _PrintfLarge
           LOCAL                   ADDRESS         
           =====                   =======         
           pad::?relay             00000833 
    -------------------------------------------------------------------------
BANK_RELAYS
  Relative segment, address: CODE 00000839 - 0000083E (0x6 bytes), align: 0
  Segment part 65.            Intra module refs:   _PrintfLarge
           LOCAL                   ADDRESS         
           =====                   =======         
           _LitobLarge::?relay     00000839 
    -------------------------------------------------------------------------
BANK_RELAYS
  Relative segment, address: CODE 0000083F - 00000844 (0x6 bytes), align: 0
  Segment part 79.            Intra module refs:   _LdtobLarge
           LOCAL                   ADDRESS         
           =====                   =======         
           scale::?relay           0000083F 
    -------------------------------------------------------------------------
BANK_RELAYS
  Relative segment, address: CODE 00000845 - 0000084A (0x6 bytes), align: 0
  Segment part 82.            Intra module refs:   _PrintfLarge
           LOCAL                   ADDRESS         
           =====                   =======         
           _LdtobLarge::?relay     00000845 
    -------------------------------------------------------------------------
BANK_RELAYS
  Relative segment, address: CODE 0000084B - 00000850 (0x6 bytes), align: 0
  Segment part 115.           Intra module refs:   _LdtobLarge
           LOCAL                   ADDRESS         
           =====                   =======         
           _GenldLarge::?relay     0000084B 
    -------------------------------------------------------------------------
BANK_RELAYS
  Relative segment, address: CODE 00000851 - 00000856 (0x6 bytes), align: 0
  Segment part 154.           Intra module refs:   _PrintfLarge
                                                   _PutcharsLarge
           LOCAL                   ADDRESS         
           =====                   =======         
           _PutcharLarge::?relay   00000851 
    -------------------------------------------------------------------------
BANK_RELAYS
  Relative segment, address: CODE 00000857 - 0000085C (0x6 bytes), align: 0
  Segment part 156.           Intra module refs:   _PrintfLarge
                                                   pad
           LOCAL                   ADDRESS         
           =====                   =======         
           _PutcharsLarge::?relay
                                   00000857 
    -------------------------------------------------------------------------
XDATA_I
  Relative segment, address: XDATA 00000B9A - 00000BA0 (0x7 bytes), align: 0
  Segment part 6.             Intra module refs:   _PrintfLarge
    -------------------------------------------------------------------------
XDATA_I
  Relative segment, address: XDATA 00000BA1 - 00000BA4 (0x4 bytes), align: 0
  Segment part 8.             Intra module refs:   _LdtobLarge
    -------------------------------------------------------------------------
XDATA_I
  Relative segment, address: XDATA 00000BA5 - 00000BA8 (0x4 bytes), align: 0
  Segment part 10.            Intra module refs:   _LdtobLarge
    -------------------------------------------------------------------------
XDATA_I
  Relative segment, address: XDATA 00000BA9 - 00000BAC (0x4 bytes), align: 0
  Segment part 12.            Intra module refs:   _LdtobLarge
    -------------------------------------------------------------------------
XDATA_I
  Relative segment, address: XDATA 00000BAD - 00000BB0 (0x4 bytes), align: 0
  Segment part 14.            Intra module refs:   _LdtobLarge
    -------------------------------------------------------------------------
XDATA_I
  Relative segment, address: XDATA 00000BB1 - 00000BB2 (0x2 bytes), align: 0
  Segment part 16.            Intra module refs:   _GenldLarge
    -------------------------------------------------------------------------
XDATA_I
  Relative segment, address: XDATA 00000BB3 - 00000BB6 (0x4 bytes), align: 0
  Segment part 18.            Intra module refs:   _PrintfLarge
           ENTRY                   ADDRESS         REF BY
           =====                   =======         ======
           __Constant_ffff         00000BB3 
    -------------------------------------------------------------------------
XDATA_I
  Relative segment, address: XDATA 00000BB7 - 00000BBA (0x4 bytes), align: 0
  Segment part 20.            Intra module refs:   _LdtobLarge
                                                   _LitobLarge
                                                   _PrintfLarge
           ENTRY                   ADDRESS         REF BY
           =====                   =======         ======
           __Constant_0            00000BB7 
    -------------------------------------------------------------------------
XDATA_I
  Relative segment, address: XDATA 00000BBB - 00000BBE (0x4 bytes), align: 0
  Segment part 22.            Intra module refs:   _LdtobLarge
           ENTRY                   ADDRESS         REF BY
           =====                   =======         ======
           __Constant_7597         00000BBB 
    -------------------------------------------------------------------------
XDATA_I
  Relative segment, address: XDATA 00000BBF - 00000BC2 (0x4 bytes), align: 0
  Segment part 24.            Intra module refs:   _LdtobLarge
           ENTRY                   ADDRESS         REF BY
           =====                   =======         ======
           __Constant_186a0        00000BBF 
    -------------------------------------------------------------------------
XDATA_I
  Relative segment, address: XDATA 00000BC3 - 00000BC6 (0x4 bytes), align: 0
  Segment part 26.            Intra module refs:   _LdtobLarge
           ENTRY                   ADDRESS         REF BY
           =====                   =======         ======
           __Constant_3f800000     00000BC3 
    -------------------------------------------------------------------------
XDATA_I
  Relative segment, address: XDATA 00000BC7 - 00000BCA (0x4 bytes), align: 0
  Segment part 30.            Intra module refs:   _LdtobLarge
           ENTRY                   ADDRESS         REF BY
           =====                   =======         ======
           __Constant_4cbebc20     00000BC7 

    -------------------------------------------------------------------------
  LIBRARY MODULE, NAME : ?xprout

  SEGMENTS IN THE MODULE
  ======================
<BANKED_CODE> 1 (was BANKED_CODE)
  Relative segment, address: CODE 00005E58 - 00005E82 (0x2b bytes), align: 0
  Segment part 6.             Intra module refs:   _Prout::?relay
           ENTRY                   ADDRESS         REF BY
           =====                   =======         ======
           _Prout                  00005E58 
               calls direct
               XSTACK = 00000000 ( 0000000E )
    -------------------------------------------------------------------------
BANK_RELAYS
  Relative segment, address: CODE 0000085D - 00000862 (0x6 bytes), align: 0
  Segment part 7.
           ENTRY                   ADDRESS         REF BY
           =====                   =======         ======
           _Prout::?relay          0000085D        printf (?printf)

    -------------------------------------------------------------------------
  LIBRARY MODULE, NAME : ?xxmemxfree

  SEGMENTS IN THE MODULE
  ======================
<BANKED_CODE> 1 (was BANKED_CODE)
  Relative segment, address: CODE 00005AD6 - 00005C0D (0x138 bytes), align: 0
  Segment part 6.             Intra module refs:   __xdata_free::?relay
           ENTRY                   ADDRESS         REF BY
           =====                   =======         ======
           __xdata_free            00005AD6 
               XSTACK = 0000000A ( 0000000E )
    -------------------------------------------------------------------------
<BANKED_CODE> 1 (was BANKED_CODE)
  Relative segment, address: CODE 00005C0E - 00005C15 (0x8 bytes), align: 0
  Segment part 8.             Intra module refs:   __xdata_free
    -------------------------------------------------------------------------
BANK_RELAYS
  Relative segment, address: CODE 00000863 - 00000868 (0x6 bytes), align: 0
  Segment part 7.
           ENTRY                   ADDRESS         REF BY
           =====                   =======         ======
           __xdata_free::?relay    00000863        __xdata_malloc (?xxmemxmalloc)
                                                   free (?__write)

    -------------------------------------------------------------------------
  LIBRARY MODULE, NAME : ?xxmemxmalloc

  SEGMENTS IN THE MODULE
  ======================
XDATA_Z
  Relative segment, address: XDATA 000006A1 - 000006A4 (0x4 bytes), align: 0
  Segment part 6.             Intra module refs:   __xdata_malloc
           ENTRY                   ADDRESS         REF BY
           =====                   =======         ======
           __xdata_Aldata          000006A1        __xdata_free (?xxmemxfree)
    -------------------------------------------------------------------------
<BANKED_CODE> 1 (was BANKED_CODE)
  Relative segment, address: CODE 000057CE - 00005940 (0x173 bytes), align: 0
  Segment part 8.             Intra module refs:   __xdata_malloc::?relay
           ENTRY                   ADDRESS         REF BY
           =====                   =======         ======
           __xdata_malloc          000057CE 
               calls direct
               XSTACK = 0000000A ( 0000000F )
    -------------------------------------------------------------------------
<BANKED_CODE> 1 (was BANKED_CODE)
  Relative segment, address: CODE 00005941 - 00005949 (0x9 bytes), align: 0
  Segment part 10.            Intra module refs:   __xdata_malloc
    -------------------------------------------------------------------------
<BANKED_CODE> 1 (was BANKED_CODE)
  Relative segment, address: CODE 0000594A - 0000594D (0x4 bytes), align: 0
  Segment part 11.            Intra module refs:   __xdata_malloc
    -------------------------------------------------------------------------
<BANKED_CODE> 1 (was BANKED_CODE)
  Relative segment, address: CODE 0000594E - 00005953 (0x6 bytes), align: 0
  Segment part 12.            Intra module refs:   Segment part 11
                                                   __xdata_malloc
    -------------------------------------------------------------------------
<BANKED_CODE> 1 (was BANKED_CODE)
  Relative segment, address: CODE 00005954 - 00005957 (0x4 bytes), align: 0
  Segment part 13.            Intra module refs:   __xdata_malloc
    -------------------------------------------------------------------------
<BANKED_CODE> 1 (was BANKED_CODE)
  Relative segment, address: CODE 00005958 - 0000595D (0x6 bytes), align: 0
  Segment part 14.            Intra module refs:   Segment part 12
                                                   Segment part 13
                                                   __xdata_malloc
    -------------------------------------------------------------------------
<BANKED_CODE> 1 (was BANKED_CODE)
  Relative segment, address: CODE 0000595E - 00005965 (0x8 bytes), align: 0
  Segment part 15.            Intra module refs:   __xdata_malloc
    -------------------------------------------------------------------------
BANK_RELAYS
  Relative segment, address: CODE 00000869 - 0000086E (0x6 bytes), align: 0
  Segment part 9.
           ENTRY                   ADDRESS         REF BY
           =====                   =======         ======
           __xdata_malloc::?relay
                                   00000869        malloc (?__write)




                ****************************************
                *                                      *
                *            MODULE SUMMARY            *
                *                                      *
                ****************************************

Module                     CODE      DATA      XDATA  IDATA    BIT
------                     ----      ----      -----  -----    ---
                          (Rel)  (Rel)  (Abs)  (Rel)  (Rel)  (Rel)
?ADD_XSTACK_DISP8            27
?ALLOC_XSTACK8               22
?BANKED_CODE_SUPPORT         30
?BANKED_ENTER_XDATA         108
?BANKED_LEAVE_XDATA          70
?CALL_IND                     2
?DEALLOC_XSTACK8             27
?FLT_ADD                    575
?FLT_DIV                    486
?FLT_LT                      76
?FLT_MUL                    384
?FLT_TEST_INF                20
?FLT_TEST_INF_R1             20
?FLT_TEST_NAN                15
?FLT_TEST_NAN_R1             15
?FLT_TEST_ZERO                9
?FLT_TEST_ZERO_R1             9
?FLT_TO_L                   102
?INTERRUPT_ENTER_XSP         95
?INTERRUPT_LEAVE_XSP         88
?L_ADD                       19
?L_ADD_TO_X                  19
?L_ADD_X                     19
?L_AND_TO_X                  19
?L_AND_X                     19
?L_DIV_MOD                   87
?L_MOV_TO_X                  15
?L_MOV_X                     15
?L_MUL                      128
?L_NEG                       17
?L_NEG_R1                    17
?L_SUB_X                     24
?L_TO_FLT                    93
?MOVE_LONG8_XDATA_IDATA      13
?MOVE_LONG8_XDATA_XDATA      33
?PUSH_XSTACK8_X              49
?PUSH_XSTACK_I               17
?SL_GE_X                     38
?SL_GT_X                     21
?SS_SHR                      16
?S_DIV_MOD                  154
?S_SHL                       19
?UC_JMP_IF_IN_RANGE          31
?UC_JMP_IF_VALUE             22
?UC_SWITCH_SPARSE            42
?UL_DIV_MOD                 111
?UL_GT                       16
?UL_GT_X                     16
?UL_SHR                      25
?US_SHR                      15
?XLOAD_R0123                 12
?XLOAD_R2345                 12
?XLOAD_R4567                 12
?XSTACK_DISP8                10
?XSTACK_DISP8_RP             24
?XSTORE_R0123                12
?XSTORE_R2345                12
?XSTORE_R4567                12
?__dbg_break                  9
?__exit                      36
?__write                 11 932            35  1 782
  + shared                   46                    4
  + common
?cexit                       17
?cmain                       76
?div                        127
?exit                        14
?memchr                      62
?memcpy                      67
?memset                      50
?printf                      80
?putchar                     95
?rand                       386                  153
?srand                       78
?strchr                      43
?strlen                      36
?xgetmemchunk                67                    2
?xprintflarge             6 872                   49
?xprout                      49
?xxmemxfree                 326
?xxmemxmalloc               414                    4
CSTARTUP                     18
  + common                    3
VIRTUAL_REGISTERS                   10                           8
N/A (command line)                   8         5 888     64
N/A (alignment)
----------               ------     --     --  -----     --      -
Total:                   24 269     18     35  7 882     64      8
  + common                   46


                ****************************************
                *                                      *
                *              CALL GRAPH              *
                *                                      *
                ****************************************

  ->Sub-tree of type: Interrupt function tree that does not make
                    : indirect calls
                             XSTACK   ISTACK
    | Stack used (prev) :  00000000 00000000
  03      ReadTimer
          | Stack used (prev) :  00000000 00000000
          | + function block  :  0000001C 00000002
  02    NT_GetTime
        | Stack used (prev) :  0000001C 00000002
        | + function block  :  00000040 00000000
  02    NT_IRQEnable
        | Stack used (prev) :  00000000 00000000
        | + function block  :  0000000F 00000000
  01  TimerCompareInterrupt
      | Stack used (prev) :  0000005C 00000002
      | + function block  :  0000001E 00000000
  <-Sub-tree of type: Interrupt function tree that does not make
                    : indirect calls
    | Stack used          :  0000007A 00000002


  ->Sub-tree of type: Indirectly called function tree that does not make
                    : indirect calls (Is not an interrupt and is not flagged
                    : as not overlayable)
                             XSTACK   ISTACK
    | Stack used (prev) :  0000007A 00000002
  02    LLC_RunTimeAlloc
        | Stack used (prev) :  0000007A 00000002
        | + function block  :  00000012 00000000
  04        __xdata_free
            | Stack used (prev) :  0000007A 00000002
            | + function block  :  00000018 00000000
  03      free
          | Stack used (prev) :  00000092 00000002
          | + function block  :  00000040 00000000
  07              _PutcharLarge
                  | Stack used (prev) :  0000007A 00000002
                  | + function block  :  0000007A 00000000
  06            _PutcharsLarge
                | Stack used (prev) :  000000F4 00000002
                | + function block  :  00000090 00000000
  06            _PutcharsLarge
                | Stack used (prev) :  000000F4 00000002
                | + function block  :  00000090 00000000
                |  Already listed
  06            _PutcharsLarge
                | Stack used (prev) :  000000F4 00000002
                | + function block  :  00000090 00000000
                |  Already listed
  06            _PutcharLarge
                | Stack used (prev) :  0000007A 00000002
                | + function block  :  0000007A 00000000
                |  Already listed
  08                memcpy
                    | Stack used (prev) :  0000007A 00000002
                    | + function block  :  0000000B 00000001
  08                div
                    | Stack used (prev) :  0000007A 00000002
                    | + function block  :  00000010 00000002
  07              _GenldLarge
                  | Stack used (prev) :  0000008A 00000004
                  | + function block  :  000000B2 00000000
  07              scale
                  | Stack used (prev) :  0000007A 00000002
                  | + function block  :  00000066 00000000
  07              scale
                  | Stack used (prev) :  0000007A 00000002
                  | + function block  :  00000066 00000000
                  |  Already listed
  07              memcpy
                  | Stack used (prev) :  0000007A 00000002
                  | + function block  :  0000000B 00000001
                  |  Already listed
  06            _LdtobLarge
                | Stack used (prev) :  0000013C 00000004
                | + function block  :  00000114 00000000
  06            _LitobLarge
                | Stack used (prev) :  0000007A 00000002
                | + function block  :  0000008F 00000002
  06            _LitobLarge
                | Stack used (prev) :  0000007A 00000002
                | + function block  :  0000008F 00000002
                |  Already listed
  07              _PutcharsLarge
                  | Stack used (prev) :  000000F4 00000002
                  | + function block  :  00000090 00000000
                  |  Already listed
  06            pad
                | Stack used (prev) :  00000184 00000002
                | + function block  :  00000098 00000001
  06            pad
                | Stack used (prev) :  00000184 00000002
                | + function block  :  00000098 00000001
                |  Already listed
  06            pad
                | Stack used (prev) :  00000184 00000002
                | + function block  :  00000098 00000001
                |  Already listed
  06            pad
                | Stack used (prev) :  00000184 00000002
                | + function block  :  00000098 00000001
                |  Already listed
  06            pad
                | Stack used (prev) :  00000184 00000002
                | + function block  :  00000098 00000001
                |  Already listed
  06            strlen
                | Stack used (prev) :  0000007A 00000002
                | + function block  :  00000000 00000002
  06            __iar_Strchr
                | Stack used (prev) :  0000007A 00000002
                | + function block  :  00000000 00000002
  06            __iar_Memchr
                | Stack used (prev) :  0000007A 00000002
                | + function block  :  00000002 00000002
  05          _PrintfLarge
              | Stack used (prev) :  00000250 00000002
              | + function block  :  000000DC 00000002
  04        printf
            | Stack used (prev) :  0000032C 00000004
            | + function block  :  00000020 00000000
  04        STACK_FAILURE
            | Stack used (prev) :  0000007A 00000002
            | + function block  :  00000024 00000000
  03      MAC_GetTXState
          | Stack used (prev) :  0000034C 00000004
          | + function block  :  00000036 00000000
  04        printf
            | Stack used (prev) :  0000032C 00000004
            | + function block  :  00000020 00000000
            |  Already listed
  04        STACK_FAILURE
            | Stack used (prev) :  0000007A 00000002
            | + function block  :  00000024 00000000
            |  Already listed
  04        STACK_FAILURE
            | Stack used (prev) :  0000007A 00000002
            | + function block  :  00000024 00000000
            |  Already listed
  05          printf
              | Stack used (prev) :  0000032C 00000004
              | + function block  :  00000020 00000000
              |  Already listed
  05          STACK_FAILURE
              | Stack used (prev) :  0000007A 00000002
              | + function block  :  00000024 00000000
              |  Already listed
  04        TIC_SetTXState
            | Stack used (prev) :  0000034C 00000004
            | + function block  :  00000028 00000000
  03      MAC_Send
          | Stack used (prev) :  00000374 00000004
          | + function block  :  00000032 00000000
  02    LLC_Shelduler
        | Stack used (prev) :  000003A6 00000004
        | + function block  :  00000023 00000000
  01  LLC_SE_HNDL
      | Stack used (prev) :  000003C9 00000004
      | + function block  :  00000012 00000000
  <-Sub-tree of type: Indirectly called function tree that does not make
                    : indirect calls (Is not an interrupt and is not flagged
                    : as not overlayable)
    | Stack used          :  000003DB 00000004


  ->Sub-tree of type: Indirectly called function tree that does not make
                    : indirect calls (Is not an interrupt and is not flagged
                    : as not overlayable)
                             XSTACK   ISTACK
    | Stack used (prev) :  0000007A 00000002
  02    printf
        | Stack used (prev) :  0000032C 00000004
        | + function block  :  00000020 00000000
        |  Already listed
  02    STACK_FAILURE
        | Stack used (prev) :  0000007A 00000002
        | + function block  :  00000024 00000000
        |  Already listed
  01  LLC_RX_HNDL
      | Stack used (prev) :  0000034C 00000004
      | + function block  :  0000001C 00000000
  <-Sub-tree of type: Indirectly called function tree that does not make
                    : indirect calls (Is not an interrupt and is not flagged
                    : as not overlayable)
    | Stack used          :  00000368 00000004


  ->Sub-tree of type: Indirectly called function tree that does not make
                    : indirect calls (Is not an interrupt and is not flagged
                    : as not overlayable)
                             XSTACK   ISTACK
    | Stack used (prev) :  0000007A 00000002
  02    printf
        | Stack used (prev) :  0000032C 00000004
        | + function block  :  00000020 00000000
        |  Already listed
  02    STACK_FAILURE
        | Stack used (prev) :  0000007A 00000002
        | + function block  :  00000024 00000000
        |  Already listed
  05          __xdata_free
              | Stack used (prev) :  0000007A 00000002
              | + function block  :  00000018 00000000
              |  Already listed
  05          __xdata_GetMemChunk
              | Stack used (prev) :  0000007A 00000002
              | + function block  :  00000000 00000002
  04        __xdata_malloc
            | Stack used (prev) :  00000092 00000004
            | + function block  :  00000028 00000000
  03      malloc
          | Stack used (prev) :  000000BA 00000004
          | + function block  :  00000040 00000000
  03      free
          | Stack used (prev) :  00000092 00000002
          | + function block  :  00000040 00000000
          |  Already listed
  03      free
          | Stack used (prev) :  00000092 00000002
          | + function block  :  00000040 00000000
          |  Already listed
  03      free
          | Stack used (prev) :  00000092 00000002
          | + function block  :  00000040 00000000
          |  Already listed
  05          memset
              | Stack used (prev) :  0000007A 00000002
              | + function block  :  00000002 00000002
  05          memcpy
              | Stack used (prev) :  0000007A 00000002
              | + function block  :  0000000B 00000001
              |  Already listed
  04        AES_StreamCoder
            | Stack used (prev) :  00000085 00000004
            | + function block  :  000000A6 00000000
  03      RI_BitRawDecrypt
          | Stack used (prev) :  0000012B 00000004
          | + function block  :  0000004E 00000000
  04        NT_GetTime
            | Stack used (prev) :  0000001C 00000002
            | + function block  :  00000040 00000000
            |  Already listed
  05          Interval
              | Stack used (prev) :  0000007A 00000002
              | + function block  :  00000036 00000000
  04        TIM_passedTime
            | Stack used (prev) :  000000B0 00000002
            | + function block  :  0000007F 00000000
  04        TIM_TimeStamp
            | Stack used (prev) :  0000007A 00000002
            | + function block  :  0000005B 00000003
  04        TIM_TimeStamp
            | Stack used (prev) :  0000007A 00000002
            | + function block  :  0000005B 00000003
            |  Already listed
  03      RecvData
          | Stack used (prev) :  0000012F 00000005
          | + function block  :  00000070 00000000
  03      UnLoadRXData
          | Stack used (prev) :  0000007A 00000002
          | + function block  :  0000002E 00000003
  05          printf
              | Stack used (prev) :  0000032C 00000004
              | + function block  :  00000020 00000000
              |  Already listed
  05          STACK_FAILURE
              | Stack used (prev) :  0000007A 00000002
              | + function block  :  00000024 00000000
              |  Already listed
  04        setFreq
            | Stack used (prev) :  0000034C 00000004
            | + function block  :  0000001F 00000000
  03      RI_cfg
          | Stack used (prev) :  0000036B 00000004
          | + function block  :  00000030 00000004
  03      frame_insert_head
          | Stack used (prev) :  0000007A 00000002
          | + function block  :  0000009F 00000000
  04        printf
            | Stack used (prev) :  0000032C 00000004
            | + function block  :  00000020 00000000
            |  Already listed
  04        memset
            | Stack used (prev) :  0000007A 00000002
            | + function block  :  00000002 00000002
            |  Already listed
  04        STACK_FAILURE
            | Stack used (prev) :  0000007A 00000002
            | + function block  :  00000024 00000000
            |  Already listed
  04        malloc
            | Stack used (prev) :  000000BA 00000004
            | + function block  :  00000040 00000000
            |  Already listed
  03      frame_create
          | Stack used (prev) :  0000034C 00000004
          | + function block  :  000000B2 00000000
  04        printf
            | Stack used (prev) :  0000032C 00000004
            | + function block  :  00000020 00000000
            |  Already listed
  04        memset
            | Stack used (prev) :  0000007A 00000002
            | + function block  :  00000002 00000002
            |  Already listed
  04        memcpy
            | Stack used (prev) :  0000007A 00000002
            | + function block  :  0000000B 00000001
            |  Already listed
  04        STACK_FAILURE
            | Stack used (prev) :  0000007A 00000002
            | + function block  :  00000024 00000000
            |  Already listed
  04        STACK_FAILURE
            | Stack used (prev) :  0000007A 00000002
            | + function block  :  00000024 00000000
            |  Already listed
  04        malloc
            | Stack used (prev) :  000000BA 00000004
            | + function block  :  00000040 00000000
            |  Already listed
  03      fbuf_create
          | Stack used (prev) :  0000034C 00000004
          | + function block  :  000000BE 00000000
  03      TIM_passedTime
          | Stack used (prev) :  000000B0 00000002
          | + function block  :  0000007F 00000000
          |  Already listed
  03      TIM_TimeStamp
          | Stack used (prev) :  0000007A 00000002
          | + function block  :  0000005B 00000003
          |  Already listed
  03      TIM_TimeStamp
          | Stack used (prev) :  0000007A 00000002
          | + function block  :  0000005B 00000003
          |  Already listed
  02    RI_Receive
        | Stack used (prev) :  0000040A 00000008
        | + function block  :  00000090 00000000
  02    RI_SetChannel
        | Stack used (prev) :  0000007A 00000002
        | + function block  :  00000096 00000002
  03      free
          | Stack used (prev) :  00000092 00000002
          | + function block  :  00000040 00000000
          |  Already listed
  03      free
          | Stack used (prev) :  00000092 00000002
          | + function block  :  00000040 00000000
          |  Already listed
  02    frame_delete
        | Stack used (prev) :  000000D2 00000002
        | + function block  :  000000AE 00000000
  01  MAC_RX_HNDL
      | Stack used (prev) :  0000049A 00000008
      | + function block  :  00000018 00000000
  <-Sub-tree of type: Indirectly called function tree that does not make
                    : indirect calls (Is not an interrupt and is not flagged
                    : as not overlayable)
    | Stack used          :  000004B2 00000008


  ->Sub-tree of type: Indirectly called function tree that does not make
                    : indirect calls (Is not an interrupt and is not flagged
                    : as not overlayable)
                             XSTACK   ISTACK
    | Stack used (prev) :  0000007A 00000002
  02    printf
        | Stack used (prev) :  0000032C 00000004
        | + function block  :  00000020 00000000
        |  Already listed
  02    STACK_FAILURE
        | Stack used (prev) :  0000007A 00000002
        | + function block  :  00000024 00000000
        |  Already listed
  02    STACK_FAILURE
        | Stack used (prev) :  0000007A 00000002
        | + function block  :  00000024 00000000
        |  Already listed
  02    TIC_SetTXState
        | Stack used (prev) :  0000034C 00000004
        | + function block  :  00000028 00000000
        |  Already listed
  02    TIC_SetTXState
        | Stack used (prev) :  0000034C 00000004
        | + function block  :  00000028 00000000
        |  Already listed
  02    TIC_SetTXState
        | Stack used (prev) :  0000034C 00000004
        | + function block  :  00000028 00000000
        |  Already listed
  02    RI_Receive
        | Stack used (prev) :  0000040A 00000008
        | + function block  :  00000090 00000000
        |  Already listed
  03      printf
          | Stack used (prev) :  0000032C 00000004
          | + function block  :  00000020 00000000
          |  Already listed
  03      STACK_FAILURE
          | Stack used (prev) :  0000007A 00000002
          | + function block  :  00000024 00000000
          |  Already listed
  04        free
            | Stack used (prev) :  00000092 00000002
            | + function block  :  00000040 00000000
            |  Already listed
  05          AES_StreamCoder
              | Stack used (prev) :  00000085 00000004
              | + function block  :  000000A6 00000000
              |  Already listed
  04        RI_BitRawCrypt
            | Stack used (prev) :  0000012B 00000004
            | + function block  :  0000002F 00000000
  04        LoadTXData
            | Stack used (prev) :  0000007A 00000002
            | + function block  :  0000000F 00000002
  04        NT_WaitTime
            | Stack used (prev) :  0000007A 00000002
            | + function block  :  0000001B 00000000
  04        NT_GetTime
            | Stack used (prev) :  0000001C 00000002
            | + function block  :  00000040 00000000
            |  Already listed
  05          printf
              | Stack used (prev) :  0000032C 00000004
              | + function block  :  00000020 00000000
              |  Already listed
  05          memcpy
              | Stack used (prev) :  0000007A 00000002
              | + function block  :  0000000B 00000001
              |  Already listed
  05          STACK_FAILURE
              | Stack used (prev) :  0000007A 00000002
              | + function block  :  00000024 00000000
              |  Already listed
  05          STACK_FAILURE
              | Stack used (prev) :  0000007A 00000002
              | + function block  :  00000024 00000000
              |  Already listed
  05          malloc
              | Stack used (prev) :  000000BA 00000004
              | + function block  :  00000040 00000000
              |  Already listed
  05          frame_len
              | Stack used (prev) :  0000007A 00000002
              | + function block  :  0000001C 00000002
  04        frame_merge
            | Stack used (prev) :  0000034C 00000004
            | + function block  :  00000049 00000000
  03      SendData
          | Stack used (prev) :  00000395 00000004
          | + function block  :  00000042 00000000
  03      RI_cfg
          | Stack used (prev) :  0000036B 00000004
          | + function block  :  00000030 00000004
          |  Already listed
  03      TIM_passedTime
          | Stack used (prev) :  000000B0 00000002
          | + function block  :  0000007F 00000000
          |  Already listed
  03      TIM_TimeStamp
          | Stack used (prev) :  0000007A 00000002
          | + function block  :  0000005B 00000003
          |  Already listed
  03      TIM_TimeStamp
          | Stack used (prev) :  0000007A 00000002
          | + function block  :  0000005B 00000003
          |  Already listed
  02    RI_Send
        | Stack used (prev) :  000003D7 00000008
        | + function block  :  00000068 00000000
  02    RI_SetChannel
        | Stack used (prev) :  0000007A 00000002
        | + function block  :  00000096 00000002
        |  Already listed
  02    frame_delete
        | Stack used (prev) :  000000D2 00000002
        | + function block  :  000000AE 00000000
        |  Already listed
  02    frame_delete
        | Stack used (prev) :  000000D2 00000002
        | + function block  :  000000AE 00000000
        |  Already listed
  02    frame_delete
        | Stack used (prev) :  000000D2 00000002
        | + function block  :  000000AE 00000000
        |  Already listed
  03      Interval
          | Stack used (prev) :  0000007A 00000002
          | + function block  :  00000036 00000000
          |  Already listed
  03      TIM_TimeStamp
          | Stack used (prev) :  0000007A 00000002
          | + function block  :  0000005B 00000003
          |  Already listed
  03      TIM_TimeStamp
          | Stack used (prev) :  0000007A 00000002
          | + function block  :  0000005B 00000003
          |  Already listed
  02    TIM_delay
        | Stack used (prev) :  000000D5 00000005
        | + function block  :  00000070 00000000
  01  MAC_TX_HNDL
      | Stack used (prev) :  0000049A 00000008
      | + function block  :  00000018 00000000
  <-Sub-tree of type: Indirectly called function tree that does not make
                    : indirect calls (Is not an interrupt and is not flagged
                    : as not overlayable)
    | Stack used          :  000004B2 00000008


  ->Sub-tree of type: Indirectly called function tree that does not make
                    : indirect calls (Is not an interrupt and is not flagged
                    : as not overlayable)
                             XSTACK   ISTACK
    | Stack used (prev) :  0000007A 00000002
  02    printf
        | Stack used (prev) :  0000032C 00000004
        | + function block  :  00000020 00000000
        |  Already listed
  02    clocks_update
        | Stack used (prev) :  0000007A 00000002
        | + function block  :  00000018 00000000
  03      printf
          | Stack used (prev) :  0000032C 00000004
          | + function block  :  00000020 00000000
          |  Already listed
  03      STACK_FAILURE
          | Stack used (prev) :  0000007A 00000002
          | + function block  :  00000024 00000000
          |  Already listed
  02    Callback_execution
        | Stack used (prev) :  0000034C 00000004
        | + function block  :  0000002C 00000000
  02    Callback_execution
        | Stack used (prev) :  0000034C 00000004
        | + function block  :  0000002C 00000000
        |  Already listed
  02    Callback_execution
        | Stack used (prev) :  0000034C 00000004
        | + function block  :  0000002C 00000000
        |  Already listed
  05          printf
              | Stack used (prev) :  0000032C 00000004
              | + function block  :  00000020 00000000
              |  Already listed
  05          STACK_FAILURE
              | Stack used (prev) :  0000007A 00000002
              | + function block  :  00000024 00000000
              |  Already listed
  05          loadTimerCompare
              | Stack used (prev) :  0000007A 00000002
              | + function block  :  0000001C 00000000
  05          NT_IRQEnable
              | Stack used (prev) :  00000000 00000000
              | + function block  :  0000000F 00000000
              |  Already listed
  06            printf
                | Stack used (prev) :  0000032C 00000004
                | + function block  :  00000020 00000000
                |  Already listed
  06            ReadTimer
                | Stack used (prev) :  00000000 00000000
                | + function block  :  0000001C 00000002
                |  Already listed
  05          calcCompareTime
              | Stack used (prev) :  0000034C 00000002
              | + function block  :  0000004C 00000002
  04        NT_SetCompare
            | Stack used (prev) :  00000398 00000004
            | + function block  :  00000026 00000000
  03      set_capture_time
          | Stack used (prev) :  000003BE 00000004
          | + function block  :  00000013 00000000
  03      incrementTS
          | Stack used (prev) :  0000007A 00000002
          | + function block  :  00000001 00000002
  03      incrementTS
          | Stack used (prev) :  0000007A 00000002
          | + function block  :  00000001 00000002
          |  Already listed
  02    TIC_TDMAShelduler
        | Stack used (prev) :  000003D1 00000004
        | + function block  :  0000000E 00000004
  02    TIC_TDMAShelduler
        | Stack used (prev) :  000003D1 00000004
        | + function block  :  0000000E 00000004
        |  Already listed
  02    TIC_getCurrentTS
        | Stack used (prev) :  0000007A 00000002
        | + function block  :  00000016 00000000
  02    TIM_TimeStamp
        | Stack used (prev) :  0000007A 00000002
        | + function block  :  0000005B 00000003
        |  Already listed
  01  TIC_HW_Timer_IRQ
      | Stack used (prev) :  000003DF 00000008
      | + function block  :  00000018 00000000
  <-Sub-tree of type: Indirectly called function tree that does not make
                    : indirect calls (Is not an interrupt and is not flagged
                    : as not overlayable)
    | Stack used          :  000003F7 00000008


  ->Sub-tree of type: Indirectly called function tree that does not make
                    : indirect calls (Is not an interrupt and is not flagged
                    : as not overlayable)
                             XSTACK   ISTACK
    | Stack used (prev) :  0000007A 00000002
  02    LED
        | Stack used (prev) :  0000007A 00000002
        | + function block  :  00000034 00000000
  01  timealloc
      | Stack used (prev) :  000000AE 00000002
      | + function block  :  00000000 00000004
  <-Sub-tree of type: Indirectly called function tree that does not make
                    : indirect calls (Is not an interrupt and is not flagged
                    : as not overlayable)
    | Stack used          :  000000AE 00000006


  ->Sub-tree of type: Function tree
                             XSTACK   ISTACK
    | Stack used (prev) :  000004B2 00000008
  01  AES_init::?relay
      | Stack used (prev) :  000004B2 00000008
      | + function block  :  00000000 00000000
  <-Sub-tree of type: Function tree
    | Stack used          :  000004B2 00000008


  ->Sub-tree of type: Function tree
                             XSTACK   ISTACK
    | Stack used (prev) :  000004B2 00000008
  01  AES_StreamCoder::?relay
      | Stack used (prev) :  000004B2 00000008
      | + function block  :  00000000 00000000
  <-Sub-tree of type: Function tree
    | Stack used          :  000004B2 00000008


  ->Sub-tree of type: Function tree
                             XSTACK   ISTACK
    | Stack used (prev) :  000004B2 00000008
  01  TIM_init::?relay
      | Stack used (prev) :  000004B2 00000008
      | + function block  :  00000000 00000000
  <-Sub-tree of type: Function tree
    | Stack used          :  000004B2 00000008


  ->Sub-tree of type: Function tree
                             XSTACK   ISTACK
    | Stack used (prev) :  000004B2 00000008
  01  TIM_TimeStamp::?relay
      | Stack used (prev) :  000004B2 00000008
      | + function block  :  00000000 00000000
  <-Sub-tree of type: Function tree
    | Stack used          :  000004B2 00000008


  ->Sub-tree of type: Function tree
                             XSTACK   ISTACK
    | Stack used (prev) :  000004B2 00000008
  01  DelayCalibrate::?relay
      | Stack used (prev) :  000004B2 00000008
      | + function block  :  00000000 00000000
  <-Sub-tree of type: Function tree
    | Stack used          :  000004B2 00000008


  ->Sub-tree of type: Function tree
                             XSTACK   ISTACK
    | Stack used (prev) :  000004B2 00000008
  01  Interval::?relay
      | Stack used (prev) :  000004B2 00000008
      | + function block  :  00000000 00000000
  <-Sub-tree of type: Function tree
    | Stack used          :  000004B2 00000008


  ->Sub-tree of type: Function tree
                             XSTACK   ISTACK
    | Stack used (prev) :  000004B2 00000008
  01  TIM_passedTime::?relay
      | Stack used (prev) :  000004B2 00000008
      | + function block  :  00000000 00000000
  <-Sub-tree of type: Function tree
    | Stack used          :  000004B2 00000008


  ->Sub-tree of type: Function tree
                             XSTACK   ISTACK
    | Stack used (prev) :  000004B2 00000008
  01  TIM_delay::?relay
      | Stack used (prev) :  000004B2 00000008
      | + function block  :  00000000 00000000
  <-Sub-tree of type: Function tree
    | Stack used          :  000004B2 00000008


  ->Sub-tree of type: Function tree
                             XSTACK   ISTACK
    | Stack used (prev) :  000004B2 00000008
  01  fbuf_create::?relay
      | Stack used (prev) :  000004B2 00000008
      | + function block  :  00000000 00000000
  <-Sub-tree of type: Function tree
    | Stack used          :  000004B2 00000008


  ->Sub-tree of type: Function tree
                             XSTACK   ISTACK
    | Stack used (prev) :  000004B2 00000008
  01  frame_create::?relay
      | Stack used (prev) :  000004B2 00000008
      | + function block  :  00000000 00000000
  <-Sub-tree of type: Function tree
    | Stack used          :  000004B2 00000008


  ->Sub-tree of type: Function tree
                             XSTACK   ISTACK
    | Stack used (prev) :  000004B2 00000008
  01  frame_delete::?relay
      | Stack used (prev) :  000004B2 00000008
      | + function block  :  00000000 00000000
  <-Sub-tree of type: Function tree
    | Stack used          :  000004B2 00000008


  ->Sub-tree of type: Function tree
                             XSTACK   ISTACK
    | Stack used (prev) :  000004B2 00000008
  01  frame_insert_head::?relay
      | Stack used (prev) :  000004B2 00000008
      | + function block  :  00000000 00000000
  <-Sub-tree of type: Function tree
    | Stack used          :  000004B2 00000008


  ->Sub-tree of type: Function tree
                             XSTACK   ISTACK
    | Stack used (prev) :  000004B2 00000008
  01  frame_merge::?relay
      | Stack used (prev) :  000004B2 00000008
      | + function block  :  00000000 00000000
  <-Sub-tree of type: Function tree
    | Stack used          :  000004B2 00000008


  ->Sub-tree of type: Function tree
                             XSTACK   ISTACK
    | Stack used (prev) :  000004B2 00000008
  01  frame_len::?relay
      | Stack used (prev) :  000004B2 00000008
      | + function block  :  00000000 00000000
  <-Sub-tree of type: Function tree
    | Stack used          :  000004B2 00000008


  ->Sub-tree of type: Function tree
                             XSTACK   ISTACK
    | Stack used (prev) :  000004B2 00000008
  01  LLC_Init::?relay
      | Stack used (prev) :  000004B2 00000008
      | + function block  :  00000000 00000000
  <-Sub-tree of type: Function tree
    | Stack used          :  000004B2 00000008


  ->Sub-tree of type: Function tree
                             XSTACK   ISTACK
    | Stack used (prev) :  000004B2 00000008
  01  LLC_GetTaskLen::?relay
      | Stack used (prev) :  000004B2 00000008
      | + function block  :  00000000 00000000
  <-Sub-tree of type: Function tree
    | Stack used          :  000004B2 00000008


  ->Sub-tree of type: Function tree
                             XSTACK   ISTACK
    | Stack used (prev) :  000004B2 00000008
  01  LLC_TimeAlloc::?relay
      | Stack used (prev) :  000004B2 00000008
      | + function block  :  00000000 00000000
  <-Sub-tree of type: Function tree
    | Stack used          :  000004B2 00000008


  ->Sub-tree of type: Function tree
                             XSTACK   ISTACK
    | Stack used (prev) :  000004B2 00000008
  01  LLC_AddTask::?relay
      | Stack used (prev) :  000004B2 00000008
      | + function block  :  00000000 00000000
  <-Sub-tree of type: Function tree
    | Stack used          :  000004B2 00000008


  ->Sub-tree of type: Function tree
                             XSTACK   ISTACK
    | Stack used (prev) :  000004B2 00000008
  01  LLC_Shelduler::?relay
      | Stack used (prev) :  000004B2 00000008
      | + function block  :  00000000 00000000
  <-Sub-tree of type: Function tree
    | Stack used          :  000004B2 00000008


  ->Sub-tree of type: Function tree
                             XSTACK   ISTACK
    | Stack used (prev) :  000004B2 00000008
  01  LLC_SE_HNDL::?relay
      | Stack used (prev) :  000004B2 00000008
      | + function block  :  00000000 00000000
  <-Sub-tree of type: Function tree
    | Stack used          :  000004B2 00000008


  ->Sub-tree of type: Function tree
                             XSTACK   ISTACK
    | Stack used (prev) :  000004B2 00000008
  01  LLC_RX_HNDL::?relay
      | Stack used (prev) :  000004B2 00000008
      | + function block  :  00000000 00000000
  <-Sub-tree of type: Function tree
    | Stack used          :  000004B2 00000008


  ->Sub-tree of type: Function tree
                             XSTACK   ISTACK
    | Stack used (prev) :  000004B2 00000008
  01  LLC_RunTimeAlloc::?relay
      | Stack used (prev) :  000004B2 00000008
      | + function block  :  00000000 00000000
  <-Sub-tree of type: Function tree
    | Stack used          :  000004B2 00000008


  ->Sub-tree of type: Function tree
                             XSTACK   ISTACK
    | Stack used (prev) :  000004B2 00000008
  01  MAC_Init::?relay
      | Stack used (prev) :  000004B2 00000008
      | + function block  :  00000000 00000000
  <-Sub-tree of type: Function tree
    | Stack used          :  000004B2 00000008


  ->Sub-tree of type: Function tree
                             XSTACK   ISTACK
    | Stack used (prev) :  000004B2 00000008
  01  MAC_Send::?relay
      | Stack used (prev) :  000004B2 00000008
      | + function block  :  00000000 00000000
  <-Sub-tree of type: Function tree
    | Stack used          :  000004B2 00000008


  ->Sub-tree of type: Function tree
                             XSTACK   ISTACK
    | Stack used (prev) :  000004B2 00000008
  01  MAC_SetRXCallback::?relay
      | Stack used (prev) :  000004B2 00000008
      | + function block  :  00000000 00000000
  <-Sub-tree of type: Function tree
    | Stack used          :  000004B2 00000008


  ->Sub-tree of type: Function tree
                             XSTACK   ISTACK
    | Stack used (prev) :  000004B2 00000008
  01  MAC_GetTXState::?relay
      | Stack used (prev) :  000004B2 00000008
      | + function block  :  00000000 00000000
  <-Sub-tree of type: Function tree
    | Stack used          :  000004B2 00000008


  ->Sub-tree of type: Function tree
                             XSTACK   ISTACK
    | Stack used (prev) :  000004B2 00000008
  01  MAC_RX_HNDL::?relay
      | Stack used (prev) :  000004B2 00000008
      | + function block  :  00000000 00000000
  <-Sub-tree of type: Function tree
    | Stack used          :  000004B2 00000008


  ->Sub-tree of type: Function tree
                             XSTACK   ISTACK
    | Stack used (prev) :  000004B2 00000008
  01  MAC_TX_HNDL::?relay
      | Stack used (prev) :  000004B2 00000008
      | + function block  :  00000000 00000000
  <-Sub-tree of type: Function tree
    | Stack used          :  000004B2 00000008


  ->Sub-tree of type: Function tree
                             XSTACK   ISTACK
    | Stack used (prev) :  000004B2 00000008
  01  NT_SetTime::?relay
      | Stack used (prev) :  000004B2 00000008
      | + function block  :  00000000 00000000
  <-Sub-tree of type: Function tree
    | Stack used          :  000004B2 00000008


  ->Sub-tree of type: Function tree
                             XSTACK   ISTACK
    | Stack used (prev) :  000004B2 00000008
  01  calcCompareTime::?relay
      | Stack used (prev) :  000004B2 00000008
      | + function block  :  00000000 00000000
  <-Sub-tree of type: Function tree
    | Stack used          :  000004B2 00000008


  ->Sub-tree of type: Function tree
                             XSTACK   ISTACK
    | Stack used (prev) :  000004B2 00000008
  01  NT_SetCompare::?relay
      | Stack used (prev) :  000004B2 00000008
      | + function block  :  00000000 00000000
  <-Sub-tree of type: Function tree
    | Stack used          :  000004B2 00000008


  ->Sub-tree of type: Function tree
                             XSTACK   ISTACK
    | Stack used (prev) :  000004B2 00000008
  01  NT_IRQEnable::?relay
      | Stack used (prev) :  000004B2 00000008
      | + function block  :  00000000 00000000
  <-Sub-tree of type: Function tree
    | Stack used          :  000004B2 00000008


  ->Sub-tree of type: Function tree
                             XSTACK   ISTACK
    | Stack used (prev) :  000004B2 00000008
  01  isIRQEnable::?relay
      | Stack used (prev) :  000004B2 00000008
      | + function block  :  00000000 00000000
  <-Sub-tree of type: Function tree
    | Stack used          :  000004B2 00000008


  ->Sub-tree of type: Function tree
                             XSTACK   ISTACK
    | Stack used (prev) :  000004B2 00000008
  01  NT_SetEventCallback::?relay
      | Stack used (prev) :  000004B2 00000008
      | + function block  :  00000000 00000000
  <-Sub-tree of type: Function tree
    | Stack used          :  000004B2 00000008


  ->Sub-tree of type: Function tree
                             XSTACK   ISTACK
    | Stack used (prev) :  000004B2 00000008
  01  NT_GetTime::?relay
      | Stack used (prev) :  000004B2 00000008
      | + function block  :  00000000 00000000
  <-Sub-tree of type: Function tree
    | Stack used          :  000004B2 00000008


  ->Sub-tree of type: Function tree
                             XSTACK   ISTACK
    | Stack used (prev) :  000004B2 00000008
  01  NT_WaitTime::?relay
      | Stack used (prev) :  000004B2 00000008
      | + function block  :  00000000 00000000
  <-Sub-tree of type: Function tree
    | Stack used          :  000004B2 00000008


  ->Sub-tree of type: Function tree
                             XSTACK   ISTACK
    | Stack used (prev) :  000004B2 00000008
  01  ReadTimer::?relay
      | Stack used (prev) :  000004B2 00000008
      | + function block  :  00000000 00000000
  <-Sub-tree of type: Function tree
    | Stack used          :  000004B2 00000008


  ->Sub-tree of type: Function tree
                             XSTACK   ISTACK
    | Stack used (prev) :  000004B2 00000008
  01  loadTimerCompare::?relay
      | Stack used (prev) :  000004B2 00000008
      | + function block  :  00000000 00000000
  <-Sub-tree of type: Function tree
    | Stack used          :  000004B2 00000008


  ->Sub-tree of type: Function tree
                             XSTACK   ISTACK
    | Stack used (prev) :  000004B2 00000008
  01  uart_init::?relay
      | Stack used (prev) :  000004B2 00000008
      | + function block  :  00000000 00000000
  <-Sub-tree of type: Function tree
    | Stack used          :  000004B2 00000008


  ->Sub-tree of type: Function tree
                             XSTACK   ISTACK
    | Stack used (prev) :  000004B2 00000008
  01  SetCPU32M::?relay
      | Stack used (prev) :  000004B2 00000008
      | + function block  :  00000000 00000000
  <-Sub-tree of type: Function tree
    | Stack used          :  000004B2 00000008


  ->Sub-tree of type: Function tree
                             XSTACK   ISTACK
    | Stack used (prev) :  000004B2 00000008
  01  nwDebugerInit::?relay
      | Stack used (prev) :  000004B2 00000008
      | + function block  :  00000000 00000000
  <-Sub-tree of type: Function tree
    | Stack used          :  000004B2 00000008


  ->Sub-tree of type: Function tree
                             XSTACK   ISTACK
    | Stack used (prev) :  000004B2 00000008
  01  MyLowLevelPutchar::?relay
      | Stack used (prev) :  000004B2 00000008
      | + function block  :  00000000 00000000
  <-Sub-tree of type: Function tree
    | Stack used          :  000004B2 00000008


  ->Sub-tree of type: Function tree
                             XSTACK   ISTACK
    | Stack used (prev) :  000004B2 00000008
  01  __write::?relay
      | Stack used (prev) :  000004B2 00000008
      | + function block  :  00000000 00000000
  <-Sub-tree of type: Function tree
    | Stack used          :  000004B2 00000008


  ->Sub-tree of type: Function tree
                             XSTACK   ISTACK
    | Stack used (prev) :  000004B2 00000008
  01  RI_setIV::?relay
      | Stack used (prev) :  000004B2 00000008
      | + function block  :  00000000 00000000
  <-Sub-tree of type: Function tree
    | Stack used          :  000004B2 00000008


  ->Sub-tree of type: Function tree
                             XSTACK   ISTACK
    | Stack used (prev) :  000004B2 00000008
  01  RI_setKEY::?relay
      | Stack used (prev) :  000004B2 00000008
      | + function block  :  00000000 00000000
  <-Sub-tree of type: Function tree
    | Stack used          :  000004B2 00000008


  ->Sub-tree of type: Function tree
                             XSTACK   ISTACK
    | Stack used (prev) :  000004B2 00000008
  01  RI_init::?relay
      | Stack used (prev) :  000004B2 00000008
      | + function block  :  00000000 00000000
  <-Sub-tree of type: Function tree
    | Stack used          :  000004B2 00000008


  ->Sub-tree of type: Function tree
                             XSTACK   ISTACK
    | Stack used (prev) :  000004B2 00000008
  01  RI_cfg::?relay
      | Stack used (prev) :  000004B2 00000008
      | + function block  :  00000000 00000000
  <-Sub-tree of type: Function tree
    | Stack used          :  000004B2 00000008


  ->Sub-tree of type: Function tree
                             XSTACK   ISTACK
    | Stack used (prev) :  000004B2 00000008
  01  RI_SetChannel::?relay
      | Stack used (prev) :  000004B2 00000008
      | + function block  :  00000000 00000000
  <-Sub-tree of type: Function tree
    | Stack used          :  000004B2 00000008


  ->Sub-tree of type: Function tree
                             XSTACK   ISTACK
    | Stack used (prev) :  000004B2 00000008
  01  RI_Send::?relay
      | Stack used (prev) :  000004B2 00000008
      | + function block  :  00000000 00000000
  <-Sub-tree of type: Function tree
    | Stack used          :  000004B2 00000008


  ->Sub-tree of type: Function tree
                             XSTACK   ISTACK
    | Stack used (prev) :  000004B2 00000008
  01  SendData::?relay
      | Stack used (prev) :  000004B2 00000008
      | + function block  :  00000000 00000000
  <-Sub-tree of type: Function tree
    | Stack used          :  000004B2 00000008


  ->Sub-tree of type: Function tree
                             XSTACK   ISTACK
    | Stack used (prev) :  000004B2 00000008
  01  LoadTXData::?relay
      | Stack used (prev) :  000004B2 00000008
      | + function block  :  00000000 00000000
  <-Sub-tree of type: Function tree
    | Stack used          :  000004B2 00000008


  ->Sub-tree of type: Function tree
                             XSTACK   ISTACK
    | Stack used (prev) :  000004B2 00000008
  01  UnLoadRXData::?relay
      | Stack used (prev) :  000004B2 00000008
      | + function block  :  00000000 00000000
  <-Sub-tree of type: Function tree
    | Stack used          :  000004B2 00000008


  ->Sub-tree of type: Function tree
                             XSTACK   ISTACK
    | Stack used (prev) :  000004B2 00000008
  01  setFreq::?relay
      | Stack used (prev) :  000004B2 00000008
      | + function block  :  00000000 00000000
  <-Sub-tree of type: Function tree
    | Stack used          :  000004B2 00000008


  ->Sub-tree of type: Function tree
                             XSTACK   ISTACK
    | Stack used (prev) :  000004B2 00000008
  01  RI_Receive::?relay
      | Stack used (prev) :  000004B2 00000008
      | + function block  :  00000000 00000000
  <-Sub-tree of type: Function tree
    | Stack used          :  000004B2 00000008


  ->Sub-tree of type: Function tree
                             XSTACK   ISTACK
    | Stack used (prev) :  000004B2 00000008
  01  RecvData::?relay
      | Stack used (prev) :  000004B2 00000008
      | + function block  :  00000000 00000000
  <-Sub-tree of type: Function tree
    | Stack used          :  000004B2 00000008


  ->Sub-tree of type: Function tree
                             XSTACK   ISTACK
    | Stack used (prev) :  000004B2 00000008
  01  bits_count::?relay
      | Stack used (prev) :  000004B2 00000008
      | + function block  :  00000000 00000000
  <-Sub-tree of type: Function tree
    | Stack used          :  000004B2 00000008


  ->Sub-tree of type: Function tree
                             XSTACK   ISTACK
    | Stack used (prev) :  000004B2 00000008
  01  getRNDByte::?relay
      | Stack used (prev) :  000004B2 00000008
      | + function block  :  00000000 00000000
  <-Sub-tree of type: Function tree
    | Stack used          :  000004B2 00000008


  ->Sub-tree of type: Function tree
                             XSTACK   ISTACK
    | Stack used (prev) :  000004B2 00000008
  01  readRandom::?relay
      | Stack used (prev) :  000004B2 00000008
      | + function block  :  00000000 00000000
  <-Sub-tree of type: Function tree
    | Stack used          :  000004B2 00000008


  ->Sub-tree of type: Function tree
                             XSTACK   ISTACK
    | Stack used (prev) :  000004B2 00000008
  01  random_core_init::?relay
      | Stack used (prev) :  000004B2 00000008
      | + function block  :  00000000 00000000
  <-Sub-tree of type: Function tree
    | Stack used          :  000004B2 00000008


  ->Sub-tree of type: Function tree
                             XSTACK   ISTACK
    | Stack used (prev) :  000004B2 00000008
  01  RI_StreamCrypt::?relay
      | Stack used (prev) :  000004B2 00000008
      | + function block  :  00000000 00000000
  <-Sub-tree of type: Function tree
    | Stack used          :  000004B2 00000008


  ->Sub-tree of type: Function tree
                             XSTACK   ISTACK
    | Stack used (prev) :  000004B2 00000008
  01  RI_BitRawCrypt::?relay
      | Stack used (prev) :  000004B2 00000008
      | + function block  :  00000000 00000000
  <-Sub-tree of type: Function tree
    | Stack used          :  000004B2 00000008


  ->Sub-tree of type: Function tree
                             XSTACK   ISTACK
    | Stack used (prev) :  000004B2 00000008
  01  RI_BitRawDecrypt::?relay
      | Stack used (prev) :  000004B2 00000008
      | + function block  :  00000000 00000000
  <-Sub-tree of type: Function tree
    | Stack used          :  000004B2 00000008


  ->Sub-tree of type: Function tree
                             XSTACK   ISTACK
    | Stack used (prev) :  000004B2 00000008
  01  TIC_Init::?relay
      | Stack used (prev) :  000004B2 00000008
      | + function block  :  00000000 00000000
  <-Sub-tree of type: Function tree
    | Stack used          :  000004B2 00000008


  ->Sub-tree of type: Function tree
                             XSTACK   ISTACK
    | Stack used (prev) :  000004B2 00000008
  01  TIC_SetTimer::?relay
      | Stack used (prev) :  000004B2 00000008
      | + function block  :  00000000 00000000
  <-Sub-tree of type: Function tree
    | Stack used          :  000004B2 00000008


  ->Sub-tree of type: Function tree
                             XSTACK   ISTACK
    | Stack used (prev) :  000004B2 00000008
  01  TIC_SetTXState::?relay
      | Stack used (prev) :  000004B2 00000008
      | + function block  :  00000000 00000000
  <-Sub-tree of type: Function tree
    | Stack used          :  000004B2 00000008


  ->Sub-tree of type: Function tree
                             XSTACK   ISTACK
    | Stack used (prev) :  000004B2 00000008
  01  TIC_SetRXCallback::?relay
      | Stack used (prev) :  000004B2 00000008
      | + function block  :  00000000 00000000
  <-Sub-tree of type: Function tree
    | Stack used          :  000004B2 00000008


  ->Sub-tree of type: Function tree
                             XSTACK   ISTACK
    | Stack used (prev) :  000004B2 00000008
  01  TIC_SetTXCallback::?relay
      | Stack used (prev) :  000004B2 00000008
      | + function block  :  00000000 00000000
  <-Sub-tree of type: Function tree
    | Stack used          :  000004B2 00000008


  ->Sub-tree of type: Function tree
                             XSTACK   ISTACK
    | Stack used (prev) :  000004B2 00000008
  01  TIC_SetSECallback::?relay
      | Stack used (prev) :  000004B2 00000008
      | + function block  :  00000000 00000000
  <-Sub-tree of type: Function tree
    | Stack used          :  000004B2 00000008


  ->Sub-tree of type: Function tree
                             XSTACK   ISTACK
    | Stack used (prev) :  000004B2 00000008
  01  TIC_getCurrentTS::?relay
      | Stack used (prev) :  000004B2 00000008
      | + function block  :  00000000 00000000
  <-Sub-tree of type: Function tree
    | Stack used          :  000004B2 00000008


  ->Sub-tree of type: Function tree
                             XSTACK   ISTACK
    | Stack used (prev) :  000004B2 00000008
  01  incrementTS::?relay
      | Stack used (prev) :  000004B2 00000008
      | + function block  :  00000000 00000000
  <-Sub-tree of type: Function tree
    | Stack used          :  000004B2 00000008


  ->Sub-tree of type: Function tree
                             XSTACK   ISTACK
    | Stack used (prev) :  000004B2 00000008
  01  set_capture_time::?relay
      | Stack used (prev) :  000004B2 00000008
      | + function block  :  00000000 00000000
  <-Sub-tree of type: Function tree
    | Stack used          :  000004B2 00000008


  ->Sub-tree of type: Function tree
                             XSTACK   ISTACK
    | Stack used (prev) :  000004B2 00000008
  01  TIC_TDMAShelduler::?relay
      | Stack used (prev) :  000004B2 00000008
      | + function block  :  00000000 00000000
  <-Sub-tree of type: Function tree
    | Stack used          :  000004B2 00000008


  ->Sub-tree of type: Function tree
                             XSTACK   ISTACK
    | Stack used (prev) :  000004B2 00000008
  01  Callback_execution::?relay
      | Stack used (prev) :  000004B2 00000008
      | + function block  :  00000000 00000000
  <-Sub-tree of type: Function tree
    | Stack used          :  000004B2 00000008


  ->Sub-tree of type: Function tree
                             XSTACK   ISTACK
    | Stack used (prev) :  000004B2 00000008
  01  TIC_HW_Timer_IRQ::?relay
      | Stack used (prev) :  000004B2 00000008
      | + function block  :  00000000 00000000
  <-Sub-tree of type: Function tree
    | Stack used          :  000004B2 00000008


  ->Sub-tree of type: Function tree
                             XSTACK   ISTACK
    | Stack used (prev) :  000004B2 00000008
  01  clocks_update::?relay
      | Stack used (prev) :  000004B2 00000008
      | + function block  :  00000000 00000000
  <-Sub-tree of type: Function tree
    | Stack used          :  000004B2 00000008


  ->Sub-tree of type: Function tree
                             XSTACK   ISTACK
    | Stack used (prev) :  000004B2 00000008
  01  timealloc::?relay
      | Stack used (prev) :  000004B2 00000008
      | + function block  :  00000000 00000000
  <-Sub-tree of type: Function tree
    | Stack used          :  000004B2 00000008


  ->Sub-tree of type: Function tree
                             XSTACK   ISTACK
    | Stack used (prev) :  000004B2 00000008
  01  getFrame::?relay
      | Stack used (prev) :  000004B2 00000008
      | + function block  :  00000000 00000000
  <-Sub-tree of type: Function tree
    | Stack used          :  000004B2 00000008


  ->Sub-tree of type: Function tree
                             XSTACK   ISTACK
    | Stack used (prev) :  000004B2 00000008
  01  test_create::?relay
      | Stack used (prev) :  000004B2 00000008
      | + function block  :  00000000 00000000
  <-Sub-tree of type: Function tree
    | Stack used          :  000004B2 00000008


  ->Sub-tree of type: Function tree
                             XSTACK   ISTACK
    | Stack used (prev) :  000004B2 00000008
  01  suite_LLC_HW::?relay
      | Stack used (prev) :  000004B2 00000008
      | + function block  :  00000000 00000000
  <-Sub-tree of type: Function tree
    | Stack used          :  000004B2 00000008


  ->Sub-tree of type: Function tree
                             XSTACK   ISTACK
    | Stack used (prev) :  000004B2 00000008
  01  utestSigTraceInit::?relay
      | Stack used (prev) :  000004B2 00000008
      | + function block  :  00000000 00000000
  <-Sub-tree of type: Function tree
    | Stack used          :  000004B2 00000008


  ->Sub-tree of type: Function tree
                             XSTACK   ISTACK
    | Stack used (prev) :  000004B2 00000008
  01  LED::?relay
      | Stack used (prev) :  000004B2 00000008
      | + function block  :  00000000 00000000
  <-Sub-tree of type: Function tree
    | Stack used          :  000004B2 00000008


  ->Sub-tree of type: Function tree
                             XSTACK   ISTACK
    | Stack used (prev) :  000004B2 00000008
  01  umsg_line::?relay
      | Stack used (prev) :  000004B2 00000008
      | + function block  :  00000000 00000000
  <-Sub-tree of type: Function tree
    | Stack used          :  000004B2 00000008


  ->Sub-tree of type: Function tree
                             XSTACK   ISTACK
    | Stack used (prev) :  000004B2 00000008
  01  umsg_summary::?relay
      | Stack used (prev) :  000004B2 00000008
      | + function block  :  00000000 00000000
  <-Sub-tree of type: Function tree
    | Stack used          :  000004B2 00000008


  ->Sub-tree of type: Function tree
                             XSTACK   ISTACK
    | Stack used (prev) :  000004B2 00000008
  01  free::?relay
      | Stack used (prev) :  000004B2 00000008
      | + function block  :  00000000 00000000
  <-Sub-tree of type: Function tree
    | Stack used          :  000004B2 00000008


  ->Sub-tree of type: Function tree
                             XSTACK   ISTACK
    | Stack used (prev) :  000004B2 00000008
  01  malloc::?relay
      | Stack used (prev) :  000004B2 00000008
      | + function block  :  00000000 00000000
  <-Sub-tree of type: Function tree
    | Stack used          :  000004B2 00000008


  ->Sub-tree of type: Function tree
                             XSTACK   ISTACK
    | Stack used (prev) :  000004B2 00000008
  01  STACK_FAILURE::?relay
      | Stack used (prev) :  000004B2 00000008
      | + function block  :  00000000 00000000
  <-Sub-tree of type: Function tree
    | Stack used          :  000004B2 00000008


  ->Sub-tree of type: Function tree
                             XSTACK   ISTACK
    | Stack used (prev) :  000004B2 00000008
  01  __DebugBreak::?relay
      | Stack used (prev) :  000004B2 00000008
      | + function block  :  00000000 00000000
  <-Sub-tree of type: Function tree
    | Stack used          :  000004B2 00000008


  ->Sub-tree of type: Function tree
                             XSTACK   ISTACK
    | Stack used (prev) :  000004B2 00000008
  01  _exit::?relay
      | Stack used (prev) :  000004B2 00000008
      | + function block  :  00000000 00000000
  <-Sub-tree of type: Function tree
    | Stack used          :  000004B2 00000008


  ->Sub-tree of type: Function tree
                             XSTACK   ISTACK
    | Stack used (prev) :  000004B2 00000008
  06            MyLowLevelPutchar
                | Stack used (prev) :  000004B2 00000008
                | + function block  :  00000010 00000000
  05          __write
              | Stack used (prev) :  000004C2 00000008
              | + function block  :  00000022 00000000
  04        _Close_all
            | Stack used (prev) :  000004E4 00000008
            | + function block  :  00000018 00000000
  04        __call_dtors
            | Stack used (prev) :  000004B2 00000008
            | + function block  :  00000000 00000002
  05          __DebugBreak
              | Stack used (prev) :  000004B2 00000008
              | + function block  :  00000000 00000000
  04        __exit
            | Stack used (prev) :  000004B2 00000008
            | + function block  :  00000016 00000000
  03      _exit
          | Stack used (prev) :  000004FC 0000000A
          | + function block  :  00000000 00000000
  02    exit
        | Stack used (prev) :  000004FC 0000000A
        | + function block  :  00000000 00000004
  01  ?cmain
      | Stack used (prev) :  000004FC 0000000E
      | + function block  :  00000000 00000000
  <-Sub-tree of type: Function tree
    | Stack used          :  000004FC 0000000E


  ->Sub-tree of type: Function tree
                             XSTACK   ISTACK
    | Stack used (prev) :  000004FC 0000000E
  03      printf
          | Stack used (prev) :  0000032C 00000004
          | + function block  :  00000020 00000000
          |  Already listed
  04        printf
            | Stack used (prev) :  0000032C 00000004
            | + function block  :  00000020 00000000
            |  Already listed
  05          printf
              | Stack used (prev) :  0000032C 00000004
              | + function block  :  00000020 00000000
              |  Already listed
  04        umsg_line
            | Stack used (prev) :  000004FC 0000000E
            | + function block  :  0000000C 00000000
  03      umsg_summary
          | Stack used (prev) :  00000508 0000000E
          | + function block  :  00000000 00000004
  03      utestSigTraceInit
          | Stack used (prev) :  000004FC 0000000E
          | + function block  :  00000000 00000000
  05          printf
              | Stack used (prev) :  0000032C 00000004
              | + function block  :  00000020 00000000
              |  Already listed
  06            frame_insert_head
                | Stack used (prev) :  0000007A 00000002
                | + function block  :  0000009F 00000000
                |  Already listed
  06            frame_create
                | Stack used (prev) :  0000034C 00000004
                | + function block  :  000000B2 00000000
                |  Already listed
  06            fbuf_create
                | Stack used (prev) :  0000034C 00000004
                | + function block  :  000000BE 00000000
                |  Already listed
  05          getFrame
              | Stack used (prev) :  000004FC 0000000E
              | + function block  :  0000002C 00000001
  05          getFrame
              | Stack used (prev) :  000004FC 0000000E
              | + function block  :  0000002C 00000001
              |  Already listed
  06            printf
                | Stack used (prev) :  0000032C 00000004
                | + function block  :  00000020 00000000
                |  Already listed
  06            STACK_FAILURE
                | Stack used (prev) :  0000007A 00000002
                | + function block  :  00000024 00000000
                |  Already listed
  06            STACK_FAILURE
                | Stack used (prev) :  0000007A 00000002
                | + function block  :  00000024 00000000
                |  Already listed
  06            malloc
                | Stack used (prev) :  000000BA 00000004
                | + function block  :  00000040 00000000
                |  Already listed
  05          LLC_AddTask
              | Stack used (prev) :  000004FC 0000000E
              | + function block  :  0000002C 00000001
  06            printf
                | Stack used (prev) :  0000032C 00000004
                | + function block  :  00000020 00000000
                |  Already listed
  06            STACK_FAILURE
                | Stack used (prev) :  0000007A 00000002
                | + function block  :  00000024 00000000
                |  Already listed
  06            malloc
                | Stack used (prev) :  000000BA 00000004
                | + function block  :  00000040 00000000
                |  Already listed
  05          LLC_TimeAlloc
              | Stack used (prev) :  000004FC 0000000E
              | + function block  :  0000002A 00000000
  05          LLC_GetTaskLen
              | Stack used (prev) :  000004FC 0000000E
              | + function block  :  0000001A 00000002
  07              printf
                  | Stack used (prev) :  0000032C 00000004
                  | + function block  :  00000020 00000000
                  |  Already listed
  07              STACK_FAILURE
                  | Stack used (prev) :  0000007A 00000002
                  | + function block  :  00000024 00000000
                  |  Already listed
  06            TIC_SetSECallback
                | Stack used (prev) :  000004FC 0000000E
                | + function block  :  00000028 00000000
  06            MAC_SetRXCallback
                | Stack used (prev) :  000004FC 0000000E
                | + function block  :  00000000 00000002
  07              memset
                  | Stack used (prev) :  0000007A 00000002
                  | + function block  :  00000002 00000002
                  |  Already listed
  08                printf
                    | Stack used (prev) :  0000032C 00000004
                    | + function block  :  00000020 00000000
                    |  Already listed
  08                STACK_FAILURE
                    | Stack used (prev) :  0000007A 00000002
                    | + function block  :  00000024 00000000
                    |  Already listed
  07              TIC_SetTXCallback
                  | Stack used (prev) :  000004FC 0000000E
                  | + function block  :  0000001A 00000000
  08                printf
                    | Stack used (prev) :  0000032C 00000004
                    | + function block  :  00000020 00000000
                    |  Already listed
  08                STACK_FAILURE
                    | Stack used (prev) :  0000007A 00000002
                    | + function block  :  00000024 00000000
                    |  Already listed
  07              TIC_SetRXCallback
                  | Stack used (prev) :  000004FC 0000000E
                  | + function block  :  0000001A 00000000
  09                  printf
                      | Stack used (prev) :  0000032C 00000004
                      | + function block  :  00000020 00000000
                      |  Already listed
  09                  STACK_FAILURE
                      | Stack used (prev) :  0000007A 00000002
                      | + function block  :  00000024 00000000
                      |  Already listed
  10                    printf
                        | Stack used (prev) :  0000032C 00000004
                        | + function block  :  00000020 00000000
                        |  Already listed
  10                    STACK_FAILURE
                        | Stack used (prev) :  0000007A 00000002
                        | + function block  :  00000024 00000000
                        |  Already listed
  10                    ReadTimer
                        | Stack used (prev) :  00000000 00000000
                        | + function block  :  0000001C 00000002
                        |  Already listed
  10                    isIRQEnable
                        | Stack used (prev) :  000004FC 0000000E
                        | + function block  :  0000000E 00000000
  10                    NT_SetCompare
                        | Stack used (prev) :  00000398 00000004
                        | + function block  :  00000026 00000000
                        |  Already listed
  09                  NT_SetTime
                      | Stack used (prev) :  0000050A 0000000E
                      | + function block  :  00000026 00000000
  08                TIC_SetTimer
                    | Stack used (prev) :  00000530 0000000E
                    | + function block  :  00000014 00000000
  08                NT_SetEventCallback
                    | Stack used (prev) :  000004FC 0000000E
                    | + function block  :  00000009 00000002
  08                NT_SetCompare
                    | Stack used (prev) :  00000398 00000004
                    | + function block  :  00000026 00000000
                    |  Already listed
  08                TIM_TimeStamp
                    | Stack used (prev) :  0000007A 00000002
                    | + function block  :  0000005B 00000003
                    |  Already listed
  07              TIC_Init
                  | Stack used (prev) :  00000544 00000010
                  | + function block  :  00000096 00000004
  07              RI_StreamCrypt
                  | Stack used (prev) :  000004FC 0000000E
                  | + function block  :  00000096 00000002
  09                  srand
                      | Stack used (prev) :  000004FC 0000000E
                      | + function block  :  0000000C 00000000
  09                  rand
                      | Stack used (prev) :  000004FC 0000000E
                      | + function block  :  00000010 00000000
  10                    getRNDByte
                        | Stack used (prev) :  000004FC 0000000E
                        | + function block  :  00000009 00000002
  10                    getRNDByte
                        | Stack used (prev) :  000004FC 0000000E
                        | + function block  :  00000009 00000002
                        |  Already listed
  10                    getRNDByte
                        | Stack used (prev) :  000004FC 0000000E
                        | + function block  :  00000009 00000002
                        |  Already listed
  10                    bits_count
                        | Stack used (prev) :  000004FC 0000000E
                        | + function block  :  00000009 00000000
  09                  readRandom
                      | Stack used (prev) :  00000505 00000010
                      | + function block  :  0000001B 00000000
  09                  readRandom
                      | Stack used (prev) :  00000505 00000010
                      | + function block  :  0000001B 00000000
                      |  Already listed
  09                  RI_cfg
                      | Stack used (prev) :  0000036B 00000004
                      | + function block  :  00000030 00000004
                      |  Already listed
  08                random_core_init
                    | Stack used (prev) :  00000520 00000010
                    | + function block  :  00000012 00000000
  07              RI_init
                  | Stack used (prev) :  00000532 00000010
                  | + function block  :  00000096 00000004
  08                memcpy
                    | Stack used (prev) :  0000007A 00000002
                    | + function block  :  0000000B 00000001
                    |  Already listed
  07              RI_setKEY
                  | Stack used (prev) :  000004FC 0000000E
                  | + function block  :  000000A2 00000000
  08                memcpy
                    | Stack used (prev) :  0000007A 00000002
                    | + function block  :  0000000B 00000001
                    |  Already listed
  07              RI_setIV
                  | Stack used (prev) :  000004FC 0000000E
                  | + function block  :  000000A2 00000000
  09                  TIM_delay
                      | Stack used (prev) :  000000D5 00000005
                      | + function block  :  00000070 00000000
                      |  Already listed
  09                  TIM_passedTime
                      | Stack used (prev) :  000000B0 00000002
                      | + function block  :  0000007F 00000000
                      |  Already listed
  09                  TIM_TimeStamp
                      | Stack used (prev) :  0000007A 00000002
                      | + function block  :  0000005B 00000003
                      |  Already listed
  09                  TIM_TimeStamp
                      | Stack used (prev) :  0000007A 00000002
                      | + function block  :  0000005B 00000003
                      |  Already listed
  08                DelayCalibrate
                    | Stack used (prev) :  000004FC 0000000E
                    | + function block  :  00000028 00000000
  07              TIM_init
                  | Stack used (prev) :  00000524 0000000E
                  | + function block  :  000000BC 00000004
  07              AES_init
                  | Stack used (prev) :  000004FC 0000000E
                  | + function block  :  000000BC 00000002
  06            MAC_Init
                | Stack used (prev) :  000005E0 00000014
                | + function block  :  0000003E 00000000
  05          LLC_Init
              | Stack used (prev) :  0000061E 00000014
              | + function block  :  0000001A 00000004
  05          frame_len
              | Stack used (prev) :  0000007A 00000002
              | + function block  :  0000001C 00000002
              |  Already listed
  05          frame_delete
              | Stack used (prev) :  000000D2 00000002
              | + function block  :  000000AE 00000000
              |  Already listed
  04        test_create
            | Stack used (prev) :  00000638 00000018
            | + function block  :  00000034 00000000
  03      suite_LLC_HW
          | Stack used (prev) :  0000066C 00000018
          | + function block  :  00000000 00000004
  04        SetCPU32M
            | Stack used (prev) :  000004FC 0000000E
            | + function block  :  00000000 00000000
  04        uart_init
            | Stack used (prev) :  000004FC 0000000E
            | + function block  :  00000000 00000000
  03      nwDebugerInit
          | Stack used (prev) :  000004FC 0000000E
          | + function block  :  00000000 00000004
  02    main
        | Stack used (prev) :  0000066C 0000001C
        | + function block  :  00000000 00000000
  01  ?call_main
      | Stack used (prev) :  0000066C 0000001C
      | + function block  :  00000000 00000000
  <-Sub-tree of type: Function tree
    | Stack used          :  0000066C 0000001C


  ->Sub-tree of type: Function tree
                             XSTACK   ISTACK
    | Stack used (prev) :  0000066C 0000001C
  01  __program_start
      | Stack used (prev) :  0000066C 0000001C
      | + function block  :  00000000 00000000
  <-Sub-tree of type: Function tree
    | Stack used          :  0000066C 0000001C


  ->Sub-tree of type: Function tree
                             XSTACK   ISTACK
    | Stack used (prev) :  0000066C 0000001C
  01  div::?relay
      | Stack used (prev) :  0000066C 0000001C
      | + function block  :  00000000 00000000
  <-Sub-tree of type: Function tree
    | Stack used          :  0000066C 0000001C


  ->Sub-tree of type: Function tree
                             XSTACK   ISTACK
    | Stack used (prev) :  0000066C 0000001C
  01  __iar_Memchr::?relay
      | Stack used (prev) :  0000066C 0000001C
      | + function block  :  00000000 00000000
  <-Sub-tree of type: Function tree
    | Stack used          :  0000066C 0000001C


  ->Sub-tree of type: Function tree
                             XSTACK   ISTACK
    | Stack used (prev) :  0000066C 0000001C
  01  memcpy::?relay
      | Stack used (prev) :  0000066C 0000001C
      | + function block  :  00000000 00000000
  <-Sub-tree of type: Function tree
    | Stack used          :  0000066C 0000001C


  ->Sub-tree of type: Function tree
                             XSTACK   ISTACK
    | Stack used (prev) :  0000066C 0000001C
  01  memset::?relay
      | Stack used (prev) :  0000066C 0000001C
      | + function block  :  00000000 00000000
  <-Sub-tree of type: Function tree
    | Stack used          :  0000066C 0000001C


  ->Sub-tree of type: Function tree
                             XSTACK   ISTACK
    | Stack used (prev) :  0000066C 0000001C
  01  printf::?relay
      | Stack used (prev) :  0000066C 0000001C
      | + function block  :  00000000 00000000
  <-Sub-tree of type: Function tree
    | Stack used          :  0000066C 0000001C


  ->Sub-tree of type: Function tree
                             XSTACK   ISTACK
    | Stack used (prev) :  0000066C 0000001C
  01  putchar::?relay
      | Stack used (prev) :  0000066C 0000001C
      | + function block  :  00000000 00000000
  <-Sub-tree of type: Function tree
    | Stack used          :  0000066C 0000001C


  ->Sub-tree of type: Function tree
                             XSTACK   ISTACK
    | Stack used (prev) :  0000066C 0000001C
  01  rand::?relay
      | Stack used (prev) :  0000066C 0000001C
      | + function block  :  00000000 00000000
  <-Sub-tree of type: Function tree
    | Stack used          :  0000066C 0000001C


  ->Sub-tree of type: Function tree
                             XSTACK   ISTACK
    | Stack used (prev) :  0000066C 0000001C
  01  srand::?relay
      | Stack used (prev) :  0000066C 0000001C
      | + function block  :  00000000 00000000
  <-Sub-tree of type: Function tree
    | Stack used          :  0000066C 0000001C


  ->Sub-tree of type: Function tree
                             XSTACK   ISTACK
    | Stack used (prev) :  0000066C 0000001C
  01  __iar_Strchr::?relay
      | Stack used (prev) :  0000066C 0000001C
      | + function block  :  00000000 00000000
  <-Sub-tree of type: Function tree
    | Stack used          :  0000066C 0000001C


  ->Sub-tree of type: Function tree
                             XSTACK   ISTACK
    | Stack used (prev) :  0000066C 0000001C
  01  strlen::?relay
      | Stack used (prev) :  0000066C 0000001C
      | + function block  :  00000000 00000000
  <-Sub-tree of type: Function tree
    | Stack used          :  0000066C 0000001C


  ->Sub-tree of type: Function tree
                             XSTACK   ISTACK
    | Stack used (prev) :  0000066C 0000001C
  01  __xdata_GetMemChunk::?relay
      | Stack used (prev) :  0000066C 0000001C
      | + function block  :  00000000 00000000
  <-Sub-tree of type: Function tree
    | Stack used          :  0000066C 0000001C


  ->Sub-tree of type: Function tree
                             XSTACK   ISTACK
    | Stack used (prev) :  0000066C 0000001C
  01  _PrintfLarge::?relay
      | Stack used (prev) :  0000066C 0000001C
      | + function block  :  00000000 00000000
  <-Sub-tree of type: Function tree
    | Stack used          :  0000066C 0000001C


  ->Sub-tree of type: Function tree
                             XSTACK   ISTACK
    | Stack used (prev) :  0000066C 0000001C
  01  pad::?relay
      | Stack used (prev) :  0000066C 0000001C
      | + function block  :  00000000 00000000
  <-Sub-tree of type: Function tree
    | Stack used          :  0000066C 0000001C


  ->Sub-tree of type: Function tree
                             XSTACK   ISTACK
    | Stack used (prev) :  0000066C 0000001C
  01  _LitobLarge::?relay
      | Stack used (prev) :  0000066C 0000001C
      | + function block  :  00000000 00000000
  <-Sub-tree of type: Function tree
    | Stack used          :  0000066C 0000001C


  ->Sub-tree of type: Function tree
                             XSTACK   ISTACK
    | Stack used (prev) :  0000066C 0000001C
  01  scale::?relay
      | Stack used (prev) :  0000066C 0000001C
      | + function block  :  00000000 00000000
  <-Sub-tree of type: Function tree
    | Stack used          :  0000066C 0000001C


  ->Sub-tree of type: Function tree
                             XSTACK   ISTACK
    | Stack used (prev) :  0000066C 0000001C
  01  _LdtobLarge::?relay
      | Stack used (prev) :  0000066C 0000001C
      | + function block  :  00000000 00000000
  <-Sub-tree of type: Function tree
    | Stack used          :  0000066C 0000001C


  ->Sub-tree of type: Function tree
                             XSTACK   ISTACK
    | Stack used (prev) :  0000066C 0000001C
  01  _GenldLarge::?relay
      | Stack used (prev) :  0000066C 0000001C
      | + function block  :  00000000 00000000
  <-Sub-tree of type: Function tree
    | Stack used          :  0000066C 0000001C


  ->Sub-tree of type: Function tree
                             XSTACK   ISTACK
    | Stack used (prev) :  0000066C 0000001C
  01  _PutcharLarge::?relay
      | Stack used (prev) :  0000066C 0000001C
      | + function block  :  00000000 00000000
  <-Sub-tree of type: Function tree
    | Stack used          :  0000066C 0000001C


  ->Sub-tree of type: Function tree
                             XSTACK   ISTACK
    | Stack used (prev) :  0000066C 0000001C
  01  _PutcharsLarge::?relay
      | Stack used (prev) :  0000066C 0000001C
      | + function block  :  00000000 00000000
  <-Sub-tree of type: Function tree
    | Stack used          :  0000066C 0000001C


  ->Sub-tree of type: Function tree
                             XSTACK   ISTACK
    | Stack used (prev) :  0000066C 0000001C
  03      __write
          | Stack used (prev) :  000004C2 00000008
          | + function block  :  00000022 00000000
          |  Already listed
  02    putchar
        | Stack used (prev) :  0000066C 0000001C
        | + function block  :  0000000D 00000001
  01  _Prout
      | Stack used (prev) :  00000679 0000001D
      | + function block  :  0000001C 00000000
  <-Sub-tree of type: Function tree
    | Stack used          :  00000695 0000001D


  ->Sub-tree of type: Function tree
                             XSTACK   ISTACK
    | Stack used (prev) :  00000695 0000001D
  01  _Prout::?relay
      | Stack used (prev) :  00000695 0000001D
      | + function block  :  00000000 00000000
  <-Sub-tree of type: Function tree
    | Stack used          :  00000695 0000001D


  ->Sub-tree of type: Function tree
                             XSTACK   ISTACK
    | Stack used (prev) :  00000695 0000001D
  01  __xdata_free::?relay
      | Stack used (prev) :  00000695 0000001D
      | + function block  :  00000000 00000000
  <-Sub-tree of type: Function tree
    | Stack used          :  00000695 0000001D


  ->Sub-tree of type: Function tree
                             XSTACK   ISTACK
    | Stack used (prev) :  00000695 0000001D
  01  __xdata_malloc::?relay
      | Stack used (prev) :  00000695 0000001D
      | + function block  :  00000000 00000000
  <-Sub-tree of type: Function tree
    | Stack used          :  00000695 0000001D




                ****************************************
                *                                      *
                *      SEGMENTS IN ADDRESS ORDER       *
                *                                      *
                ****************************************


SEGMENT              SPACE    START ADDRESS   END ADDRESS     SIZE  TYPE  ALIGN
=======              =====    =============   ===========     ====  ====  =====
INTVEC               CODE          00000000 - 0000002D          2E   com    0
CSTART               CODE          0000002E - 000000B4          87   rel    0
DATA_ID              CODE               000000B5                     dse    0
BDATA_ID             CODE               000000B5                     dse    0
BIT_ID               CODE               000000B5                     dse    0
IDATA_ID             CODE               000000B5                     dse    0
IXDATA_ID            CODE               000000B5                     dse    0
PDATA_ID             CODE               000000B5                     dse    0
XDATA_ID             CODE          000000B5 - 000005DA         526   rel    0
BANK_RELAYS          CODE          000005DB - 0000086E         294   rel    0
RCODE                CODE          0000086F - 000015A7         D39   rel    0
CODE_N               CODE               000015A8                     dse    0
CODE_C               CODE               000015A8                     dse    0
DIFUNCT              CODE               000015A8                     rel    0
NEAR_CODE            CODE          000015A8 - 000015E3          3C   rel    0
<BANKED_CODE> 1      CODE          000015E4 - 00005EFA        4917   rel    0
REGISTERS            DATA          00000000 - 00000007           8   rel    0
VREG                 DATA          00000008 - 0000000F           8   rel    0
PSP                  DATA               00000010                     dse    0
XSP                  DATA          00000010 - 00000011           2   rel    0
BREG                 BIT        00000020.0  -  00000020.7        8   rel    0
SFR_AN               DATA          00000080 - 00000080           1   rel    0
                     DATA          00000086 - 00000086           1 
                     DATA          00000090 - 00000091           2 
                     DATA          00000094 - 00000097           4 
                     DATA          0000009D - 0000009E           2 
                     DATA          000000A2 - 000000A5           4 
                     DATA          000000A8 - 000000A8           1 
                     DATA          000000AD - 000000AD           1 
                     DATA          000000B3 - 000000B3           1 
                     DATA          000000C0 - 000000C2           3 
                     DATA          000000C5 - 000000C6           2 
                     DATA          000000D2 - 000000D7           6 
                     DATA          000000D9 - 000000D9           1 
                     DATA          000000E1 - 000000E1           1 
                     DATA          000000E9 - 000000E9           1 
                     DATA          000000F1 - 000000F1           1 
                     DATA          000000F3 - 000000F3           1 
                     DATA          000000FD - 000000FE           2 
XSTACK               XDATA         00000001 - 00000400         400   rel    0
XDATA_Z              XDATA         00000401 - 000006A4         2A4   rel    0
XDATA_I              XDATA         000006A5 - 00000BCA         526   rel    0
XDATA_HEAP           XDATA         00000BCB - 00001ECA        1300   dse    0
ISTACK               IDATA         000000C0 - 000000FF          40   rel    0

                ****************************************
                *                                      *
                *        END OF CROSS REFERENCE        *
                *                                      *
                ****************************************

 24 315 bytes of CODE  memory
     18 bytes of DATA  memory (+ 35 absolute )
  7 882 bytes of XDATA memory
     64 bytes of IDATA memory
      8 bits  of BIT   memory

Errors: none
Warnings: none

