################################################################################
#                                                                              #
#      IAR Universal Linker V6.4.6.89                                          #
#                                                                              #
#           Link time     =  16/Feb/2020  14:25:07                             #
#           Target CPU    =  x51                                               #
#           List file     =  "E:\WMNU\IAR_new_arch\PRG Transmiter\Debug\List\t #
#                            ransmiter.map"                                    #
#           Output file 1 =  "E:\WMNU\IAR_new_arch\PRG Transmiter\Debug\Exe\tr #
#                            ansmiter.d51"                                     #
#                            Format: ubrof10                                   #
#                            UBROF version 10.0.6                              #
#                            Using library modules for C-SPY (-rt)             #
#           Command line  =  -f                                                #
#                            C:\Users\08A4~1\AppData\Local\Temp\EWC27C.tmp     #
#                            ("E:\WMNU\IAR_new_arch\PRG Transmiter\Debug\Obj\a #
#                            ction_manager.r51"                                #
#                            "E:\WMNU\IAR_new_arch\PRG Transmiter\Debug\Obj\al #
#                            arm_timer.r51"                                    #
#                            "E:\WMNU\IAR_new_arch\PRG Transmiter\Debug\Obj\bu #
#                            ffer.r51"                                         #
#                            "E:\WMNU\IAR_new_arch\PRG Transmiter\Debug\Obj\cm #
#                            d_0x00.r51"                                       #
#                            "E:\WMNU\IAR_new_arch\PRG Transmiter\Debug\Obj\cm #
#                            d_0x01.r51"                                       #
#                            "E:\WMNU\IAR_new_arch\PRG Transmiter\Debug\Obj\cm #
#                            d_0x02.r51"                                       #
#                            "E:\WMNU\IAR_new_arch\PRG Transmiter\Debug\Obj\cm #
#                            d_0x03.r51"                                       #
#                            "E:\WMNU\IAR_new_arch\PRG Transmiter\Debug\Obj\cm #
#                            d_0x04.r51"                                       #
#                            "E:\WMNU\IAR_new_arch\PRG Transmiter\Debug\Obj\cm #
#                            d_0x05.r51"                                       #
#                            "E:\WMNU\IAR_new_arch\PRG Transmiter\Debug\Obj\cm #
#                            d_0x06.r51"                                       #
#                            "E:\WMNU\IAR_new_arch\PRG Transmiter\Debug\Obj\cm #
#                            d_0x07.r51"                                       #
#                            "E:\WMNU\IAR_new_arch\PRG Transmiter\Debug\Obj\cm #
#                            d_0x08.r51"                                       #
#                            "E:\WMNU\IAR_new_arch\PRG Transmiter\Debug\Obj\cm #
#                            d_0x09.r51"                                       #
#                            "E:\WMNU\IAR_new_arch\PRG Transmiter\Debug\Obj\cm #
#                            d_0x0A.r51"                                       #
#                            "E:\WMNU\IAR_new_arch\PRG Transmiter\Debug\Obj\cm #
#                            d_0x0B.r51"                                       #
#                            "E:\WMNU\IAR_new_arch\PRG Transmiter\Debug\Obj\cm #
#                            d_0x0C.r51"                                       #
#                            "E:\WMNU\IAR_new_arch\PRG Transmiter\Debug\Obj\cm #
#                            d_0x0D.r51"                                       #
#                            "E:\WMNU\IAR_new_arch\PRG Transmiter\Debug\Obj\cm #
#                            d_0x0E.r51"                                       #
#                            "E:\WMNU\IAR_new_arch\PRG Transmiter\Debug\Obj\cm #
#                            d_0x0F.r51"                                       #
#                            "E:\WMNU\IAR_new_arch\PRG Transmiter\Debug\Obj\cm #
#                            d_0x10.r51"                                       #
#                            "E:\WMNU\IAR_new_arch\PRG Transmiter\Debug\Obj\cm #
#                            d_parser.r51"                                     #
#                            "E:\WMNU\IAR_new_arch\PRG Transmiter\Debug\Obj\co #
#                            der.r51"                                          #
#                            "E:\WMNU\IAR_new_arch\PRG Transmiter\Debug\Obj\cp #
#                            u.r51"                                            #
#                            "E:\WMNU\IAR_new_arch\PRG Transmiter\Debug\Obj\de #
#                            bug.r51"                                          #
#                            "E:\WMNU\IAR_new_arch\PRG Transmiter\Debug\Obj\dm #
#                            a.r51"                                            #
#                            "E:\WMNU\IAR_new_arch\PRG Transmiter\Debug\Obj\fr #
#                            ame.r51"                                          #
#                            "E:\WMNU\IAR_new_arch\PRG Transmiter\Debug\Obj\le #
#                            d.r51"                                            #
#                            "E:\WMNU\IAR_new_arch\PRG Transmiter\Debug\Obj\ll #
#                            c.r51"                                            #
#                            "E:\WMNU\IAR_new_arch\PRG Transmiter\Debug\Obj\ma #
#                            c.r51"                                            #
#                            "E:\WMNU\IAR_new_arch\PRG Transmiter\Debug\Obj\ma #
#                            in.r51"                                           #
#                            "E:\WMNU\IAR_new_arch\PRG Transmiter\Debug\Obj\me #
#                            m_slots.r51"                                      #
#                            "E:\WMNU\IAR_new_arch\PRG Transmiter\Debug\Obj\me #
#                            m_utils.r51"                                      #
#                            "E:\WMNU\IAR_new_arch\PRG Transmiter\Debug\Obj\mo #
#                            del.r51"                                          #
#                            "E:\WMNU\IAR_new_arch\PRG Transmiter\Debug\Obj\ra #
#                            dio.r51"                                          #
#                            "E:\WMNU\IAR_new_arch\PRG Transmiter\Debug\Obj\rt #
#                            c.r51"                                            #
#                            "E:\WMNU\IAR_new_arch\PRG Transmiter\Debug\Obj\sy #
#                            nc.r51"                                           #
#                            "E:\WMNU\IAR_new_arch\PRG Transmiter\Debug\Obj\ti #
#                            me_manager.r51"                                   #
#                            "E:\WMNU\IAR_new_arch\PRG Transmiter\Debug\Obj\ua #
#                            rt_comm.r51"                                      #
#                            "E:\WMNU\IAR_new_arch\PRG Transmiter\Debug\Obj\us #
#                            timer.r51"                                        #
#                            -o                                                #
#                            "E:\WMNU\IAR_new_arch\PRG Transmiter\Debug\Exe\tr #
#                            ansmiter.d51"                                     #
#                            -l                                                #
#                            "E:\WMNU\IAR_new_arch\PRG Transmiter\Debug\List\t #
#                            ransmiter.map"                                    #
#                            -xms                                              #
#                            "-IC:\Program Files (x86)\IAR Systems\Embedded Wo #
#                            rkbench 8.0\8051\LIB\"                            #
#                            -f                                                #
#                            "C:\Program Files (x86)\IAR Systems\Embedded Work #
#                            bench 8.0\8051\config\devices\Texas Instruments\l #
#                            nk51ew_CC2530F256_banked.xcl"                     #
#                            (-D_IDATA0_START=0x00 -D_IDATA0_END=0xFF          #
#                            -D_PDATA0_START=0x1E00 -D_PDATA0_END=0x1EFF       #
#                            -D_IXDATA0_START=0x0001 -D_IXDATA0_END=0x1EFF     #
#                            -D_XDATA0_START=_IXDATA0_START                    #
#                            -D_XDATA0_END=_IXDATA0_END                        #
#                            -D_NEAR_CODE_START=0x0000                         #
#                            -D_FIRST_BANK_ADDR=0x10000 -D?REGISTER_BANK=0x0   #
#                            -D_REGISTER_BANK_START=0x0 -D_BREG_START=0x00     #
#                            -D?VB=0x20 -Z(BIT)BREG=_BREG_START                #
#                            -Z(BIT)BIT_N=0-7F                                 #
#                            -Z(DATA)REGISTERS+8=_REGISTER_BANK_START          #
#                            -Z(DATA)BDATA_Z,BDATA_N,BDATA_I=20-2F             #
#                            -Z(DATA)VREG=08-7F -Z(DATA)PSP,XSP=08-7F          #
#                            -Z(DATA)DOVERLAY=08-7F                            #
#                            -Z(DATA)DATA_I,DATA_Z,DATA_N=08-7F                #
#                            -U(IDATA)0-7F=(DATA)0-7F                          #
#                            -Z(IDATA)IDATA_I,IDATA_Z,IDATA_N=08-_IDATA0_END   #
#                            -Z(IDATA)ISTACK+_IDATA_STACK_SIZE#08-_IDATA0_END  #
#                            -Z(IDATA)IOVERLAY=08-FF -Z(CODE)INTVEC=0          #
#                            -Z(CODE)CSTART=_NEAR_CODE_START-(_CODEBANK_START- #
#                            1)                                                #
#                            -Z(CODE)BIT_ID,BDATA_ID,DATA_ID,IDATA_ID,IXDATA_I #
#                            D,PDATA_ID,XDATA_ID=_NEAR_CODE_START-(_CODEBANK_S #
#                            TART-1)                                           #
#                            -Z(CODE)BANK_RELAYS,RCODE,DIFUNCT,CODE_C,CODE_N,N #
#                            EAR_CODE=_NEAR_CODE_START-(_CODEBANK_START-1)     #
#                            -P(CODE)BANKED_CODE=_NEAR_CODE_START-(_CODEBANK_S #
#                            TART-1),[(_CODEBANK_START+_FIRST_BANK_ADDR)-(_COD #
#                            EBANK_END+_FIRST_BANK_ADDR)]*_NR_OF_BANKS+10000   #
#                            -Z(CODE)CHECKSUM#(_CODEBANK_START-1)              #
#                            -Z(XDATA)PDATA_Z,PDATA_I=_PDATA0_START-_PDATA0_EN #
#                            D                                                 #
#                            -P(XDATA)PDATA_N=_PDATA0_START-_PDATA0_END        #
#                            -Z(XDATA)PSTACK+_PDATA_STACK_SIZE=_PDATA0_START-_ #
#                            PDATA0_END                                        #
#                            -Z(XDATA)EXT_STACK+_EXTENDED_STACK_SIZE=_EXTENDED #
#                            _STACK_START                                      #
#                            -Z(XDATA)XSTACK+_XDATA_STACK_SIZE=_XDATA0_START-_ #
#                            XDATA0_END                                        #
#                            -Z(XDATA)IXDATA_Z,IXDATA_I=_IXDATA0_START-_IXDATA #
#                            0_END                                             #
#                            -P(XDATA)IXDATA_N=_IXDATA0_START-_IXDATA0_END     #
#                            -Z(XDATA)XDATA_Z,XDATA_I=_XDATA0_START-_XDATA0_EN #
#                            D                                                 #
#                            -P(XDATA)XDATA_N=_XDATA0_START-_XDATA0_END        #
#                            -Z(XDATA)XDATA_HEAP+_XDATA_HEAP_SIZE=_XDATA0_STAR #
#                            T-_XDATA0_END                                     #
#                            -Z(CONST)XDATA_ROM_C=_XDATA0_START-_XDATA0_END    #
#                            -cx51                                             #
#                            -M(CODE)[(_CODEBANK_START+_FIRST_BANK_ADDR)-(_COD #
#                            EBANK_END+_FIRST_BANK_ADDR)]*_NR_OF_BANKS+0x10000 #
#                            =0x8000                                           #
#                            -ww69=i -D_BANK0_START=0x00000                    #
#                            -D_BANK0_END=0x07FFF -D_BANK1_START=0x18000       #
#                            -D_BANK1_END=0x1FFFF -D_BANK2_START=0x28000       #
#                            -D_BANK2_END=0x2FFFF -D_BANK3_START=0x38000       #
#                            -D_BANK3_END=0x3FFFF -D_BANK4_START=0x48000       #
#                            -D_BANK4_END=0x4FFFF -D_BANK5_START=0x58000       #
#                            -D_BANK5_END=0x5FFFF -D_BANK6_START=0x68000       #
#                            -D_BANK6_END=0x6FFFF -D_BANK7_START=0x78000       #
#                            -D_BANK7_END=0x7FFFF                              #
#                            -P(CODE)BANK0=_BANK0_START-_BANK0_END             #
#                            -P(CODE)BANK1=_BANK1_START-_BANK1_END             #
#                            -P(CODE)BANK2=_BANK2_START-_BANK2_END             #
#                            -P(CODE)BANK3=_BANK3_START-_BANK3_END             #
#                            -P(CODE)BANK4=_BANK4_START-_BANK4_END             #
#                            -P(CODE)BANK5=_BANK5_START-_BANK5_END             #
#                            -P(CODE)BANK6=_BANK6_START-_BANK6_END             #
#                            -P(CODE)BANK7=_BANK7_START-_BANK7_END             #
#                            -D_FLASH_LOCK_BITS_START=0x7FFF0                  #
#                            -D_FLASH_LOCK_BITS_END=0x7FFFF                    #
#                            -Z(CODE)FLASH_LOCK_BITS=_FLASH_LOCK_BITS_START-_F #
#                            LASH_LOCK_BITS_END                                #
#                            -U(CODE)0x0000=(CODE)_FLASH_LOCK_BITS_START-_FLAS #
#                            H_LOCK_BITS_END)                                  #
#                            -D_NR_OF_VIRTUAL_REGISTERS=8 -D?PBANK=0x93        #
#                            -D?CBANK=0x9F -D?CBANK_MASK=0xFF                  #
#                            -e?BCALL_FF=?BCALL -e?BRET_FF=?BRET               #
#                            -e?BDISPATCH_FF=?BDISPATCH                        #
#                            -D_CODEBANK_START=0x8000 -D_CODEBANK_END=0xFFFF   #
#                            -D_NR_OF_BANKS=0x03                               #
#                            "-IC:\Program Files (x86)\IAR Systems\Embedded Wo #
#                            rkbench 8.0\8051\CONFIG\"                         #
#                            -rt -s __program_start                            #
#                            "C:\Program Files (x86)\IAR Systems\Embedded Work #
#                            bench 8.0\8051\LIB\DLIB\dl-pli-blxd-1e16x01n.r51" #
#                            -D_IDATA_STACK_SIZE=0x80 -D?ESP=0 -D?ESP_MASK=0   #
#                            -D_EXTENDED_STACK_START=0                         #
#                            -D_EXTENDED_STACK_SIZE=0                          #
#                            -D_PDATA_STACK_SIZE=0x80                          #
#                            -D_XDATA_STACK_SIZE=0x100                         #
#                            -D_XDATA_HEAP_SIZE=0x00 -D_FAR_HEAP_SIZE=0xFFF    #
#                            -D_HUGE_HEAP_SIZE=0xFFF                           #
#                            -D_FAR22_HEAP_SIZE=0xFFF)                         #
#                                                                              #
#                           Copyright (C) 1987-2016 IAR Systems AB.            #
################################################################################





                ****************************************
                *                                      *
                *           CROSS REFERENCE            *
                *                                      *
                ****************************************

       Program entry at : CODE      00000085  Relocatable, from module : CSTARTUP




                ****************************************
                *                                      *
                *            RUNTIME MODEL             *
                *                                      *
                ****************************************

  __Heap_Handler             = Basic
  __SystemLibrary            = DLib
  __calling_convention       = xdata_reentrant
  __code_model               = banked
  __core                     = plain
  __data_model               = large
  __dlib_file_descriptor     = 0
  __dlib_full_locale_support = 0
  __dptr_size                = 16
  __extended_stack           = disabled
  __location_for_constants   = data
  __number_of_dptrs          = 1
  __register_banks           = *
  __rt_version               = 1

                ****************************************
                *                                      *
                *    AUTOMATIC SYMBOL REDIRECTIONS     *
                *                                      *
                ****************************************

       All references to: _Printf
         were redirected to: _PrintfTiny
       All references to: _Printf::?relay
         were redirected to: _PrintfTiny::?relay



                ****************************************
                *                                      *
                *              MODULE MAP              *
                *                                      *
                ****************************************


  DEFINED ABSOLUTE ENTRIES
    *************************************************************************

  DEFINED ABSOLUTE ENTRIES
  PROGRAM MODULE, NAME : ?ABS_ENTRY_MOD

Absolute parts
           ENTRY                   ADDRESS         REF BY
           =====                   =======         ======
           _FAR22_HEAP_SIZE        00000FFF 
           _HUGE_HEAP_SIZE         00000FFF 
           _FAR_HEAP_SIZE          00000FFF 
           _XDATA_HEAP_SIZE        00000000 
           _XDATA_STACK_SIZE       00000100 
           _PDATA_STACK_SIZE       00000080 
           _EXTENDED_STACK_SIZE    00000000 
           _EXTENDED_STACK_START   00000000 
           ?ESP_MASK               00000000 
           ?ESP                    00000000 
           _IDATA_STACK_SIZE       00000080 
           _NR_OF_BANKS            00000003 
           _CODEBANK_END           0000FFFF 
           _CODEBANK_START         00008000 
           ?CBANK_MASK             000000FF 
           ?CBANK                  0000009F        ?LONGJMP_XDATA (?LONGJMP_XDATA)
                                                   ?RESET_CODE_BANK (CSTARTUP)
                                                   ?SETJMP_XDATA (?SETJMP_XDATA)
                                                   Segment part 0 (?BANKED_CODE_SUPPORT)
           ?PBANK                  00000093        ?RESET_PDATA_BANK (CSTARTUP)
           _NR_OF_VIRTUAL_REGISTERS
                                   00000008 
           _FLASH_LOCK_BITS_END    0007FFFF 
           _FLASH_LOCK_BITS_START
                                   0007FFF0 
           _BANK7_END              0007FFFF 
           _BANK7_START            00078000 
           _BANK6_END              0006FFFF 
           _BANK6_START            00068000 
           _BANK5_END              0005FFFF 
           _BANK5_START            00058000 
           _BANK4_END              0004FFFF 
           _BANK4_START            00048000 
           _BANK3_END              0001FFFF 
           _BANK3_START            00018000 
           _BANK2_END              00017FFF 
           _BANK2_START            00010000 
           _BANK1_END              0000FFFF 
           _BANK1_START            00008000 
           _BANK0_END              00007FFF 
           _BANK0_START            00000000 
           ?VB                     00000020        ?BANKED_ENTER_XDATA (?BANKED_ENTER_XDATA)
                                                   ?BANKED_LEAVE_XDATA (?BANKED_LEAVE_XDATA)
                                                   ?INTERRUPT_ENTER_XSP (?INTERRUPT_ENTER_XSP)
                                                   ?INTERRUPT_LEAVE_XSP (?INTERRUPT_LEAVE_XSP)
                                                   ?LONGJMP_XDATA (?LONGJMP_XDATA)
                                                   ?SETJMP_XDATA (?SETJMP_XDATA)
                                                   AES_StreamCoder (?__write)
                                                   AT_enable (?__write)
                                                   BF_push_rx (?__write)
                                                   BF_push_tx (?__write)
                                                   RI_Receive (?__write)
                                                   RI_Send (?__write)
                                                   RecvData (?__write)
                                                   SL_free (?__write)
                                                   SendData (?__write)
                                                   cmd_0x0B (?__write)
                                                   cmd_0x0D (?__write)
                                                   send_sync (?__write)
           _BREG_START             00000000 
           _REGISTER_BANK_START    00000000 
           ?REGISTER_BANK          00000000        Segment part 6 (CSTARTUP)
           _FIRST_BANK_ADDR        00010000 
           _NEAR_CODE_START        00000000 
           _XDATA0_END             00001EFF 
           _XDATA0_START           00000001 
           _IXDATA0_END            00001EFF 
           _IXDATA0_START          00000001 
           _PDATA0_END             00001EFF 
           _PDATA0_START           00001E00 
           _IDATA0_END             000000FF 
           _IDATA0_START           00000000 
    *************************************************************************

  FILE NAME : E:\WMNU\IAR_new_arch\PRG Transmiter\Debug\Obj\action_manager.r51
  PROGRAM MODULE, NAME : ?__write

  SEGMENTS IN THE MODULE
  ======================
SFR_AN
  Relative segment, address: DATA 00000086 - 00000086 (0x1 bytes), align: 0
  Segment part 1. ROOT        Intra module refs:   MyLowLevelPutchar
                                                   uart_init
           ENTRY                   ADDRESS         REF BY
           =====                   =======         ======
           U0CSR                   00000086 
    -------------------------------------------------------------------------
SFR_AN
  Relative segment, address: DATA 00000091 - 00000091 (0x1 bytes), align: 0
  Segment part 2. ROOT        Intra module refs:   SendData
           ENTRY                   ADDRESS         REF BY
           =====                   =======         ======
           RFIRQF1                 00000091 
    -------------------------------------------------------------------------
SFR_AN
  Relative segment, address: DATA 00000094 - 00000094 (0x1 bytes), align: 0
  Segment part 3. ROOT        Intra module refs:   HW_Init
           ENTRY                   ADDRESS         REF BY
           =====                   =======         ======
           T2CTRL                  00000094 
    -------------------------------------------------------------------------
SFR_AN
  Relative segment, address: DATA 00000095 - 00000095 (0x1 bytes), align: 0
  Segment part 4. ROOT        Intra module refs:   AT_wait
                                                   ReadTimer
                                                   loadTimerCompare
           ENTRY                   ADDRESS         REF BY
           =====                   =======         ======
           ST0                     00000095 
    -------------------------------------------------------------------------
SFR_AN
  Relative segment, address: DATA 00000096 - 00000096 (0x1 bytes), align: 0
  Segment part 5. ROOT        Intra module refs:   AT_wait
                                                   ReadTimer
                                                   loadTimerCompare
           ENTRY                   ADDRESS         REF BY
           =====                   =======         ======
           ST1                     00000096 
    -------------------------------------------------------------------------
SFR_AN
  Relative segment, address: DATA 00000097 - 00000097 (0x1 bytes), align: 0
  Segment part 6. ROOT        Intra module refs:   AT_wait
                                                   ReadTimer
                                                   loadTimerCompare
           ENTRY                   ADDRESS         REF BY
           =====                   =======         ======
           ST2                     00000097 
    -------------------------------------------------------------------------
SFR_AN
  Relative segment, address: DATA 0000009D - 0000009D (0x1 bytes), align: 0
  Segment part 7. ROOT        Intra module refs:   AT_wait
                                                   ReadTimer
           ENTRY                   ADDRESS         REF BY
           =====                   =======         ======
           SLEEPSTA                0000009D 
    -------------------------------------------------------------------------
SFR_AN
  Relative segment, address: DATA 0000009E - 0000009E (0x1 bytes), align: 0
  Segment part 8. ROOT        Intra module refs:   HW_Init
           ENTRY                   ADDRESS         REF BY
           =====                   =======         ======
           CLKCONSTA               0000009E 
    -------------------------------------------------------------------------
SFR_AN
  Relative segment, address: DATA 000000A2 - 000000A2 (0x1 bytes), align: 0
  Segment part 9. ROOT        Intra module refs:   UST_now
           ENTRY                   ADDRESS         REF BY
           =====                   =======         ======
           T2M0                    000000A2 
    -------------------------------------------------------------------------
SFR_AN
  Relative segment, address: DATA 000000A3 - 000000A3 (0x1 bytes), align: 0
  Segment part 10. ROOT       Intra module refs:   UST_now
           ENTRY                   ADDRESS         REF BY
           =====                   =======         ======
           T2M1                    000000A3 
    -------------------------------------------------------------------------
SFR_AN
  Relative segment, address: DATA 000000A4 - 000000A4 (0x1 bytes), align: 0
  Segment part 11. ROOT       Intra module refs:   UST_now
           ENTRY                   ADDRESS         REF BY
           =====                   =======         ======
           T2MOVF0                 000000A4 
    -------------------------------------------------------------------------
SFR_AN
  Relative segment, address: DATA 000000A5 - 000000A5 (0x1 bytes), align: 0
  Segment part 12. ROOT       Intra module refs:   UST_now
           ENTRY                   ADDRESS         REF BY
           =====                   =======         ======
           T2MOVF1                 000000A5 
    -------------------------------------------------------------------------
SFR_AN
  Relative segment, address: DATA 000000A8 - 000000A8 (0x1 bytes), align: 0
  Segment part 13. ROOT       Intra module refs:   AT_enable
                                                   BF_cursor_next
                                                   BF_cursor_rx
                                                   BF_cursor_tx
                                                   BF_push_rx
                                                   BF_push_tx
                                                   BF_remove
                                                   HW_Init
                                                   IRQEnable
                                                   SL_alloc
                                                   SL_free
                                                   TM_IRQ
                                                   __cli
                                                   isIRQEnable
           ENTRY                   ADDRESS         REF BY
           =====                   =======         ======
           _A_IEN0                 000000A8 
           LOCAL                   ADDRESS         
           =====                   =======         
           IEN0                    000000A8 
    -------------------------------------------------------------------------
SFR_AN
  Relative segment, address: DATA 000000AD - 000000AD (0x1 bytes), align: 0
  Segment part 14. ROOT       Intra module refs:   loadTimerCompare
           ENTRY                   ADDRESS         REF BY
           =====                   =======         ======
           STLOAD                  000000AD 
    -------------------------------------------------------------------------
SFR_AN
  Relative segment, address: DATA 000000B3 - 000000B3 (0x1 bytes), align: 0
  Segment part 15. ROOT       Intra module refs:   AES_StreamCoder
           ENTRY                   ADDRESS         REF BY
           =====                   =======         ======
           ENCCS                   000000B3 
    -------------------------------------------------------------------------
SFR_AN
  Relative segment, address: DATA 000000C0 - 000000C0 (0x1 bytes), align: 0
  Segment part 16. ROOT       Intra module refs:   TimerCompareInterrupt
           ENTRY                   ADDRESS         REF BY
           =====                   =======         ======
           _A_IRCON                000000C0 
           LOCAL                   ADDRESS         
           =====                   =======         
           IRCON                   000000C0 
    -------------------------------------------------------------------------
SFR_AN
  Relative segment, address: DATA 000000C1 - 000000C1 (0x1 bytes), align: 0
  Segment part 17. ROOT       Intra module refs:   MyLowLevelPutchar
           ENTRY                   ADDRESS         REF BY
           =====                   =======         ======
           U0DBUF                  000000C1 
    -------------------------------------------------------------------------
SFR_AN
  Relative segment, address: DATA 000000C2 - 000000C2 (0x1 bytes), align: 0
  Segment part 18. ROOT       Intra module refs:   uart_init
           ENTRY                   ADDRESS         REF BY
           =====                   =======         ======
           U0BAUD                  000000C2 
    -------------------------------------------------------------------------
SFR_AN
  Relative segment, address: DATA 000000C5 - 000000C5 (0x1 bytes), align: 0
  Segment part 19. ROOT       Intra module refs:   uart_init
           ENTRY                   ADDRESS         REF BY
           =====                   =======         ======
           U0GCR                   000000C5 
    -------------------------------------------------------------------------
SFR_AN
  Relative segment, address: DATA 000000C6 - 000000C6 (0x1 bytes), align: 0
  Segment part 20. ROOT       Intra module refs:   HW_Init
           ENTRY                   ADDRESS         REF BY
           =====                   =======         ======
           CLKCONCMD               000000C6 
    -------------------------------------------------------------------------
SFR_AN
  Relative segment, address: DATA 000000D2 - 000000D2 (0x1 bytes), align: 0
  Segment part 21. ROOT       Intra module refs:   HW_Init
           ENTRY                   ADDRESS         REF BY
           =====                   =======         ======
           DMA1CFGL                000000D2 
    -------------------------------------------------------------------------
SFR_AN
  Relative segment, address: DATA 000000D3 - 000000D3 (0x1 bytes), align: 0
  Segment part 22. ROOT       Intra module refs:   HW_Init
           ENTRY                   ADDRESS         REF BY
           =====                   =======         ======
           DMA1CFGH                000000D3 
    -------------------------------------------------------------------------
SFR_AN
  Relative segment, address: DATA 000000D4 - 000000D4 (0x1 bytes), align: 0
  Segment part 23. ROOT       Intra module refs:   HW_Init
           ENTRY                   ADDRESS         REF BY
           =====                   =======         ======
           DMA0CFGL                000000D4 
    -------------------------------------------------------------------------
SFR_AN
  Relative segment, address: DATA 000000D5 - 000000D5 (0x1 bytes), align: 0
  Segment part 24. ROOT       Intra module refs:   HW_Init
           ENTRY                   ADDRESS         REF BY
           =====                   =======         ======
           DMA0CFGH                000000D5 
    -------------------------------------------------------------------------
SFR_AN
  Relative segment, address: DATA 000000D6 - 000000D6 (0x1 bytes), align: 0
  Segment part 25. ROOT       Intra module refs:   AES_StreamCoder
                                                   uart_recv_cmd
           ENTRY                   ADDRESS         REF BY
           =====                   =======         ======
           DMAARM                  000000D6 
    -------------------------------------------------------------------------
SFR_AN
  Relative segment, address: DATA 000000D7 - 000000D7 (0x1 bytes), align: 0
  Segment part 26. ROOT       Intra module refs:   AES_StreamCoder
           ENTRY                   ADDRESS         REF BY
           =====                   =======         ======
           DMAREQ                  000000D7 
    -------------------------------------------------------------------------
SFR_AN
  Relative segment, address: DATA 000000D9 - 000000D9 (0x1 bytes), align: 0
  Segment part 27. ROOT       Intra module refs:   LoadTXData
                                                   UnLoadRXData
           ENTRY                   ADDRESS         REF BY
           =====                   =======         ======
           RFD                     000000D9 
    -------------------------------------------------------------------------
SFR_AN
  Relative segment, address: DATA 000000E1 - 000000E1 (0x1 bytes), align: 0
  Segment part 28. ROOT       Intra module refs:   LoadTXData
                                                   RI_Measure_POW
                                                   RecvData
                                                   SendData
                                                   random_core_init
           ENTRY                   ADDRESS         REF BY
           =====                   =======         ======
           RFST                    000000E1 
    -------------------------------------------------------------------------
SFR_AN
  Relative segment, address: DATA 000000E9 - 000000E9 (0x1 bytes), align: 0
  Segment part 29. ROOT       Intra module refs:   RecvData
                                                   SendData
           ENTRY                   ADDRESS         REF BY
           =====                   =======         ======
           RFIRQF0                 000000E9 
    -------------------------------------------------------------------------
SFR_AN
  Relative segment, address: DATA 000000F1 - 000000F1 (0x1 bytes), align: 0
  Segment part 30. ROOT       Intra module refs:   com_uart_init
                                                   uart_init
           ENTRY                   ADDRESS         REF BY
           =====                   =======         ======
           PERCFG                  000000F1 
    -------------------------------------------------------------------------
SFR_AN
  Relative segment, address: DATA 000000F3 - 000000F3 (0x1 bytes), align: 0
  Segment part 31. ROOT       Intra module refs:   uart_init
           ENTRY                   ADDRESS         REF BY
           =====                   =======         ======
           P0SEL                   000000F3 
    -------------------------------------------------------------------------
SFR_AN
  Relative segment, address: DATA 000000F4 - 000000F4 (0x1 bytes), align: 0
  Segment part 32. ROOT       Intra module refs:   com_uart_init
           ENTRY                   ADDRESS         REF BY
           =====                   =======         ======
           P1SEL                   000000F4 
    -------------------------------------------------------------------------
SFR_AN
  Relative segment, address: DATA 000000F8 - 000000F8 (0x1 bytes), align: 0
  Segment part 33. ROOT       Intra module refs:   com_uart_init
                                                   uart_putchar
           ENTRY                   ADDRESS         REF BY
           =====                   =======         ======
           _A_U1CSR                000000F8 
           LOCAL                   ADDRESS         
           =====                   =======         
           U1CSR                   000000F8 
    -------------------------------------------------------------------------
SFR_AN
  Relative segment, address: DATA 000000F9 - 000000F9 (0x1 bytes), align: 0
  Segment part 34. ROOT       Intra module refs:   uart_putchar
           ENTRY                   ADDRESS         REF BY
           =====                   =======         ======
           U1DBUF                  000000F9 
    -------------------------------------------------------------------------
SFR_AN
  Relative segment, address: DATA 000000FA - 000000FA (0x1 bytes), align: 0
  Segment part 35. ROOT       Intra module refs:   com_uart_init
           ENTRY                   ADDRESS         REF BY
           =====                   =======         ======
           U1BAUD                  000000FA 
    -------------------------------------------------------------------------
SFR_AN
  Relative segment, address: DATA 000000FC - 000000FC (0x1 bytes), align: 0
  Segment part 36. ROOT       Intra module refs:   com_uart_init
           ENTRY                   ADDRESS         REF BY
           =====                   =======         ======
           U1GCR                   000000FC 
    -------------------------------------------------------------------------
XDATA_I
  Relative segment, address: XDATA 00001143 - 0000114F (0xd bytes), align: 0
  Segment part 45.            Intra module refs:   AM_Callback
                                                   AM_Cold_start
                                                   AM_HW_Init
                                                   AM_Hot_start
                                                   AM_SW_Init
    -------------------------------------------------------------------------
XDATA_I
  Relative segment, address: XDATA 00001150 - 00001160 (0x11 bytes), align: 0
  Segment part 47.            Intra module refs:   AM_Callback
                                                   AM_Cold_start
                                                   AM_HW_Init
                                                   AM_Hot_start
                                                   AM_SW_Init
    -------------------------------------------------------------------------
XDATA_I
  Relative segment, address: XDATA 00001161 - 00001176 (0x16 bytes), align: 0
  Segment part 49.            Intra module refs:   AM_Callback
    -------------------------------------------------------------------------
XDATA_I
  Relative segment, address: XDATA 00001177 - 00001182 (0xc bytes), align: 0
  Segment part 51.            Intra module refs:   AM_Callback
           LOCAL                   ADDRESS         
           =====                   =======         
           AM_Callback::__FUNCTION__
                                   00001177 
    -------------------------------------------------------------------------
XDATA_I
  Relative segment, address: XDATA 00001183 - 00001190 (0xe bytes), align: 0
  Segment part 53.            Intra module refs:   AM_Cold_start
           LOCAL                   ADDRESS         
           =====                   =======         
           AM_Cold_start::__FUNCTION__
                                   00001183 
    -------------------------------------------------------------------------
XDATA_I
  Relative segment, address: XDATA 00001191 - 000011BC (0x2c bytes), align: 0
  Segment part 55.            Intra module refs:   AM_Cold_start
    -------------------------------------------------------------------------
XDATA_I
  Relative segment, address: XDATA 000011BD - 000011C9 (0xd bytes), align: 0
  Segment part 57.            Intra module refs:   AM_Hot_start
           LOCAL                   ADDRESS         
           =====                   =======         
           AM_Hot_start::__FUNCTION__
                                   000011BD 
    -------------------------------------------------------------------------
XDATA_I
  Relative segment, address: XDATA 000011CA - 000011F3 (0x2a bytes), align: 0
  Segment part 59.            Intra module refs:   AM_Hot_start
    -------------------------------------------------------------------------
XDATA_I
  Relative segment, address: XDATA 000011F4 - 000011FE (0xb bytes), align: 0
  Segment part 61.            Intra module refs:   AM_HW_Init
           LOCAL                   ADDRESS         
           =====                   =======         
           AM_HW_Init::__FUNCTION__
                                   000011F4 
    -------------------------------------------------------------------------
XDATA_I
  Relative segment, address: XDATA 000011FF - 00001225 (0x27 bytes), align: 0
  Segment part 63.            Intra module refs:   AM_HW_Init
    -------------------------------------------------------------------------
XDATA_I
  Relative segment, address: XDATA 00001226 - 00001230 (0xb bytes), align: 0
  Segment part 65.            Intra module refs:   AM_SW_Init
           LOCAL                   ADDRESS         
           =====                   =======         
           AM_SW_Init::__FUNCTION__
                                   00001226 
    -------------------------------------------------------------------------
XDATA_I
  Relative segment, address: XDATA 00001231 - 00001257 (0x27 bytes), align: 0
  Segment part 67.            Intra module refs:   AM_SW_Init
    -------------------------------------------------------------------------
XDATA_I
  Relative segment, address: XDATA 00001258 - 00001263 (0xc bytes), align: 0
  Segment part 69.            Intra module refs:   AT_set_time
           LOCAL                   ADDRESS         
           =====                   =======         
           AT_set_time::__FUNCTION__
                                   00001258 
    -------------------------------------------------------------------------
XDATA_I
  Relative segment, address: XDATA 00001264 - 00001270 (0xd bytes), align: 0
  Segment part 71.            Intra module refs:   AT_set_alarm
                                                   AT_set_time
                                                   AT_wait
    -------------------------------------------------------------------------
XDATA_I
  Relative segment, address: XDATA 00001271 - 0000127E (0xe bytes), align: 0
  Segment part 73.            Intra module refs:   AT_set_alarm
                                                   AT_set_time
                                                   AT_wait
    -------------------------------------------------------------------------
XDATA_I
  Relative segment, address: XDATA 0000127F - 0000129D (0x1f bytes), align: 0
  Segment part 75.            Intra module refs:   AT_set_time
                                                   AT_wait
    -------------------------------------------------------------------------
XDATA_I
  Relative segment, address: XDATA 0000129E - 000012A5 (0x8 bytes), align: 0
  Segment part 77.            Intra module refs:   AT_wait
           LOCAL                   ADDRESS         
           =====                   =======         
           AT_wait::__FUNCTION__   0000129E 
    -------------------------------------------------------------------------
XDATA_I
  Relative segment, address: XDATA 000012A6 - 000012B2 (0xd bytes), align: 0
  Segment part 79.            Intra module refs:   AT_set_alarm
           LOCAL                   ADDRESS         
           =====                   =======         
           AT_set_alarm::__FUNCTION__
                                   000012A6 
    -------------------------------------------------------------------------
XDATA_I
  Relative segment, address: XDATA 000012B3 - 000012D2 (0x20 bytes), align: 0
  Segment part 81.            Intra module refs:   AT_set_alarm
    -------------------------------------------------------------------------
XDATA_I
  Relative segment, address: XDATA 000012D3 - 000012DF (0xd bytes), align: 0
  Segment part 85.            Intra module refs:   _push
    -------------------------------------------------------------------------
XDATA_I
  Relative segment, address: XDATA 000012E0 - 000012E8 (0x9 bytes), align: 0
  Segment part 87.            Intra module refs:   _push
    -------------------------------------------------------------------------
XDATA_I
  Relative segment, address: XDATA 000012E9 - 000012EE (0x6 bytes), align: 0
  Segment part 91.            Intra module refs:   _push
           LOCAL                   ADDRESS         
           =====                   =======         
           _push::__FUNCTION__     000012E9 
    -------------------------------------------------------------------------
XDATA_I
  Relative segment, address: XDATA 000012EF - 00001308 (0x1a bytes), align: 0
  Segment part 93.            Intra module refs:   _push
    -------------------------------------------------------------------------
XDATA_I
  Relative segment, address: XDATA 00001309 - 00001311 (0x9 bytes), align: 0
  Segment part 95.            Intra module refs:   cmd_0x00
           LOCAL                   ADDRESS         
           =====                   =======         
           cmd_0x00::__FUNCTION__
                                   00001309 
    -------------------------------------------------------------------------
XDATA_I
  Relative segment, address: XDATA 00001312 - 0000131E (0xd bytes), align: 0
  Segment part 97.            Intra module refs:   cmd_0x00
    -------------------------------------------------------------------------
XDATA_I
  Relative segment, address: XDATA 0000131F - 00001329 (0xb bytes), align: 0
  Segment part 99.            Intra module refs:   cmd_0x00
    -------------------------------------------------------------------------
XDATA_I
  Relative segment, address: XDATA 0000132A - 0000133B (0x12 bytes), align: 0
  Segment part 101.           Intra module refs:   cmd_0x00
    -------------------------------------------------------------------------
XDATA_I
  Relative segment, address: XDATA 0000133C - 0000133E (0x3 bytes), align: 0
  Segment part 103.           Intra module refs:   cmd_0x00
    -------------------------------------------------------------------------
XDATA_I
  Relative segment, address: XDATA 0000133F - 00001353 (0x15 bytes), align: 0
  Segment part 105.           Intra module refs:   cmd_0x00
    -------------------------------------------------------------------------
XDATA_I
  Relative segment, address: XDATA 00001354 - 0000135C (0x9 bytes), align: 0
  Segment part 107.           Intra module refs:   cmd_0x01
           LOCAL                   ADDRESS         
           =====                   =======         
           cmd_0x01::__FUNCTION__
                                   00001354 
    -------------------------------------------------------------------------
XDATA_I
  Relative segment, address: XDATA 0000135D - 00001369 (0xd bytes), align: 0
  Segment part 109.           Intra module refs:   cmd_0x01
    -------------------------------------------------------------------------
XDATA_I
  Relative segment, address: XDATA 0000136A - 00001374 (0xb bytes), align: 0
  Segment part 111.           Intra module refs:   cmd_0x01
    -------------------------------------------------------------------------
XDATA_I
  Relative segment, address: XDATA 00001375 - 00001388 (0x14 bytes), align: 0
  Segment part 113.           Intra module refs:   cmd_0x01
    -------------------------------------------------------------------------
XDATA_I
  Relative segment, address: XDATA 00001389 - 0000138B (0x3 bytes), align: 0
  Segment part 115.           Intra module refs:   cmd_0x01
    -------------------------------------------------------------------------
XDATA_I
  Relative segment, address: XDATA 0000138C - 00001394 (0x9 bytes), align: 0
  Segment part 117.           Intra module refs:   cmd_0x03
           LOCAL                   ADDRESS         
           =====                   =======         
           cmd_0x03::__FUNCTION__
                                   0000138C 
    -------------------------------------------------------------------------
XDATA_I
  Relative segment, address: XDATA 00001395 - 000013A1 (0xd bytes), align: 0
  Segment part 119.           Intra module refs:   cmd_0x03
    -------------------------------------------------------------------------
XDATA_I
  Relative segment, address: XDATA 000013A2 - 000013AC (0xb bytes), align: 0
  Segment part 121.           Intra module refs:   cmd_0x03
    -------------------------------------------------------------------------
XDATA_I
  Relative segment, address: XDATA 000013AD - 000013C4 (0x18 bytes), align: 0
  Segment part 123.           Intra module refs:   cmd_0x03
    -------------------------------------------------------------------------
XDATA_I
  Relative segment, address: XDATA 000013C5 - 000013C7 (0x3 bytes), align: 0
  Segment part 125.           Intra module refs:   cmd_0x03
    -------------------------------------------------------------------------
XDATA_I
  Relative segment, address: XDATA 000013C8 - 000013DE (0x17 bytes), align: 0
  Segment part 127.           Intra module refs:   cmd_0x03
    -------------------------------------------------------------------------
XDATA_I
  Relative segment, address: XDATA 000013DF - 000013E7 (0x9 bytes), align: 0
  Segment part 129.           Intra module refs:   cmd_0x04
           LOCAL                   ADDRESS         
           =====                   =======         
           cmd_0x04::__FUNCTION__
                                   000013DF 
    -------------------------------------------------------------------------
XDATA_I
  Relative segment, address: XDATA 000013E8 - 000013F4 (0xd bytes), align: 0
  Segment part 131.           Intra module refs:   cmd_0x04
    -------------------------------------------------------------------------
XDATA_I
  Relative segment, address: XDATA 000013F5 - 000013FF (0xb bytes), align: 0
  Segment part 133.           Intra module refs:   cmd_0x04
    -------------------------------------------------------------------------
XDATA_I
  Relative segment, address: XDATA 00001400 - 00001413 (0x14 bytes), align: 0
  Segment part 135.           Intra module refs:   cmd_0x04
    -------------------------------------------------------------------------
XDATA_I
  Relative segment, address: XDATA 00001414 - 00001416 (0x3 bytes), align: 0
  Segment part 137.           Intra module refs:   cmd_0x04
    -------------------------------------------------------------------------
XDATA_I
  Relative segment, address: XDATA 00001417 - 0000141F (0x9 bytes), align: 0
  Segment part 139.           Intra module refs:   cmd_0x05
           LOCAL                   ADDRESS         
           =====                   =======         
           cmd_0x05::__FUNCTION__
                                   00001417 
    -------------------------------------------------------------------------
XDATA_I
  Relative segment, address: XDATA 00001420 - 0000142C (0xd bytes), align: 0
  Segment part 141.           Intra module refs:   cmd_0x05
    -------------------------------------------------------------------------
XDATA_I
  Relative segment, address: XDATA 0000142D - 00001437 (0xb bytes), align: 0
  Segment part 143.           Intra module refs:   cmd_0x05
    -------------------------------------------------------------------------
XDATA_I
  Relative segment, address: XDATA 00001438 - 0000144C (0x15 bytes), align: 0
  Segment part 145.           Intra module refs:   cmd_0x05
    -------------------------------------------------------------------------
XDATA_I
  Relative segment, address: XDATA 0000144D - 0000144F (0x3 bytes), align: 0
  Segment part 147.           Intra module refs:   cmd_0x05
    -------------------------------------------------------------------------
XDATA_I
  Relative segment, address: XDATA 00001450 - 00001458 (0x9 bytes), align: 0
  Segment part 149.           Intra module refs:   cmd_0x06
           LOCAL                   ADDRESS         
           =====                   =======         
           cmd_0x06::__FUNCTION__
                                   00001450 
    -------------------------------------------------------------------------
XDATA_I
  Relative segment, address: XDATA 00001459 - 00001465 (0xd bytes), align: 0
  Segment part 151.           Intra module refs:   cmd_0x06
    -------------------------------------------------------------------------
XDATA_I
  Relative segment, address: XDATA 00001466 - 00001470 (0xb bytes), align: 0
  Segment part 153.           Intra module refs:   cmd_0x06
    -------------------------------------------------------------------------
XDATA_I
  Relative segment, address: XDATA 00001471 - 00001484 (0x14 bytes), align: 0
  Segment part 155.           Intra module refs:   cmd_0x06
    -------------------------------------------------------------------------
XDATA_I
  Relative segment, address: XDATA 00001485 - 00001487 (0x3 bytes), align: 0
  Segment part 157.           Intra module refs:   cmd_0x06
    -------------------------------------------------------------------------
XDATA_I
  Relative segment, address: XDATA 00001488 - 00001490 (0x9 bytes), align: 0
  Segment part 159.           Intra module refs:   cmd_0x07
           LOCAL                   ADDRESS         
           =====                   =======         
           cmd_0x07::__FUNCTION__
                                   00001488 
    -------------------------------------------------------------------------
XDATA_I
  Relative segment, address: XDATA 00001491 - 0000149D (0xd bytes), align: 0
  Segment part 161.           Intra module refs:   cmd_0x07
    -------------------------------------------------------------------------
XDATA_I
  Relative segment, address: XDATA 0000149E - 000014A8 (0xb bytes), align: 0
  Segment part 163.           Intra module refs:   cmd_0x07
    -------------------------------------------------------------------------
XDATA_I
  Relative segment, address: XDATA 000014A9 - 000014BC (0x14 bytes), align: 0
  Segment part 165.           Intra module refs:   cmd_0x07
    -------------------------------------------------------------------------
XDATA_I
  Relative segment, address: XDATA 000014BD - 000014BF (0x3 bytes), align: 0
  Segment part 167.           Intra module refs:   cmd_0x07
    -------------------------------------------------------------------------
XDATA_I
  Relative segment, address: XDATA 000014C0 - 000014C8 (0x9 bytes), align: 0
  Segment part 169.           Intra module refs:   cmd_0x08
           LOCAL                   ADDRESS         
           =====                   =======         
           cmd_0x08::__FUNCTION__
                                   000014C0 
    -------------------------------------------------------------------------
XDATA_I
  Relative segment, address: XDATA 000014C9 - 000014D5 (0xd bytes), align: 0
  Segment part 171.           Intra module refs:   cmd_0x08
    -------------------------------------------------------------------------
XDATA_I
  Relative segment, address: XDATA 000014D6 - 000014E0 (0xb bytes), align: 0
  Segment part 173.           Intra module refs:   cmd_0x08
    -------------------------------------------------------------------------
XDATA_I
  Relative segment, address: XDATA 000014E1 - 000014F8 (0x18 bytes), align: 0
  Segment part 175.           Intra module refs:   cmd_0x08
    -------------------------------------------------------------------------
XDATA_I
  Relative segment, address: XDATA 000014F9 - 000014FB (0x3 bytes), align: 0
  Segment part 177.           Intra module refs:   cmd_0x08
    -------------------------------------------------------------------------
XDATA_I
  Relative segment, address: XDATA 000014FC - 00001504 (0x9 bytes), align: 0
  Segment part 179.           Intra module refs:   cmd_0x09
           LOCAL                   ADDRESS         
           =====                   =======         
           cmd_0x09::__FUNCTION__
                                   000014FC 
    -------------------------------------------------------------------------
XDATA_I
  Relative segment, address: XDATA 00001505 - 00001511 (0xd bytes), align: 0
  Segment part 181.           Intra module refs:   cmd_0x09
    -------------------------------------------------------------------------
XDATA_I
  Relative segment, address: XDATA 00001512 - 0000151C (0xb bytes), align: 0
  Segment part 183.           Intra module refs:   cmd_0x09
    -------------------------------------------------------------------------
XDATA_I
  Relative segment, address: XDATA 0000151D - 00001535 (0x19 bytes), align: 0
  Segment part 185.           Intra module refs:   cmd_0x09
    -------------------------------------------------------------------------
XDATA_I
  Relative segment, address: XDATA 00001536 - 00001538 (0x3 bytes), align: 0
  Segment part 187.           Intra module refs:   cmd_0x09
    -------------------------------------------------------------------------
XDATA_I
  Relative segment, address: XDATA 00001539 - 00001541 (0x9 bytes), align: 0
  Segment part 189.           Intra module refs:   cmd_0x0A
           LOCAL                   ADDRESS         
           =====                   =======         
           cmd_0x0A::__FUNCTION__
                                   00001539 
    -------------------------------------------------------------------------
XDATA_I
  Relative segment, address: XDATA 00001542 - 0000154E (0xd bytes), align: 0
  Segment part 191.           Intra module refs:   cmd_0x0A
    -------------------------------------------------------------------------
XDATA_I
  Relative segment, address: XDATA 0000154F - 00001559 (0xb bytes), align: 0
  Segment part 193.           Intra module refs:   cmd_0x0A
    -------------------------------------------------------------------------
XDATA_I
  Relative segment, address: XDATA 0000155A - 00001572 (0x19 bytes), align: 0
  Segment part 195.           Intra module refs:   cmd_0x0A
    -------------------------------------------------------------------------
XDATA_I
  Relative segment, address: XDATA 00001573 - 00001575 (0x3 bytes), align: 0
  Segment part 197.           Intra module refs:   cmd_0x0A
    -------------------------------------------------------------------------
XDATA_I
  Relative segment, address: XDATA 00001576 - 0000157E (0x9 bytes), align: 0
  Segment part 199.           Intra module refs:   cmd_0x0B
           LOCAL                   ADDRESS         
           =====                   =======         
           cmd_0x0B::__FUNCTION__
                                   00001576 
    -------------------------------------------------------------------------
XDATA_I
  Relative segment, address: XDATA 0000157F - 0000158B (0xd bytes), align: 0
  Segment part 201.           Intra module refs:   cmd_0x0B
    -------------------------------------------------------------------------
XDATA_I
  Relative segment, address: XDATA 0000158C - 00001596 (0xb bytes), align: 0
  Segment part 203.           Intra module refs:   cmd_0x0B
    -------------------------------------------------------------------------
XDATA_I
  Relative segment, address: XDATA 00001597 - 000015AB (0x15 bytes), align: 0
  Segment part 205.           Intra module refs:   cmd_0x0B
    -------------------------------------------------------------------------
XDATA_I
  Relative segment, address: XDATA 000015AC - 000015C2 (0x17 bytes), align: 0
  Segment part 207.           Intra module refs:   cmd_0x0B
    -------------------------------------------------------------------------
XDATA_I
  Relative segment, address: XDATA 000015C3 - 000015C5 (0x3 bytes), align: 0
  Segment part 209.           Intra module refs:   cmd_0x0B
    -------------------------------------------------------------------------
XDATA_I
  Relative segment, address: XDATA 000015C6 - 000015E0 (0x1b bytes), align: 0
  Segment part 211.           Intra module refs:   cmd_0x0B
    -------------------------------------------------------------------------
XDATA_I
  Relative segment, address: XDATA 000015E1 - 000015E9 (0x9 bytes), align: 0
  Segment part 213.           Intra module refs:   cmd_0x0C
           LOCAL                   ADDRESS         
           =====                   =======         
           cmd_0x0C::__FUNCTION__
                                   000015E1 
    -------------------------------------------------------------------------
XDATA_I
  Relative segment, address: XDATA 000015EA - 000015F6 (0xd bytes), align: 0
  Segment part 215.           Intra module refs:   cmd_0x0C
    -------------------------------------------------------------------------
XDATA_I
  Relative segment, address: XDATA 000015F7 - 00001601 (0xb bytes), align: 0
  Segment part 217.           Intra module refs:   cmd_0x0C
    -------------------------------------------------------------------------
XDATA_I
  Relative segment, address: XDATA 00001602 - 0000160E (0xd bytes), align: 0
  Segment part 219.           Intra module refs:   cmd_0x0C
    -------------------------------------------------------------------------
XDATA_I
  Relative segment, address: XDATA 0000160F - 00001628 (0x1a bytes), align: 0
  Segment part 221.           Intra module refs:   cmd_0x0C
    -------------------------------------------------------------------------
XDATA_I
  Relative segment, address: XDATA 00001629 - 0000162B (0x3 bytes), align: 0
  Segment part 223.           Intra module refs:   cmd_0x0C
    -------------------------------------------------------------------------
XDATA_I
  Relative segment, address: XDATA 0000162C - 00001634 (0x9 bytes), align: 0
  Segment part 225.           Intra module refs:   cmd_0x0D
           LOCAL                   ADDRESS         
           =====                   =======         
           cmd_0x0D::__FUNCTION__
                                   0000162C 
    -------------------------------------------------------------------------
XDATA_I
  Relative segment, address: XDATA 00001635 - 00001641 (0xd bytes), align: 0
  Segment part 227.           Intra module refs:   cmd_0x0D
    -------------------------------------------------------------------------
XDATA_I
  Relative segment, address: XDATA 00001642 - 0000164C (0xb bytes), align: 0
  Segment part 229.           Intra module refs:   cmd_0x0D
    -------------------------------------------------------------------------
XDATA_I
  Relative segment, address: XDATA 0000164D - 00001660 (0x14 bytes), align: 0
  Segment part 231.           Intra module refs:   cmd_0x0D
    -------------------------------------------------------------------------
XDATA_I
  Relative segment, address: XDATA 00001661 - 00001663 (0x3 bytes), align: 0
  Segment part 233.           Intra module refs:   cmd_0x0D
    -------------------------------------------------------------------------
XDATA_I
  Relative segment, address: XDATA 00001664 - 0000166C (0x9 bytes), align: 0
  Segment part 235.           Intra module refs:   cmd_0x0E
           LOCAL                   ADDRESS         
           =====                   =======         
           cmd_0x0E::__FUNCTION__
                                   00001664 
    -------------------------------------------------------------------------
XDATA_I
  Relative segment, address: XDATA 0000166D - 00001679 (0xd bytes), align: 0
  Segment part 237.           Intra module refs:   cmd_0x0E
    -------------------------------------------------------------------------
XDATA_I
  Relative segment, address: XDATA 0000167A - 00001684 (0xb bytes), align: 0
  Segment part 239.           Intra module refs:   cmd_0x0E
    -------------------------------------------------------------------------
XDATA_I
  Relative segment, address: XDATA 00001685 - 0000169A (0x16 bytes), align: 0
  Segment part 241.           Intra module refs:   cmd_0x0E
    -------------------------------------------------------------------------
XDATA_I
  Relative segment, address: XDATA 0000169B - 0000169D (0x3 bytes), align: 0
  Segment part 243.           Intra module refs:   cmd_0x0E
    -------------------------------------------------------------------------
XDATA_I
  Relative segment, address: XDATA 0000169E - 000016A6 (0x9 bytes), align: 0
  Segment part 245.           Intra module refs:   cmd_0x0F
           LOCAL                   ADDRESS         
           =====                   =======         
           cmd_0x0F::__FUNCTION__
                                   0000169E 
    -------------------------------------------------------------------------
XDATA_I
  Relative segment, address: XDATA 000016A7 - 000016B3 (0xd bytes), align: 0
  Segment part 247.           Intra module refs:   cmd_0x0F
    -------------------------------------------------------------------------
XDATA_I
  Relative segment, address: XDATA 000016B4 - 000016BE (0xb bytes), align: 0
  Segment part 249.           Intra module refs:   cmd_0x0F
    -------------------------------------------------------------------------
XDATA_I
  Relative segment, address: XDATA 000016BF - 000016D4 (0x16 bytes), align: 0
  Segment part 251.           Intra module refs:   cmd_0x0F
    -------------------------------------------------------------------------
XDATA_I
  Relative segment, address: XDATA 000016D5 - 000016D7 (0x3 bytes), align: 0
  Segment part 253.           Intra module refs:   cmd_0x0F
    -------------------------------------------------------------------------
XDATA_I
  Relative segment, address: XDATA 000016D8 - 000016E0 (0x9 bytes), align: 0
  Segment part 255.           Intra module refs:   cmd_0x10
           LOCAL                   ADDRESS         
           =====                   =======         
           cmd_0x10::__FUNCTION__
                                   000016D8 
    -------------------------------------------------------------------------
XDATA_I
  Relative segment, address: XDATA 000016E1 - 000016ED (0xd bytes), align: 0
  Segment part 257.           Intra module refs:   cmd_0x10
    -------------------------------------------------------------------------
XDATA_I
  Relative segment, address: XDATA 000016EE - 000016F8 (0xb bytes), align: 0
  Segment part 259.           Intra module refs:   cmd_0x10
    -------------------------------------------------------------------------
XDATA_I
  Relative segment, address: XDATA 000016F9 - 0000170F (0x17 bytes), align: 0
  Segment part 261.           Intra module refs:   cmd_0x10
    -------------------------------------------------------------------------
XDATA_I
  Relative segment, address: XDATA 00001710 - 00001712 (0x3 bytes), align: 0
  Segment part 263.           Intra module refs:   cmd_0x10
    -------------------------------------------------------------------------
XDATA_I
  Relative segment, address: XDATA 00001713 - 0000171F (0xd bytes), align: 0
  Segment part 265.           Intra module refs:   stream_write
           LOCAL                   ADDRESS         
           =====                   =======         
           stream_write::__FUNCTION__
                                   00001713 
    -------------------------------------------------------------------------
XDATA_I
  Relative segment, address: XDATA 00001720 - 0000172C (0xd bytes), align: 0
  Segment part 267.           Intra module refs:   stream_write
    -------------------------------------------------------------------------
XDATA_I
  Relative segment, address: XDATA 0000172D - 00001739 (0xd bytes), align: 0
  Segment part 269.           Intra module refs:   stream_write
    -------------------------------------------------------------------------
XDATA_I
  Relative segment, address: XDATA 0000173A - 0000175C (0x23 bytes), align: 0
  Segment part 271.           Intra module refs:   stream_write
    -------------------------------------------------------------------------
XDATA_I
  Relative segment, address: XDATA 0000175D - 0000176A (0xe bytes), align: 0
  Segment part 273.           Intra module refs:   LLC_open_slot
           LOCAL                   ADDRESS         
           =====                   =======         
           LLC_open_slot::__FUNCTION__
                                   0000175D 
    -------------------------------------------------------------------------
XDATA_I
  Relative segment, address: XDATA 0000176B - 00001777 (0xd bytes), align: 0
  Segment part 275.           Intra module refs:   LLC_close_slot
                                                   LLC_open_slot
                                                   receive
                                                   scan_tx_buffer_by_ts
                                                   scheduler_rx
                                                   scheduler_tx
    -------------------------------------------------------------------------
XDATA_I
  Relative segment, address: XDATA 00001778 - 0000177D (0x6 bytes), align: 0
  Segment part 277.           Intra module refs:   LLC_close_slot
                                                   LLC_open_slot
                                                   receive
                                                   scan_tx_buffer_by_ts
                                                   scheduler_rx
                                                   scheduler_tx
    -------------------------------------------------------------------------
XDATA_I
  Relative segment, address: XDATA 0000177E - 000017A2 (0x25 bytes), align: 0
  Segment part 279.           Intra module refs:   LLC_close_slot
                                                   LLC_open_slot
    -------------------------------------------------------------------------
XDATA_I
  Relative segment, address: XDATA 000017A3 - 000017CB (0x29 bytes), align: 0
  Segment part 281.           Intra module refs:   LLC_open_slot
    -------------------------------------------------------------------------
XDATA_I
  Relative segment, address: XDATA 000017CC - 000017DA (0xf bytes), align: 0
  Segment part 283.           Intra module refs:   LLC_close_slot
           LOCAL                   ADDRESS         
           =====                   =======         
           LLC_close_slot::__FUNCTION__
                                   000017CC 
    -------------------------------------------------------------------------
XDATA_I
  Relative segment, address: XDATA 000017DB - 000017E7 (0xd bytes), align: 0
  Segment part 285.           Intra module refs:   scheduler_tx
           LOCAL                   ADDRESS         
           =====                   =======         
           scheduler_tx::__FUNCTION__
                                   000017DB 
    -------------------------------------------------------------------------
XDATA_I
  Relative segment, address: XDATA 000017E8 - 00001807 (0x20 bytes), align: 0
  Segment part 287.           Intra module refs:   scheduler_tx
    -------------------------------------------------------------------------
XDATA_I
  Relative segment, address: XDATA 00001808 - 00001814 (0xd bytes), align: 0
  Segment part 289.           Intra module refs:   scheduler_rx
           LOCAL                   ADDRESS         
           =====                   =======         
           scheduler_rx::__FUNCTION__
                                   00001808 
    -------------------------------------------------------------------------
XDATA_I
  Relative segment, address: XDATA 00001815 - 00001832 (0x1e bytes), align: 0
  Segment part 291.           Intra module refs:   scheduler_rx
    -------------------------------------------------------------------------
XDATA_I
  Relative segment, address: XDATA 00001833 - 00001847 (0x15 bytes), align: 0
  Segment part 293.           Intra module refs:   scan_tx_buffer_by_ts
           LOCAL                   ADDRESS         
           =====                   =======         
           scan_tx_buffer_by_ts::__FUNCTION__
                                   00001833 
    -------------------------------------------------------------------------
XDATA_I
  Relative segment, address: XDATA 00001848 - 00001859 (0x12 bytes), align: 0
  Segment part 295.           Intra module refs:   scan_tx_buffer_by_ts
    -------------------------------------------------------------------------
XDATA_I
  Relative segment, address: XDATA 0000185A - 00001861 (0x8 bytes), align: 0
  Segment part 297.           Intra module refs:   receive
           LOCAL                   ADDRESS         
           =====                   =======         
           receive::__FUNCTION__   0000185A 
    -------------------------------------------------------------------------
XDATA_I
  Relative segment, address: XDATA 00001862 - 0000186C (0xb bytes), align: 0
  Segment part 299.           Intra module refs:   receive
    -------------------------------------------------------------------------
XDATA_I
  Relative segment, address: XDATA 0000186D - 00001875 (0x9 bytes), align: 0
  Segment part 301.           Intra module refs:   pre_init
           LOCAL                   ADDRESS         
           =====                   =======         
           pre_init::__FUNCTION__
                                   0000186D 
    -------------------------------------------------------------------------
XDATA_I
  Relative segment, address: XDATA 00001876 - 00001882 (0xd bytes), align: 0
  Segment part 303.           Intra module refs:   main
                                                   pre_init
    -------------------------------------------------------------------------
XDATA_I
  Relative segment, address: XDATA 00001883 - 00001889 (0x7 bytes), align: 0
  Segment part 305.           Intra module refs:   main
                                                   pre_init
    -------------------------------------------------------------------------
XDATA_I
  Relative segment, address: XDATA 0000188A - 00001899 (0x10 bytes), align: 0
  Segment part 307.           Intra module refs:   pre_init
    -------------------------------------------------------------------------
XDATA_I
  Relative segment, address: XDATA 0000189A - 0000189C (0x3 bytes), align: 0
  Segment part 309.           Intra module refs:   main
                                                   pre_init
    -------------------------------------------------------------------------
XDATA_I
  Relative segment, address: XDATA 0000189D - 000018A1 (0x5 bytes), align: 0
  Segment part 311.           Intra module refs:   main
           LOCAL                   ADDRESS         
           =====                   =======         
           main::__FUNCTION__      0000189D 
    -------------------------------------------------------------------------
XDATA_I
  Relative segment, address: XDATA 000018A2 - 000018AA (0x9 bytes), align: 0
  Segment part 313.           Intra module refs:   main
    -------------------------------------------------------------------------
XDATA_I
  Relative segment, address: XDATA 000018AB - 000018B2 (0x8 bytes), align: 0
  Segment part 325.           Intra module refs:   setFreq
           LOCAL                   ADDRESS         
           =====                   =======         
           setFreq::__FUNCTION__   000018AB 
    -------------------------------------------------------------------------
XDATA_I
  Relative segment, address: XDATA 000018B3 - 000018BF (0xd bytes), align: 0
  Segment part 327.           Intra module refs:   RI_Receive
                                                   RI_Send
                                                   setFreq
    -------------------------------------------------------------------------
XDATA_I
  Relative segment, address: XDATA 000018C0 - 000018C7 (0x8 bytes), align: 0
  Segment part 329.           Intra module refs:   RI_Receive
                                                   RI_Send
                                                   setFreq
    -------------------------------------------------------------------------
XDATA_I
  Relative segment, address: XDATA 000018C8 - 000018F4 (0x2d bytes), align: 0
  Segment part 331.           Intra module refs:   setFreq
    -------------------------------------------------------------------------
XDATA_I
  Relative segment, address: XDATA 000018F5 - 000018FC (0x8 bytes), align: 0
  Segment part 333.           Intra module refs:   RI_Send
           LOCAL                   ADDRESS         
           =====                   =======         
           RI_Send::__FUNCTION__   000018F5 
    -------------------------------------------------------------------------
XDATA_I
  Relative segment, address: XDATA 000018FD - 00001913 (0x17 bytes), align: 0
  Segment part 335.           Intra module refs:   RI_Send
    -------------------------------------------------------------------------
XDATA_I
  Relative segment, address: XDATA 00001914 - 0000191E (0xb bytes), align: 0
  Segment part 337.           Intra module refs:   RI_Receive
           LOCAL                   ADDRESS         
           =====                   =======         
           RI_Receive::__FUNCTION__
                                   00001914 
    -------------------------------------------------------------------------
XDATA_I
  Relative segment, address: XDATA 0000191F - 00001931 (0x13 bytes), align: 0
  Segment part 339.           Intra module refs:   RI_Receive
    -------------------------------------------------------------------------
XDATA_I
  Relative segment, address: XDATA 00001932 - 00001943 (0x12 bytes), align: 0
  Segment part 341.           Intra module refs:   RI_Receive
    -------------------------------------------------------------------------
XDATA_I
  Relative segment, address: XDATA 00001944 - 0000194D (0xa bytes), align: 0
  Segment part 343.           Intra module refs:   Hot_Start
           LOCAL                   ADDRESS         
           =====                   =======         
           Hot_Start::__FUNCTION__
                                   00001944 
    -------------------------------------------------------------------------
XDATA_I
  Relative segment, address: XDATA 0000194E - 0000195A (0xd bytes), align: 0
  Segment part 345.           Intra module refs:   Hot_Start
                                                   recv_sync
                                                   send_sync
    -------------------------------------------------------------------------
XDATA_I
  Relative segment, address: XDATA 0000195B - 00001961 (0x7 bytes), align: 0
  Segment part 347.           Intra module refs:   Hot_Start
                                                   recv_sync
                                                   send_sync
    -------------------------------------------------------------------------
XDATA_I
  Relative segment, address: XDATA 00001962 - 0000196C (0xb bytes), align: 0
  Segment part 349.           Intra module refs:   Hot_Start
    -------------------------------------------------------------------------
XDATA_I
  Relative segment, address: XDATA 0000196D - 00001976 (0xa bytes), align: 0
  Segment part 351.           Intra module refs:   recv_sync
           LOCAL                   ADDRESS         
           =====                   =======         
           recv_sync::__FUNCTION__
                                   0000196D 
    -------------------------------------------------------------------------
XDATA_I
  Relative segment, address: XDATA 00001977 - 00001984 (0xe bytes), align: 0
  Segment part 353.           Intra module refs:   recv_sync
    -------------------------------------------------------------------------
XDATA_I
  Relative segment, address: XDATA 00001985 - 0000198E (0xa bytes), align: 0
  Segment part 355.           Intra module refs:   send_sync
           LOCAL                   ADDRESS         
           =====                   =======         
           send_sync::__FUNCTION__
                                   00001985 
    -------------------------------------------------------------------------
XDATA_I
  Relative segment, address: XDATA 0000198F - 0000199D (0xf bytes), align: 0
  Segment part 357.           Intra module refs:   send_sync
    -------------------------------------------------------------------------
XDATA_I
  Relative segment, address: XDATA 0000199E - 000019B3 (0x16 bytes), align: 0
  Segment part 359.           Intra module refs:   send_sync
    -------------------------------------------------------------------------
XDATA_I
  Relative segment, address: XDATA 000019B4 - 000019B6 (0x3 bytes), align: 0
  Segment part 361.           Intra module refs:   send_sync
    -------------------------------------------------------------------------
XDATA_I
  Relative segment, address: XDATA 000019B7 - 000019C2 (0xc bytes), align: 0
  Segment part 365.           Intra module refs:   TM_SetAlarm
           LOCAL                   ADDRESS         
           =====                   =======         
           TM_SetAlarm::__FUNCTION__
                                   000019B7 
    -------------------------------------------------------------------------
XDATA_I
  Relative segment, address: XDATA 000019C3 - 000019CF (0xd bytes), align: 0
  Segment part 367.           Intra module refs:   Neocore_start
                                                   TM_ClrAlarm
                                                   TM_SetAlarm
    -------------------------------------------------------------------------
XDATA_I
  Relative segment, address: XDATA 000019D0 - 000019DE (0xf bytes), align: 0
  Segment part 369.           Intra module refs:   Neocore_start
                                                   TM_ClrAlarm
                                                   TM_SetAlarm
    -------------------------------------------------------------------------
XDATA_I
  Relative segment, address: XDATA 000019DF - 00001A00 (0x22 bytes), align: 0
  Segment part 371.           Intra module refs:   TM_ClrAlarm
                                                   TM_SetAlarm
    -------------------------------------------------------------------------
XDATA_I
  Relative segment, address: XDATA 00001A01 - 00001A0C (0xc bytes), align: 0
  Segment part 373.           Intra module refs:   TM_ClrAlarm
           LOCAL                   ADDRESS         
           =====                   =======         
           TM_ClrAlarm::__FUNCTION__
                                   00001A01 
    -------------------------------------------------------------------------
XDATA_I
  Relative segment, address: XDATA 00001A0D - 00001A1A (0xe bytes), align: 0
  Segment part 375.           Intra module refs:   Neocore_start
           LOCAL                   ADDRESS         
           =====                   =======         
           Neocore_start::__FUNCTION__
                                   00001A0D 
    -------------------------------------------------------------------------
XDATA_I
  Relative segment, address: XDATA 00001A1B - 00001A32 (0x18 bytes), align: 0
  Segment part 377.           Intra module refs:   Neocore_start
    -------------------------------------------------------------------------
XDATA_I
  Relative segment, address: XDATA 00001A33 - 00001A38 (0x6 bytes), align: 0
  Segment part 379.           Intra module refs:   AM_Cold_start
           LOCAL                   ADDRESS         
           =====                   =======         
           COLD_MOD                00001A33 
    -------------------------------------------------------------------------
XDATA_I
  Relative segment, address: XDATA 00001A39 - 00001A40 (0x8 bytes), align: 0
  Segment part 381.           Intra module refs:   AM_Hot_start
           LOCAL                   ADDRESS         
           =====                   =======         
           HOT_MOD                 00001A39 
    -------------------------------------------------------------------------
XDATA_I
  Relative segment, address: XDATA 00001A41 - 00001A50 (0x10 bytes), align: 0
  Segment part 383.           Intra module refs:   AM_HW_Init
           LOCAL                   ADDRESS         
           =====                   =======         
           HW_MOD                  00001A41 
    -------------------------------------------------------------------------
XDATA_I
  Relative segment, address: XDATA 00001A51 - 00001A60 (0x10 bytes), align: 0
  Segment part 385.           Intra module refs:   AM_SW_Init
           LOCAL                   ADDRESS         
           =====                   =======         
           SW_MOD                  00001A51 
    -------------------------------------------------------------------------
XDATA_Z
  Relative segment, address: XDATA 00000101 - 00000102 (0x2 bytes), align: 0
  Segment part 387.           Intra module refs:   AM_Callback
           LOCAL                   ADDRESS         
           =====                   =======         
           CALLBACK                00000101 
    -------------------------------------------------------------------------
<BANKED_CODE> 1 (was BANKED_CODE)
  Relative segment, address: CODE 0000183B - 00001895 (0x5b bytes), align: 0
  Segment part 477.           Intra module refs:   AM_Callback::?relay
           ENTRY                   ADDRESS         REF BY
           =====                   =======         ======
           AM_Callback             0000183B 
               calls direct
               XSTACK = 00000000 ( 00000010 )
    -------------------------------------------------------------------------
<BANKED_CODE> 1 (was BANKED_CODE)
  Relative segment, address: CODE 00001896 - 00001957 (0xc2 bytes), align: 0
  Segment part 479.           Intra module refs:   AM_Cold_start::?relay
           ENTRY                   ADDRESS         REF BY
           =====                   =======         ======
           AM_Cold_start           00001896 
               calls direct
               XSTACK = 00000009 ( 00000010 )
    -------------------------------------------------------------------------
<BANKED_CODE> 1 (was BANKED_CODE)
  Relative segment, address: CODE 00001958 - 00001A1D (0xc6 bytes), align: 0
  Segment part 481.           Intra module refs:   AM_Hot_start::?relay
           ENTRY                   ADDRESS         REF BY
           =====                   =======         ======
           AM_Hot_start            00001958 
               calls direct
               XSTACK = 00000009 ( 00000010 )
    -------------------------------------------------------------------------
<BANKED_CODE> 1 (was BANKED_CODE)
  Relative segment, address: CODE 00001A1E - 00001AD7 (0xba bytes), align: 0
  Segment part 483.           Intra module refs:   AM_HW_Init::?relay
           ENTRY                   ADDRESS         REF BY
           =====                   =======         ======
           AM_HW_Init              00001A1E 
               calls direct
               XSTACK = 0000000A ( 00000010 )
    -------------------------------------------------------------------------
<BANKED_CODE> 1 (was BANKED_CODE)
  Relative segment, address: CODE 00001AD8 - 00001B95 (0xbe bytes), align: 0
  Segment part 485.           Intra module refs:   AM_SW_Init::?relay
           ENTRY                   ADDRESS         REF BY
           =====                   =======         ======
           AM_SW_Init              00001AD8 
               calls direct
               XSTACK = 00000000 ( 00000010 )
    -------------------------------------------------------------------------
<BANKED_CODE> 1 (was BANKED_CODE)
  Relative segment, address: CODE 00001B96 - 00001B9C (0x7 bytes), align: 0
  Segment part 487.           Intra module refs:   __cli::?relay
           LOCAL                   ADDRESS         
           =====                   =======         
           __cli                   00001B96 
               XSTACK = 00000009 ( 00000000 )
    -------------------------------------------------------------------------
XDATA_I
  Relative segment, address: XDATA 00001A61 - 00001A68 (0x8 bytes), align: 0
  Segment part 388.           Intra module refs:   Segment part 384
           ENTRY                   ADDRESS         REF BY
           =====                   =======         ======
           AT_MODULE               00001A61 
    -------------------------------------------------------------------------
XDATA_Z
  Relative segment, address: XDATA 00000103 - 00000104 (0x2 bytes), align: 0
  Segment part 390.           Intra module refs:   AT_set_time
                                                   AT_time
                                                   AT_wait
                                                   HW_Init
                                                   calcCompareTime
           LOCAL                   ADDRESS         
           =====                   =======         
           TOFFSET                 00000103 
    -------------------------------------------------------------------------
XDATA_Z
  Relative segment, address: XDATA 00000105 - 00000108 (0x4 bytes), align: 0
  Segment part 391.           Intra module refs:   AT_set_alarm
                                                   AT_set_time
                                                   HW_Init
           LOCAL                   ADDRESS         
           =====                   =======         
           COMPARE_TIME            00000105 
    -------------------------------------------------------------------------
<BANKED_CODE> 1 (was BANKED_CODE)
  Relative segment, address: CODE 00001B9D - 00001BC8 (0x2c bytes), align: 0
  Segment part 489.           Intra module refs:   HW_Init::?relay
           LOCAL                   ADDRESS         
           =====                   =======         
           HW_Init                 00001B9D 
               calls direct, is indirectly called
               ISTACK = 00000000 ( 00000002 )
    -------------------------------------------------------------------------
<BANKED_CODE> 1 (was BANKED_CODE)
  Relative segment, address: CODE 00001BC9 - 00001BF3 (0x2b bytes), align: 0
  Segment part 491.           Intra module refs:   AT_enable::?relay
           ENTRY                   ADDRESS         REF BY
           =====                   =======         ======
           AT_enable               00001BC9 
               calls direct
               XSTACK = 00000009 ( 00000009 )
    -------------------------------------------------------------------------
<BANKED_CODE> 1 (was BANKED_CODE)
  Relative segment, address: CODE 00001BF4 - 00001C15 (0x22 bytes), align: 0
  Segment part 493.           Intra module refs:   AT_interval::?relay
           ENTRY                   ADDRESS         REF BY
           =====                   =======         ======
           AT_interval             00001BF4 
               XSTACK = 0000000E ( 00000000 )
    -------------------------------------------------------------------------
<BANKED_CODE> 1 (was BANKED_CODE)
  Relative segment, address: CODE 00001C16 - 00001CA5 (0x90 bytes), align: 0
  Segment part 495.           Intra module refs:   AT_set_time::?relay
           ENTRY                   ADDRESS         REF BY
           =====                   =======         ======
           AT_set_time             00001C16 
               calls direct
               XSTACK = 0000000E ( 00000014 )
    -------------------------------------------------------------------------
<BANKED_CODE> 1 (was BANKED_CODE)
  Relative segment, address: CODE 00001CA6 - 00001CDC (0x37 bytes), align: 0
  Segment part 497.           Intra module refs:   AT_time::?relay
           ENTRY                   ADDRESS         REF BY
           =====                   =======         ======
           AT_time                 00001CA6 
               calls direct
               XSTACK = 00000043 ( 00000010 )
    -------------------------------------------------------------------------
<BANKED_CODE> 1 (was BANKED_CODE)
  Relative segment, address: CODE 00001CDD - 00001D8E (0xb2 bytes), align: 0
  Segment part 499.           Intra module refs:   AT_wait::?relay
           ENTRY                   ADDRESS         REF BY
           =====                   =======         ======
           AT_wait                 00001CDD 
               calls direct
               XSTACK = 0000003F ( 00000012 )
    -------------------------------------------------------------------------
XDATA_Z
  Relative segment, address: XDATA 00000109 - 0000010C (0x4 bytes), align: 0
  Segment part 392.           Intra module refs:   AT_wait
           LOCAL                   ADDRESS         
           =====                   =======         
           AT_wait::val            00000109 
    -------------------------------------------------------------------------
<BANKED_CODE> 1 (was BANKED_CODE)
  Relative segment, address: CODE 00001D8F - 00001D9F (0x11 bytes), align: 0
  Segment part 501.           Intra module refs:   IRQEnable::?relay
           LOCAL                   ADDRESS         
           =====                   =======         
           IRQEnable               00001D8F 
               XSTACK = 0000000F ( 00000000 )
    -------------------------------------------------------------------------
<BANKED_CODE> 1 (was BANKED_CODE)
  Relative segment, address: CODE 00001DA0 - 00001E21 (0x82 bytes), align: 0
  Segment part 503.           Intra module refs:   AT_set_alarm::?relay
           ENTRY                   ADDRESS         REF BY
           =====                   =======         ======
           AT_set_alarm            00001DA0 
               calls direct
               XSTACK = 0000000E ( 00000012 )
    -------------------------------------------------------------------------
<BANKED_CODE> 1 (was BANKED_CODE)
  Relative segment, address: CODE 00001E22 - 00001EDE (0xbd bytes), align: 0
  Segment part 505.           Intra module refs:   calcCompareTime::?relay
           LOCAL                   ADDRESS         
           =====                   =======         
           calcCompareTime         00001E22 
               calls direct
               XSTACK = 0000000C ( 00000016 )
               ISTACK = 00000000 ( 00000002 )
    -------------------------------------------------------------------------
<BANKED_CODE> 1 (was BANKED_CODE)
  Relative segment, address: CODE 00001EDF - 00001F19 (0x3b bytes), align: 0
  Segment part 507.           Intra module refs:   ReadTimer::?relay
           LOCAL                   ADDRESS         
           =====                   =======         
           ReadTimer               00001EDF 
               XSTACK = 00000016 ( 00000000 )
               ISTACK = 00000000 ( 00000002 )
    -------------------------------------------------------------------------
XDATA_Z
  Relative segment, address: XDATA 0000010D - 00000110 (0x4 bytes), align: 0
  Segment part 393.           Intra module refs:   ReadTimer
           LOCAL                   ADDRESS         
           =====                   =======         
           ReadTimer::ret_val      0000010D 
    -------------------------------------------------------------------------
<BANKED_CODE> 1 (was BANKED_CODE)
  Relative segment, address: CODE 00001F1A - 00001F5F (0x46 bytes), align: 0
  Segment part 509.           Intra module refs:   loadTimerCompare::?relay
           LOCAL                   ADDRESS         
           =====                   =======         
           loadTimerCompare        00001F1A 
               XSTACK = 0000000C ( 00000010 )
    -------------------------------------------------------------------------
<BANKED_CODE> 1 (was BANKED_CODE)
  Relative segment, address: CODE 00001F60 - 00001F64 (0x5 bytes), align: 0
  Segment part 511.           Intra module refs:   isIRQEnable::?relay
           LOCAL                   ADDRESS         
           =====                   =======         
           isIRQEnable             00001F60 
               XSTACK = 0000000E ( 00000000 )
    -------------------------------------------------------------------------
NEAR_CODE
  Relative segment, address: CODE 00001816 - 0000183A (0x25 bytes), align: 0
  Segment part 837.           Intra module refs:   TimerCompareInterrupt::??INTVEC 43
           ENTRY                   ADDRESS         REF BY
           =====                   =======         ======
           TimerCompareInterrupt   00001816 
               interrupt function
               calls direct
               XSTACK = 00000000 ( 0000000F )
    -------------------------------------------------------------------------
<BANKED_CODE> 1 (was BANKED_CODE)
  Relative segment, address: CODE 00001F65 - 00001F6B (0x7 bytes), align: 0
  Segment part 513.           Intra module refs:   __cli::?relay
           LOCAL                   ADDRESS         
           =====                   =======         
           __cli                   00001F65 
               XSTACK = 0000000B ( 00000000 )
    -------------------------------------------------------------------------
<BANKED_CODE> 1 (was BANKED_CODE)
  Relative segment, address: CODE 00001F6C - 00001F8A (0x1f bytes), align: 0
  Segment part 515.           Intra module refs:   INIT_LIST_HEAD::?relay
           LOCAL                   ADDRESS         
           =====                   =======         
           INIT_LIST_HEAD          00001F6C 
               XSTACK = 00000009 ( 00000000 )
               ISTACK = 00000000 ( 00000002 )
    -------------------------------------------------------------------------
<BANKED_CODE> 1 (was BANKED_CODE)
  Relative segment, address: CODE 00001F8B - 00001F8E (0x4 bytes), align: 0
  Segment part 517.           Intra module refs:   __list_add_valid::?relay
           LOCAL                   ADDRESS         
           =====                   =======         
           __list_add_valid        00001F8B 
               XSTACK = 0000000E ( 00000000 )
    -------------------------------------------------------------------------
<BANKED_CODE> 1 (was BANKED_CODE)
  Relative segment, address: CODE 00001F8F - 00001F92 (0x4 bytes), align: 0
  Segment part 519.           Intra module refs:   __list_del_entry_valid::?relay
           LOCAL                   ADDRESS         
           =====                   =======         
           __list_del_entry_valid
                                   00001F8F 
               XSTACK = 00000009 ( 00000000 )
    -------------------------------------------------------------------------
<BANKED_CODE> 1 (was BANKED_CODE)
  Relative segment, address: CODE 00001F93 - 00001FF7 (0x65 bytes), align: 0
  Segment part 521.           Intra module refs:   __list_add::?relay
           LOCAL                   ADDRESS         
           =====                   =======         
           __list_add              00001F93 
               calls direct
               XSTACK = 0000000C ( 0000000E )
    -------------------------------------------------------------------------
<BANKED_CODE> 1 (was BANKED_CODE)
  Relative segment, address: CODE 00001FF8 - 00002020 (0x29 bytes), align: 0
  Segment part 523.           Intra module refs:   list_add::?relay
           LOCAL                   ADDRESS         
           =====                   =======         
           list_add                00001FF8 
               calls direct
               XSTACK = 0000000E ( 0000000C )
    -------------------------------------------------------------------------
<BANKED_CODE> 1 (was BANKED_CODE)
  Relative segment, address: CODE 00002021 - 0000203F (0x1f bytes), align: 0
  Segment part 525.           Intra module refs:   __list_del::?relay
           LOCAL                   ADDRESS         
           =====                   =======         
           __list_del              00002021 
               XSTACK = 00000009 ( 00000000 )
               ISTACK = 00000000 ( 00000002 )
    -------------------------------------------------------------------------
<BANKED_CODE> 1 (was BANKED_CODE)
  Relative segment, address: CODE 00002040 - 0000206D (0x2e bytes), align: 0
  Segment part 527.           Intra module refs:   __list_del_entry::?relay
           LOCAL                   ADDRESS         
           =====                   =======         
           __list_del_entry        00002040 
               calls direct
               XSTACK = 00000009 ( 00000009 )
    -------------------------------------------------------------------------
<BANKED_CODE> 1 (was BANKED_CODE)
  Relative segment, address: CODE 0000206E - 0000209A (0x2d bytes), align: 0
  Segment part 529.           Intra module refs:   list_del::?relay
           LOCAL                   ADDRESS         
           =====                   =======         
           list_del                0000206E 
               calls direct
               XSTACK = 0000000B ( 00000009 )
    -------------------------------------------------------------------------
<BANKED_CODE> 1 (was BANKED_CODE)
  Relative segment, address: CODE 0000209B - 000020C3 (0x29 bytes), align: 0
  Segment part 531.           Intra module refs:   list_empty::?relay
           LOCAL                   ADDRESS         
           =====                   =======         
           list_empty              0000209B 
               XSTACK = 0000000A ( 00000000 )
               ISTACK = 00000000 ( 00000002 )
    -------------------------------------------------------------------------
XDATA_I
  Relative segment, address: XDATA 00001A69 - 00001A70 (0x8 bytes), align: 0
  Segment part 394.           Intra module refs:   Segment part 386
           ENTRY                   ADDRESS         REF BY
           =====                   =======         ======
           BF_MODULE               00001A69 
    -------------------------------------------------------------------------
XDATA_Z
  Relative segment, address: XDATA 00000111 - 00000188 (0x78 bytes), align: 0
  Segment part 396.           Intra module refs:   SW_Init
                                                   find_free_node
           LOCAL                   ADDRESS         
           =====                   =======         
           NODE_LIST               00000111 
    -------------------------------------------------------------------------
XDATA_I
  Relative segment, address: XDATA 00001A71 - 00001A74 (0x4 bytes), align: 0
  Segment part 397.           Intra module refs:   BF_cursor_tx
                                                   BF_push_tx
                                                   SW_Init
                                                   Segment part 398
           ENTRY                   ADDRESS         REF BY
           =====                   =======         ======
           TX_LIST_HEAD            00001A71 
    -------------------------------------------------------------------------
XDATA_I
  Relative segment, address: XDATA 00001A75 - 00001A78 (0x4 bytes), align: 0
  Segment part 399.           Intra module refs:   BF_cursor_rx
                                                   BF_push_rx
                                                   SW_Init
                                                   Segment part 400
           ENTRY                   ADDRESS         REF BY
           =====                   =======         ======
           RX_LIST_HEAD            00001A75 
    -------------------------------------------------------------------------
XDATA_Z
  Relative segment, address: XDATA 00000189 - 0000018A (0x2 bytes), align: 0
  Segment part 401.           Intra module refs:   BF_push_tx
                                                   BF_remove
                                                   BF_tx_busy
                                                   SW_Init
           LOCAL                   ADDRESS         
           =====                   =======         
           TX_BUFF_FRAME_COUNT     00000189 
    -------------------------------------------------------------------------
XDATA_Z
  Relative segment, address: XDATA 0000018B - 0000018C (0x2 bytes), align: 0
  Segment part 402.           Intra module refs:   BF_push_rx
                                                   BF_rx_busy
                                                   SW_Init
           LOCAL                   ADDRESS         
           =====                   =======         
           RX_BUFF_FRAME_COUNT     0000018B 
    -------------------------------------------------------------------------
<BANKED_CODE> 1 (was BANKED_CODE)
  Relative segment, address: CODE 000020C4 - 0000211A (0x57 bytes), align: 0
  Segment part 533.           Intra module refs:   SW_Init::?relay
           LOCAL                   ADDRESS         
           =====                   =======         
           SW_Init                 000020C4 
               calls direct, is indirectly called
               XSTACK = 00000000 ( 00000009 )
    -------------------------------------------------------------------------
<BANKED_CODE> 1 (was BANKED_CODE)
  Relative segment, address: CODE 0000211B - 0000212D (0x13 bytes), align: 0
  Segment part 535.           Intra module refs:   BF_rx_busy::?relay
           ENTRY                   ADDRESS         REF BY
           =====                   =======         ======
           BF_rx_busy              0000211B 
               XSTACK = 0000000D ( 00000000 )
               ISTACK = 00000000 ( 00000002 )
    -------------------------------------------------------------------------
<BANKED_CODE> 1 (was BANKED_CODE)
  Relative segment, address: CODE 0000212E - 00002140 (0x13 bytes), align: 0
  Segment part 537.           Intra module refs:   BF_tx_busy::?relay
           ENTRY                   ADDRESS         REF BY
           =====                   =======         ======
           BF_tx_busy              0000212E 
               XSTACK = 0000000D ( 00000000 )
               ISTACK = 00000000 ( 00000002 )
    -------------------------------------------------------------------------
<BANKED_CODE> 1 (was BANKED_CODE)
  Relative segment, address: CODE 00002141 - 00002181 (0x41 bytes), align: 0
  Segment part 541.           Intra module refs:   find_free_node::?relay
           LOCAL                   ADDRESS         
           =====                   =======         
           find_free_node          00002141 
               calls direct
               XSTACK = 0000000E ( 00000009 )
    -------------------------------------------------------------------------
<BANKED_CODE> 1 (was BANKED_CODE)
  Relative segment, address: CODE 00002182 - 000021FC (0x7b bytes), align: 0
  Segment part 543.           Intra module refs:   _push::?relay
           LOCAL                   ADDRESS         
           =====                   =======         
           _push                   00002182 
               calls direct
               XSTACK = 00000009 ( 00000014 )
    -------------------------------------------------------------------------
<BANKED_CODE> 1 (was BANKED_CODE)
  Relative segment, address: CODE 000021FD - 00002241 (0x45 bytes), align: 0
  Segment part 545.           Intra module refs:   BF_push_tx::?relay
           ENTRY                   ADDRESS         REF BY
           =====                   =======         ======
           BF_push_tx              000021FD 
               calls direct
               XSTACK = 00000017 ( 00000009 )
    -------------------------------------------------------------------------
<BANKED_CODE> 1 (was BANKED_CODE)
  Relative segment, address: CODE 00002242 - 00002286 (0x45 bytes), align: 0
  Segment part 547.           Intra module refs:   BF_push_rx::?relay
           ENTRY                   ADDRESS         REF BY
           =====                   =======         ======
           BF_push_rx              00002242 
               calls direct
               XSTACK = 0000000A ( 00000009 )
    -------------------------------------------------------------------------
<BANKED_CODE> 1 (was BANKED_CODE)
  Relative segment, address: CODE 00002287 - 000022D3 (0x4d bytes), align: 0
  Segment part 549.           Intra module refs:   BF_cursor_rx::?relay
           ENTRY                   ADDRESS         REF BY
           =====                   =======         ======
           BF_cursor_rx            00002287 
               calls direct
               XSTACK = 00000010 ( 0000000A )
    -------------------------------------------------------------------------
<BANKED_CODE> 1 (was BANKED_CODE)
  Relative segment, address: CODE 000022D4 - 00002320 (0x4d bytes), align: 0
  Segment part 551.           Intra module refs:   BF_cursor_tx::?relay
           ENTRY                   ADDRESS         REF BY
           =====                   =======         ======
           BF_cursor_tx            000022D4 
               calls direct
               XSTACK = 0000000E ( 0000000A )
    -------------------------------------------------------------------------
<BANKED_CODE> 1 (was BANKED_CODE)
  Relative segment, address: CODE 00002321 - 0000237B (0x5b bytes), align: 0
  Segment part 553.           Intra module refs:   BF_cursor_next::?relay
           ENTRY                   ADDRESS         REF BY
           =====                   =======         ======
           BF_cursor_next          00002321 
               calls direct
               XSTACK = 0000000E ( 0000000B )
    -------------------------------------------------------------------------
<BANKED_CODE> 1 (was BANKED_CODE)
  Relative segment, address: CODE 0000237C - 000023D0 (0x55 bytes), align: 0
  Segment part 555.           Intra module refs:   BF_remove::?relay
           ENTRY                   ADDRESS         REF BY
           =====                   =======         ======
           BF_remove               0000237C 
               calls direct
               XSTACK = 00000010 ( 0000000B )
    -------------------------------------------------------------------------
<BANKED_CODE> 1 (was BANKED_CODE)
  Relative segment, address: CODE 000023D1 - 000023F2 (0x22 bytes), align: 0
  Segment part 557.           Intra module refs:   BF_content::?relay
           ENTRY                   ADDRESS         REF BY
           =====                   =======         ======
           BF_content              000023D1 
               XSTACK = 00000010 ( 00000000 )
               ISTACK = 00000000 ( 00000002 )
    -------------------------------------------------------------------------
<BANKED_CODE> 1 (was BANKED_CODE)
  Relative segment, address: CODE 000023F3 - 000024A8 (0xb6 bytes), align: 0
  Segment part 559.           Intra module refs:   cmd_0x00::?relay
           ENTRY                   ADDRESS         REF BY
           =====                   =======         ======
           cmd_0x00                000023F3 
               calls direct, is indirectly called
               XSTACK = 00000000 ( 00000013 )
    -------------------------------------------------------------------------
<BANKED_CODE> 1 (was BANKED_CODE)
  Relative segment, address: CODE 000024A9 - 0000252C (0x84 bytes), align: 0
  Segment part 561.           Intra module refs:   cmd_0x01::?relay
           ENTRY                   ADDRESS         REF BY
           =====                   =======         ======
           cmd_0x01                000024A9 
               calls direct, is indirectly called
               XSTACK = 00000000 ( 00000014 )
    -------------------------------------------------------------------------
<BANKED_CODE> 1 (was BANKED_CODE)
  Relative segment, address: CODE 0000252D - 0000257C (0x50 bytes), align: 0
  Segment part 563.           Intra module refs:   cmd_0x02::?relay
           ENTRY                   ADDRESS         REF BY
           =====                   =======         ======
           cmd_0x02                0000252D 
               calls direct, is indirectly called
               XSTACK = 00000000 ( 0000000C )
    -------------------------------------------------------------------------
<BANKED_CODE> 1 (was BANKED_CODE)
  Relative segment, address: CODE 0000257D - 00002647 (0xcb bytes), align: 0
  Segment part 565.           Intra module refs:   cmd_0x03::?relay
           ENTRY                   ADDRESS         REF BY
           =====                   =======         ======
           cmd_0x03                0000257D 
               calls direct, is indirectly called
               XSTACK = 00000000 ( 00000014 )
    -------------------------------------------------------------------------
<BANKED_CODE> 1 (was BANKED_CODE)
  Relative segment, address: CODE 00002648 - 000026DE (0x97 bytes), align: 0
  Segment part 567.           Intra module refs:   cmd_0x04::?relay
           ENTRY                   ADDRESS         REF BY
           =====                   =======         ======
           cmd_0x04                00002648 
               calls direct, is indirectly called
               XSTACK = 00000000 ( 00000014 )
    -------------------------------------------------------------------------
<BANKED_CODE> 1 (was BANKED_CODE)
  Relative segment, address: CODE 000026DF - 00002775 (0x97 bytes), align: 0
  Segment part 569.           Intra module refs:   cmd_0x05::?relay
           ENTRY                   ADDRESS         REF BY
           =====                   =======         ======
           cmd_0x05                000026DF 
               calls direct, is indirectly called
               XSTACK = 00000000 ( 00000014 )
    -------------------------------------------------------------------------
<BANKED_CODE> 1 (was BANKED_CODE)
  Relative segment, address: CODE 00002776 - 000027DC (0x67 bytes), align: 0
  Segment part 571.           Intra module refs:   cmd_0x06::?relay
           ENTRY                   ADDRESS         REF BY
           =====                   =======         ======
           cmd_0x06                00002776 
               calls direct, is indirectly called
               XSTACK = 00000000 ( 00000012 )
    -------------------------------------------------------------------------
<BANKED_CODE> 1 (was BANKED_CODE)
  Relative segment, address: CODE 000027DD - 00002867 (0x8b bytes), align: 0
  Segment part 573.           Intra module refs:   cmd_0x07::?relay
           ENTRY                   ADDRESS         REF BY
           =====                   =======         ======
           cmd_0x07                000027DD 
               calls direct, is indirectly called
               XSTACK = 00000000 ( 00000014 )
    -------------------------------------------------------------------------
<BANKED_CODE> 1 (was BANKED_CODE)
  Relative segment, address: CODE 00002868 - 000028EB (0x84 bytes), align: 0
  Segment part 575.           Intra module refs:   cmd_0x08::?relay
           ENTRY                   ADDRESS         REF BY
           =====                   =======         ======
           cmd_0x08                00002868 
               calls direct, is indirectly called
               XSTACK = 00000000 ( 00000014 )
    -------------------------------------------------------------------------
<BANKED_CODE> 1 (was BANKED_CODE)
  Relative segment, address: CODE 000028EC - 0000297B (0x90 bytes), align: 0
  Segment part 577.           Intra module refs:   cmd_0x09::?relay
           ENTRY                   ADDRESS         REF BY
           =====                   =======         ======
           cmd_0x09                000028EC 
               calls direct, is indirectly called
               XSTACK = 00000000 ( 00000013 )
               ISTACK = 00000000 ( 00000001 )
    -------------------------------------------------------------------------
<BANKED_CODE> 1 (was BANKED_CODE)
  Relative segment, address: CODE 0000297C - 00002A0B (0x90 bytes), align: 0
  Segment part 579.           Intra module refs:   cmd_0x0A::?relay
           ENTRY                   ADDRESS         REF BY
           =====                   =======         ======
           cmd_0x0A                0000297C 
               calls direct, is indirectly called
               XSTACK = 00000000 ( 00000013 )
               ISTACK = 00000000 ( 00000001 )
    -------------------------------------------------------------------------
<BANKED_CODE> 1 (was BANKED_CODE)
  Relative segment, address: CODE 00002A0C - 00002BD9 (0x1ce bytes), align: 0
  Segment part 581.           Intra module refs:   cmd_0x0B::?relay
           ENTRY                   ADDRESS         REF BY
           =====                   =======         ======
           cmd_0x0B                00002A0C 
               calls direct, is indirectly called
               XSTACK = 00000000 ( 0000001D )
    -------------------------------------------------------------------------
XDATA_I
  Relative segment, address: XDATA 00001A79 - 00001A7D (0x5 bytes), align: 0
  Segment part 403.           Intra module refs:   cmd_0x0B
    -------------------------------------------------------------------------
XDATA_Z
  Relative segment, address: XDATA 0000018D - 00000220 (0x94 bytes), align: 0
  Segment part 405.           Intra module refs:   upload_frame
           LOCAL                   ADDRESS         
           =====                   =======         
           upload                  0000018D 
    -------------------------------------------------------------------------
<BANKED_CODE> 1 (was BANKED_CODE)
  Relative segment, address: CODE 00002BDA - 00002CC0 (0xe7 bytes), align: 0
  Segment part 583.           Intra module refs:   cmd_0x0C::?relay
           ENTRY                   ADDRESS         REF BY
           =====                   =======         ======
           cmd_0x0C                00002BDA 
               calls direct, is indirectly called
               XSTACK = 00000000 ( 00000016 )
    -------------------------------------------------------------------------
<BANKED_CODE> 1 (was BANKED_CODE)
  Relative segment, address: CODE 00002CC1 - 00002D12 (0x52 bytes), align: 0
  Segment part 585.           Intra module refs:   upload_frame::?relay
           LOCAL                   ADDRESS         
           =====                   =======         
           upload_frame            00002CC1 
               calls direct
               XSTACK = 00000010 ( 00000009 )
    -------------------------------------------------------------------------
<BANKED_CODE> 1 (was BANKED_CODE)
  Relative segment, address: CODE 00002D13 - 00002D44 (0x32 bytes), align: 0
  Segment part 587.           Intra module refs:   mem_move::?relay
           LOCAL                   ADDRESS         
           =====                   =======         
           mem_move                00002D13 
               XSTACK = 00000009 ( 00000009 )
               ISTACK = 00000000 ( 00000001 )
    -------------------------------------------------------------------------
<BANKED_CODE> 1 (was BANKED_CODE)
  Relative segment, address: CODE 00002D45 - 00002E00 (0xbc bytes), align: 0
  Segment part 589.           Intra module refs:   cmd_0x0D::?relay
           ENTRY                   ADDRESS         REF BY
           =====                   =======         ======
           cmd_0x0D                00002D45 
               calls direct, is indirectly called
               XSTACK = 00000000 ( 00000015 )
    -------------------------------------------------------------------------
<BANKED_CODE> 1 (was BANKED_CODE)
  Relative segment, address: CODE 00002E01 - 00002E84 (0x84 bytes), align: 0
  Segment part 591.           Intra module refs:   cmd_0x0E::?relay
           ENTRY                   ADDRESS         REF BY
           =====                   =======         ======
           cmd_0x0E                00002E01 
               calls direct, is indirectly called
               XSTACK = 00000000 ( 00000014 )
    -------------------------------------------------------------------------
<BANKED_CODE> 1 (was BANKED_CODE)
  Relative segment, address: CODE 00002E85 - 00002F08 (0x84 bytes), align: 0
  Segment part 593.           Intra module refs:   cmd_0x0F::?relay
           ENTRY                   ADDRESS         REF BY
           =====                   =======         ======
           cmd_0x0F                00002E85 
               calls direct, is indirectly called
               XSTACK = 00000000 ( 00000014 )
    -------------------------------------------------------------------------
<BANKED_CODE> 1 (was BANKED_CODE)
  Relative segment, address: CODE 00002F09 - 00002F8C (0x84 bytes), align: 0
  Segment part 595.           Intra module refs:   cmd_0x10::?relay
           ENTRY                   ADDRESS         REF BY
           =====                   =======         ======
           cmd_0x10                00002F09 
               calls direct, is indirectly called
               XSTACK = 00000000 ( 00000014 )
    -------------------------------------------------------------------------
XDATA_I
  Relative segment, address: XDATA 00001A7E - 00001A9F (0x22 bytes), align: 0
  Segment part 406.           Intra module refs:   parse_uart_stream
           LOCAL                   ADDRESS         
           =====                   =======         
           CMD_LIST                00001A7E 
    -------------------------------------------------------------------------
<BANKED_CODE> 1 (was BANKED_CODE)
  Relative segment, address: CODE 00002F8D - 00003020 (0x94 bytes), align: 0
  Segment part 597.           Intra module refs:   parse_uart_stream::?relay
           ENTRY                   ADDRESS         REF BY
           =====                   =======         ======
           parse_uart_stream       00002F8D 
               calls direct
               XSTACK = 00000000 ( 0000000D )
    -------------------------------------------------------------------------
<BANKED_CODE> 1 (was BANKED_CODE)
  Relative segment, address: CODE 00003021 - 00003088 (0x68 bytes), align: 0
  Segment part 599.           Intra module refs:   cmd_answer::?relay
           ENTRY                   ADDRESS         REF BY
           =====                   =======         ======
           cmd_answer              00003021 
               calls direct
               XSTACK = 00000017 ( 00000012 )
               ISTACK = 00000000 ( 00000001 )
    -------------------------------------------------------------------------
<BANKED_CODE> 1 (was BANKED_CODE)
  Relative segment, address: CODE 00003089 - 000030C0 (0x38 bytes), align: 0
  Segment part 601.           Intra module refs:   cmd_answer_err::?relay
           ENTRY                   ADDRESS         REF BY
           =====                   =======         ======
           cmd_answer_err          00003089 
               calls direct
               XSTACK = 00000017 ( 0000000B )
               ISTACK = 00000000 ( 00000001 )
    -------------------------------------------------------------------------
<BANKED_CODE> 1 (was BANKED_CODE)
  Relative segment, address: CODE 000030C1 - 0000315D (0x9d bytes), align: 0
  Segment part 603.           Intra module refs:   stream_write::?relay
           ENTRY                   ADDRESS         REF BY
           =====                   =======         ======
           stream_write            000030C1 
               calls direct
               XSTACK = 0000000B ( 00000015 )
               ISTACK = 00000000 ( 00000001 )
    -------------------------------------------------------------------------
<BANKED_CODE> 1 (was BANKED_CODE)
  Relative segment, address: CODE 0000315E - 0000316A (0xd bytes), align: 0
  Segment part 605.           Intra module refs:   check_cmd_frame::?relay
           LOCAL                   ADDRESS         
           =====                   =======         
           check_cmd_frame         0000315E 
               XSTACK = 0000000D ( 00000000 )
    -------------------------------------------------------------------------
<BANKED_CODE> 1 (was BANKED_CODE)
  Relative segment, address: CODE 0000316B - 000031C7 (0x5d bytes), align: 0
  Segment part 607.           Intra module refs:   crc16::?relay
           LOCAL                   ADDRESS         
           =====                   =======         
           crc16                   0000316B 
               XSTACK = 00000012 ( 00000009 )
    -------------------------------------------------------------------------
XDATA_I
  Relative segment, address: XDATA 00001AA0 - 00001AA7 (0x8 bytes), align: 0
  Segment part 408.           Intra module refs:   Segment part 384
           ENTRY                   ADDRESS         REF BY
           =====                   =======         ======
           CODER_MODULE            00001AA0 
    -------------------------------------------------------------------------
<BANKED_CODE> 1 (was BANKED_CODE)
  Relative segment, address: CODE 000031C8 - 00003294 (0xcd bytes), align: 0
  Segment part 609.           Intra module refs:   HW_Init::?relay
           LOCAL                   ADDRESS         
           =====                   =======         
           HW_Init                 000031C8 
               is indirectly called
               ISTACK = 00000000 ( 00000002 )
    -------------------------------------------------------------------------
<BANKED_CODE> 1 (was BANKED_CODE)
  Relative segment, address: CODE 00003295 - 0000350C (0x278 bytes), align: 0
  Segment part 611.           Intra module refs:   AES_StreamCoder::?relay
           ENTRY                   ADDRESS         REF BY
           =====                   =======         ======
           AES_StreamCoder         00003295 
               calls direct
               XSTACK = 0000003F ( 0000002B )
    -------------------------------------------------------------------------
XDATA_I
  Relative segment, address: XDATA 00001AA8 - 00001AAF (0x8 bytes), align: 0
  Segment part 411.           Intra module refs:   Segment part 384
           ENTRY                   ADDRESS         REF BY
           =====                   =======         ======
           CPU_MODULE              00001AA8 
    -------------------------------------------------------------------------
<BANKED_CODE> 1 (was BANKED_CODE)
  Relative segment, address: CODE 0000350D - 00003523 (0x17 bytes), align: 0
  Segment part 623.           Intra module refs:   HW_Init::?relay
           LOCAL                   ADDRESS         
           =====                   =======         
           HW_Init                 0000350D 
               is indirectly called
    -------------------------------------------------------------------------
XDATA_I
  Relative segment, address: XDATA 00001AB0 - 00001AB7 (0x8 bytes), align: 0
  Segment part 413.           Intra module refs:   Segment part 384
           ENTRY                   ADDRESS         REF BY
           =====                   =======         ======
           DBG_MODULE              00001AB0 
    -------------------------------------------------------------------------
<BANKED_CODE> 1 (was BANKED_CODE)
  Relative segment, address: CODE 00003524 - 00003531 (0xe bytes), align: 0
  Segment part 625.           Intra module refs:   HW_Init::?relay
           LOCAL                   ADDRESS         
           =====                   =======         
           HW_Init                 00003524 
               calls direct, is indirectly called
               ISTACK = 00000000 ( 00000002 )
    -------------------------------------------------------------------------
<BANKED_CODE> 1 (was BANKED_CODE)
  Relative segment, address: CODE 00003532 - 00003533 (0x2 bytes), align: 0
  Segment part 627.           Intra module refs:   DBG_CORE_HALT::?relay
           ENTRY                   ADDRESS         REF BY
           =====                   =======         ======
           DBG_CORE_HALT           00003532 
               XSTACK = 0000003F ( 00000000 )
    -------------------------------------------------------------------------
<BANKED_CODE> 1 (was BANKED_CODE)
  Relative segment, address: CODE 00003534 - 0000354A (0x17 bytes), align: 0
  Segment part 631.           Intra module refs:   uart_init::?relay
           LOCAL                   ADDRESS         
           =====                   =======         
           uart_init               00003534 
    -------------------------------------------------------------------------
<BANKED_CODE> 1 (was BANKED_CODE)
  Relative segment, address: CODE 0000354B - 00003556 (0xc bytes), align: 0
  Segment part 633.           Intra module refs:   MyLowLevelPutchar::?relay
           ENTRY                   ADDRESS         REF BY
           =====                   =======         ======
           MyLowLevelPutchar       0000354B 
               XSTACK = 00000010 ( 00000000 )
    -------------------------------------------------------------------------
<BANKED_CODE> 1 (was BANKED_CODE)
  Relative segment, address: CODE 00003557 - 000035F2 (0x9c bytes), align: 0
  Segment part 635.           Intra module refs:   __write::?relay
           ENTRY                   ADDRESS         REF BY
           =====                   =======         ======
           __write                 00003557 
               calls direct
               XSTACK = 00000002 ( 00000010 )
    -------------------------------------------------------------------------
XDATA_I
  Relative segment, address: XDATA 00001AB8 - 00001ABF (0x8 bytes), align: 0
  Segment part 415.           Intra module refs:   Segment part 384
           ENTRY                   ADDRESS         REF BY
           =====                   =======         ======
           DMA_MODULE              00001AB8 
    -------------------------------------------------------------------------
XDATA_Z
  Relative segment, address: XDATA 00000221 - 00000248 (0x28 bytes), align: 0
  Segment part 417.           Intra module refs:   AES_StreamCoder
                                                   HW_Init
                                                   uart_dma_init
           ENTRY                   ADDRESS         REF BY
           =====                   =======         ======
           DMA_CH                  00000221 
    -------------------------------------------------------------------------
<BANKED_CODE> 1 (was BANKED_CODE)
  Relative segment, address: CODE 000035F3 - 00003617 (0x25 bytes), align: 0
  Segment part 637.           Intra module refs:   HW_Init::?relay
           LOCAL                   ADDRESS         
           =====                   =======         
           HW_Init                 000035F3 
               is indirectly called
    -------------------------------------------------------------------------
XDATA_I
  Relative segment, address: XDATA 00001AC0 - 00001AC7 (0x8 bytes), align: 0
  Segment part 418.           Intra module refs:   Segment part 386
           ENTRY                   ADDRESS         REF BY
           =====                   =======         ======
           FR_MODULE               00001AC0 
    -------------------------------------------------------------------------
<BANKED_CODE> 1 (was BANKED_CODE)
  Relative segment, address: CODE 00003618 - 0000361A (0x3 bytes), align: 0
  Segment part 639.           Intra module refs:   SW_Init::?relay
           LOCAL                   ADDRESS         
           =====                   =======         
           SW_Init                 00003618 
               is indirectly called
    -------------------------------------------------------------------------
<BANKED_CODE> 1 (was BANKED_CODE)
  Relative segment, address: CODE 0000361B - 00003628 (0xe bytes), align: 0
  Segment part 641.           Intra module refs:   FR_create::?relay
           ENTRY                   ADDRESS         REF BY
           =====                   =======         ======
           FR_create               0000361B 
               calls direct
               XSTACK = 00000024 ( 00000000 )
               ISTACK = 00000000 ( 00000002 )
    -------------------------------------------------------------------------
<BANKED_CODE> 1 (was BANKED_CODE)
  Relative segment, address: CODE 00003629 - 0000363D (0x15 bytes), align: 0
  Segment part 643.           Intra module refs:   FR_delete::?relay
           ENTRY                   ADDRESS         REF BY
           =====                   =======         ======
           FR_delete               00003629 
               calls direct
               XSTACK = 00000047 ( 00000009 )
    -------------------------------------------------------------------------
<BANKED_CODE> 1 (was BANKED_CODE)
  Relative segment, address: CODE 0000363E - 00003713 (0xd6 bytes), align: 0
  Segment part 645.           Intra module refs:   FR_add_header::?relay
           ENTRY                   ADDRESS         REF BY
           =====                   =======         ======
           FR_add_header           0000363E 
               calls direct
               XSTACK = 00000024 ( 00000017 )
               ISTACK = 00000000 ( 00000001 )
    -------------------------------------------------------------------------
XDATA_I
  Relative segment, address: XDATA 00001AC8 - 00001ACF (0x8 bytes), align: 0
  Segment part 422.           Intra module refs:   Segment part 380
                                                   Segment part 382
                                                   Segment part 384
           ENTRY                   ADDRESS         REF BY
           =====                   =======         ======
           LED_MODULE              00001AC8 
    -------------------------------------------------------------------------
<BANKED_CODE> 1 (was BANKED_CODE)
  Relative segment, address: CODE 00003714 - 00003716 (0x3 bytes), align: 0
  Segment part 653.           Intra module refs:   HW_Init::?relay
           LOCAL                   ADDRESS         
           =====                   =======         
           HW_Init                 00003714 
               is indirectly called
    -------------------------------------------------------------------------
<BANKED_CODE> 1 (was BANKED_CODE)
  Relative segment, address: CODE 00003717 - 00003719 (0x3 bytes), align: 0
  Segment part 655.           Intra module refs:   SW_Init::?relay
           LOCAL                   ADDRESS         
           =====                   =======         
           SW_Init                 00003717 
               is indirectly called
    -------------------------------------------------------------------------
<BANKED_CODE> 1 (was BANKED_CODE)
  Relative segment, address: CODE 0000371A - 0000371C (0x3 bytes), align: 0
  Segment part 657.           Intra module refs:   Cold_Start::?relay
           LOCAL                   ADDRESS         
           =====                   =======         
           Cold_Start              0000371A 
               is indirectly called
    -------------------------------------------------------------------------
<BANKED_CODE> 1 (was BANKED_CODE)
  Relative segment, address: CODE 0000371D - 0000371F (0x3 bytes), align: 0
  Segment part 659.           Intra module refs:   Hot_Start::?relay
           LOCAL                   ADDRESS         
           =====                   =======         
           Hot_Start               0000371D 
               is indirectly called
    -------------------------------------------------------------------------
XDATA_I
  Relative segment, address: XDATA 00001AD0 - 00001AD7 (0x8 bytes), align: 0
  Segment part 424.           Intra module refs:   Segment part 380
                                                   Segment part 382
                                                   Segment part 386
           ENTRY                   ADDRESS         REF BY
           =====                   =======         ======
           LLC_MODULE              00001AD0 
    -------------------------------------------------------------------------
XDATA_Z
  Relative segment, address: XDATA 00000249 - 0000027A (0x32 bytes), align: 0
  Segment part 426.           Intra module refs:   Hot_Start
                                                   LLC_close_slot
                                                   LLC_open_slot
                                                   SW_Init
                                                   scheduler_rx
           LOCAL                   ADDRESS         
           =====                   =======         
           OPENSLOTS               00000249 
    -------------------------------------------------------------------------
<BANKED_CODE> 1 (was BANKED_CODE)
  Relative segment, address: CODE 00003720 - 00003741 (0x22 bytes), align: 0
  Segment part 661.           Intra module refs:   SW_Init::?relay
           LOCAL                   ADDRESS         
           =====                   =======         
           SW_Init                 00003720 
               is indirectly called
               ISTACK = 00000000 ( 00000002 )
    -------------------------------------------------------------------------
<BANKED_CODE> 1 (was BANKED_CODE)
  Relative segment, address: CODE 00003742 - 000037E9 (0xa8 bytes), align: 0
  Segment part 663.           Intra module refs:   LLC_open_slot::?relay
           ENTRY                   ADDRESS         REF BY
           =====                   =======         ======
           LLC_open_slot           00003742 
               calls direct
               XSTACK = 0000000E ( 00000010 )
               ISTACK = 00000000 ( 00000001 )
    -------------------------------------------------------------------------
<BANKED_CODE> 1 (was BANKED_CODE)
  Relative segment, address: CODE 000037EA - 00003849 (0x60 bytes), align: 0
  Segment part 665.           Intra module refs:   LLC_close_slot::?relay
           ENTRY                   ADDRESS         REF BY
           =====                   =======         ======
           LLC_close_slot          000037EA 
               calls direct
               XSTACK = 0000000E ( 00000010 )
    -------------------------------------------------------------------------
<BANKED_CODE> 1 (was BANKED_CODE)
  Relative segment, address: CODE 0000384A - 000038EA (0xa1 bytes), align: 0
  Segment part 667.           Intra module refs:   scheduler_tx::?relay
           LOCAL                   ADDRESS         
           =====                   =======         
           scheduler_tx            0000384A 
               calls direct
               XSTACK = 00000000 ( 00000012 )
    -------------------------------------------------------------------------
<BANKED_CODE> 1 (was BANKED_CODE)
  Relative segment, address: CODE 000038EB - 0000395D (0x73 bytes), align: 0
  Segment part 669.           Intra module refs:   scheduler_rx::?relay
           LOCAL                   ADDRESS         
           =====                   =======         
           scheduler_rx            000038EB 
               calls direct
               XSTACK = 00000000 ( 00000010 )
    -------------------------------------------------------------------------
<BANKED_CODE> 1 (was BANKED_CODE)
  Relative segment, address: CODE 0000395E - 00003974 (0x17 bytes), align: 0
  Segment part 671.           Intra module refs:   Cold_Start::?relay
           LOCAL                   ADDRESS         
           =====                   =======         
           Cold_Start              0000395E 
               calls direct, is indirectly called
               ISTACK = 00000000 ( 00000002 )
    -------------------------------------------------------------------------
<BANKED_CODE> 1 (was BANKED_CODE)
  Relative segment, address: CODE 00003975 - 00003A1B (0xa7 bytes), align: 0
  Segment part 673.           Intra module refs:   scan_tx_buffer_by_ts::?relay
           LOCAL                   ADDRESS         
           =====                   =======         
           scan_tx_buffer_by_ts    00003975 
               calls direct
               XSTACK = 00000009 ( 00000014 )
    -------------------------------------------------------------------------
<BANKED_CODE> 1 (was BANKED_CODE)
  Relative segment, address: CODE 00003A1C - 00003A69 (0x4e bytes), align: 0
  Segment part 675.           Intra module refs:   receive::?relay
           LOCAL                   ADDRESS         
           =====                   =======         
           receive                 00003A1C 
               calls direct
               XSTACK = 00000009 ( 00000010 )
    -------------------------------------------------------------------------
<BANKED_CODE> 1 (was BANKED_CODE)
  Relative segment, address: CODE 00003A6A - 00003A86 (0x1d bytes), align: 0
  Segment part 677.           Intra module refs:   transmite::?relay
           LOCAL                   ADDRESS         
           =====                   =======         
           transmite               00003A6A 
               calls direct
               XSTACK = 00000009 ( 00000009 )
    -------------------------------------------------------------------------
<BANKED_CODE> 1 (was BANKED_CODE)
  Relative segment, address: CODE 00003A87 - 00003AB1 (0x2b bytes), align: 0
  Segment part 679.           Intra module refs:   Hot_Start::?relay
           LOCAL                   ADDRESS         
           =====                   =======         
           Hot_Start               00003A87 
               calls direct, is indirectly called
               XSTACK = 00000000 ( 00000009 )
    -------------------------------------------------------------------------
XDATA_I
  Relative segment, address: XDATA 00001AD8 - 00001ADF (0x8 bytes), align: 0
  Segment part 427.           Intra module refs:   Segment part 386
           ENTRY                   ADDRESS         REF BY
           =====                   =======         ======
           MAC_MODULE              00001AD8 
    -------------------------------------------------------------------------
<BANKED_CODE> 1 (was BANKED_CODE)
  Relative segment, address: CODE 00003AB2 - 00003AB4 (0x3 bytes), align: 0
  Segment part 681.           Intra module refs:   SW_Init::?relay
           LOCAL                   ADDRESS         
           =====                   =======         
           SW_Init                 00003AB2 
               is indirectly called
    -------------------------------------------------------------------------
<BANKED_CODE> 1 (was BANKED_CODE)
  Relative segment, address: CODE 00003AB5 - 00003B08 (0x54 bytes), align: 0
  Segment part 687.           Intra module refs:   pre_init::?relay
           LOCAL                   ADDRESS         
           =====                   =======         
           pre_init                00003AB5 
               calls direct
               XSTACK = 00000000 ( 00000010 )
    -------------------------------------------------------------------------
<BANKED_CODE> 1 (was BANKED_CODE)
  Relative segment, address: CODE 00003B09 - 00003B88 (0x80 bytes), align: 0
  Segment part 689.
           ENTRY                   ADDRESS         REF BY
           =====                   =======         ======
           main                    00003B09        ?call_main (?cmain)
               calls direct
               XSTACK = 00000000 ( 00000006 )
    -------------------------------------------------------------------------
<BANKED_CODE> 1 (was BANKED_CODE)
  Relative segment, address: CODE 00003B89 - 00003BC4 (0x3c bytes), align: 0
  Segment part 691.           Intra module refs:   is_array_ptr::?relay
           LOCAL                   ADDRESS         
           =====                   =======         
           is_array_ptr            00003B89 
               XSTACK = 0000000E ( 0000000C )
    -------------------------------------------------------------------------
<BANKED_CODE> 1 (was BANKED_CODE)
  Relative segment, address: CODE 00003BC5 - 00003BF4 (0x30 bytes), align: 0
  Segment part 693.           Intra module refs:   array_index::?relay
           LOCAL                   ADDRESS         
           =====                   =======         
           array_index             00003BC5 
               XSTACK = 0000000E ( 0000000C )
    -------------------------------------------------------------------------
<BANKED_CODE> 1 (was BANKED_CODE)
  Relative segment, address: CODE 00003BF5 - 00003BFB (0x7 bytes), align: 0
  Segment part 695.           Intra module refs:   __cli::?relay
           LOCAL                   ADDRESS         
           =====                   =======         
           __cli                   00003BF5 
               XSTACK = 0000000D ( 00000000 )
    -------------------------------------------------------------------------
XDATA_I
  Relative segment, address: XDATA 00001AE0 - 00001AE7 (0x8 bytes), align: 0
  Segment part 429.           Intra module refs:   Segment part 386
           ENTRY                   ADDRESS         REF BY
           =====                   =======         ======
           MS_MODULE               00001AE0 
    -------------------------------------------------------------------------
XDATA_Z
  Relative segment, address: XDATA 0000027B - 00000E6E (0xbf4 bytes), align: 0
  Segment part 431.           Intra module refs:   SL_alloc
                                                   SW_Init
                                                   _free
           LOCAL                   ADDRESS         
           =====                   =======         
           SLOT_POOL               0000027B 
    -------------------------------------------------------------------------
XDATA_Z
  Relative segment, address: XDATA 00000E6F - 00000E70 (0x2 bytes), align: 0
  Segment part 432.           Intra module refs:   SL_alloc
                                                   SW_Init
                                                   _free
           LOCAL                   ADDRESS         
           =====                   =======         
           slot_busy               00000E6F 
    -------------------------------------------------------------------------
<BANKED_CODE> 1 (was BANKED_CODE)
  Relative segment, address: CODE 00003BFC - 00003C70 (0x75 bytes), align: 0
  Segment part 697.           Intra module refs:   SW_Init::?relay
           LOCAL                   ADDRESS         
           =====                   =======         
           SW_Init                 00003BFC 
               calls direct, is indirectly called
               XSTACK = 00000000 ( 0000000D )
    -------------------------------------------------------------------------
XDATA_I
  Relative segment, address: XDATA 00001AE8 - 00001AEB (0x4 bytes), align: 0
  Segment part 433.           Intra module refs:   SW_Init
    -------------------------------------------------------------------------
<BANKED_CODE> 1 (was BANKED_CODE)
  Relative segment, address: CODE 00003C71 - 00003D01 (0x91 bytes), align: 0
  Segment part 699.           Intra module refs:   SL_alloc::?relay
           ENTRY                   ADDRESS         REF BY
           =====                   =======         ======
           SL_alloc                00003C71 
               calls direct
               XSTACK = 00000000 ( 0000000D )
    -------------------------------------------------------------------------
XDATA_I
  Relative segment, address: XDATA 00001AEC - 00001AEF (0x4 bytes), align: 0
  Segment part 435.           Intra module refs:   SL_alloc
    -------------------------------------------------------------------------
<BANKED_CODE> 1 (was BANKED_CODE)
  Relative segment, address: CODE 00003D02 - 00003D89 (0x88 bytes), align: 0
  Segment part 701.           Intra module refs:   _free::?relay
           LOCAL                   ADDRESS         
           =====                   =======         
           _free                   00003D02 
               calls direct
               XSTACK = 00000009 ( 0000000E )
    -------------------------------------------------------------------------
<BANKED_CODE> 1 (was BANKED_CODE)
  Relative segment, address: CODE 00003D8A - 00003DBA (0x31 bytes), align: 0
  Segment part 703.           Intra module refs:   SL_free::?relay
           ENTRY                   ADDRESS         REF BY
           =====                   =======         ======
           SL_free                 00003D8A 
               calls direct
               XSTACK = 00000009 ( 00000009 )
    -------------------------------------------------------------------------
<BANKED_CODE> 1 (was BANKED_CODE)
  Relative segment, address: CODE 00003DBB - 00003E2E (0x74 bytes), align: 0
  Segment part 711.           Intra module refs:   MEM_memcpy::?relay
           ENTRY                   ADDRESS         REF BY
           =====                   =======         ======
           MEM_memcpy              00003DBB 
               XSTACK = 00000017 ( 00000000 )
               ISTACK = 00000000 ( 00000003 )
    -------------------------------------------------------------------------
<BANKED_CODE> 1 (was BANKED_CODE)
  Relative segment, address: CODE 00003E2F - 00003E7D (0x4f bytes), align: 0
  Segment part 713.           Intra module refs:   MEM_memset::?relay
           ENTRY                   ADDRESS         REF BY
           =====                   =======         ======
           MEM_memset              00003E2F 
               XSTACK = 00000012 ( 00000000 )
               ISTACK = 00000000 ( 00000003 )
    -------------------------------------------------------------------------
XDATA_Z
  Relative segment, address: XDATA 00000E71 - 00000EFF (0x8f bytes), align: 0
  Segment part 437.           Intra module refs:   AES_StreamCoder
                                                   Cold_Start
                                                   Hot_Start
                                                   Neocore_start
                                                   RI_Receive
                                                   RI_Send
                                                   RI_SetChannel
                                                   RecvData
                                                   SW_Init
                                                   SendData
                                                   TM_IRQ
                                                   accept_sync_data
                                                   cmd_0x00
                                                   cmd_0x01
                                                   cmd_0x02
                                                   cmd_0x03
                                                   cmd_0x04
                                                   cmd_0x05
                                                   cmd_0x07
                                                   cmd_0x08
                                                   cmd_0x09
                                                   cmd_0x0A
                                                   cmd_0x0B
                                                   cmd_0x0C
                                                   cmd_0x0D
                                                   cmd_0x0E
                                                   cmd_0x0F
                                                   cmd_0x10
                                                   main
                                                   mode_1_process
                                                   mode_1_receive_process
                                                   mode_2_process
                                                   pre_config
                                                   pre_init
                                                   recv_sync
                                                   send_sync
                                                   setFreq
                                                   start_mode_1
                                                   transmite
                                                   validate_sync
           ENTRY                   ADDRESS         REF BY
           =====                   =======         ======
           MODEL                   00000E71 
    -------------------------------------------------------------------------
XDATA_I
  Relative segment, address: XDATA 00001AF0 - 00001AF7 (0x8 bytes), align: 0
  Segment part 438.           Intra module refs:   Segment part 386
           ENTRY                   ADDRESS         REF BY
           =====                   =======         ======
           MD_MODULE               00001AF0 
    -------------------------------------------------------------------------
<BANKED_CODE> 1 (was BANKED_CODE)
  Relative segment, address: CODE 00003E7E - 00003E80 (0x3 bytes), align: 0
  Segment part 715.           Intra module refs:   SW_Init::?relay
           LOCAL                   ADDRESS         
           =====                   =======         
           SW_Init                 00003E7E 
               is indirectly called
    -------------------------------------------------------------------------
XDATA_I
  Relative segment, address: XDATA 00001AF8 - 00001AFF (0x8 bytes), align: 0
  Segment part 440.           Intra module refs:   Segment part 384
                                                   Segment part 386
           ENTRY                   ADDRESS         REF BY
           =====                   =======         ======
           RADIO_MODULE            00001AF8 
    -------------------------------------------------------------------------
XDATA_Z
  Relative segment, address: XDATA 00000F00 - 00000F7F (0x80 bytes), align: 0
  Segment part 442.           Intra module refs:   RI_Receive
           LOCAL                   ADDRESS         
           =====                   =======         
           RXBUFF                  00000F00 
    -------------------------------------------------------------------------
<BANKED_CODE> 1 (was BANKED_CODE)
  Relative segment, address: CODE 00003E81 - 00003EBE (0x3e bytes), align: 0
  Segment part 717.           Intra module refs:   SW_Init::?relay
           LOCAL                   ADDRESS         
           =====                   =======         
           SW_Init                 00003E81 
               calls direct, is indirectly called
               ISTACK = 00000000 ( 00000002 )
    -------------------------------------------------------------------------
<BANKED_CODE> 1 (was BANKED_CODE)
  Relative segment, address: CODE 00003EBF - 00003EFD (0x3f bytes), align: 0
  Segment part 719.           Intra module refs:   HW_Init::?relay
           LOCAL                   ADDRESS         
           =====                   =======         
           HW_Init                 00003EBF 
               is indirectly called
               XSTACK = 00000000 ( 00000001 )
               ISTACK = 00000000 ( 00000003 )
    -------------------------------------------------------------------------
<BANKED_CODE> 1 (was BANKED_CODE)
  Relative segment, address: CODE 00003EFE - 00003F76 (0x79 bytes), align: 0
  Segment part 721.           Intra module refs:   setFreq::?relay
           LOCAL                   ADDRESS         
           =====                   =======         
           setFreq                 00003EFE 
               calls direct
               XSTACK = 00000000 ( 00000011 )
               ISTACK = 00000000 ( 00000001 )
    -------------------------------------------------------------------------
<BANKED_CODE> 1 (was BANKED_CODE)
  Relative segment, address: CODE 00003F77 - 00003F91 (0x1b bytes), align: 0
  Segment part 723.           Intra module refs:   pre_config::?relay
           LOCAL                   ADDRESS         
           =====                   =======         
           pre_config              00003F77 
               calls direct
               XSTACK = 00000024 ( 00000000 )
               ISTACK = 00000000 ( 00000002 )
    -------------------------------------------------------------------------
<BANKED_CODE> 1 (was BANKED_CODE)
  Relative segment, address: CODE 00003F92 - 00003FB1 (0x20 bytes), align: 0
  Segment part 725.           Intra module refs:   RI_SetChannel::?relay
           ENTRY                   ADDRESS         REF BY
           =====                   =======         ======
           RI_SetChannel           00003F92 
               XSTACK = 0000003F ( 00000000 )
               ISTACK = 00000000 ( 00000002 )
    -------------------------------------------------------------------------
<BANKED_CODE> 1 (was BANKED_CODE)
  Relative segment, address: CODE 00003FB2 - 00003FE7 (0x36 bytes), align: 0
  Segment part 727.           Intra module refs:   LoadTXData::?relay
           LOCAL                   ADDRESS         
           =====                   =======         
           LoadTXData              00003FB2 
               XSTACK = 0000003B ( 00000000 )
               ISTACK = 00000000 ( 00000002 )
    -------------------------------------------------------------------------
<BANKED_CODE> 1 (was BANKED_CODE)
  Relative segment, address: CODE 00003FE8 - 000040DB (0xf4 bytes), align: 0
  Segment part 729.           Intra module refs:   SendData::?relay
           LOCAL                   ADDRESS         
           =====                   =======         
           SendData                00003FE8 
               calls direct
               XSTACK = 0000001E ( 0000003B )
    -------------------------------------------------------------------------
<BANKED_CODE> 1 (was BANKED_CODE)
  Relative segment, address: CODE 000040DC - 000041DB (0x100 bytes), align: 0
  Segment part 731.           Intra module refs:   RI_Send::?relay
           ENTRY                   ADDRESS         REF BY
           =====                   =======         ======
           RI_Send                 000040DC 
               calls direct
               XSTACK = 00000015 ( 00000024 )
    -------------------------------------------------------------------------
<BANKED_CODE> 1 (was BANKED_CODE)
  Relative segment, address: CODE 000041DC - 00004207 (0x2c bytes), align: 0
  Segment part 733.           Intra module refs:   UnLoadRXData::?relay
           LOCAL                   ADDRESS         
           =====                   =======         
           UnLoadRXData            000041DC 
               XSTACK = 00000024 ( 00000000 )
               ISTACK = 00000000 ( 00000003 )
    -------------------------------------------------------------------------
<BANKED_CODE> 1 (was BANKED_CODE)
  Relative segment, address: CODE 00004208 - 000042D2 (0xcb bytes), align: 0
  Segment part 735.           Intra module refs:   RecvData::?relay
           LOCAL                   ADDRESS         
           =====                   =======         
           RecvData                00004208 
               calls direct
               XSTACK = 00000026 ( 00000047 )
    -------------------------------------------------------------------------
<BANKED_CODE> 1 (was BANKED_CODE)
  Relative segment, address: CODE 000042D3 - 0000452B (0x259 bytes), align: 0
  Segment part 737.           Intra module refs:   RI_Receive::?relay
           ENTRY                   ADDRESS         REF BY
           =====                   =======         ======
           RI_Receive              000042D3 
               calls direct
               XSTACK = 0000003F ( 0000002A )
               ISTACK = 00000000 ( 00000001 )
    -------------------------------------------------------------------------
<BANKED_CODE> 1 (was BANKED_CODE)
  Relative segment, address: CODE 0000452C - 0000454D (0x22 bytes), align: 0
  Segment part 739.           Intra module refs:   bits_count::?relay
           LOCAL                   ADDRESS         
           =====                   =======         
           bits_count              0000452C 
               XSTACK = 00000009 ( 00000000 )
    -------------------------------------------------------------------------
<BANKED_CODE> 1 (was BANKED_CODE)
  Relative segment, address: CODE 0000454E - 00004582 (0x35 bytes), align: 0
  Segment part 741.           Intra module refs:   getRNDByte::?relay
           LOCAL                   ADDRESS         
           =====                   =======         
           getRNDByte              0000454E 
               XSTACK = 00000009 ( 00000000 )
               ISTACK = 00000000 ( 00000002 )
    -------------------------------------------------------------------------
<BANKED_CODE> 1 (was BANKED_CODE)
  Relative segment, address: CODE 00004583 - 000045B8 (0x36 bytes), align: 0
  Segment part 743.           Intra module refs:   readRandom::?relay
           LOCAL                   ADDRESS         
           =====                   =======         
           readRandom              00004583 
               calls direct
               XSTACK = 00000009 ( 00000009 )
    -------------------------------------------------------------------------
<BANKED_CODE> 1 (was BANKED_CODE)
  Relative segment, address: CODE 000045B9 - 00004606 (0x4e bytes), align: 0
  Segment part 745.           Intra module refs:   random_core_init::?relay
           LOCAL                   ADDRESS         
           =====                   =======         
           random_core_init        000045B9 
               calls direct
               XSTACK = 00000000 ( 00000009 )
    -------------------------------------------------------------------------
<BANKED_CODE> 1 (was BANKED_CODE)
  Relative segment, address: CODE 00004607 - 00004666 (0x60 bytes), align: 0
  Segment part 747.           Intra module refs:   RI_Measure_POW::?relay
           ENTRY                   ADDRESS         REF BY
           =====                   =======         ======
           RI_Measure_POW          00004607 
               calls direct
               XSTACK = 00000011 ( 0000000E )
               ISTACK = 00000000 ( 00000001 )
    -------------------------------------------------------------------------
XDATA_I
  Relative segment, address: XDATA 00001B00 - 00001B07 (0x8 bytes), align: 0
  Segment part 443.           Intra module refs:   Segment part 382
           ENTRY                   ADDRESS         REF BY
           =====                   =======         ======
           RTC_MODULE              00001B00 
    -------------------------------------------------------------------------
<BANKED_CODE> 1 (was BANKED_CODE)
  Relative segment, address: CODE 00004667 - 00004669 (0x3 bytes), align: 0
  Segment part 749.           Intra module refs:   SW_Init::?relay
           LOCAL                   ADDRESS         
           =====                   =======         
           SW_Init                 00004667 
               is indirectly called
    -------------------------------------------------------------------------
<BANKED_CODE> 1 (was BANKED_CODE)
  Relative segment, address: CODE 0000466A - 0000466C (0x3 bytes), align: 0
  Segment part 751.           Intra module refs:   Cold_Start::?relay
           LOCAL                   ADDRESS         
           =====                   =======         
           Cold_Start              0000466A 
               is indirectly called
    -------------------------------------------------------------------------
<BANKED_CODE> 1 (was BANKED_CODE)
  Relative segment, address: CODE 0000466D - 0000469C (0x30 bytes), align: 0
  Segment part 753.           Intra module refs:   Hot_Start::?relay
           LOCAL                   ADDRESS         
           =====                   =======         
           Hot_Start               0000466D 
               is indirectly called
               XSTACK = 00000000 ( 0000000C )
    -------------------------------------------------------------------------
XDATA_Z
  Relative segment, address: XDATA 00000F80 - 00000F80 (0x1 bytes), align: 0
  Segment part 445.           Intra module refs:   SW_Init
                                                   mode_1_process
                                                   mode_1_receive_process
                                                   mode_1_retransmition_process
           LOCAL                   ADDRESS         
           =====                   =======         
           retransmite             00000F80 
    -------------------------------------------------------------------------
XDATA_I
  Relative segment, address: XDATA 00001B08 - 00001B0F (0x8 bytes), align: 0
  Segment part 446.           Intra module refs:   Segment part 380
                                                   Segment part 382
                                                   Segment part 386
           ENTRY                   ADDRESS         REF BY
           =====                   =======         ======
           SYNC_MODULE             00001B08 
    -------------------------------------------------------------------------
<BANKED_CODE> 1 (was BANKED_CODE)
  Relative segment, address: CODE 0000469D - 000046D1 (0x35 bytes), align: 0
  Segment part 755.           Intra module refs:   SW_Init::?relay
           LOCAL                   ADDRESS         
           =====                   =======         
           SW_Init                 0000469D 
               is indirectly called
               ISTACK = 00000000 ( 00000002 )
    -------------------------------------------------------------------------
<BANKED_CODE> 1 (was BANKED_CODE)
  Relative segment, address: CODE 000046D2 - 000046D4 (0x3 bytes), align: 0
  Segment part 757.           Intra module refs:   Cold_Start::?relay
           LOCAL                   ADDRESS         
           =====                   =======         
           Cold_Start              000046D2 
               is indirectly called
    -------------------------------------------------------------------------
<BANKED_CODE> 1 (was BANKED_CODE)
  Relative segment, address: CODE 000046D5 - 0000470F (0x3b bytes), align: 0
  Segment part 759.           Intra module refs:   validate_sync::?relay
           LOCAL                   ADDRESS         
           =====                   =======         
           validate_sync           000046D5 
               XSTACK = 0000000E ( 0000000C )
    -------------------------------------------------------------------------
<BANKED_CODE> 1 (was BANKED_CODE)
  Relative segment, address: CODE 00004710 - 00004729 (0x1a bytes), align: 0
  Segment part 761.           Intra module refs:   accept_sync_data::?relay
           LOCAL                   ADDRESS         
           =====                   =======         
           accept_sync_data        00004710 
               XSTACK = 0000000E ( 00000009 )
    -------------------------------------------------------------------------
<BANKED_CODE> 1 (was BANKED_CODE)
  Relative segment, address: CODE 0000472A - 0000476C (0x43 bytes), align: 0
  Segment part 763.           Intra module refs:   syncronize_timer::?relay
           LOCAL                   ADDRESS         
           =====                   =======         
           syncronize_timer        0000472A 
               calls direct
               XSTACK = 00000047 ( 0000000E )
    -------------------------------------------------------------------------
<BANKED_CODE> 1 (was BANKED_CODE)
  Relative segment, address: CODE 0000476D - 000047C9 (0x5d bytes), align: 0
  Segment part 765.           Intra module refs:   mode_1_receive_process::?relay
           LOCAL                   ADDRESS         
           =====                   =======         
           mode_1_receive_process
                                   0000476D 
               calls direct
               XSTACK = 0000000C ( 0000000E )
    -------------------------------------------------------------------------
<BANKED_CODE> 1 (was BANKED_CODE)
  Relative segment, address: CODE 000047CA - 000047FD (0x34 bytes), align: 0
  Segment part 767.           Intra module refs:   _throw_dice::?relay
           LOCAL                   ADDRESS         
           =====                   =======         
           _throw_dice             000047CA 
               calls direct
               XSTACK = 00000000 ( 0000000A )
    -------------------------------------------------------------------------
<BANKED_CODE> 1 (was BANKED_CODE)
  Relative segment, address: CODE 000047FE - 0000481D (0x20 bytes), align: 0
  Segment part 769.           Intra module refs:   mode_1_retransmition_process::?relay
           LOCAL                   ADDRESS         
           =====                   =======         
           mode_1_retransmition_process
                                   000047FE 
               calls direct
               XSTACK = 0000000C ( 00000000 )
               ISTACK = 00000000 ( 00000002 )
    -------------------------------------------------------------------------
<BANKED_CODE> 1 (was BANKED_CODE)
  Relative segment, address: CODE 0000481E - 00004847 (0x2a bytes), align: 0
  Segment part 771.           Intra module refs:   mode_1_process::?relay
           LOCAL                   ADDRESS         
           =====                   =======         
           mode_1_process          0000481E 
               calls direct
               XSTACK = 0000000A ( 0000000C )
    -------------------------------------------------------------------------
<BANKED_CODE> 1 (was BANKED_CODE)
  Relative segment, address: CODE 00004848 - 0000487E (0x37 bytes), align: 0
  Segment part 773.           Intra module refs:   mode_2_process::?relay
           LOCAL                   ADDRESS         
           =====                   =======         
           mode_2_process          00004848 
               calls direct
               XSTACK = 0000000A ( 0000000C )
    -------------------------------------------------------------------------
<BANKED_CODE> 1 (was BANKED_CODE)
  Relative segment, address: CODE 0000487F - 000048DD (0x5f bytes), align: 0
  Segment part 775.           Intra module refs:   Hot_Start::?relay
           LOCAL                   ADDRESS         
           =====                   =======         
           Hot_Start               0000487F 
               calls direct, is indirectly called
               XSTACK = 00000000 ( 00000010 )
    -------------------------------------------------------------------------
<BANKED_CODE> 1 (was BANKED_CODE)
  Relative segment, address: CODE 000048DE - 000049D2 (0xf5 bytes), align: 0
  Segment part 777.           Intra module refs:   recv_sync::?relay
           LOCAL                   ADDRESS         
           =====                   =======         
           recv_sync               000048DE 
               calls direct
               XSTACK = 0000000E ( 00000045 )
    -------------------------------------------------------------------------
<BANKED_CODE> 1 (was BANKED_CODE)
  Relative segment, address: CODE 000049D3 - 00004B18 (0x146 bytes), align: 0
  Segment part 779.           Intra module refs:   send_sync::?relay
           LOCAL                   ADDRESS         
           =====                   =======         
           send_sync               000049D3 
               calls direct
               XSTACK = 0000000C ( 0000001B )
               ISTACK = 00000000 ( 00000001 )
    -------------------------------------------------------------------------
<BANKED_CODE> 1 (was BANKED_CODE)
  Relative segment, address: CODE 00004B19 - 00004B1F (0x7 bytes), align: 0
  Segment part 785.           Intra module refs:   __cli::?relay
           LOCAL                   ADDRESS         
           =====                   =======         
           __cli                   00004B19 
               XSTACK = 00000009 ( 00000000 )
    -------------------------------------------------------------------------
XDATA_Z
  Relative segment, address: XDATA 00000F81 - 00000FB2 (0x32 bytes), align: 0
  Segment part 448.           Intra module refs:   TM_ClrAlarm
                                                   TM_SetAlarm
                                                   _clr_all
                                                   _find_next_active
           LOCAL                   ADDRESS         
           =====                   =======         
           ALARMS                  00000F81 
    -------------------------------------------------------------------------
<BANKED_CODE> 1 (was BANKED_CODE)
  Relative segment, address: CODE 00004B20 - 00004B7B (0x5c bytes), align: 0
  Segment part 787.           Intra module refs:   TM_SetAlarm::?relay
           ENTRY                   ADDRESS         REF BY
           =====                   =======         ======
           TM_SetAlarm             00004B20 
               calls direct
               XSTACK = 0000000C ( 00000010 )
    -------------------------------------------------------------------------
<BANKED_CODE> 1 (was BANKED_CODE)
  Relative segment, address: CODE 00004B7C - 00004BDA (0x5f bytes), align: 0
  Segment part 789.           Intra module refs:   TM_ClrAlarm::?relay
           ENTRY                   ADDRESS         REF BY
           =====                   =======         ======
           TM_ClrAlarm             00004B7C 
               calls direct
               XSTACK = 0000000A ( 00000010 )
    -------------------------------------------------------------------------
<BANKED_CODE> 1 (was BANKED_CODE)
  Relative segment, address: CODE 00004BDB - 00004BEC (0x12 bytes), align: 0
  Segment part 791.           Intra module refs:   _inc_timeslot::?relay
           LOCAL                   ADDRESS         
           =====                   =======         
           _inc_timeslot           00004BDB 
               XSTACK = 00000009 ( 00000000 )
    -------------------------------------------------------------------------
<BANKED_CODE> 1 (was BANKED_CODE)
  Relative segment, address: CODE 00004BED - 00004C1E (0x32 bytes), align: 0
  Segment part 793.           Intra module refs:   _find_next_active::?relay
           LOCAL                   ADDRESS         
           =====                   =======         
           _find_next_active       00004BED 
               calls direct
               XSTACK = 00000009 ( 00000009 )
    -------------------------------------------------------------------------
<BANKED_CODE> 1 (was BANKED_CODE)
  Relative segment, address: CODE 00004C1F - 00004C5F (0x41 bytes), align: 0
  Segment part 795.           Intra module refs:   scheulder_next_alarm::?relay
           LOCAL                   ADDRESS         
           =====                   =======         
           scheulder_next_alarm    00004C1F 
               calls direct
               XSTACK = 00000009 ( 00000009 )
    -------------------------------------------------------------------------
<BANKED_CODE> 1 (was BANKED_CODE)
  Relative segment, address: CODE 00004C60 - 00004CAB (0x4c bytes), align: 0
  Segment part 797.           Intra module refs:   TM_IRQ::?relay
           ENTRY                   ADDRESS         REF BY
           =====                   =======         ======
           TM_IRQ                  00004C60 
               calls direct
               XSTACK = 0000000F ( 00000009 )
    -------------------------------------------------------------------------
<BANKED_CODE> 1 (was BANKED_CODE)
  Relative segment, address: CODE 00004CAC - 00004CAE (0x3 bytes), align: 0
  Segment part 799.           Intra module refs:   mcu_sleep::?relay
           LOCAL                   ADDRESS         
           =====                   =======         
           mcu_sleep               00004CAC 
    -------------------------------------------------------------------------
<BANKED_CODE> 1 (was BANKED_CODE)
  Relative segment, address: CODE 00004CAF - 00004CD0 (0x22 bytes), align: 0
  Segment part 801.           Intra module refs:   _clr_all::?relay
           LOCAL                   ADDRESS         
           =====                   =======         
           _clr_all                00004CAF 
               ISTACK = 00000000 ( 00000002 )
    -------------------------------------------------------------------------
<BANKED_CODE> 1 (was BANKED_CODE)
  Relative segment, address: CODE 00004CD1 - 00004CEA (0x1a bytes), align: 0
  Segment part 803.           Intra module refs:   init::?relay
           LOCAL                   ADDRESS         
           =====                   =======         
           init                    00004CD1 
               calls direct
               ISTACK = 00000000 ( 00000002 )
    -------------------------------------------------------------------------
<BANKED_CODE> 1 (was BANKED_CODE)
  Relative segment, address: CODE 00004CEB - 00004D09 (0x1f bytes), align: 0
  Segment part 805.           Intra module refs:   start_mode_1::?relay
           LOCAL                   ADDRESS         
           =====                   =======         
           start_mode_1            00004CEB 
               calls direct
               XSTACK = 0000000A ( 00000000 )
               ISTACK = 00000000 ( 00000002 )
    -------------------------------------------------------------------------
<BANKED_CODE> 1 (was BANKED_CODE)
  Relative segment, address: CODE 00004D0A - 00004D1A (0x11 bytes), align: 0
  Segment part 807.           Intra module refs:   start_mode_2::?relay
           LOCAL                   ADDRESS         
           =====                   =======         
           start_mode_2            00004D0A 
               calls direct
               XSTACK = 0000000A ( 00000000 )
               ISTACK = 00000000 ( 00000002 )
    -------------------------------------------------------------------------
<BANKED_CODE> 1 (was BANKED_CODE)
  Relative segment, address: CODE 00004D1B - 00004D73 (0x59 bytes), align: 0
  Segment part 809.           Intra module refs:   Neocore_start::?relay
           ENTRY                   ADDRESS         REF BY
           =====                   =======         ======
           Neocore_start           00004D1B 
               calls direct
               XSTACK = 0000000E ( 00000010 )
    -------------------------------------------------------------------------
XDATA_Z
  Relative segment, address: XDATA 00000FB3 - 000010B1 (0xff bytes), align: 0
  Segment part 449.           Intra module refs:   uart_dma_init
                                                   uart_recv_cmd
           LOCAL                   ADDRESS         
           =====                   =======         
           uart_rx_buff            00000FB3 
    -------------------------------------------------------------------------
<BANKED_CODE> 1 (was BANKED_CODE)
  Relative segment, address: CODE 00004D74 - 00004DF7 (0x84 bytes), align: 0
  Segment part 811.           Intra module refs:   uart_dma_init::?relay
           LOCAL                   ADDRESS         
           =====                   =======         
           uart_dma_init           00004D74 
               XSTACK = 00000009 ( 00000000 )
               ISTACK = 00000000 ( 00000002 )
    -------------------------------------------------------------------------
<BANKED_CODE> 1 (was BANKED_CODE)
  Relative segment, address: CODE 00004DF8 - 00004E20 (0x29 bytes), align: 0
  Segment part 813.           Intra module refs:   uart_recv_cmd::?relay
           ENTRY                   ADDRESS         REF BY
           =====                   =======         ======
           uart_recv_cmd           00004DF8 
               XSTACK = 0000000D ( 00000000 )
               ISTACK = 00000000 ( 00000003 )
    -------------------------------------------------------------------------
<BANKED_CODE> 1 (was BANKED_CODE)
  Relative segment, address: CODE 00004E21 - 00004E42 (0x22 bytes), align: 0
  Segment part 815.           Intra module refs:   com_uart_init::?relay
           ENTRY                   ADDRESS         REF BY
           =====                   =======         ======
           com_uart_init           00004E21 
               calls direct
               XSTACK = 00000000 ( 00000009 )
    -------------------------------------------------------------------------
<BANKED_CODE> 1 (was BANKED_CODE)
  Relative segment, address: CODE 00004E43 - 00004E72 (0x30 bytes), align: 0
  Segment part 817.           Intra module refs:   uart_write::?relay
           ENTRY                   ADDRESS         REF BY
           =====                   =======         ======
           uart_write              00004E43 
               calls direct
               XSTACK = 00000012 ( 0000000A )
    -------------------------------------------------------------------------
<BANKED_CODE> 1 (was BANKED_CODE)
  Relative segment, address: CODE 00004E73 - 00004E7B (0x9 bytes), align: 0
  Segment part 819.           Intra module refs:   uart_putchar::?relay
           LOCAL                   ADDRESS         
           =====                   =======         
           uart_putchar            00004E73 
               XSTACK = 0000000A ( 00000000 )
    -------------------------------------------------------------------------
XDATA_I
  Relative segment, address: XDATA 00001B10 - 00001B13 (0x4 bytes), align: 0
  Segment part 450.           Intra module refs:   UST_interval
                                                   _interval
           LOCAL                   ADDRESS         
           =====                   =======         
           MAC_TIMER_MAX           00001B10 
    -------------------------------------------------------------------------
XDATA_Z
  Relative segment, address: XDATA 000010B2 - 000010B5 (0x4 bytes), align: 0
  Segment part 452.           Intra module refs:   DelayCalibrate
                                                   UST_delay
           LOCAL                   ADDRESS         
           =====                   =======         
           DELAY_CALIBRATE_TICS    000010B2 
    -------------------------------------------------------------------------
XDATA_I
  Relative segment, address: XDATA 00001B14 - 00001B1B (0x8 bytes), align: 0
  Segment part 453.           Intra module refs:   Segment part 384
           ENTRY                   ADDRESS         REF BY
           =====                   =======         ======
           UST_MODULE              00001B14 
    -------------------------------------------------------------------------
XDATA_I
  Relative segment, address: XDATA 00001B1C - 00001B1F (0x4 bytes), align: 0
  Segment part 455.           Intra module refs:   AT_time
                                                   AT_wait
           ENTRY                   ADDRESS         REF BY
           =====                   =======         ======
           __Constant_7fff         00001B1C 
    -------------------------------------------------------------------------
XDATA_I
  Relative segment, address: XDATA 00001B20 - 00001B23 (0x4 bytes), align: 0
  Segment part 457.           Intra module refs:   calcCompareTime
           ENTRY                   ADDRESS         REF BY
           =====                   =======         ======
           __Constant_ffff8000     00001B20 
    -------------------------------------------------------------------------
XDATA_I
  Relative segment, address: XDATA 00001B24 - 00001B27 (0x4 bytes), align: 0
  Segment part 459.           Intra module refs:   calcCompareTime
           ENTRY                   ADDRESS         REF BY
           =====                   =======         ======
           __Constant_8000         00001B24 
    -------------------------------------------------------------------------
XDATA_I
  Relative segment, address: XDATA 00001B28 - 00001B2B (0x4 bytes), align: 0
  Segment part 461.           Intra module refs:   calcCompareTime
           ENTRY                   ADDRESS         REF BY
           =====                   =======         ======
           __Constant_ffffff       00001B28 
    -------------------------------------------------------------------------
XDATA_I
  Relative segment, address: XDATA 00001B2C - 00001B2F (0x4 bytes), align: 0
  Segment part 463.           Intra module refs:   Hot_Start
                                                   RI_Receive
                                                   RI_Send
           ENTRY                   ADDRESS         REF BY
           =====                   =======         ======
           __Constant_1            00001B2C 
    -------------------------------------------------------------------------
XDATA_I
  Relative segment, address: XDATA 00001B30 - 00001B33 (0x4 bytes), align: 0
  Segment part 465.           Intra module refs:   validate_sync
           ENTRY                   ADDRESS         REF BY
           =====                   =======         ======
           __Constant_19833891     00001B30 
    -------------------------------------------------------------------------
XDATA_I
  Relative segment, address: XDATA 00001B34 - 00001B37 (0x4 bytes), align: 0
  Segment part 467.           Intra module refs:   mode_1_receive_process
                                                   mode_2_process
           ENTRY                   ADDRESS         REF BY
           =====                   =======         ======
           __Constant_a            00001B34 
    -------------------------------------------------------------------------
XDATA_I
  Relative segment, address: XDATA 00001B38 - 00001B3B (0x4 bytes), align: 0
  Segment part 469.           Intra module refs:   UST_delay
                                                   UST_time_over
           ENTRY                   ADDRESS         REF BY
           =====                   =======         ======
           __Constant_20           00001B38 
    -------------------------------------------------------------------------
XDATA_I
  Relative segment, address: XDATA 00001B3C - 00001B3F (0x4 bytes), align: 0
  Segment part 471.           Intra module refs:   DelayCalibrate
           ENTRY                   ADDRESS         REF BY
           =====                   =======         ======
           __Constant_1f4          00001B3C 
    -------------------------------------------------------------------------
XDATA_I
  Relative segment, address: XDATA 00001B40 - 00001B43 (0x4 bytes), align: 0
  Segment part 473.           Intra module refs:   DelayCalibrate
           ENTRY                   ADDRESS         REF BY
           =====                   =======         ======
           __Constant_ffffc180     00001B40 
    -------------------------------------------------------------------------
<BANKED_CODE> 1 (was BANKED_CODE)
  Relative segment, address: CODE 00004E7C - 00004E8C (0x11 bytes), align: 0
  Segment part 823.           Intra module refs:   HW_Init::?relay
           LOCAL                   ADDRESS         
           =====                   =======         
           HW_Init                 00004E7C 
               calls direct, is indirectly called
               ISTACK = 00000000 ( 00000002 )
    -------------------------------------------------------------------------
<BANKED_CODE> 1 (was BANKED_CODE)
  Relative segment, address: CODE 00004E8D - 00004EDB (0x4f bytes), align: 0
  Segment part 825.           Intra module refs:   UST_now::?relay
           ENTRY                   ADDRESS         REF BY
           =====                   =======         ======
           UST_now                 00004E8D 
               XSTACK = 00000047 ( 00000004 )
               ISTACK = 00000000 ( 00000003 )
    -------------------------------------------------------------------------
<BANKED_CODE> 1 (was BANKED_CODE)
  Relative segment, address: CODE 00004EDC - 00004F48 (0x6d bytes), align: 0
  Segment part 827.           Intra module refs:   UST_time_over::?relay
           ENTRY                   ADDRESS         REF BY
           =====                   =======         ======
           UST_time_over           00004EDC 
               calls direct
               XSTACK = 0000004B ( 00000014 )
               ISTACK = 00000000 ( 00000002 )
    -------------------------------------------------------------------------
<BANKED_CODE> 1 (was BANKED_CODE)
  Relative segment, address: CODE 00004F49 - 00004FD5 (0x8d bytes), align: 0
  Segment part 829.           Intra module refs:   UST_interval::?relay
           ENTRY                   ADDRESS         REF BY
           =====                   =======         ======
           UST_interval            00004F49 
               XSTACK = 00000028 ( 00000018 )
    -------------------------------------------------------------------------
<BANKED_CODE> 1 (was BANKED_CODE)
  Relative segment, address: CODE 00004FD6 - 00005094 (0xbf bytes), align: 0
  Segment part 831.           Intra module refs:   UST_delay::?relay
           ENTRY                   ADDRESS         REF BY
           =====                   =======         ======
           UST_delay               00004FD6 
               calls direct
               XSTACK = 00000014 ( 00000020 )
    -------------------------------------------------------------------------
<BANKED_CODE> 1 (was BANKED_CODE)
  Relative segment, address: CODE 00005095 - 00005113 (0x7f bytes), align: 0
  Segment part 833.           Intra module refs:   _interval::?relay
           ENTRY                   ADDRESS         REF BY
           =====                   =======         ======
           _interval               00005095 
               XSTACK = 00000018 ( 00000018 )
    -------------------------------------------------------------------------
<BANKED_CODE> 1 (was BANKED_CODE)
  Relative segment, address: CODE 00005114 - 00005186 (0x73 bytes), align: 0
  Segment part 835.           Intra module refs:   DelayCalibrate::?relay
           LOCAL                   ADDRESS         
           =====                   =======         
           DelayCalibrate          00005114 
               calls direct
               XSTACK = 00000000 ( 00000018 )
    -------------------------------------------------------------------------
INTVEC
  Common segment, address: CODE 00000000 - 0000002D (0x2e bytes), align: 0
  Segment part 37. ROOT 
           ENTRY                   ADDRESS         REF BY
           =====                   =======         ======
           TimerCompareInterrupt::??INTVEC 43
                                   0000002B 
    -------------------------------------------------------------------------
XDATA_ID
  Relative segment, address: CODE 000000BB - 000000C7 (0xd bytes), align: 0
  Segment part 46.            Intra module refs:   Segment part 45
    -------------------------------------------------------------------------
XDATA_ID
  Relative segment, address: CODE 000000C8 - 000000D8 (0x11 bytes), align: 0
  Segment part 48.            Intra module refs:   Segment part 47
    -------------------------------------------------------------------------
XDATA_ID
  Relative segment, address: CODE 000000D9 - 000000EE (0x16 bytes), align: 0
  Segment part 50.            Intra module refs:   Segment part 49
    -------------------------------------------------------------------------
XDATA_ID
  Relative segment, address: CODE 000000EF - 000000FA (0xc bytes), align: 0
  Segment part 52.            Intra module refs:   AM_Callback::__FUNCTION__
    -------------------------------------------------------------------------
XDATA_ID
  Relative segment, address: CODE 000000FB - 00000108 (0xe bytes), align: 0
  Segment part 54.            Intra module refs:   AM_Cold_start::__FUNCTION__
    -------------------------------------------------------------------------
XDATA_ID
  Relative segment, address: CODE 00000109 - 00000134 (0x2c bytes), align: 0
  Segment part 56.            Intra module refs:   Segment part 55
    -------------------------------------------------------------------------
XDATA_ID
  Relative segment, address: CODE 00000135 - 00000141 (0xd bytes), align: 0
  Segment part 58.            Intra module refs:   AM_Hot_start::__FUNCTION__
    -------------------------------------------------------------------------
XDATA_ID
  Relative segment, address: CODE 00000142 - 0000016B (0x2a bytes), align: 0
  Segment part 60.            Intra module refs:   Segment part 59
    -------------------------------------------------------------------------
XDATA_ID
  Relative segment, address: CODE 0000016C - 00000176 (0xb bytes), align: 0
  Segment part 62.            Intra module refs:   AM_HW_Init::__FUNCTION__
    -------------------------------------------------------------------------
XDATA_ID
  Relative segment, address: CODE 00000177 - 0000019D (0x27 bytes), align: 0
  Segment part 64.            Intra module refs:   Segment part 63
    -------------------------------------------------------------------------
XDATA_ID
  Relative segment, address: CODE 0000019E - 000001A8 (0xb bytes), align: 0
  Segment part 66.            Intra module refs:   AM_SW_Init::__FUNCTION__
    -------------------------------------------------------------------------
XDATA_ID
  Relative segment, address: CODE 000001A9 - 000001CF (0x27 bytes), align: 0
  Segment part 68.            Intra module refs:   Segment part 67
    -------------------------------------------------------------------------
XDATA_ID
  Relative segment, address: CODE 000001D0 - 000001DB (0xc bytes), align: 0
  Segment part 70.            Intra module refs:   AT_set_time::__FUNCTION__
    -------------------------------------------------------------------------
XDATA_ID
  Relative segment, address: CODE 000001DC - 000001E8 (0xd bytes), align: 0
  Segment part 72.            Intra module refs:   Segment part 71
    -------------------------------------------------------------------------
XDATA_ID
  Relative segment, address: CODE 000001E9 - 000001F6 (0xe bytes), align: 0
  Segment part 74.            Intra module refs:   Segment part 73
    -------------------------------------------------------------------------
XDATA_ID
  Relative segment, address: CODE 000001F7 - 00000215 (0x1f bytes), align: 0
  Segment part 76.            Intra module refs:   Segment part 75
    -------------------------------------------------------------------------
XDATA_ID
  Relative segment, address: CODE 00000216 - 0000021D (0x8 bytes), align: 0
  Segment part 78.            Intra module refs:   AT_wait::__FUNCTION__
    -------------------------------------------------------------------------
XDATA_ID
  Relative segment, address: CODE 0000021E - 0000022A (0xd bytes), align: 0
  Segment part 80.            Intra module refs:   AT_set_alarm::__FUNCTION__
    -------------------------------------------------------------------------
XDATA_ID
  Relative segment, address: CODE 0000022B - 0000024A (0x20 bytes), align: 0
  Segment part 82.            Intra module refs:   Segment part 81
    -------------------------------------------------------------------------
XDATA_ID
  Relative segment, address: CODE 0000024B - 00000257 (0xd bytes), align: 0
  Segment part 86.            Intra module refs:   Segment part 85
    -------------------------------------------------------------------------
XDATA_ID
  Relative segment, address: CODE 00000258 - 00000260 (0x9 bytes), align: 0
  Segment part 88.            Intra module refs:   Segment part 87
    -------------------------------------------------------------------------
XDATA_ID
  Relative segment, address: CODE 00000261 - 00000266 (0x6 bytes), align: 0
  Segment part 92.            Intra module refs:   _push::__FUNCTION__
    -------------------------------------------------------------------------
XDATA_ID
  Relative segment, address: CODE 00000267 - 00000280 (0x1a bytes), align: 0
  Segment part 94.            Intra module refs:   Segment part 93
    -------------------------------------------------------------------------
XDATA_ID
  Relative segment, address: CODE 00000281 - 00000289 (0x9 bytes), align: 0
  Segment part 96.            Intra module refs:   cmd_0x00::__FUNCTION__
    -------------------------------------------------------------------------
XDATA_ID
  Relative segment, address: CODE 0000028A - 00000296 (0xd bytes), align: 0
  Segment part 98.            Intra module refs:   Segment part 97
    -------------------------------------------------------------------------
XDATA_ID
  Relative segment, address: CODE 00000297 - 000002A1 (0xb bytes), align: 0
  Segment part 100.           Intra module refs:   Segment part 99
    -------------------------------------------------------------------------
XDATA_ID
  Relative segment, address: CODE 000002A2 - 000002B3 (0x12 bytes), align: 0
  Segment part 102.           Intra module refs:   Segment part 101
    -------------------------------------------------------------------------
XDATA_ID
  Relative segment, address: CODE 000002B4 - 000002B6 (0x3 bytes), align: 0
  Segment part 104.           Intra module refs:   Segment part 103
    -------------------------------------------------------------------------
XDATA_ID
  Relative segment, address: CODE 000002B7 - 000002CB (0x15 bytes), align: 0
  Segment part 106.           Intra module refs:   Segment part 105
    -------------------------------------------------------------------------
XDATA_ID
  Relative segment, address: CODE 000002CC - 000002D4 (0x9 bytes), align: 0
  Segment part 108.           Intra module refs:   cmd_0x01::__FUNCTION__
    -------------------------------------------------------------------------
XDATA_ID
  Relative segment, address: CODE 000002D5 - 000002E1 (0xd bytes), align: 0
  Segment part 110.           Intra module refs:   Segment part 109
    -------------------------------------------------------------------------
XDATA_ID
  Relative segment, address: CODE 000002E2 - 000002EC (0xb bytes), align: 0
  Segment part 112.           Intra module refs:   Segment part 111
    -------------------------------------------------------------------------
XDATA_ID
  Relative segment, address: CODE 000002ED - 00000300 (0x14 bytes), align: 0
  Segment part 114.           Intra module refs:   Segment part 113
    -------------------------------------------------------------------------
XDATA_ID
  Relative segment, address: CODE 00000301 - 00000303 (0x3 bytes), align: 0
  Segment part 116.           Intra module refs:   Segment part 115
    -------------------------------------------------------------------------
XDATA_ID
  Relative segment, address: CODE 00000304 - 0000030C (0x9 bytes), align: 0
  Segment part 118.           Intra module refs:   cmd_0x03::__FUNCTION__
    -------------------------------------------------------------------------
XDATA_ID
  Relative segment, address: CODE 0000030D - 00000319 (0xd bytes), align: 0
  Segment part 120.           Intra module refs:   Segment part 119
    -------------------------------------------------------------------------
XDATA_ID
  Relative segment, address: CODE 0000031A - 00000324 (0xb bytes), align: 0
  Segment part 122.           Intra module refs:   Segment part 121
    -------------------------------------------------------------------------
XDATA_ID
  Relative segment, address: CODE 00000325 - 0000033C (0x18 bytes), align: 0
  Segment part 124.           Intra module refs:   Segment part 123
    -------------------------------------------------------------------------
XDATA_ID
  Relative segment, address: CODE 0000033D - 0000033F (0x3 bytes), align: 0
  Segment part 126.           Intra module refs:   Segment part 125
    -------------------------------------------------------------------------
XDATA_ID
  Relative segment, address: CODE 00000340 - 00000356 (0x17 bytes), align: 0
  Segment part 128.           Intra module refs:   Segment part 127
    -------------------------------------------------------------------------
XDATA_ID
  Relative segment, address: CODE 00000357 - 0000035F (0x9 bytes), align: 0
  Segment part 130.           Intra module refs:   cmd_0x04::__FUNCTION__
    -------------------------------------------------------------------------
XDATA_ID
  Relative segment, address: CODE 00000360 - 0000036C (0xd bytes), align: 0
  Segment part 132.           Intra module refs:   Segment part 131
    -------------------------------------------------------------------------
XDATA_ID
  Relative segment, address: CODE 0000036D - 00000377 (0xb bytes), align: 0
  Segment part 134.           Intra module refs:   Segment part 133
    -------------------------------------------------------------------------
XDATA_ID
  Relative segment, address: CODE 00000378 - 0000038B (0x14 bytes), align: 0
  Segment part 136.           Intra module refs:   Segment part 135
    -------------------------------------------------------------------------
XDATA_ID
  Relative segment, address: CODE 0000038C - 0000038E (0x3 bytes), align: 0
  Segment part 138.           Intra module refs:   Segment part 137
    -------------------------------------------------------------------------
XDATA_ID
  Relative segment, address: CODE 0000038F - 00000397 (0x9 bytes), align: 0
  Segment part 140.           Intra module refs:   cmd_0x05::__FUNCTION__
    -------------------------------------------------------------------------
XDATA_ID
  Relative segment, address: CODE 00000398 - 000003A4 (0xd bytes), align: 0
  Segment part 142.           Intra module refs:   Segment part 141
    -------------------------------------------------------------------------
XDATA_ID
  Relative segment, address: CODE 000003A5 - 000003AF (0xb bytes), align: 0
  Segment part 144.           Intra module refs:   Segment part 143
    -------------------------------------------------------------------------
XDATA_ID
  Relative segment, address: CODE 000003B0 - 000003C4 (0x15 bytes), align: 0
  Segment part 146.           Intra module refs:   Segment part 145
    -------------------------------------------------------------------------
XDATA_ID
  Relative segment, address: CODE 000003C5 - 000003C7 (0x3 bytes), align: 0
  Segment part 148.           Intra module refs:   Segment part 147
    -------------------------------------------------------------------------
XDATA_ID
  Relative segment, address: CODE 000003C8 - 000003D0 (0x9 bytes), align: 0
  Segment part 150.           Intra module refs:   cmd_0x06::__FUNCTION__
    -------------------------------------------------------------------------
XDATA_ID
  Relative segment, address: CODE 000003D1 - 000003DD (0xd bytes), align: 0
  Segment part 152.           Intra module refs:   Segment part 151
    -------------------------------------------------------------------------
XDATA_ID
  Relative segment, address: CODE 000003DE - 000003E8 (0xb bytes), align: 0
  Segment part 154.           Intra module refs:   Segment part 153
    -------------------------------------------------------------------------
XDATA_ID
  Relative segment, address: CODE 000003E9 - 000003FC (0x14 bytes), align: 0
  Segment part 156.           Intra module refs:   Segment part 155
    -------------------------------------------------------------------------
XDATA_ID
  Relative segment, address: CODE 000003FD - 000003FF (0x3 bytes), align: 0
  Segment part 158.           Intra module refs:   Segment part 157
    -------------------------------------------------------------------------
XDATA_ID
  Relative segment, address: CODE 00000400 - 00000408 (0x9 bytes), align: 0
  Segment part 160.           Intra module refs:   cmd_0x07::__FUNCTION__
    -------------------------------------------------------------------------
XDATA_ID
  Relative segment, address: CODE 00000409 - 00000415 (0xd bytes), align: 0
  Segment part 162.           Intra module refs:   Segment part 161
    -------------------------------------------------------------------------
XDATA_ID
  Relative segment, address: CODE 00000416 - 00000420 (0xb bytes), align: 0
  Segment part 164.           Intra module refs:   Segment part 163
    -------------------------------------------------------------------------
XDATA_ID
  Relative segment, address: CODE 00000421 - 00000434 (0x14 bytes), align: 0
  Segment part 166.           Intra module refs:   Segment part 165
    -------------------------------------------------------------------------
XDATA_ID
  Relative segment, address: CODE 00000435 - 00000437 (0x3 bytes), align: 0
  Segment part 168.           Intra module refs:   Segment part 167
    -------------------------------------------------------------------------
XDATA_ID
  Relative segment, address: CODE 00000438 - 00000440 (0x9 bytes), align: 0
  Segment part 170.           Intra module refs:   cmd_0x08::__FUNCTION__
    -------------------------------------------------------------------------
XDATA_ID
  Relative segment, address: CODE 00000441 - 0000044D (0xd bytes), align: 0
  Segment part 172.           Intra module refs:   Segment part 171
    -------------------------------------------------------------------------
XDATA_ID
  Relative segment, address: CODE 0000044E - 00000458 (0xb bytes), align: 0
  Segment part 174.           Intra module refs:   Segment part 173
    -------------------------------------------------------------------------
XDATA_ID
  Relative segment, address: CODE 00000459 - 00000470 (0x18 bytes), align: 0
  Segment part 176.           Intra module refs:   Segment part 175
    -------------------------------------------------------------------------
XDATA_ID
  Relative segment, address: CODE 00000471 - 00000473 (0x3 bytes), align: 0
  Segment part 178.           Intra module refs:   Segment part 177
    -------------------------------------------------------------------------
XDATA_ID
  Relative segment, address: CODE 00000474 - 0000047C (0x9 bytes), align: 0
  Segment part 180.           Intra module refs:   cmd_0x09::__FUNCTION__
    -------------------------------------------------------------------------
XDATA_ID
  Relative segment, address: CODE 0000047D - 00000489 (0xd bytes), align: 0
  Segment part 182.           Intra module refs:   Segment part 181
    -------------------------------------------------------------------------
XDATA_ID
  Relative segment, address: CODE 0000048A - 00000494 (0xb bytes), align: 0
  Segment part 184.           Intra module refs:   Segment part 183
    -------------------------------------------------------------------------
XDATA_ID
  Relative segment, address: CODE 00000495 - 000004AD (0x19 bytes), align: 0
  Segment part 186.           Intra module refs:   Segment part 185
    -------------------------------------------------------------------------
XDATA_ID
  Relative segment, address: CODE 000004AE - 000004B0 (0x3 bytes), align: 0
  Segment part 188.           Intra module refs:   Segment part 187
    -------------------------------------------------------------------------
XDATA_ID
  Relative segment, address: CODE 000004B1 - 000004B9 (0x9 bytes), align: 0
  Segment part 190.           Intra module refs:   cmd_0x0A::__FUNCTION__
    -------------------------------------------------------------------------
XDATA_ID
  Relative segment, address: CODE 000004BA - 000004C6 (0xd bytes), align: 0
  Segment part 192.           Intra module refs:   Segment part 191
    -------------------------------------------------------------------------
XDATA_ID
  Relative segment, address: CODE 000004C7 - 000004D1 (0xb bytes), align: 0
  Segment part 194.           Intra module refs:   Segment part 193
    -------------------------------------------------------------------------
XDATA_ID
  Relative segment, address: CODE 000004D2 - 000004EA (0x19 bytes), align: 0
  Segment part 196.           Intra module refs:   Segment part 195
    -------------------------------------------------------------------------
XDATA_ID
  Relative segment, address: CODE 000004EB - 000004ED (0x3 bytes), align: 0
  Segment part 198.           Intra module refs:   Segment part 197
    -------------------------------------------------------------------------
XDATA_ID
  Relative segment, address: CODE 000004EE - 000004F6 (0x9 bytes), align: 0
  Segment part 200.           Intra module refs:   cmd_0x0B::__FUNCTION__
    -------------------------------------------------------------------------
XDATA_ID
  Relative segment, address: CODE 000004F7 - 00000503 (0xd bytes), align: 0
  Segment part 202.           Intra module refs:   Segment part 201
    -------------------------------------------------------------------------
XDATA_ID
  Relative segment, address: CODE 00000504 - 0000050E (0xb bytes), align: 0
  Segment part 204.           Intra module refs:   Segment part 203
    -------------------------------------------------------------------------
XDATA_ID
  Relative segment, address: CODE 0000050F - 00000523 (0x15 bytes), align: 0
  Segment part 206.           Intra module refs:   Segment part 205
    -------------------------------------------------------------------------
XDATA_ID
  Relative segment, address: CODE 00000524 - 0000053A (0x17 bytes), align: 0
  Segment part 208.           Intra module refs:   Segment part 207
    -------------------------------------------------------------------------
XDATA_ID
  Relative segment, address: CODE 0000053B - 0000053D (0x3 bytes), align: 0
  Segment part 210.           Intra module refs:   Segment part 209
    -------------------------------------------------------------------------
XDATA_ID
  Relative segment, address: CODE 0000053E - 00000558 (0x1b bytes), align: 0
  Segment part 212.           Intra module refs:   Segment part 211
    -------------------------------------------------------------------------
XDATA_ID
  Relative segment, address: CODE 00000559 - 00000561 (0x9 bytes), align: 0
  Segment part 214.           Intra module refs:   cmd_0x0C::__FUNCTION__
    -------------------------------------------------------------------------
XDATA_ID
  Relative segment, address: CODE 00000562 - 0000056E (0xd bytes), align: 0
  Segment part 216.           Intra module refs:   Segment part 215
    -------------------------------------------------------------------------
XDATA_ID
  Relative segment, address: CODE 0000056F - 00000579 (0xb bytes), align: 0
  Segment part 218.           Intra module refs:   Segment part 217
    -------------------------------------------------------------------------
XDATA_ID
  Relative segment, address: CODE 0000057A - 00000586 (0xd bytes), align: 0
  Segment part 220.           Intra module refs:   Segment part 219
    -------------------------------------------------------------------------
XDATA_ID
  Relative segment, address: CODE 00000587 - 000005A0 (0x1a bytes), align: 0
  Segment part 222.           Intra module refs:   Segment part 221
    -------------------------------------------------------------------------
XDATA_ID
  Relative segment, address: CODE 000005A1 - 000005A3 (0x3 bytes), align: 0
  Segment part 224.           Intra module refs:   Segment part 223
    -------------------------------------------------------------------------
XDATA_ID
  Relative segment, address: CODE 000005A4 - 000005AC (0x9 bytes), align: 0
  Segment part 226.           Intra module refs:   cmd_0x0D::__FUNCTION__
    -------------------------------------------------------------------------
XDATA_ID
  Relative segment, address: CODE 000005AD - 000005B9 (0xd bytes), align: 0
  Segment part 228.           Intra module refs:   Segment part 227
    -------------------------------------------------------------------------
XDATA_ID
  Relative segment, address: CODE 000005BA - 000005C4 (0xb bytes), align: 0
  Segment part 230.           Intra module refs:   Segment part 229
    -------------------------------------------------------------------------
XDATA_ID
  Relative segment, address: CODE 000005C5 - 000005D8 (0x14 bytes), align: 0
  Segment part 232.           Intra module refs:   Segment part 231
    -------------------------------------------------------------------------
XDATA_ID
  Relative segment, address: CODE 000005D9 - 000005DB (0x3 bytes), align: 0
  Segment part 234.           Intra module refs:   Segment part 233
    -------------------------------------------------------------------------
XDATA_ID
  Relative segment, address: CODE 000005DC - 000005E4 (0x9 bytes), align: 0
  Segment part 236.           Intra module refs:   cmd_0x0E::__FUNCTION__
    -------------------------------------------------------------------------
XDATA_ID
  Relative segment, address: CODE 000005E5 - 000005F1 (0xd bytes), align: 0
  Segment part 238.           Intra module refs:   Segment part 237
    -------------------------------------------------------------------------
XDATA_ID
  Relative segment, address: CODE 000005F2 - 000005FC (0xb bytes), align: 0
  Segment part 240.           Intra module refs:   Segment part 239
    -------------------------------------------------------------------------
XDATA_ID
  Relative segment, address: CODE 000005FD - 00000612 (0x16 bytes), align: 0
  Segment part 242.           Intra module refs:   Segment part 241
    -------------------------------------------------------------------------
XDATA_ID
  Relative segment, address: CODE 00000613 - 00000615 (0x3 bytes), align: 0
  Segment part 244.           Intra module refs:   Segment part 243
    -------------------------------------------------------------------------
XDATA_ID
  Relative segment, address: CODE 00000616 - 0000061E (0x9 bytes), align: 0
  Segment part 246.           Intra module refs:   cmd_0x0F::__FUNCTION__
    -------------------------------------------------------------------------
XDATA_ID
  Relative segment, address: CODE 0000061F - 0000062B (0xd bytes), align: 0
  Segment part 248.           Intra module refs:   Segment part 247
    -------------------------------------------------------------------------
XDATA_ID
  Relative segment, address: CODE 0000062C - 00000636 (0xb bytes), align: 0
  Segment part 250.           Intra module refs:   Segment part 249
    -------------------------------------------------------------------------
XDATA_ID
  Relative segment, address: CODE 00000637 - 0000064C (0x16 bytes), align: 0
  Segment part 252.           Intra module refs:   Segment part 251
    -------------------------------------------------------------------------
XDATA_ID
  Relative segment, address: CODE 0000064D - 0000064F (0x3 bytes), align: 0
  Segment part 254.           Intra module refs:   Segment part 253
    -------------------------------------------------------------------------
XDATA_ID
  Relative segment, address: CODE 00000650 - 00000658 (0x9 bytes), align: 0
  Segment part 256.           Intra module refs:   cmd_0x10::__FUNCTION__
    -------------------------------------------------------------------------
XDATA_ID
  Relative segment, address: CODE 00000659 - 00000665 (0xd bytes), align: 0
  Segment part 258.           Intra module refs:   Segment part 257
    -------------------------------------------------------------------------
XDATA_ID
  Relative segment, address: CODE 00000666 - 00000670 (0xb bytes), align: 0
  Segment part 260.           Intra module refs:   Segment part 259
    -------------------------------------------------------------------------
XDATA_ID
  Relative segment, address: CODE 00000671 - 00000687 (0x17 bytes), align: 0
  Segment part 262.           Intra module refs:   Segment part 261
    -------------------------------------------------------------------------
XDATA_ID
  Relative segment, address: CODE 00000688 - 0000068A (0x3 bytes), align: 0
  Segment part 264.           Intra module refs:   Segment part 263
    -------------------------------------------------------------------------
XDATA_ID
  Relative segment, address: CODE 0000068B - 00000697 (0xd bytes), align: 0
  Segment part 266.           Intra module refs:   stream_write::__FUNCTION__
    -------------------------------------------------------------------------
XDATA_ID
  Relative segment, address: CODE 00000698 - 000006A4 (0xd bytes), align: 0
  Segment part 268.           Intra module refs:   Segment part 267
    -------------------------------------------------------------------------
XDATA_ID
  Relative segment, address: CODE 000006A5 - 000006B1 (0xd bytes), align: 0
  Segment part 270.           Intra module refs:   Segment part 269
    -------------------------------------------------------------------------
XDATA_ID
  Relative segment, address: CODE 000006B2 - 000006D4 (0x23 bytes), align: 0
  Segment part 272.           Intra module refs:   Segment part 271
    -------------------------------------------------------------------------
XDATA_ID
  Relative segment, address: CODE 000006D5 - 000006E2 (0xe bytes), align: 0
  Segment part 274.           Intra module refs:   LLC_open_slot::__FUNCTION__
    -------------------------------------------------------------------------
XDATA_ID
  Relative segment, address: CODE 000006E3 - 000006EF (0xd bytes), align: 0
  Segment part 276.           Intra module refs:   Segment part 275
    -------------------------------------------------------------------------
XDATA_ID
  Relative segment, address: CODE 000006F0 - 000006F5 (0x6 bytes), align: 0
  Segment part 278.           Intra module refs:   Segment part 277
    -------------------------------------------------------------------------
XDATA_ID
  Relative segment, address: CODE 000006F6 - 0000071A (0x25 bytes), align: 0
  Segment part 280.           Intra module refs:   Segment part 279
    -------------------------------------------------------------------------
XDATA_ID
  Relative segment, address: CODE 0000071B - 00000743 (0x29 bytes), align: 0
  Segment part 282.           Intra module refs:   Segment part 281
    -------------------------------------------------------------------------
XDATA_ID
  Relative segment, address: CODE 00000744 - 00000752 (0xf bytes), align: 0
  Segment part 284.           Intra module refs:   LLC_close_slot::__FUNCTION__
    -------------------------------------------------------------------------
XDATA_ID
  Relative segment, address: CODE 00000753 - 0000075F (0xd bytes), align: 0
  Segment part 286.           Intra module refs:   scheduler_tx::__FUNCTION__
    -------------------------------------------------------------------------
XDATA_ID
  Relative segment, address: CODE 00000760 - 0000077F (0x20 bytes), align: 0
  Segment part 288.           Intra module refs:   Segment part 287
    -------------------------------------------------------------------------
XDATA_ID
  Relative segment, address: CODE 00000780 - 0000078C (0xd bytes), align: 0
  Segment part 290.           Intra module refs:   scheduler_rx::__FUNCTION__
    -------------------------------------------------------------------------
XDATA_ID
  Relative segment, address: CODE 0000078D - 000007AA (0x1e bytes), align: 0
  Segment part 292.           Intra module refs:   Segment part 291
    -------------------------------------------------------------------------
XDATA_ID
  Relative segment, address: CODE 000007AB - 000007BF (0x15 bytes), align: 0
  Segment part 294.           Intra module refs:   scan_tx_buffer_by_ts::__FUNCTION__
    -------------------------------------------------------------------------
XDATA_ID
  Relative segment, address: CODE 000007C0 - 000007D1 (0x12 bytes), align: 0
  Segment part 296.           Intra module refs:   Segment part 295
    -------------------------------------------------------------------------
XDATA_ID
  Relative segment, address: CODE 000007D2 - 000007D9 (0x8 bytes), align: 0
  Segment part 298.           Intra module refs:   receive::__FUNCTION__
    -------------------------------------------------------------------------
XDATA_ID
  Relative segment, address: CODE 000007DA - 000007E4 (0xb bytes), align: 0
  Segment part 300.           Intra module refs:   Segment part 299
    -------------------------------------------------------------------------
XDATA_ID
  Relative segment, address: CODE 000007E5 - 000007ED (0x9 bytes), align: 0
  Segment part 302.           Intra module refs:   pre_init::__FUNCTION__
    -------------------------------------------------------------------------
XDATA_ID
  Relative segment, address: CODE 000007EE - 000007FA (0xd bytes), align: 0
  Segment part 304.           Intra module refs:   Segment part 303
    -------------------------------------------------------------------------
XDATA_ID
  Relative segment, address: CODE 000007FB - 00000801 (0x7 bytes), align: 0
  Segment part 306.           Intra module refs:   Segment part 305
    -------------------------------------------------------------------------
XDATA_ID
  Relative segment, address: CODE 00000802 - 00000811 (0x10 bytes), align: 0
  Segment part 308.           Intra module refs:   Segment part 307
    -------------------------------------------------------------------------
XDATA_ID
  Relative segment, address: CODE 00000812 - 00000814 (0x3 bytes), align: 0
  Segment part 310.           Intra module refs:   Segment part 309
    -------------------------------------------------------------------------
XDATA_ID
  Relative segment, address: CODE 00000815 - 00000819 (0x5 bytes), align: 0
  Segment part 312.           Intra module refs:   main::__FUNCTION__
    -------------------------------------------------------------------------
XDATA_ID
  Relative segment, address: CODE 0000081A - 00000822 (0x9 bytes), align: 0
  Segment part 314.           Intra module refs:   Segment part 313
    -------------------------------------------------------------------------
XDATA_ID
  Relative segment, address: CODE 00000823 - 0000082A (0x8 bytes), align: 0
  Segment part 326.           Intra module refs:   setFreq::__FUNCTION__
    -------------------------------------------------------------------------
XDATA_ID
  Relative segment, address: CODE 0000082B - 00000837 (0xd bytes), align: 0
  Segment part 328.           Intra module refs:   Segment part 327
    -------------------------------------------------------------------------
XDATA_ID
  Relative segment, address: CODE 00000838 - 0000083F (0x8 bytes), align: 0
  Segment part 330.           Intra module refs:   Segment part 329
    -------------------------------------------------------------------------
XDATA_ID
  Relative segment, address: CODE 00000840 - 0000086C (0x2d bytes), align: 0
  Segment part 332.           Intra module refs:   Segment part 331
    -------------------------------------------------------------------------
XDATA_ID
  Relative segment, address: CODE 0000086D - 00000874 (0x8 bytes), align: 0
  Segment part 334.           Intra module refs:   RI_Send::__FUNCTION__
    -------------------------------------------------------------------------
XDATA_ID
  Relative segment, address: CODE 00000875 - 0000088B (0x17 bytes), align: 0
  Segment part 336.           Intra module refs:   Segment part 335
    -------------------------------------------------------------------------
XDATA_ID
  Relative segment, address: CODE 0000088C - 00000896 (0xb bytes), align: 0
  Segment part 338.           Intra module refs:   RI_Receive::__FUNCTION__
    -------------------------------------------------------------------------
XDATA_ID
  Relative segment, address: CODE 00000897 - 000008A9 (0x13 bytes), align: 0
  Segment part 340.           Intra module refs:   Segment part 339
    -------------------------------------------------------------------------
XDATA_ID
  Relative segment, address: CODE 000008AA - 000008BB (0x12 bytes), align: 0
  Segment part 342.           Intra module refs:   Segment part 341
    -------------------------------------------------------------------------
XDATA_ID
  Relative segment, address: CODE 000008BC - 000008C5 (0xa bytes), align: 0
  Segment part 344.           Intra module refs:   Hot_Start::__FUNCTION__
    -------------------------------------------------------------------------
XDATA_ID
  Relative segment, address: CODE 000008C6 - 000008D2 (0xd bytes), align: 0
  Segment part 346.           Intra module refs:   Segment part 345
    -------------------------------------------------------------------------
XDATA_ID
  Relative segment, address: CODE 000008D3 - 000008D9 (0x7 bytes), align: 0
  Segment part 348.           Intra module refs:   Segment part 347
    -------------------------------------------------------------------------
XDATA_ID
  Relative segment, address: CODE 000008DA - 000008E4 (0xb bytes), align: 0
  Segment part 350.           Intra module refs:   Segment part 349
    -------------------------------------------------------------------------
XDATA_ID
  Relative segment, address: CODE 000008E5 - 000008EE (0xa bytes), align: 0
  Segment part 352.           Intra module refs:   recv_sync::__FUNCTION__
    -------------------------------------------------------------------------
XDATA_ID
  Relative segment, address: CODE 000008EF - 000008FC (0xe bytes), align: 0
  Segment part 354.           Intra module refs:   Segment part 353
    -------------------------------------------------------------------------
XDATA_ID
  Relative segment, address: CODE 000008FD - 00000906 (0xa bytes), align: 0
  Segment part 356.           Intra module refs:   send_sync::__FUNCTION__
    -------------------------------------------------------------------------
XDATA_ID
  Relative segment, address: CODE 00000907 - 00000915 (0xf bytes), align: 0
  Segment part 358.           Intra module refs:   Segment part 357
    -------------------------------------------------------------------------
XDATA_ID
  Relative segment, address: CODE 00000916 - 0000092B (0x16 bytes), align: 0
  Segment part 360.           Intra module refs:   Segment part 359
    -------------------------------------------------------------------------
XDATA_ID
  Relative segment, address: CODE 0000092C - 0000092E (0x3 bytes), align: 0
  Segment part 362.           Intra module refs:   Segment part 361
    -------------------------------------------------------------------------
XDATA_ID
  Relative segment, address: CODE 0000092F - 0000093A (0xc bytes), align: 0
  Segment part 366.           Intra module refs:   TM_SetAlarm::__FUNCTION__
    -------------------------------------------------------------------------
XDATA_ID
  Relative segment, address: CODE 0000093B - 00000947 (0xd bytes), align: 0
  Segment part 368.           Intra module refs:   Segment part 367
    -------------------------------------------------------------------------
XDATA_ID
  Relative segment, address: CODE 00000948 - 00000956 (0xf bytes), align: 0
  Segment part 370.           Intra module refs:   Segment part 369
    -------------------------------------------------------------------------
XDATA_ID
  Relative segment, address: CODE 00000957 - 00000978 (0x22 bytes), align: 0
  Segment part 372.           Intra module refs:   Segment part 371
    -------------------------------------------------------------------------
XDATA_ID
  Relative segment, address: CODE 00000979 - 00000984 (0xc bytes), align: 0
  Segment part 374.           Intra module refs:   TM_ClrAlarm::__FUNCTION__
    -------------------------------------------------------------------------
XDATA_ID
  Relative segment, address: CODE 00000985 - 00000992 (0xe bytes), align: 0
  Segment part 376.           Intra module refs:   Neocore_start::__FUNCTION__
    -------------------------------------------------------------------------
XDATA_ID
  Relative segment, address: CODE 00000993 - 000009AA (0x18 bytes), align: 0
  Segment part 378.           Intra module refs:   Segment part 377
    -------------------------------------------------------------------------
XDATA_ID
  Relative segment, address: CODE 000009AB - 000009B0 (0x6 bytes), align: 0
  Segment part 380.           Intra module refs:   COLD_MOD
    -------------------------------------------------------------------------
XDATA_ID
  Relative segment, address: CODE 000009B1 - 000009B8 (0x8 bytes), align: 0
  Segment part 382.           Intra module refs:   HOT_MOD
    -------------------------------------------------------------------------
XDATA_ID
  Relative segment, address: CODE 000009B9 - 000009C8 (0x10 bytes), align: 0
  Segment part 384.           Intra module refs:   HW_MOD
    -------------------------------------------------------------------------
XDATA_ID
  Relative segment, address: CODE 000009C9 - 000009D8 (0x10 bytes), align: 0
  Segment part 386.           Intra module refs:   SW_MOD
    -------------------------------------------------------------------------
XDATA_ID
  Relative segment, address: CODE 000009D9 - 000009E0 (0x8 bytes), align: 0
  Segment part 389.           Intra module refs:   AT_MODULE
    -------------------------------------------------------------------------
XDATA_ID
  Relative segment, address: CODE 000009E1 - 000009E8 (0x8 bytes), align: 0
  Segment part 395.           Intra module refs:   BF_MODULE
    -------------------------------------------------------------------------
XDATA_ID
  Relative segment, address: CODE 000009E9 - 000009EC (0x4 bytes), align: 0
  Segment part 398.           Intra module refs:   TX_LIST_HEAD
    -------------------------------------------------------------------------
XDATA_ID
  Relative segment, address: CODE 000009ED - 000009F0 (0x4 bytes), align: 0
  Segment part 400.           Intra module refs:   RX_LIST_HEAD
    -------------------------------------------------------------------------
XDATA_ID
  Relative segment, address: CODE 000009F1 - 000009F5 (0x5 bytes), align: 0
  Segment part 404.           Intra module refs:   Segment part 403
    -------------------------------------------------------------------------
XDATA_ID
  Relative segment, address: CODE 000009F6 - 00000A17 (0x22 bytes), align: 0
  Segment part 407.           Intra module refs:   CMD_LIST
    -------------------------------------------------------------------------
XDATA_ID
  Relative segment, address: CODE 00000A18 - 00000A1F (0x8 bytes), align: 0
  Segment part 409.           Intra module refs:   CODER_MODULE
    -------------------------------------------------------------------------
XDATA_ID
  Relative segment, address: CODE 00000A20 - 00000A27 (0x8 bytes), align: 0
  Segment part 412.           Intra module refs:   CPU_MODULE
    -------------------------------------------------------------------------
XDATA_ID
  Relative segment, address: CODE 00000A28 - 00000A2F (0x8 bytes), align: 0
  Segment part 414.           Intra module refs:   DBG_MODULE
    -------------------------------------------------------------------------
XDATA_ID
  Relative segment, address: CODE 00000A30 - 00000A37 (0x8 bytes), align: 0
  Segment part 416.           Intra module refs:   DMA_MODULE
    -------------------------------------------------------------------------
XDATA_ID
  Relative segment, address: CODE 00000A38 - 00000A3F (0x8 bytes), align: 0
  Segment part 419.           Intra module refs:   FR_MODULE
    -------------------------------------------------------------------------
XDATA_ID
  Relative segment, address: CODE 00000A40 - 00000A47 (0x8 bytes), align: 0
  Segment part 423.           Intra module refs:   LED_MODULE
    -------------------------------------------------------------------------
XDATA_ID
  Relative segment, address: CODE 00000A48 - 00000A4F (0x8 bytes), align: 0
  Segment part 425.           Intra module refs:   LLC_MODULE
    -------------------------------------------------------------------------
XDATA_ID
  Relative segment, address: CODE 00000A50 - 00000A57 (0x8 bytes), align: 0
  Segment part 428.           Intra module refs:   MAC_MODULE
    -------------------------------------------------------------------------
XDATA_ID
  Relative segment, address: CODE 00000A58 - 00000A5F (0x8 bytes), align: 0
  Segment part 430.           Intra module refs:   MS_MODULE
    -------------------------------------------------------------------------
XDATA_ID
  Relative segment, address: CODE 00000A60 - 00000A63 (0x4 bytes), align: 0
  Segment part 434.           Intra module refs:   Segment part 433
    -------------------------------------------------------------------------
XDATA_ID
  Relative segment, address: CODE 00000A64 - 00000A67 (0x4 bytes), align: 0
  Segment part 436.           Intra module refs:   Segment part 435
    -------------------------------------------------------------------------
XDATA_ID
  Relative segment, address: CODE 00000A68 - 00000A6F (0x8 bytes), align: 0
  Segment part 439.           Intra module refs:   MD_MODULE
    -------------------------------------------------------------------------
XDATA_ID
  Relative segment, address: CODE 00000A70 - 00000A77 (0x8 bytes), align: 0
  Segment part 441.           Intra module refs:   RADIO_MODULE
    -------------------------------------------------------------------------
XDATA_ID
  Relative segment, address: CODE 00000A78 - 00000A7F (0x8 bytes), align: 0
  Segment part 444.           Intra module refs:   RTC_MODULE
    -------------------------------------------------------------------------
XDATA_ID
  Relative segment, address: CODE 00000A80 - 00000A87 (0x8 bytes), align: 0
  Segment part 447.           Intra module refs:   SYNC_MODULE
    -------------------------------------------------------------------------
XDATA_ID
  Relative segment, address: CODE 00000A88 - 00000A8B (0x4 bytes), align: 0
  Segment part 451.           Intra module refs:   MAC_TIMER_MAX
    -------------------------------------------------------------------------
XDATA_ID
  Relative segment, address: CODE 00000A8C - 00000A93 (0x8 bytes), align: 0
  Segment part 454.           Intra module refs:   UST_MODULE
    -------------------------------------------------------------------------
XDATA_ID
  Relative segment, address: CODE 00000A94 - 00000A97 (0x4 bytes), align: 0
  Segment part 456.           Intra module refs:   __Constant_7fff
    -------------------------------------------------------------------------
XDATA_ID
  Relative segment, address: CODE 00000A98 - 00000A9B (0x4 bytes), align: 0
  Segment part 458.           Intra module refs:   __Constant_ffff8000
    -------------------------------------------------------------------------
XDATA_ID
  Relative segment, address: CODE 00000A9C - 00000A9F (0x4 bytes), align: 0
  Segment part 460.           Intra module refs:   __Constant_8000
    -------------------------------------------------------------------------
XDATA_ID
  Relative segment, address: CODE 00000AA0 - 00000AA3 (0x4 bytes), align: 0
  Segment part 462.           Intra module refs:   __Constant_ffffff
    -------------------------------------------------------------------------
XDATA_ID
  Relative segment, address: CODE 00000AA4 - 00000AA7 (0x4 bytes), align: 0
  Segment part 464.           Intra module refs:   __Constant_1
    -------------------------------------------------------------------------
XDATA_ID
  Relative segment, address: CODE 00000AA8 - 00000AAB (0x4 bytes), align: 0
  Segment part 466.           Intra module refs:   __Constant_19833891
    -------------------------------------------------------------------------
XDATA_ID
  Relative segment, address: CODE 00000AAC - 00000AAF (0x4 bytes), align: 0
  Segment part 468.           Intra module refs:   __Constant_a
    -------------------------------------------------------------------------
XDATA_ID
  Relative segment, address: CODE 00000AB0 - 00000AB3 (0x4 bytes), align: 0
  Segment part 470.           Intra module refs:   __Constant_20
    -------------------------------------------------------------------------
XDATA_ID
  Relative segment, address: CODE 00000AB4 - 00000AB7 (0x4 bytes), align: 0
  Segment part 472.           Intra module refs:   __Constant_1f4
    -------------------------------------------------------------------------
XDATA_ID
  Relative segment, address: CODE 00000AB8 - 00000ABB (0x4 bytes), align: 0
  Segment part 474.           Intra module refs:   __Constant_ffffc180
    -------------------------------------------------------------------------
BANK_RELAYS
  Relative segment, address: CODE 00000AD4 - 00000AD9 (0x6 bytes), align: 0
  Segment part 478.           Intra module refs:   start_mode_1
           ENTRY                   ADDRESS         REF BY
           =====                   =======         ======
           AM_Callback::?relay     00000AD4 
    -------------------------------------------------------------------------
BANK_RELAYS
  Relative segment, address: CODE 00000ADA - 00000ADF (0x6 bytes), align: 0
  Segment part 480.           Intra module refs:   TM_IRQ
           ENTRY                   ADDRESS         REF BY
           =====                   =======         ======
           AM_Cold_start::?relay   00000ADA 
    -------------------------------------------------------------------------
BANK_RELAYS
  Relative segment, address: CODE 00000AE0 - 00000AE5 (0x6 bytes), align: 0
  Segment part 482.           Intra module refs:   TM_IRQ
           ENTRY                   ADDRESS         REF BY
           =====                   =======         ======
           AM_Hot_start::?relay    00000AE0 
    -------------------------------------------------------------------------
BANK_RELAYS
  Relative segment, address: CODE 00000AE6 - 00000AEB (0x6 bytes), align: 0
  Segment part 484.           Intra module refs:   pre_init
           ENTRY                   ADDRESS         REF BY
           =====                   =======         ======
           AM_HW_Init::?relay      00000AE6 
    -------------------------------------------------------------------------
BANK_RELAYS
  Relative segment, address: CODE 00000AEC - 00000AF1 (0x6 bytes), align: 0
  Segment part 486.           Intra module refs:   start_mode_1
                                                   start_mode_2
           ENTRY                   ADDRESS         REF BY
           =====                   =======         ======
           AM_SW_Init::?relay      00000AEC 
    -------------------------------------------------------------------------
BANK_RELAYS
  Relative segment, address: CODE 00000AF2 - 00000AF7 (0x6 bytes), align: 0
  Segment part 488.           Intra module refs:   AT_enable
           LOCAL                   ADDRESS         
           =====                   =======         
           __cli::?relay           00000AF2 
    -------------------------------------------------------------------------
BANK_RELAYS
  Relative segment, address: CODE 00000AF8 - 00000AFD (0x6 bytes), align: 0
  Segment part 490.           Intra module refs:   Segment part 389
           LOCAL                   ADDRESS         
           =====                   =======         
           HW_Init::?relay         00000AF8 
    -------------------------------------------------------------------------
BANK_RELAYS
  Relative segment, address: CODE 00000AFE - 00000B03 (0x6 bytes), align: 0
  Segment part 492.           Intra module refs:   TM_IRQ
                                                   init
           ENTRY                   ADDRESS         REF BY
           =====                   =======         ======
           AT_enable::?relay       00000AFE 
    -------------------------------------------------------------------------
BANK_RELAYS
  Relative segment, address: CODE 00000B04 - 00000B09 (0x6 bytes), align: 0
  Segment part 494.           Intra module refs:   syncronize_timer
           ENTRY                   ADDRESS         REF BY
           =====                   =======         ======
           AT_interval::?relay     00000B04 
    -------------------------------------------------------------------------
BANK_RELAYS
  Relative segment, address: CODE 00000B0A - 00000B0F (0x6 bytes), align: 0
  Segment part 496.           Intra module refs:   syncronize_timer
           ENTRY                   ADDRESS         REF BY
           =====                   =======         ======
           AT_set_time::?relay     00000B0A 
    -------------------------------------------------------------------------
BANK_RELAYS
  Relative segment, address: CODE 00000B10 - 00000B15 (0x6 bytes), align: 0
  Segment part 498.           Intra module refs:   RecvData
                                                   SendData
                                                   TimerCompareInterrupt
                                                   syncronize_timer
           ENTRY                   ADDRESS         REF BY
           =====                   =======         ======
           AT_time::?relay         00000B10 
    -------------------------------------------------------------------------
BANK_RELAYS
  Relative segment, address: CODE 00000B16 - 00000B1B (0x6 bytes), align: 0
  Segment part 500.           Intra module refs:   SendData
                                                   recv_sync
           ENTRY                   ADDRESS         REF BY
           =====                   =======         ======
           AT_wait::?relay         00000B16 
    -------------------------------------------------------------------------
BANK_RELAYS
  Relative segment, address: CODE 00000B1C - 00000B21 (0x6 bytes), align: 0
  Segment part 502.           Intra module refs:   AT_enable
                                                   AT_set_alarm
                                                   HW_Init
                                                   TimerCompareInterrupt
           LOCAL                   ADDRESS         
           =====                   =======         
           IRQEnable::?relay       00000B1C 
    -------------------------------------------------------------------------
BANK_RELAYS
  Relative segment, address: CODE 00000B22 - 00000B27 (0x6 bytes), align: 0
  Segment part 504.           Intra module refs:   AT_set_time
                                                   scheulder_next_alarm
           ENTRY                   ADDRESS         REF BY
           =====                   =======         ======
           AT_set_alarm::?relay    00000B22 
    -------------------------------------------------------------------------
BANK_RELAYS
  Relative segment, address: CODE 00000B28 - 00000B2D (0x6 bytes), align: 0
  Segment part 506.           Intra module refs:   AT_set_alarm
           LOCAL                   ADDRESS         
           =====                   =======         
           calcCompareTime::?relay
                                   00000B28 
    -------------------------------------------------------------------------
BANK_RELAYS
  Relative segment, address: CODE 00000B2E - 00000B33 (0x6 bytes), align: 0
  Segment part 508.           Intra module refs:   AT_set_time
                                                   AT_time
                                                   calcCompareTime
           LOCAL                   ADDRESS         
           =====                   =======         
           ReadTimer::?relay       00000B2E 
    -------------------------------------------------------------------------
BANK_RELAYS
  Relative segment, address: CODE 00000B34 - 00000B39 (0x6 bytes), align: 0
  Segment part 510.           Intra module refs:   AT_set_alarm
           LOCAL                   ADDRESS         
           =====                   =======         
           loadTimerCompare::?relay
                                   00000B34 
    -------------------------------------------------------------------------
BANK_RELAYS
  Relative segment, address: CODE 00000B3A - 00000B3F (0x6 bytes), align: 0
  Segment part 512.           Intra module refs:   AT_set_time
           LOCAL                   ADDRESS         
           =====                   =======         
           isIRQEnable::?relay     00000B3A 
    -------------------------------------------------------------------------
BANK_RELAYS
  Relative segment, address: CODE 00000B40 - 00000B45 (0x6 bytes), align: 0
  Segment part 514.           Intra module refs:   BF_cursor_next
                                                   BF_cursor_rx
                                                   BF_cursor_tx
                                                   BF_push_rx
                                                   BF_push_tx
                                                   BF_remove
           LOCAL                   ADDRESS         
           =====                   =======         
           __cli::?relay           00000B40 
    -------------------------------------------------------------------------
BANK_RELAYS
  Relative segment, address: CODE 00000B46 - 00000B4B (0x6 bytes), align: 0
  Segment part 516.           Intra module refs:   SW_Init
                                                   find_free_node
           LOCAL                   ADDRESS         
           =====                   =======         
           INIT_LIST_HEAD::?relay
                                   00000B46 
    -------------------------------------------------------------------------
BANK_RELAYS
  Relative segment, address: CODE 00000B4C - 00000B51 (0x6 bytes), align: 0
  Segment part 518.           Intra module refs:   __list_add
           LOCAL                   ADDRESS         
           =====                   =======         
           __list_add_valid::?relay
                                   00000B4C 
    -------------------------------------------------------------------------
BANK_RELAYS
  Relative segment, address: CODE 00000B52 - 00000B57 (0x6 bytes), align: 0
  Segment part 520.           Intra module refs:   __list_del_entry
           LOCAL                   ADDRESS         
           =====                   =======         
           __list_del_entry_valid::?relay
                                   00000B52 
    -------------------------------------------------------------------------
BANK_RELAYS
  Relative segment, address: CODE 00000B58 - 00000B5D (0x6 bytes), align: 0
  Segment part 522.           Intra module refs:   list_add
           LOCAL                   ADDRESS         
           =====                   =======         
           __list_add::?relay      00000B58 
    -------------------------------------------------------------------------
BANK_RELAYS
  Relative segment, address: CODE 00000B5E - 00000B63 (0x6 bytes), align: 0
  Segment part 524.           Intra module refs:   _push
           LOCAL                   ADDRESS         
           =====                   =======         
           list_add::?relay        00000B5E 
    -------------------------------------------------------------------------
BANK_RELAYS
  Relative segment, address: CODE 00000B64 - 00000B69 (0x6 bytes), align: 0
  Segment part 526.           Intra module refs:   __list_del_entry
           LOCAL                   ADDRESS         
           =====                   =======         
           __list_del::?relay      00000B64 
    -------------------------------------------------------------------------
BANK_RELAYS
  Relative segment, address: CODE 00000B6A - 00000B6F (0x6 bytes), align: 0
  Segment part 528.           Intra module refs:   list_del
           LOCAL                   ADDRESS         
           =====                   =======         
           __list_del_entry::?relay
                                   00000B6A 
    -------------------------------------------------------------------------
BANK_RELAYS
  Relative segment, address: CODE 00000B70 - 00000B75 (0x6 bytes), align: 0
  Segment part 530.           Intra module refs:   BF_remove
           LOCAL                   ADDRESS         
           =====                   =======         
           list_del::?relay        00000B70 
    -------------------------------------------------------------------------
BANK_RELAYS
  Relative segment, address: CODE 00000B76 - 00000B7B (0x6 bytes), align: 0
  Segment part 532.           Intra module refs:   BF_cursor_rx
                                                   BF_cursor_tx
           LOCAL                   ADDRESS         
           =====                   =======         
           list_empty::?relay      00000B76 
    -------------------------------------------------------------------------
BANK_RELAYS
  Relative segment, address: CODE 00000B7C - 00000B81 (0x6 bytes), align: 0
  Segment part 534.           Intra module refs:   Segment part 395
           LOCAL                   ADDRESS         
           =====                   =======         
           SW_Init::?relay         00000B7C 
    -------------------------------------------------------------------------
BANK_RELAYS
  Relative segment, address: CODE 00000B82 - 00000B87 (0x6 bytes), align: 0
  Segment part 536.           Intra module refs:   cmd_0x09
           ENTRY                   ADDRESS         REF BY
           =====                   =======         ======
           BF_rx_busy::?relay      00000B82 
    -------------------------------------------------------------------------
BANK_RELAYS
  Relative segment, address: CODE 00000B88 - 00000B8D (0x6 bytes), align: 0
  Segment part 538.           Intra module refs:   cmd_0x0A
           ENTRY                   ADDRESS         REF BY
           =====                   =======         ======
           BF_tx_busy::?relay      00000B88 
    -------------------------------------------------------------------------
BANK_RELAYS
  Relative segment, address: CODE 00000B8E - 00000B93 (0x6 bytes), align: 0
  Segment part 542.           Intra module refs:   _push
           LOCAL                   ADDRESS         
           =====                   =======         
           find_free_node::?relay
                                   00000B8E 
    -------------------------------------------------------------------------
BANK_RELAYS
  Relative segment, address: CODE 00000B94 - 00000B99 (0x6 bytes), align: 0
  Segment part 544.           Intra module refs:   BF_push_rx
                                                   BF_push_tx
           LOCAL                   ADDRESS         
           =====                   =======         
           _push::?relay           00000B94 
    -------------------------------------------------------------------------
BANK_RELAYS
  Relative segment, address: CODE 00000B9A - 00000B9F (0x6 bytes), align: 0
  Segment part 546.           Intra module refs:   cmd_0x0B
           ENTRY                   ADDRESS         REF BY
           =====                   =======         ======
           BF_push_tx::?relay      00000B9A 
    -------------------------------------------------------------------------
BANK_RELAYS
  Relative segment, address: CODE 00000BA0 - 00000BA5 (0x6 bytes), align: 0
  Segment part 548.           Intra module refs:   receive
           ENTRY                   ADDRESS         REF BY
           =====                   =======         ======
           BF_push_rx::?relay      00000BA0 
    -------------------------------------------------------------------------
BANK_RELAYS
  Relative segment, address: CODE 00000BA6 - 00000BAB (0x6 bytes), align: 0
  Segment part 550.           Intra module refs:   cmd_0x0C
           ENTRY                   ADDRESS         REF BY
           =====                   =======         ======
           BF_cursor_rx::?relay    00000BA6 
    -------------------------------------------------------------------------
BANK_RELAYS
  Relative segment, address: CODE 00000BAC - 00000BB1 (0x6 bytes), align: 0
  Segment part 552.           Intra module refs:   scan_tx_buffer_by_ts
                                                   scheduler_tx
           ENTRY                   ADDRESS         REF BY
           =====                   =======         ======
           BF_cursor_tx::?relay    00000BAC 
    -------------------------------------------------------------------------
BANK_RELAYS
  Relative segment, address: CODE 00000BB2 - 00000BB7 (0x6 bytes), align: 0
  Segment part 554.           Intra module refs:   scan_tx_buffer_by_ts
                                                   scheduler_tx
           ENTRY                   ADDRESS         REF BY
           =====                   =======         ======
           BF_cursor_next::?relay
                                   00000BB2 
    -------------------------------------------------------------------------
BANK_RELAYS
  Relative segment, address: CODE 00000BB8 - 00000BBD (0x6 bytes), align: 0
  Segment part 556.           Intra module refs:   cmd_0x0C
           ENTRY                   ADDRESS         REF BY
           =====                   =======         ======
           BF_remove::?relay       00000BB8 
    -------------------------------------------------------------------------
BANK_RELAYS
  Relative segment, address: CODE 00000BBE - 00000BC3 (0x6 bytes), align: 0
  Segment part 558.           Intra module refs:   cmd_0x0C
                                                   scan_tx_buffer_by_ts
                                                   scheduler_tx
           ENTRY                   ADDRESS         REF BY
           =====                   =======         ======
           BF_content::?relay      00000BBE 
    -------------------------------------------------------------------------
BANK_RELAYS
  Relative segment, address: CODE 00000BC4 - 00000BC9 (0x6 bytes), align: 0
  Segment part 560.           Intra module refs:   Segment part 407
           ENTRY                   ADDRESS         REF BY
           =====                   =======         ======
           cmd_0x00::?relay        00000BC4 
    -------------------------------------------------------------------------
BANK_RELAYS
  Relative segment, address: CODE 00000BCA - 00000BCF (0x6 bytes), align: 0
  Segment part 562.           Intra module refs:   Segment part 407
           ENTRY                   ADDRESS         REF BY
           =====                   =======         ======
           cmd_0x01::?relay        00000BCA 
    -------------------------------------------------------------------------
BANK_RELAYS
  Relative segment, address: CODE 00000BD0 - 00000BD5 (0x6 bytes), align: 0
  Segment part 564.           Intra module refs:   Segment part 407
           ENTRY                   ADDRESS         REF BY
           =====                   =======         ======
           cmd_0x02::?relay        00000BD0 
    -------------------------------------------------------------------------
BANK_RELAYS
  Relative segment, address: CODE 00000BD6 - 00000BDB (0x6 bytes), align: 0
  Segment part 566.           Intra module refs:   Segment part 407
           ENTRY                   ADDRESS         REF BY
           =====                   =======         ======
           cmd_0x03::?relay        00000BD6 
    -------------------------------------------------------------------------
BANK_RELAYS
  Relative segment, address: CODE 00000BDC - 00000BE1 (0x6 bytes), align: 0
  Segment part 568.           Intra module refs:   Segment part 407
           ENTRY                   ADDRESS         REF BY
           =====                   =======         ======
           cmd_0x04::?relay        00000BDC 
    -------------------------------------------------------------------------
BANK_RELAYS
  Relative segment, address: CODE 00000BE2 - 00000BE7 (0x6 bytes), align: 0
  Segment part 570.           Intra module refs:   Segment part 407
           ENTRY                   ADDRESS         REF BY
           =====                   =======         ======
           cmd_0x05::?relay        00000BE2 
    -------------------------------------------------------------------------
BANK_RELAYS
  Relative segment, address: CODE 00000BE8 - 00000BED (0x6 bytes), align: 0
  Segment part 572.           Intra module refs:   Segment part 407
           ENTRY                   ADDRESS         REF BY
           =====                   =======         ======
           cmd_0x06::?relay        00000BE8 
    -------------------------------------------------------------------------
BANK_RELAYS
  Relative segment, address: CODE 00000BEE - 00000BF3 (0x6 bytes), align: 0
  Segment part 574.           Intra module refs:   Segment part 407
           ENTRY                   ADDRESS         REF BY
           =====                   =======         ======
           cmd_0x07::?relay        00000BEE 
    -------------------------------------------------------------------------
BANK_RELAYS
  Relative segment, address: CODE 00000BF4 - 00000BF9 (0x6 bytes), align: 0
  Segment part 576.           Intra module refs:   Segment part 407
           ENTRY                   ADDRESS         REF BY
           =====                   =======         ======
           cmd_0x08::?relay        00000BF4 
    -------------------------------------------------------------------------
BANK_RELAYS
  Relative segment, address: CODE 00000BFA - 00000BFF (0x6 bytes), align: 0
  Segment part 578.           Intra module refs:   Segment part 407
           ENTRY                   ADDRESS         REF BY
           =====                   =======         ======
           cmd_0x09::?relay        00000BFA 
    -------------------------------------------------------------------------
BANK_RELAYS
  Relative segment, address: CODE 00000C00 - 00000C05 (0x6 bytes), align: 0
  Segment part 580.           Intra module refs:   Segment part 407
           ENTRY                   ADDRESS         REF BY
           =====                   =======         ======
           cmd_0x0A::?relay        00000C00 
    -------------------------------------------------------------------------
BANK_RELAYS
  Relative segment, address: CODE 00000C06 - 00000C0B (0x6 bytes), align: 0
  Segment part 582.           Intra module refs:   Segment part 407
           ENTRY                   ADDRESS         REF BY
           =====                   =======         ======
           cmd_0x0B::?relay        00000C06 
    -------------------------------------------------------------------------
BANK_RELAYS
  Relative segment, address: CODE 00000C0C - 00000C11 (0x6 bytes), align: 0
  Segment part 584.           Intra module refs:   Segment part 407
           ENTRY                   ADDRESS         REF BY
           =====                   =======         ======
           cmd_0x0C::?relay        00000C0C 
    -------------------------------------------------------------------------
BANK_RELAYS
  Relative segment, address: CODE 00000C12 - 00000C17 (0x6 bytes), align: 0
  Segment part 586.           Intra module refs:   cmd_0x0C
           LOCAL                   ADDRESS         
           =====                   =======         
           upload_frame::?relay    00000C12 
    -------------------------------------------------------------------------
BANK_RELAYS
  Relative segment, address: CODE 00000C18 - 00000C1D (0x6 bytes), align: 0
  Segment part 588.           Intra module refs:   upload_frame
           LOCAL                   ADDRESS         
           =====                   =======         
           mem_move::?relay        00000C18 
    -------------------------------------------------------------------------
BANK_RELAYS
  Relative segment, address: CODE 00000C1E - 00000C23 (0x6 bytes), align: 0
  Segment part 590.           Intra module refs:   Segment part 407
           ENTRY                   ADDRESS         REF BY
           =====                   =======         ======
           cmd_0x0D::?relay        00000C1E 
    -------------------------------------------------------------------------
BANK_RELAYS
  Relative segment, address: CODE 00000C24 - 00000C29 (0x6 bytes), align: 0
  Segment part 592.           Intra module refs:   Segment part 407
           ENTRY                   ADDRESS         REF BY
           =====                   =======         ======
           cmd_0x0E::?relay        00000C24 
    -------------------------------------------------------------------------
BANK_RELAYS
  Relative segment, address: CODE 00000C2A - 00000C2F (0x6 bytes), align: 0
  Segment part 594.           Intra module refs:   Segment part 407
           ENTRY                   ADDRESS         REF BY
           =====                   =======         ======
           cmd_0x0F::?relay        00000C2A 
    -------------------------------------------------------------------------
BANK_RELAYS
  Relative segment, address: CODE 00000C30 - 00000C35 (0x6 bytes), align: 0
  Segment part 596.           Intra module refs:   Segment part 407
           ENTRY                   ADDRESS         REF BY
           =====                   =======         ======
           cmd_0x10::?relay        00000C30 
    -------------------------------------------------------------------------
BANK_RELAYS
  Relative segment, address: CODE 00000C36 - 00000C3B (0x6 bytes), align: 0
  Segment part 598.           Intra module refs:   main
           ENTRY                   ADDRESS         REF BY
           =====                   =======         ======
           parse_uart_stream::?relay
                                   00000C36 
    -------------------------------------------------------------------------
BANK_RELAYS
  Relative segment, address: CODE 00000C3C - 00000C41 (0x6 bytes), align: 0
  Segment part 600.           Intra module refs:   cmd_0x00
                                                   cmd_0x01
                                                   cmd_0x02
                                                   cmd_0x03
                                                   cmd_0x04
                                                   cmd_0x05
                                                   cmd_0x06
                                                   cmd_0x07
                                                   cmd_0x08
                                                   cmd_0x09
                                                   cmd_0x0A
                                                   cmd_0x0B
                                                   cmd_0x0D
                                                   cmd_0x0E
                                                   cmd_0x0F
                                                   cmd_0x10
                                                   upload_frame
           ENTRY                   ADDRESS         REF BY
           =====                   =======         ======
           cmd_answer::?relay      00000C3C 
    -------------------------------------------------------------------------
BANK_RELAYS
  Relative segment, address: CODE 00000C42 - 00000C47 (0x6 bytes), align: 0
  Segment part 602.           Intra module refs:   cmd_0x01
                                                   cmd_0x02
                                                   cmd_0x03
                                                   cmd_0x04
                                                   cmd_0x05
                                                   cmd_0x06
                                                   cmd_0x07
                                                   cmd_0x08
                                                   cmd_0x09
                                                   cmd_0x0A
                                                   cmd_0x0B
                                                   cmd_0x0C
                                                   cmd_0x0D
                                                   cmd_0x0E
                                                   cmd_0x0F
                                                   cmd_0x10
                                                   parse_uart_stream
           ENTRY                   ADDRESS         REF BY
           =====                   =======         ======
           cmd_answer_err::?relay
                                   00000C42 
    -------------------------------------------------------------------------
BANK_RELAYS
  Relative segment, address: CODE 00000C48 - 00000C4D (0x6 bytes), align: 0
  Segment part 604.           Intra module refs:   cmd_answer_err
           ENTRY                   ADDRESS         REF BY
           =====                   =======         ======
           stream_write::?relay    00000C48 
    -------------------------------------------------------------------------
BANK_RELAYS
  Relative segment, address: CODE 00000C4E - 00000C53 (0x6 bytes), align: 0
  Segment part 606.           Intra module refs:   parse_uart_stream
           LOCAL                   ADDRESS         
           =====                   =======         
           check_cmd_frame::?relay
                                   00000C4E 
    -------------------------------------------------------------------------
BANK_RELAYS
  Relative segment, address: CODE 00000C54 - 00000C59 (0x6 bytes), align: 0
  Segment part 608.           Intra module refs:   cmd_answer
                                                   stream_write
           LOCAL                   ADDRESS         
           =====                   =======         
           crc16::?relay           00000C54 
    -------------------------------------------------------------------------
BANK_RELAYS
  Relative segment, address: CODE 00000C5A - 00000C5F (0x6 bytes), align: 0
  Segment part 610.           Intra module refs:   Segment part 409
           LOCAL                   ADDRESS         
           =====                   =======         
           HW_Init::?relay         00000C5A 
    -------------------------------------------------------------------------
BANK_RELAYS
  Relative segment, address: CODE 00000C60 - 00000C65 (0x6 bytes), align: 0
  Segment part 612.           Intra module refs:   recv_sync
                                                   send_sync
           ENTRY                   ADDRESS         REF BY
           =====                   =======         ======
           AES_StreamCoder::?relay
                                   00000C60 
    -------------------------------------------------------------------------
BANK_RELAYS
  Relative segment, address: CODE 00000C66 - 00000C6B (0x6 bytes), align: 0
  Segment part 624.           Intra module refs:   Segment part 412
           LOCAL                   ADDRESS         
           =====                   =======         
           HW_Init::?relay         00000C66 
    -------------------------------------------------------------------------
BANK_RELAYS
  Relative segment, address: CODE 00000C6C - 00000C71 (0x6 bytes), align: 0
  Segment part 626.           Intra module refs:   Segment part 414
           LOCAL                   ADDRESS         
           =====                   =======         
           HW_Init::?relay         00000C6C 
    -------------------------------------------------------------------------
BANK_RELAYS
  Relative segment, address: CODE 00000C72 - 00000C77 (0x6 bytes), align: 0
  Segment part 628.           Intra module refs:   AM_Callback
                                                   AM_Cold_start
                                                   AM_HW_Init
                                                   AM_Hot_start
                                                   AM_SW_Init
                                                   AT_set_alarm
                                                   AT_set_time
                                                   AT_wait
                                                   Hot_Start
                                                   LLC_close_slot
                                                   LLC_open_slot
                                                   Neocore_start
                                                   RI_Receive
                                                   RI_Send
                                                   TM_ClrAlarm
                                                   TM_SetAlarm
                                                   _push
                                                   cmd_0x0B
                                                   cmd_0x0C
                                                   receive
                                                   recv_sync
                                                   scan_tx_buffer_by_ts
                                                   scheduler_rx
                                                   scheduler_tx
                                                   send_sync
                                                   setFreq
                                                   stream_write
           ENTRY                   ADDRESS         REF BY
           =====                   =======         ======
           DBG_CORE_HALT::?relay   00000C72 
    -------------------------------------------------------------------------
BANK_RELAYS
  Relative segment, address: CODE 00000C78 - 00000C7D (0x6 bytes), align: 0
  Segment part 632.           Intra module refs:   HW_Init
           LOCAL                   ADDRESS         
           =====                   =======         
           uart_init::?relay       00000C78 
    -------------------------------------------------------------------------
BANK_RELAYS
  Relative segment, address: CODE 00000C7E - 00000C83 (0x6 bytes), align: 0
  Segment part 634.           Intra module refs:   __write
           ENTRY                   ADDRESS         REF BY
           =====                   =======         ======
           MyLowLevelPutchar::?relay
                                   00000C7E 
    -------------------------------------------------------------------------
BANK_RELAYS
  Relative segment, address: CODE 00000C84 - 00000C89 (0x6 bytes), align: 0
  Segment part 636.
           ENTRY                   ADDRESS         REF BY
           =====                   =======         ======
           __write::?relay         00000C84        putchar (?putchar)
    -------------------------------------------------------------------------
BANK_RELAYS
  Relative segment, address: CODE 00000C8A - 00000C8F (0x6 bytes), align: 0
  Segment part 638.           Intra module refs:   Segment part 416
           LOCAL                   ADDRESS         
           =====                   =======         
           HW_Init::?relay         00000C8A 
    -------------------------------------------------------------------------
BANK_RELAYS
  Relative segment, address: CODE 00000C90 - 00000C95 (0x6 bytes), align: 0
  Segment part 640.           Intra module refs:   Segment part 419
           LOCAL                   ADDRESS         
           =====                   =======         
           SW_Init::?relay         00000C90 
    -------------------------------------------------------------------------
BANK_RELAYS
  Relative segment, address: CODE 00000C96 - 00000C9B (0x6 bytes), align: 0
  Segment part 642.           Intra module refs:   RI_Receive
                                                   cmd_0x0B
                                                   send_sync
           ENTRY                   ADDRESS         REF BY
           =====                   =======         ======
           FR_create::?relay       00000C96 
    -------------------------------------------------------------------------
BANK_RELAYS
  Relative segment, address: CODE 00000C9C - 00000CA1 (0x6 bytes), align: 0
  Segment part 644.           Intra module refs:   cmd_0x0B
                                                   cmd_0x0C
                                                   mode_1_receive_process
                                                   recv_sync
                                                   send_sync
           ENTRY                   ADDRESS         REF BY
           =====                   =======         ======
           FR_delete::?relay       00000C9C 
    -------------------------------------------------------------------------
BANK_RELAYS
  Relative segment, address: CODE 00000CA2 - 00000CA7 (0x6 bytes), align: 0
  Segment part 646.           Intra module refs:   RI_Receive
                                                   cmd_0x0B
                                                   send_sync
           ENTRY                   ADDRESS         REF BY
           =====                   =======         ======
           FR_add_header::?relay   00000CA2 
    -------------------------------------------------------------------------
BANK_RELAYS
  Relative segment, address: CODE 00000CA8 - 00000CAD (0x6 bytes), align: 0
  Segment part 654.           Intra module refs:   Segment part 423
           LOCAL                   ADDRESS         
           =====                   =======         
           HW_Init::?relay         00000CA8 
    -------------------------------------------------------------------------
BANK_RELAYS
  Relative segment, address: CODE 00000CAE - 00000CB3 (0x6 bytes), align: 0
  Segment part 656.           Intra module refs:   Segment part 423
           LOCAL                   ADDRESS         
           =====                   =======         
           SW_Init::?relay         00000CAE 
    -------------------------------------------------------------------------
BANK_RELAYS
  Relative segment, address: CODE 00000CB4 - 00000CB9 (0x6 bytes), align: 0
  Segment part 658.           Intra module refs:   Segment part 423
           LOCAL                   ADDRESS         
           =====                   =======         
           Cold_Start::?relay      00000CB4 
    -------------------------------------------------------------------------
BANK_RELAYS
  Relative segment, address: CODE 00000CBA - 00000CBF (0x6 bytes), align: 0
  Segment part 660.           Intra module refs:   Segment part 423
           LOCAL                   ADDRESS         
           =====                   =======         
           Hot_Start::?relay       00000CBA 
    -------------------------------------------------------------------------
BANK_RELAYS
  Relative segment, address: CODE 00000CC0 - 00000CC5 (0x6 bytes), align: 0
  Segment part 662.           Intra module refs:   Segment part 425
           LOCAL                   ADDRESS         
           =====                   =======         
           SW_Init::?relay         00000CC0 
    -------------------------------------------------------------------------
BANK_RELAYS
  Relative segment, address: CODE 00000CC6 - 00000CCB (0x6 bytes), align: 0
  Segment part 664.           Intra module refs:   cmd_0x07
           ENTRY                   ADDRESS         REF BY
           =====                   =======         ======
           LLC_open_slot::?relay   00000CC6 
    -------------------------------------------------------------------------
BANK_RELAYS
  Relative segment, address: CODE 00000CCC - 00000CD1 (0x6 bytes), align: 0
  Segment part 666.           Intra module refs:   cmd_0x08
           ENTRY                   ADDRESS         REF BY
           =====                   =======         ======
           LLC_close_slot::?relay
                                   00000CCC 
    -------------------------------------------------------------------------
BANK_RELAYS
  Relative segment, address: CODE 00000CD2 - 00000CD7 (0x6 bytes), align: 0
  Segment part 668.           Intra module refs:   Cold_Start
           LOCAL                   ADDRESS         
           =====                   =======         
           scheduler_tx::?relay    00000CD2 
    -------------------------------------------------------------------------
BANK_RELAYS
  Relative segment, address: CODE 00000CD8 - 00000CDD (0x6 bytes), align: 0
  Segment part 670.           Intra module refs:   Cold_Start
           LOCAL                   ADDRESS         
           =====                   =======         
           scheduler_rx::?relay    00000CD8 
    -------------------------------------------------------------------------
BANK_RELAYS
  Relative segment, address: CODE 00000CDE - 00000CE3 (0x6 bytes), align: 0
  Segment part 672.           Intra module refs:   Segment part 425
           LOCAL                   ADDRESS         
           =====                   =======         
           Cold_Start::?relay      00000CDE 
    -------------------------------------------------------------------------
BANK_RELAYS
  Relative segment, address: CODE 00000CE4 - 00000CE9 (0x6 bytes), align: 0
  Segment part 674.           Intra module refs:   transmite
           LOCAL                   ADDRESS         
           =====                   =======         
           scan_tx_buffer_by_ts::?relay
                                   00000CE4 
    -------------------------------------------------------------------------
BANK_RELAYS
  Relative segment, address: CODE 00000CEA - 00000CEF (0x6 bytes), align: 0
  Segment part 676.           Intra module refs:   Hot_Start
           LOCAL                   ADDRESS         
           =====                   =======         
           receive::?relay         00000CEA 
    -------------------------------------------------------------------------
BANK_RELAYS
  Relative segment, address: CODE 00000CF0 - 00000CF5 (0x6 bytes), align: 0
  Segment part 678.           Intra module refs:   Hot_Start
           LOCAL                   ADDRESS         
           =====                   =======         
           transmite::?relay       00000CF0 
    -------------------------------------------------------------------------
BANK_RELAYS
  Relative segment, address: CODE 00000CF6 - 00000CFB (0x6 bytes), align: 0
  Segment part 680.           Intra module refs:   Segment part 425
           LOCAL                   ADDRESS         
           =====                   =======         
           Hot_Start::?relay       00000CF6 
    -------------------------------------------------------------------------
BANK_RELAYS
  Relative segment, address: CODE 00000CFC - 00000D01 (0x6 bytes), align: 0
  Segment part 682.           Intra module refs:   Segment part 428
           LOCAL                   ADDRESS         
           =====                   =======         
           SW_Init::?relay         00000CFC 
    -------------------------------------------------------------------------
BANK_RELAYS
  Relative segment, address: CODE 00000D02 - 00000D07 (0x6 bytes), align: 0
  Segment part 688.           Intra module refs:   main
           LOCAL                   ADDRESS         
           =====                   =======         
           pre_init::?relay        00000D02 
    -------------------------------------------------------------------------
BANK_RELAYS
  Relative segment, address: CODE 00000D08 - 00000D0D (0x6 bytes), align: 0
  Segment part 692.           Intra module refs:   _free
           LOCAL                   ADDRESS         
           =====                   =======         
           is_array_ptr::?relay    00000D08 
    -------------------------------------------------------------------------
BANK_RELAYS
  Relative segment, address: CODE 00000D0E - 00000D13 (0x6 bytes), align: 0
  Segment part 694.           Intra module refs:   _free
           LOCAL                   ADDRESS         
           =====                   =======         
           array_index::?relay     00000D0E 
    -------------------------------------------------------------------------
BANK_RELAYS
  Relative segment, address: CODE 00000D14 - 00000D19 (0x6 bytes), align: 0
  Segment part 696.           Intra module refs:   SL_alloc
                                                   SL_free
           LOCAL                   ADDRESS         
           =====                   =======         
           __cli::?relay           00000D14 
    -------------------------------------------------------------------------
BANK_RELAYS
  Relative segment, address: CODE 00000D1A - 00000D1F (0x6 bytes), align: 0
  Segment part 698.           Intra module refs:   Segment part 430
           LOCAL                   ADDRESS         
           =====                   =======         
           SW_Init::?relay         00000D1A 
    -------------------------------------------------------------------------
BANK_RELAYS
  Relative segment, address: CODE 00000D20 - 00000D25 (0x6 bytes), align: 0
  Segment part 700.           Intra module refs:   FR_create
           ENTRY                   ADDRESS         REF BY
           =====                   =======         ======
           SL_alloc::?relay        00000D20 
    -------------------------------------------------------------------------
BANK_RELAYS
  Relative segment, address: CODE 00000D26 - 00000D2B (0x6 bytes), align: 0
  Segment part 702.           Intra module refs:   SL_free
           LOCAL                   ADDRESS         
           =====                   =======         
           _free::?relay           00000D26 
    -------------------------------------------------------------------------
BANK_RELAYS
  Relative segment, address: CODE 00000D2C - 00000D31 (0x6 bytes), align: 0
  Segment part 704.           Intra module refs:   FR_delete
           ENTRY                   ADDRESS         REF BY
           =====                   =======         ======
           SL_free::?relay         00000D2C 
    -------------------------------------------------------------------------
BANK_RELAYS
  Relative segment, address: CODE 00000D32 - 00000D37 (0x6 bytes), align: 0
  Segment part 712.           Intra module refs:   FR_add_header
                                                   cmd_0x0B
           ENTRY                   ADDRESS         REF BY
           =====                   =======         ======
           MEM_memcpy::?relay      00000D32 
    -------------------------------------------------------------------------
BANK_RELAYS
  Relative segment, address: CODE 00000D38 - 00000D3D (0x6 bytes), align: 0
  Segment part 714.           Intra module refs:   SL_alloc
                                                   SW_Init
           ENTRY                   ADDRESS         REF BY
           =====                   =======         ======
           MEM_memset::?relay      00000D38 
    -------------------------------------------------------------------------
BANK_RELAYS
  Relative segment, address: CODE 00000D3E - 00000D43 (0x6 bytes), align: 0
  Segment part 716.           Intra module refs:   Segment part 439
           LOCAL                   ADDRESS         
           =====                   =======         
           SW_Init::?relay         00000D3E 
    -------------------------------------------------------------------------
BANK_RELAYS
  Relative segment, address: CODE 00000D44 - 00000D49 (0x6 bytes), align: 0
  Segment part 718.           Intra module refs:   Segment part 441
           LOCAL                   ADDRESS         
           =====                   =======         
           SW_Init::?relay         00000D44 
    -------------------------------------------------------------------------
BANK_RELAYS
  Relative segment, address: CODE 00000D4A - 00000D4F (0x6 bytes), align: 0
  Segment part 720.           Intra module refs:   Segment part 441
           LOCAL                   ADDRESS         
           =====                   =======         
           HW_Init::?relay         00000D4A 
    -------------------------------------------------------------------------
BANK_RELAYS
  Relative segment, address: CODE 00000D50 - 00000D55 (0x6 bytes), align: 0
  Segment part 722.           Intra module refs:   pre_config
           LOCAL                   ADDRESS         
           =====                   =======         
           setFreq::?relay         00000D50 
    -------------------------------------------------------------------------
BANK_RELAYS
  Relative segment, address: CODE 00000D56 - 00000D5B (0x6 bytes), align: 0
  Segment part 724.           Intra module refs:   RI_Receive
                                                   RI_Send
                                                   random_core_init
           LOCAL                   ADDRESS         
           =====                   =======         
           pre_config::?relay      00000D56 
    -------------------------------------------------------------------------
BANK_RELAYS
  Relative segment, address: CODE 00000D5C - 00000D61 (0x6 bytes), align: 0
  Segment part 726.           Intra module refs:   recv_sync
                                                   send_sync
           ENTRY                   ADDRESS         REF BY
           =====                   =======         ======
           RI_SetChannel::?relay   00000D5C 
    -------------------------------------------------------------------------
BANK_RELAYS
  Relative segment, address: CODE 00000D62 - 00000D67 (0x6 bytes), align: 0
  Segment part 728.           Intra module refs:   SendData
           LOCAL                   ADDRESS         
           =====                   =======         
           LoadTXData::?relay      00000D62 
    -------------------------------------------------------------------------
BANK_RELAYS
  Relative segment, address: CODE 00000D68 - 00000D6D (0x6 bytes), align: 0
  Segment part 730.           Intra module refs:   RI_Send
           LOCAL                   ADDRESS         
           =====                   =======         
           SendData::?relay        00000D68 
    -------------------------------------------------------------------------
BANK_RELAYS
  Relative segment, address: CODE 00000D6E - 00000D73 (0x6 bytes), align: 0
  Segment part 732.           Intra module refs:   send_sync
           ENTRY                   ADDRESS         REF BY
           =====                   =======         ======
           RI_Send::?relay         00000D6E 
    -------------------------------------------------------------------------
BANK_RELAYS
  Relative segment, address: CODE 00000D74 - 00000D79 (0x6 bytes), align: 0
  Segment part 734.           Intra module refs:   RI_Receive
           LOCAL                   ADDRESS         
           =====                   =======         
           UnLoadRXData::?relay    00000D74 
    -------------------------------------------------------------------------
BANK_RELAYS
  Relative segment, address: CODE 00000D7A - 00000D7F (0x6 bytes), align: 0
  Segment part 736.           Intra module refs:   RI_Receive
           LOCAL                   ADDRESS         
           =====                   =======         
           RecvData::?relay        00000D7A 
    -------------------------------------------------------------------------
BANK_RELAYS
  Relative segment, address: CODE 00000D80 - 00000D85 (0x6 bytes), align: 0
  Segment part 738.           Intra module refs:   recv_sync
           ENTRY                   ADDRESS         REF BY
           =====                   =======         ======
           RI_Receive::?relay      00000D80 
    -------------------------------------------------------------------------
BANK_RELAYS
  Relative segment, address: CODE 00000D86 - 00000D8B (0x6 bytes), align: 0
  Segment part 740.           Intra module refs:   readRandom
           LOCAL                   ADDRESS         
           =====                   =======         
           bits_count::?relay      00000D86 
    -------------------------------------------------------------------------
BANK_RELAYS
  Relative segment, address: CODE 00000D8C - 00000D91 (0x6 bytes), align: 0
  Segment part 742.           Intra module refs:   readRandom
           LOCAL                   ADDRESS         
           =====                   =======         
           getRNDByte::?relay      00000D8C 
    -------------------------------------------------------------------------
BANK_RELAYS
  Relative segment, address: CODE 00000D92 - 00000D97 (0x6 bytes), align: 0
  Segment part 744.           Intra module refs:   random_core_init
           LOCAL                   ADDRESS         
           =====                   =======         
           readRandom::?relay      00000D92 
    -------------------------------------------------------------------------
BANK_RELAYS
  Relative segment, address: CODE 00000D98 - 00000D9D (0x6 bytes), align: 0
  Segment part 746.           Intra module refs:   SW_Init
           LOCAL                   ADDRESS         
           =====                   =======         
           random_core_init::?relay
                                   00000D98 
    -------------------------------------------------------------------------
BANK_RELAYS
  Relative segment, address: CODE 00000D9E - 00000DA3 (0x6 bytes), align: 0
  Segment part 748.           Intra module refs:   cmd_0x0D
           ENTRY                   ADDRESS         REF BY
           =====                   =======         ======
           RI_Measure_POW::?relay
                                   00000D9E 
    -------------------------------------------------------------------------
BANK_RELAYS
  Relative segment, address: CODE 00000DA4 - 00000DA9 (0x6 bytes), align: 0
  Segment part 750.           Intra module refs:   Segment part 444
           LOCAL                   ADDRESS         
           =====                   =======         
           SW_Init::?relay         00000DA4 
    -------------------------------------------------------------------------
BANK_RELAYS
  Relative segment, address: CODE 00000DAA - 00000DAF (0x6 bytes), align: 0
  Segment part 752.           Intra module refs:   Segment part 444
           LOCAL                   ADDRESS         
           =====                   =======         
           Cold_Start::?relay      00000DAA 
    -------------------------------------------------------------------------
BANK_RELAYS
  Relative segment, address: CODE 00000DB0 - 00000DB5 (0x6 bytes), align: 0
  Segment part 754.           Intra module refs:   Segment part 444
           LOCAL                   ADDRESS         
           =====                   =======         
           Hot_Start::?relay       00000DB0 
    -------------------------------------------------------------------------
BANK_RELAYS
  Relative segment, address: CODE 00000DB6 - 00000DBB (0x6 bytes), align: 0
  Segment part 756.           Intra module refs:   Segment part 447
           LOCAL                   ADDRESS         
           =====                   =======         
           SW_Init::?relay         00000DB6 
    -------------------------------------------------------------------------
BANK_RELAYS
  Relative segment, address: CODE 00000DBC - 00000DC1 (0x6 bytes), align: 0
  Segment part 758.           Intra module refs:   Segment part 447
           LOCAL                   ADDRESS         
           =====                   =======         
           Cold_Start::?relay      00000DBC 
    -------------------------------------------------------------------------
BANK_RELAYS
  Relative segment, address: CODE 00000DC2 - 00000DC7 (0x6 bytes), align: 0
  Segment part 760.           Intra module refs:   mode_1_receive_process
           LOCAL                   ADDRESS         
           =====                   =======         
           validate_sync::?relay   00000DC2 
    -------------------------------------------------------------------------
BANK_RELAYS
  Relative segment, address: CODE 00000DC8 - 00000DCD (0x6 bytes), align: 0
  Segment part 762.           Intra module refs:   mode_1_receive_process
           LOCAL                   ADDRESS         
           =====                   =======         
           accept_sync_data::?relay
                                   00000DC8 
    -------------------------------------------------------------------------
BANK_RELAYS
  Relative segment, address: CODE 00000DCE - 00000DD3 (0x6 bytes), align: 0
  Segment part 764.           Intra module refs:   mode_1_receive_process
           LOCAL                   ADDRESS         
           =====                   =======         
           syncronize_timer::?relay
                                   00000DCE 
    -------------------------------------------------------------------------
BANK_RELAYS
  Relative segment, address: CODE 00000DD4 - 00000DD9 (0x6 bytes), align: 0
  Segment part 766.           Intra module refs:   mode_1_process
           LOCAL                   ADDRESS         
           =====                   =======         
           mode_1_receive_process::?relay
                                   00000DD4 
    -------------------------------------------------------------------------
BANK_RELAYS
  Relative segment, address: CODE 00000DDA - 00000DDF (0x6 bytes), align: 0
  Segment part 768.           Intra module refs:   mode_1_retransmition_process
           LOCAL                   ADDRESS         
           =====                   =======         
           _throw_dice::?relay     00000DDA 
    -------------------------------------------------------------------------
BANK_RELAYS
  Relative segment, address: CODE 00000DE0 - 00000DE5 (0x6 bytes), align: 0
  Segment part 770.           Intra module refs:   mode_1_process
           LOCAL                   ADDRESS         
           =====                   =======         
           mode_1_retransmition_process::?relay
                                   00000DE0 
    -------------------------------------------------------------------------
BANK_RELAYS
  Relative segment, address: CODE 00000DE6 - 00000DEB (0x6 bytes), align: 0
  Segment part 772.           Intra module refs:   Hot_Start
           LOCAL                   ADDRESS         
           =====                   =======         
           mode_1_process::?relay
                                   00000DE6 
    -------------------------------------------------------------------------
BANK_RELAYS
  Relative segment, address: CODE 00000DEC - 00000DF1 (0x6 bytes), align: 0
  Segment part 774.           Intra module refs:   Hot_Start
           LOCAL                   ADDRESS         
           =====                   =======         
           mode_2_process::?relay
                                   00000DEC 
    -------------------------------------------------------------------------
BANK_RELAYS
  Relative segment, address: CODE 00000DF2 - 00000DF7 (0x6 bytes), align: 0
  Segment part 776.           Intra module refs:   Segment part 447
           LOCAL                   ADDRESS         
           =====                   =======         
           Hot_Start::?relay       00000DF2 
    -------------------------------------------------------------------------
BANK_RELAYS
  Relative segment, address: CODE 00000DF8 - 00000DFD (0x6 bytes), align: 0
  Segment part 778.           Intra module refs:   mode_1_receive_process
           LOCAL                   ADDRESS         
           =====                   =======         
           recv_sync::?relay       00000DF8 
    -------------------------------------------------------------------------
BANK_RELAYS
  Relative segment, address: CODE 00000DFE - 00000E03 (0x6 bytes), align: 0
  Segment part 780.           Intra module refs:   mode_1_retransmition_process
                                                   mode_2_process
           LOCAL                   ADDRESS         
           =====                   =======         
           send_sync::?relay       00000DFE 
    -------------------------------------------------------------------------
BANK_RELAYS
  Relative segment, address: CODE 00000E04 - 00000E09 (0x6 bytes), align: 0
  Segment part 786.           Intra module refs:   TM_IRQ
           LOCAL                   ADDRESS         
           =====                   =======         
           __cli::?relay           00000E04 
    -------------------------------------------------------------------------
BANK_RELAYS
  Relative segment, address: CODE 00000E0A - 00000E0F (0x6 bytes), align: 0
  Segment part 788.           Intra module refs:   scheduler_rx
                                                   scheduler_tx
           ENTRY                   ADDRESS         REF BY
           =====                   =======         ======
           TM_SetAlarm::?relay     00000E0A 
    -------------------------------------------------------------------------
BANK_RELAYS
  Relative segment, address: CODE 00000E10 - 00000E15 (0x6 bytes), align: 0
  Segment part 790.           Intra module refs:   scheduler_rx
           ENTRY                   ADDRESS         REF BY
           =====                   =======         ======
           TM_ClrAlarm::?relay     00000E10 
    -------------------------------------------------------------------------
BANK_RELAYS
  Relative segment, address: CODE 00000E16 - 00000E1B (0x6 bytes), align: 0
  Segment part 792.           Intra module refs:   _find_next_active
           LOCAL                   ADDRESS         
           =====                   =======         
           _inc_timeslot::?relay   00000E16 
    -------------------------------------------------------------------------
BANK_RELAYS
  Relative segment, address: CODE 00000E1C - 00000E21 (0x6 bytes), align: 0
  Segment part 794.           Intra module refs:   scheulder_next_alarm
           LOCAL                   ADDRESS         
           =====                   =======         
           _find_next_active::?relay
                                   00000E1C 
    -------------------------------------------------------------------------
BANK_RELAYS
  Relative segment, address: CODE 00000E22 - 00000E27 (0x6 bytes), align: 0
  Segment part 796.           Intra module refs:   TM_IRQ
                                                   init
           LOCAL                   ADDRESS         
           =====                   =======         
           scheulder_next_alarm::?relay
                                   00000E22 
    -------------------------------------------------------------------------
BANK_RELAYS
  Relative segment, address: CODE 00000E28 - 00000E2D (0x6 bytes), align: 0
  Segment part 798.           Intra module refs:   TimerCompareInterrupt
           ENTRY                   ADDRESS         REF BY
           =====                   =======         ======
           TM_IRQ::?relay          00000E28 
    -------------------------------------------------------------------------
BANK_RELAYS
  Relative segment, address: CODE 00000E2E - 00000E33 (0x6 bytes), align: 0
  Segment part 800.           Intra module refs:   start_mode_1
           LOCAL                   ADDRESS         
           =====                   =======         
           mcu_sleep::?relay       00000E2E 
    -------------------------------------------------------------------------
BANK_RELAYS
  Relative segment, address: CODE 00000E34 - 00000E39 (0x6 bytes), align: 0
  Segment part 802.           Intra module refs:   init
           LOCAL                   ADDRESS         
           =====                   =======         
           _clr_all::?relay        00000E34 
    -------------------------------------------------------------------------
BANK_RELAYS
  Relative segment, address: CODE 00000E3A - 00000E3F (0x6 bytes), align: 0
  Segment part 804.           Intra module refs:   start_mode_1
                                                   start_mode_2
           LOCAL                   ADDRESS         
           =====                   =======         
           init::?relay            00000E3A 
    -------------------------------------------------------------------------
BANK_RELAYS
  Relative segment, address: CODE 00000E40 - 00000E45 (0x6 bytes), align: 0
  Segment part 806.           Intra module refs:   Neocore_start
           LOCAL                   ADDRESS         
           =====                   =======         
           start_mode_1::?relay    00000E40 
    -------------------------------------------------------------------------
BANK_RELAYS
  Relative segment, address: CODE 00000E46 - 00000E4B (0x6 bytes), align: 0
  Segment part 808.           Intra module refs:   Neocore_start
           LOCAL                   ADDRESS         
           =====                   =======         
           start_mode_2::?relay    00000E46 
    -------------------------------------------------------------------------
BANK_RELAYS
  Relative segment, address: CODE 00000E4C - 00000E51 (0x6 bytes), align: 0
  Segment part 810.           Intra module refs:   cmd_0x03
                                                   main
           ENTRY                   ADDRESS         REF BY
           =====                   =======         ======
           Neocore_start::?relay   00000E4C 
    -------------------------------------------------------------------------
BANK_RELAYS
  Relative segment, address: CODE 00000E52 - 00000E57 (0x6 bytes), align: 0
  Segment part 812.           Intra module refs:   com_uart_init
           LOCAL                   ADDRESS         
           =====                   =======         
           uart_dma_init::?relay   00000E52 
    -------------------------------------------------------------------------
BANK_RELAYS
  Relative segment, address: CODE 00000E58 - 00000E5D (0x6 bytes), align: 0
  Segment part 814.           Intra module refs:   parse_uart_stream
           ENTRY                   ADDRESS         REF BY
           =====                   =======         ======
           uart_recv_cmd::?relay   00000E58 
    -------------------------------------------------------------------------
BANK_RELAYS
  Relative segment, address: CODE 00000E5E - 00000E63 (0x6 bytes), align: 0
  Segment part 816.           Intra module refs:   main
           ENTRY                   ADDRESS         REF BY
           =====                   =======         ======
           com_uart_init::?relay   00000E5E 
    -------------------------------------------------------------------------
BANK_RELAYS
  Relative segment, address: CODE 00000E64 - 00000E69 (0x6 bytes), align: 0
  Segment part 818.           Intra module refs:   cmd_answer
                                                   stream_write
           ENTRY                   ADDRESS         REF BY
           =====                   =======         ======
           uart_write::?relay      00000E64 
    -------------------------------------------------------------------------
BANK_RELAYS
  Relative segment, address: CODE 00000E6A - 00000E6F (0x6 bytes), align: 0
  Segment part 820.           Intra module refs:   uart_write
           LOCAL                   ADDRESS         
           =====                   =======         
           uart_putchar::?relay    00000E6A 
    -------------------------------------------------------------------------
BANK_RELAYS
  Relative segment, address: CODE 00000E70 - 00000E75 (0x6 bytes), align: 0
  Segment part 824.           Intra module refs:   Segment part 454
           LOCAL                   ADDRESS         
           =====                   =======         
           HW_Init::?relay         00000E70 
    -------------------------------------------------------------------------
BANK_RELAYS
  Relative segment, address: CODE 00000E76 - 00000E7B (0x6 bytes), align: 0
  Segment part 826.           Intra module refs:   DelayCalibrate
                                                   RI_Receive
                                                   RI_Send
                                                   RecvData
                                                   UST_delay
                                                   UST_time_over
           ENTRY                   ADDRESS         REF BY
           =====                   =======         ======
           UST_now::?relay         00000E76 
    -------------------------------------------------------------------------
BANK_RELAYS
  Relative segment, address: CODE 00000E7C - 00000E81 (0x6 bytes), align: 0
  Segment part 828.           Intra module refs:   RecvData
           ENTRY                   ADDRESS         REF BY
           =====                   =======         ======
           UST_time_over::?relay   00000E7C 
    -------------------------------------------------------------------------
BANK_RELAYS
  Relative segment, address: CODE 00000E82 - 00000E87 (0x6 bytes), align: 0
  Segment part 830.           Intra module refs:   RI_Receive
                                                   RI_Send
           ENTRY                   ADDRESS         REF BY
           =====                   =======         ======
           UST_interval::?relay    00000E82 
    -------------------------------------------------------------------------
BANK_RELAYS
  Relative segment, address: CODE 00000E88 - 00000E8D (0x6 bytes), align: 0
  Segment part 832.           Intra module refs:   DelayCalibrate
                                                   RI_Measure_POW
           ENTRY                   ADDRESS         REF BY
           =====                   =======         ======
           UST_delay::?relay       00000E88 
    -------------------------------------------------------------------------
BANK_RELAYS
  Relative segment, address: CODE 00000E8E - 00000E93 (0x6 bytes), align: 0
  Segment part 834.           Intra module refs:   DelayCalibrate
           ENTRY                   ADDRESS         REF BY
           =====                   =======         ======
           _interval::?relay       00000E8E 
    -------------------------------------------------------------------------
BANK_RELAYS
  Relative segment, address: CODE 00000E94 - 00000E99 (0x6 bytes), align: 0
  Segment part 836.           Intra module refs:   HW_Init
           LOCAL                   ADDRESS         
           =====                   =======         
           DelayCalibrate::?relay
                                   00000E94 

    *************************************************************************

  FILE NAME : E:\WMNU\IAR_new_arch\PRG Transmiter\Debug\Obj\alarm_timer.r51
    *************************************************************************

  FILE NAME : E:\WMNU\IAR_new_arch\PRG Transmiter\Debug\Obj\buffer.r51
    *************************************************************************

  FILE NAME : E:\WMNU\IAR_new_arch\PRG Transmiter\Debug\Obj\cmd_0x00.r51
    *************************************************************************

  FILE NAME : E:\WMNU\IAR_new_arch\PRG Transmiter\Debug\Obj\cmd_0x01.r51
    *************************************************************************

  FILE NAME : E:\WMNU\IAR_new_arch\PRG Transmiter\Debug\Obj\cmd_0x02.r51
    *************************************************************************

  FILE NAME : E:\WMNU\IAR_new_arch\PRG Transmiter\Debug\Obj\cmd_0x03.r51
    *************************************************************************

  FILE NAME : E:\WMNU\IAR_new_arch\PRG Transmiter\Debug\Obj\cmd_0x04.r51
    *************************************************************************

  FILE NAME : E:\WMNU\IAR_new_arch\PRG Transmiter\Debug\Obj\cmd_0x05.r51
    *************************************************************************

  FILE NAME : E:\WMNU\IAR_new_arch\PRG Transmiter\Debug\Obj\cmd_0x06.r51
    *************************************************************************

  FILE NAME : E:\WMNU\IAR_new_arch\PRG Transmiter\Debug\Obj\cmd_0x07.r51
    *************************************************************************

  FILE NAME : E:\WMNU\IAR_new_arch\PRG Transmiter\Debug\Obj\cmd_0x08.r51
    *************************************************************************

  FILE NAME : E:\WMNU\IAR_new_arch\PRG Transmiter\Debug\Obj\cmd_0x09.r51
    *************************************************************************

  FILE NAME : E:\WMNU\IAR_new_arch\PRG Transmiter\Debug\Obj\cmd_0x0A.r51
    *************************************************************************

  FILE NAME : E:\WMNU\IAR_new_arch\PRG Transmiter\Debug\Obj\cmd_0x0B.r51
    *************************************************************************

  FILE NAME : E:\WMNU\IAR_new_arch\PRG Transmiter\Debug\Obj\cmd_0x0C.r51
    *************************************************************************

  FILE NAME : E:\WMNU\IAR_new_arch\PRG Transmiter\Debug\Obj\cmd_0x0D.r51
    *************************************************************************

  FILE NAME : E:\WMNU\IAR_new_arch\PRG Transmiter\Debug\Obj\cmd_0x0E.r51
    *************************************************************************

  FILE NAME : E:\WMNU\IAR_new_arch\PRG Transmiter\Debug\Obj\cmd_0x0F.r51
    *************************************************************************

  FILE NAME : E:\WMNU\IAR_new_arch\PRG Transmiter\Debug\Obj\cmd_0x10.r51
    *************************************************************************

  FILE NAME : E:\WMNU\IAR_new_arch\PRG Transmiter\Debug\Obj\cmd_parser.r51
    *************************************************************************

  FILE NAME : E:\WMNU\IAR_new_arch\PRG Transmiter\Debug\Obj\coder.r51
    *************************************************************************

  FILE NAME : E:\WMNU\IAR_new_arch\PRG Transmiter\Debug\Obj\cpu.r51
    *************************************************************************

  FILE NAME : E:\WMNU\IAR_new_arch\PRG Transmiter\Debug\Obj\debug.r51
    *************************************************************************

  FILE NAME : E:\WMNU\IAR_new_arch\PRG Transmiter\Debug\Obj\dma.r51
    *************************************************************************

  FILE NAME : E:\WMNU\IAR_new_arch\PRG Transmiter\Debug\Obj\frame.r51
    *************************************************************************

  FILE NAME : E:\WMNU\IAR_new_arch\PRG Transmiter\Debug\Obj\led.r51
    *************************************************************************

  FILE NAME : E:\WMNU\IAR_new_arch\PRG Transmiter\Debug\Obj\llc.r51
    *************************************************************************

  FILE NAME : E:\WMNU\IAR_new_arch\PRG Transmiter\Debug\Obj\mac.r51
    *************************************************************************

  FILE NAME : E:\WMNU\IAR_new_arch\PRG Transmiter\Debug\Obj\main.r51
    *************************************************************************

  FILE NAME : E:\WMNU\IAR_new_arch\PRG Transmiter\Debug\Obj\mem_slots.r51
    *************************************************************************

  FILE NAME : E:\WMNU\IAR_new_arch\PRG Transmiter\Debug\Obj\mem_utils.r51
    *************************************************************************

  FILE NAME : E:\WMNU\IAR_new_arch\PRG Transmiter\Debug\Obj\model.r51
    *************************************************************************

  FILE NAME : E:\WMNU\IAR_new_arch\PRG Transmiter\Debug\Obj\radio.r51
    *************************************************************************

  FILE NAME : E:\WMNU\IAR_new_arch\PRG Transmiter\Debug\Obj\rtc.r51
    *************************************************************************

  FILE NAME : E:\WMNU\IAR_new_arch\PRG Transmiter\Debug\Obj\sync.r51
    *************************************************************************

  FILE NAME : E:\WMNU\IAR_new_arch\PRG Transmiter\Debug\Obj\time_manager.r51
    *************************************************************************

  FILE NAME : E:\WMNU\IAR_new_arch\PRG Transmiter\Debug\Obj\uart_comm.r51
    *************************************************************************

  FILE NAME : E:\WMNU\IAR_new_arch\PRG Transmiter\Debug\Obj\ustimer.r51
    *************************************************************************

  FILE NAME : C:\Program Files (x86)\IAR Systems\Embedded Workbench 8.0\8051\LIB\DLIB\dl-pli-blxd-1e16x01n.r51
  LIBRARY MODULE, NAME : ?__dbg_break

  SEGMENTS IN THE MODULE
  ======================
<BANKED_CODE> 1 (was BANKED_CODE)
  Relative segment, address: CODE 000058F7 - 000058F9 (0x3 bytes), align: 0
  Segment part 6.             Intra module refs:   __DebugBreak::?relay
           ENTRY                   ADDRESS         REF BY
           =====                   =======         ======
           __DebugBreak            000058F7 
    -------------------------------------------------------------------------
BANK_RELAYS
  Relative segment, address: CODE 00000E9A - 00000E9F (0x6 bytes), align: 0
  Segment part 7.
           ENTRY                   ADDRESS         REF BY
           =====                   =======         ======
           __DebugBreak::?relay    00000E9A        __exit (?__exit)

    -------------------------------------------------------------------------
  LIBRARY MODULE, NAME : ?__exit

  SEGMENTS IN THE MODULE
  ======================
<BANKED_CODE> 1 (was BANKED_CODE)
  Relative segment, address: CODE 000058A7 - 000058CA (0x24 bytes), align: 0
  Segment part 6.
           ENTRY                   ADDRESS         REF BY
           =====                   =======         ======
           __exit                  000058A7        Segment part 10 (?cexit)
               calls direct
               XSTACK = 00000000 ( 0000000B )

    -------------------------------------------------------------------------
  LIBRARY MODULE, NAME : ?cexit

  SEGMENTS IN THE MODULE
  ======================
CSTART
  Relative segment, address: CODE 0000002E, align: 0
  Segment part 5.             Intra module refs:   _exit::?relay
           ENTRY                   ADDRESS         REF BY
           =====                   =======         ======
           _exit                   0000002E 
               calls direct
    -------------------------------------------------------------------------
CSTART
  Relative segment, address: CODE 0000002E - 00000038 (0xb bytes), align: 0
  Segment part 10.            Intra module refs:   _exit
    -------------------------------------------------------------------------
BANK_RELAYS
  Relative segment, address: CODE 00000EA0 - 00000EA5 (0x6 bytes), align: 0
  Segment part 11.
           ENTRY                   ADDRESS         REF BY
           =====                   =======         ======
           _exit::?relay           00000EA0        exit (?exit)

    -------------------------------------------------------------------------
  LIBRARY MODULE, NAME : ?cmain

  SEGMENTS IN THE MODULE
  ======================
CSTART
  Relative segment, address: CODE 00000039, align: 0
  Segment part 5.
           ENTRY                   ADDRESS         REF BY
           =====                   =======         ======
           ?cmain                  00000039        Segment part 13 (CSTARTUP)
               calls direct
    -------------------------------------------------------------------------
CSTART
  Relative segment, address: CODE 00000039 - 00000048 (0x10 bytes), align: 0
  Segment part 16.
           ENTRY                   ADDRESS         REF BY
           =====                   =======         ======
           __INIT_XDATA_Z          00000039        ALARMS (?__write)
                                                   AT_wait::val (?__write)
                                                   CALLBACK (?__write)
                                                   COMPARE_TIME (?__write)
                                                   DELAY_CALIBRATE_TICS (?__write)
                                                   DMA_CH (?__write)
                                                   MODEL (?__write)
                                                   NODE_LIST (?__write)
                                                   OPENSLOTS (?__write)
                                                   RXBUFF (?__write)
                                                   RX_BUFF_FRAME_COUNT (?__write)
                                                   ReadTimer::ret_val (?__write)
                                                   SLOT_POOL (?__write)
                                                   Segment part 11 (?rand)
                                                   Segment part 12 (?rand)
                                                   Segment part 13 (?rand)
                                                   Segment part 14 (?rand)
                                                   TOFFSET (?__write)
                                                   TX_BUFF_FRAME_COUNT (?__write)
                                                   _Randinit (?rand)
                                                   __iar_Tls_setup__Randinit (?rand)
                                                   __iar_Tls_setup__Randseed (?rand)
                                                   retransmite (?__write)
                                                   slot_busy (?__write)
                                                   uart_rx_buff (?__write)
                                                   upload (?__write)
    -------------------------------------------------------------------------
CSTART
  Relative segment, address: CODE 00000049 - 0000006E (0x26 bytes), align: 0
  Segment part 33.
           ENTRY                   ADDRESS         REF BY
           =====                   =======         ======
           __INIT_XDATA_I          00000049        AM_Callback::__FUNCTION__ (?__write)
                                                   AM_Cold_start::__FUNCTION__ (?__write)
                                                   AM_HW_Init::__FUNCTION__ (?__write)
                                                   AM_Hot_start::__FUNCTION__ (?__write)
                                                   AM_SW_Init::__FUNCTION__ (?__write)
                                                   AT_MODULE (?__write)
                                                   AT_set_alarm::__FUNCTION__ (?__write)
                                                   AT_set_time::__FUNCTION__ (?__write)
                                                   AT_wait::__FUNCTION__ (?__write)
                                                   BF_MODULE (?__write)
                                                   CMD_LIST (?__write)
                                                   CODER_MODULE (?__write)
                                                   COLD_MOD (?__write)
                                                   CPU_MODULE (?__write)
                                                   DBG_MODULE (?__write)
                                                   DMA_MODULE (?__write)
                                                   FR_MODULE (?__write)
                                                   HOT_MOD (?__write)
                                                   HW_MOD (?__write)
                                                   Hot_Start::__FUNCTION__ (?__write)
                                                   LED_MODULE (?__write)
                                                   LLC_MODULE (?__write)
                                                   LLC_close_slot::__FUNCTION__ (?__write)
                                                   LLC_open_slot::__FUNCTION__ (?__write)
                                                   MAC_MODULE (?__write)
                                                   MAC_TIMER_MAX (?__write)
                                                   MD_MODULE (?__write)
                                                   MS_MODULE (?__write)
                                                   Neocore_start::__FUNCTION__ (?__write)
                                                   RADIO_MODULE (?__write)
                                                   RI_Receive::__FUNCTION__ (?__write)
                                                   RI_Send::__FUNCTION__ (?__write)
                                                   RTC_MODULE (?__write)
                                                   RX_LIST_HEAD (?__write)
                                                   SW_MOD (?__write)
                                                   SYNC_MODULE (?__write)
                                                   Segment part 101 (?__write)
                                                   Segment part 103 (?__write)
                                                   Segment part 105 (?__write)
                                                   Segment part 109 (?__write)
                                                   Segment part 111 (?__write)
                                                   Segment part 113 (?__write)
                                                   Segment part 115 (?__write)
                                                   Segment part 119 (?__write)
                                                   Segment part 121 (?__write)
                                                   Segment part 123 (?__write)
                                                   Segment part 125 (?__write)
                                                   Segment part 127 (?__write)
                                                   Segment part 131 (?__write)
                                                   Segment part 133 (?__write)
                                                   Segment part 135 (?__write)
                                                   Segment part 137 (?__write)
                                                   Segment part 141 (?__write)
                                                   Segment part 143 (?__write)
                                                   Segment part 145 (?__write)
                                                   Segment part 147 (?__write)
                                                   Segment part 151 (?__write)
                                                   Segment part 153 (?__write)
                                                   Segment part 155 (?__write)
                                                   Segment part 157 (?__write)
                                                   Segment part 161 (?__write)
                                                   Segment part 163 (?__write)
                                                   Segment part 165 (?__write)
                                                   Segment part 167 (?__write)
                                                   Segment part 171 (?__write)
                                                   Segment part 173 (?__write)
                                                   Segment part 175 (?__write)
                                                   Segment part 177 (?__write)
                                                   Segment part 181 (?__write)
                                                   Segment part 183 (?__write)
                                                   Segment part 185 (?__write)
                                                   Segment part 187 (?__write)
                                                   Segment part 191 (?__write)
                                                   Segment part 193 (?__write)
                                                   Segment part 195 (?__write)
                                                   Segment part 197 (?__write)
                                                   Segment part 201 (?__write)
                                                   Segment part 203 (?__write)
                                                   Segment part 205 (?__write)
                                                   Segment part 207 (?__write)
                                                   Segment part 209 (?__write)
                                                   Segment part 211 (?__write)
                                                   Segment part 215 (?__write)
                                                   Segment part 217 (?__write)
                                                   Segment part 219 (?__write)
                                                   Segment part 221 (?__write)
                                                   Segment part 223 (?__write)
                                                   Segment part 227 (?__write)
                                                   Segment part 229 (?__write)
                                                   Segment part 231 (?__write)
                                                   Segment part 233 (?__write)
                                                   Segment part 237 (?__write)
                                                   Segment part 239 (?__write)
                                                   Segment part 241 (?__write)
                                                   Segment part 243 (?__write)
                                                   Segment part 247 (?__write)
                                                   Segment part 249 (?__write)
                                                   Segment part 251 (?__write)
                                                   Segment part 253 (?__write)
                                                   Segment part 257 (?__write)
                                                   Segment part 259 (?__write)
                                                   Segment part 261 (?__write)
                                                   Segment part 263 (?__write)
                                                   Segment part 267 (?__write)
                                                   Segment part 269 (?__write)
                                                   Segment part 271 (?__write)
                                                   Segment part 275 (?__write)
                                                   Segment part 277 (?__write)
                                                   Segment part 279 (?__write)
                                                   Segment part 281 (?__write)
                                                   Segment part 287 (?__write)
                                                   Segment part 291 (?__write)
                                                   Segment part 295 (?__write)
                                                   Segment part 299 (?__write)
                                                   Segment part 303 (?__write)
                                                   Segment part 305 (?__write)
                                                   Segment part 307 (?__write)
                                                   Segment part 309 (?__write)
                                                   Segment part 313 (?__write)
                                                   Segment part 327 (?__write)
                                                   Segment part 329 (?__write)
                                                   Segment part 331 (?__write)
                                                   Segment part 335 (?__write)
                                                   Segment part 339 (?__write)
                                                   Segment part 341 (?__write)
                                                   Segment part 345 (?__write)
                                                   Segment part 347 (?__write)
                                                   Segment part 349 (?__write)
                                                   Segment part 353 (?__write)
                                                   Segment part 357 (?__write)
                                                   Segment part 359 (?__write)
                                                   Segment part 361 (?__write)
                                                   Segment part 367 (?__write)
                                                   Segment part 369 (?__write)
                                                   Segment part 371 (?__write)
                                                   Segment part 377 (?__write)
                                                   Segment part 403 (?__write)
                                                   Segment part 433 (?__write)
                                                   Segment part 435 (?__write)
                                                   Segment part 45 (?__write)
                                                   Segment part 47 (?__write)
                                                   Segment part 49 (?__write)
                                                   Segment part 55 (?__write)
                                                   Segment part 59 (?__write)
                                                   Segment part 6 (?xprintftiny)
                                                   Segment part 63 (?__write)
                                                   Segment part 67 (?__write)
                                                   Segment part 71 (?__write)
                                                   Segment part 73 (?__write)
                                                   Segment part 75 (?__write)
                                                   Segment part 8 (?xprintftiny)
                                                   Segment part 81 (?__write)
                                                   Segment part 85 (?__write)
                                                   Segment part 87 (?__write)
                                                   Segment part 93 (?__write)
                                                   Segment part 97 (?__write)
                                                   Segment part 99 (?__write)
                                                   TM_ClrAlarm::__FUNCTION__ (?__write)
                                                   TM_SetAlarm::__FUNCTION__ (?__write)
                                                   TX_LIST_HEAD (?__write)
                                                   UST_MODULE (?__write)
                                                   _Randseed (?rand)
                                                   __Constant_0 (?xprintftiny)
                                                   __Constant_1 (?__write)
                                                   __Constant_19660d (?rand)
                                                   __Constant_19833891 (?__write)
                                                   __Constant_1f4 (?__write)
                                                   __Constant_20 (?__write)
                                                   __Constant_3c6ef35f (?rand)
                                                   __Constant_7fff (?__write)
                                                   __Constant_8000 (?__write)
                                                   __Constant_a (?__write)
                                                   __Constant_ffff (?xprintftiny)
                                                   __Constant_ffff8000 (?__write)
                                                   __Constant_ffffc180 (?__write)
                                                   __Constant_ffffff (?__write)
                                                   _push::__FUNCTION__ (?__write)
                                                   cmd_0x00::__FUNCTION__ (?__write)
                                                   cmd_0x01::__FUNCTION__ (?__write)
                                                   cmd_0x03::__FUNCTION__ (?__write)
                                                   cmd_0x04::__FUNCTION__ (?__write)
                                                   cmd_0x05::__FUNCTION__ (?__write)
                                                   cmd_0x06::__FUNCTION__ (?__write)
                                                   cmd_0x07::__FUNCTION__ (?__write)
                                                   cmd_0x08::__FUNCTION__ (?__write)
                                                   cmd_0x09::__FUNCTION__ (?__write)
                                                   cmd_0x0A::__FUNCTION__ (?__write)
                                                   cmd_0x0B::__FUNCTION__ (?__write)
                                                   cmd_0x0C::__FUNCTION__ (?__write)
                                                   cmd_0x0D::__FUNCTION__ (?__write)
                                                   cmd_0x0E::__FUNCTION__ (?__write)
                                                   cmd_0x0F::__FUNCTION__ (?__write)
                                                   cmd_0x10::__FUNCTION__ (?__write)
                                                   main::__FUNCTION__ (?__write)
                                                   pre_init::__FUNCTION__ (?__write)
                                                   receive::__FUNCTION__ (?__write)
                                                   recv_sync::__FUNCTION__ (?__write)
                                                   scan_tx_buffer_by_ts::__FUNCTION__ (?__write)
                                                   scheduler_rx::__FUNCTION__ (?__write)
                                                   scheduler_tx::__FUNCTION__ (?__write)
                                                   send_sync::__FUNCTION__ (?__write)
                                                   setFreq::__FUNCTION__ (?__write)
                                                   stream_write::__FUNCTION__ (?__write)
    -------------------------------------------------------------------------
DIFUNCT
  Relative segment, address: CODE 00001816, align: 0
  Segment part 38. ROOT 
    -------------------------------------------------------------------------
CSTART
  Relative segment, address: CODE 0000006F - 00000084 (0x16 bytes), align: 0
  Segment part 40.            Intra module refs:   ?cmain
           ENTRY                   ADDRESS         REF BY
           =====                   =======         ======
           ?call_main              0000006F 

    -------------------------------------------------------------------------
  LIBRARY MODULE, NAME : CSTARTUP

  SEGMENTS IN THE MODULE
  ======================
REGISTERS
  Relative segment, address: DATA 00000000, align: 0
  Segment part 0.             Intra module refs:   Segment part 6
           ENTRY                   ADDRESS         REF BY
           =====                   =======         ======
           ?REGISTERS              00000000 
    -------------------------------------------------------------------------
ISTACK
  Relative segment, address: IDATA 00000080, align: 0
  Segment part 1.             Intra module refs:   Segment part 6
           ENTRY                   ADDRESS         REF BY
           =====                   =======         ======
           ?ISTACK_START           00000080 
    -------------------------------------------------------------------------
PSTACK
  Relative segment, address: XDATA 00001E00, align: 0
  Segment part 2.             Intra module refs:   ?RESET_PSP
           ENTRY                   ADDRESS         REF BY
           =====                   =======         ======
           ?PSTACK_START           00001E00 
    -------------------------------------------------------------------------
XSTACK
  Relative segment, address: XDATA 00000001, align: 0
  Segment part 3.             Intra module refs:   ?RESET_XSP
           ENTRY                   ADDRESS         REF BY
           =====                   =======         ======
           ?XSTACK_START           00000001 
    -------------------------------------------------------------------------
INTVEC
  Common segment, address: CODE 00000000 - 00000002 (0x3 bytes), align: 0
  Segment part 5. ROOT        Intra module refs:   Segment part 6
    -------------------------------------------------------------------------
CSTART
  Relative segment, address: CODE 00000085 - 0000008A (0x6 bytes), align: 0
  Segment part 6. ROOT        Intra module refs:   Segment part 5
           ENTRY                   ADDRESS         REF BY
           =====                   =======         ======
           __program_start         00000085        Absolute parts (?ABS_ENTRY_MOD)
           ?RESET_SP               00000088 
    -------------------------------------------------------------------------
CSTART
  Relative segment, address: CODE 0000008B - 0000008D (0x3 bytes), align: 0
  Segment part 7.
           ENTRY                   ADDRESS         REF BY
           =====                   =======         ======
           ?RESET_PSP              0000008B        ?PSP (VIRTUAL_REGISTERS)
    -------------------------------------------------------------------------
CSTART
  Relative segment, address: CODE 0000008E - 00000093 (0x6 bytes), align: 0
  Segment part 8.
           ENTRY                   ADDRESS         REF BY
           =====                   =======         ======
           ?RESET_XSP              0000008E        ?XSP (VIRTUAL_REGISTERS)
    -------------------------------------------------------------------------
CSTART
  Relative segment, address: CODE 00000094 - 00000096 (0x3 bytes), align: 0
  Segment part 9.
           ENTRY                   ADDRESS         REF BY
           =====                   =======         ======
           ?RESET_CODE_BANK        00000094        Absolute parts (?BANKED_CODE_SUPPORT)
    -------------------------------------------------------------------------
CSTART
  Relative segment, address: CODE 00000097 - 00000099 (0x3 bytes), align: 0
  Segment part 11.            Intra module refs:   ?RESET_PSP
           ENTRY                   ADDRESS         REF BY
           =====                   =======         ======
           ?RESET_PDATA_BANK       00000097 
    -------------------------------------------------------------------------
CSTART
  Relative segment, address: CODE 0000009A - 0000009C (0x3 bytes), align: 0
  Segment part 13.            Intra module refs:   Absolute parts

    -------------------------------------------------------------------------
  LIBRARY MODULE, NAME : VIRTUAL_REGISTERS

  SEGMENTS IN THE MODULE
  ======================
BREG
  Relative segment, address: BIT 00000020.0 - 00000020.7 (0x8 bits), align: 0
  Segment part 0.
           ENTRY                   ADDRESS         REF BY
           =====                   =======         ======
           ?B0                     00000020.0      Absolute parts (CSTARTUP)
    -------------------------------------------------------------------------
VREG
  Relative segment, address: DATA 00000008 - 00000008 (0x1 bytes), align: 0
  Segment part 1.             Intra module refs:   ?V1
           ENTRY                   ADDRESS         REF BY
           =====                   =======         ======
           ?V0                     00000008        ?BANKED_ENTER_XDATA (?BANKED_ENTER_XDATA)
                                                   ?BANKED_LEAVE_XDATA (?BANKED_LEAVE_XDATA)
                                                   ?INTERRUPT_ENTER_XSP (?INTERRUPT_ENTER_XSP)
                                                   ?INTERRUPT_LEAVE_XSP (?INTERRUPT_LEAVE_XSP)
                                                   ?LONGJMP_XDATA (?LONGJMP_XDATA)
                                                   ?SETJMP_XDATA (?SETJMP_XDATA)
                                                   ?SL_GE_X (?SL_GE_X)
                                                   ?UL_GE_X (?UL_GE_X)
                                                   AES_StreamCoder (?__write)
                                                   AM_Callback (?__write)
                                                   AM_Cold_start (?__write)
                                                   AM_HW_Init (?__write)
                                                   AM_Hot_start (?__write)
                                                   AM_SW_Init (?__write)
                                                   AT_set_alarm (?__write)
                                                   AT_set_time (?__write)
                                                   AT_time (?__write)
                                                   AT_wait (?__write)
                                                   BF_cursor_next (?__write)
                                                   BF_cursor_rx (?__write)
                                                   BF_cursor_tx (?__write)
                                                   BF_push_rx (?__write)
                                                   BF_push_tx (?__write)
                                                   BF_remove (?__write)
                                                   DelayCalibrate (?__write)
                                                   FR_add_header (?__write)
                                                   Hot_Start (?__write)
                                                   LLC_close_slot (?__write)
                                                   LLC_open_slot (?__write)
                                                   Neocore_start (?__write)
                                                   RI_Measure_POW (?__write)
                                                   RI_Receive (?__write)
                                                   RI_Send (?__write)
                                                   RecvData (?__write)
                                                   SL_alloc (?__write)
                                                   SL_free (?__write)
                                                   Segment part 24 (?xprintftiny)
                                                   SendData (?__write)
                                                   TM_ClrAlarm (?__write)
                                                   TM_SetAlarm (?__write)
                                                   TimerCompareInterrupt (?__write)
                                                   UST_delay (?__write)
                                                   UST_interval (?__write)
                                                   UST_time_over (?__write)
                                                   _PrintfTiny (?xprintftiny)
                                                   _Prout (?xprout)
                                                   __list_add (?__write)
                                                   __write (?__write)
                                                   _free (?__write)
                                                   _interval (?__write)
                                                   _push (?__write)
                                                   _throw_dice (?__write)
                                                   array_index (?__write)
                                                   calcCompareTime (?__write)
                                                   cmd_0x00 (?__write)
                                                   cmd_0x01 (?__write)
                                                   cmd_0x02 (?__write)
                                                   cmd_0x03 (?__write)
                                                   cmd_0x04 (?__write)
                                                   cmd_0x05 (?__write)
                                                   cmd_0x06 (?__write)
                                                   cmd_0x07 (?__write)
                                                   cmd_0x08 (?__write)
                                                   cmd_0x09 (?__write)
                                                   cmd_0x0A (?__write)
                                                   cmd_0x0B (?__write)
                                                   cmd_0x0C (?__write)
                                                   cmd_0x0D (?__write)
                                                   cmd_0x0E (?__write)
                                                   cmd_0x0F (?__write)
                                                   cmd_0x10 (?__write)
                                                   cmd_answer (?__write)
                                                   is_array_ptr (?__write)
                                                   list_add (?__write)
                                                   loadTimerCompare (?__write)
                                                   main (?__write)
                                                   memcpy (?memcpy)
                                                   mode_1_process (?__write)
                                                   mode_1_receive_process (?__write)
                                                   mode_2_process (?__write)
                                                   out (?xprintftiny)
                                                   parse_uart_stream (?__write)
                                                   pre_init (?__write)
                                                   printf (?printf)
                                                   putchar (?putchar)
                                                   rand (?rand)
                                                   receive (?__write)
                                                   recv_sync (?__write)
                                                   scan_tx_buffer_by_ts (?__write)
                                                   scheduler_rx (?__write)
                                                   scheduler_tx (?__write)
                                                   scheulder_next_alarm (?__write)
                                                   send_sync (?__write)
                                                   setFreq (?__write)
                                                   srand (?srand)
                                                   stream_write (?__write)
                                                   syncronize_timer (?__write)
                                                   transmite (?__write)
                                                   uart_write (?__write)
                                                   upload_frame (?__write)
                                                   validate_sync (?__write)
    -------------------------------------------------------------------------
VREG
  Relative segment, address: DATA 00000009 - 00000009 (0x1 bytes), align: 0
  Segment part 2.             Intra module refs:   ?V2
           ENTRY                   ADDRESS         REF BY
           =====                   =======         ======
           ?V1                     00000009        AES_StreamCoder (?__write)
                                                   AM_Callback (?__write)
                                                   AM_Cold_start (?__write)
                                                   AM_HW_Init (?__write)
                                                   AM_Hot_start (?__write)
                                                   AM_SW_Init (?__write)
                                                   AT_set_alarm (?__write)
                                                   AT_set_time (?__write)
                                                   AT_time (?__write)
                                                   AT_wait (?__write)
                                                   BF_cursor_next (?__write)
                                                   BF_cursor_rx (?__write)
                                                   BF_cursor_tx (?__write)
                                                   BF_remove (?__write)
                                                   DelayCalibrate (?__write)
                                                   FR_add_header (?__write)
                                                   Hot_Start (?__write)
                                                   LLC_close_slot (?__write)
                                                   LLC_open_slot (?__write)
                                                   Neocore_start (?__write)
                                                   RI_Measure_POW (?__write)
                                                   RI_Receive (?__write)
                                                   RI_Send (?__write)
                                                   RecvData (?__write)
                                                   Segment part 24 (?xprintftiny)
                                                   SendData (?__write)
                                                   TM_ClrAlarm (?__write)
                                                   TM_SetAlarm (?__write)
                                                   TimerCompareInterrupt (?__write)
                                                   UST_delay (?__write)
                                                   UST_interval (?__write)
                                                   UST_time_over (?__write)
                                                   _PrintfTiny (?xprintftiny)
                                                   _Prout (?xprout)
                                                   __list_add (?__write)
                                                   __write (?__write)
                                                   _free (?__write)
                                                   _interval (?__write)
                                                   _push (?__write)
                                                   _throw_dice (?__write)
                                                   array_index (?__write)
                                                   calcCompareTime (?__write)
                                                   cmd_0x02 (?__write)
                                                   cmd_0x04 (?__write)
                                                   cmd_0x05 (?__write)
                                                   cmd_0x0B (?__write)
                                                   cmd_0x0C (?__write)
                                                   cmd_0x0D (?__write)
                                                   is_array_ptr (?__write)
                                                   list_add (?__write)
                                                   loadTimerCompare (?__write)
                                                   main (?__write)
                                                   mode_1_process (?__write)
                                                   mode_1_receive_process (?__write)
                                                   mode_2_process (?__write)
                                                   out (?xprintftiny)
                                                   pre_init (?__write)
                                                   printf (?printf)
                                                   putchar (?putchar)
                                                   rand (?rand)
                                                   receive (?__write)
                                                   recv_sync (?__write)
                                                   scan_tx_buffer_by_ts (?__write)
                                                   scheduler_rx (?__write)
                                                   scheduler_tx (?__write)
                                                   send_sync (?__write)
                                                   setFreq (?__write)
                                                   srand (?srand)
                                                   syncronize_timer (?__write)
                                                   uart_write (?__write)
                                                   validate_sync (?__write)
    -------------------------------------------------------------------------
VREG
  Relative segment, address: DATA 0000000A - 0000000A (0x1 bytes), align: 0
  Segment part 3.             Intra module refs:   ?V3
           ENTRY                   ADDRESS         REF BY
           =====                   =======         ======
           ?V2                     0000000A        AES_StreamCoder (?__write)
                                                   AT_set_alarm (?__write)
                                                   AT_set_time (?__write)
                                                   AT_time (?__write)
                                                   AT_wait (?__write)
                                                   BF_cursor_next (?__write)
                                                   BF_remove (?__write)
                                                   DelayCalibrate (?__write)
                                                   FR_add_header (?__write)
                                                   Hot_Start (?__write)
                                                   RI_Measure_POW (?__write)
                                                   RI_Receive (?__write)
                                                   RI_Send (?__write)
                                                   RecvData (?__write)
                                                   Segment part 24 (?xprintftiny)
                                                   UST_delay (?__write)
                                                   UST_interval (?__write)
                                                   UST_time_over (?__write)
                                                   _PrintfTiny (?xprintftiny)
                                                   _Prout (?xprout)
                                                   __list_add (?__write)
                                                   __write (?__write)
                                                   _free (?__write)
                                                   _interval (?__write)
                                                   _push (?__write)
                                                   array_index (?__write)
                                                   calcCompareTime (?__write)
                                                   cmd_0x00 (?__write)
                                                   cmd_0x01 (?__write)
                                                   cmd_0x02 (?__write)
                                                   cmd_0x03 (?__write)
                                                   cmd_0x04 (?__write)
                                                   cmd_0x05 (?__write)
                                                   cmd_0x06 (?__write)
                                                   cmd_0x07 (?__write)
                                                   cmd_0x08 (?__write)
                                                   cmd_0x09 (?__write)
                                                   cmd_0x0A (?__write)
                                                   cmd_0x0B (?__write)
                                                   cmd_0x0C (?__write)
                                                   cmd_0x0D (?__write)
                                                   cmd_0x0E (?__write)
                                                   cmd_0x0F (?__write)
                                                   cmd_0x10 (?__write)
                                                   cmd_answer (?__write)
                                                   is_array_ptr (?__write)
                                                   loadTimerCompare (?__write)
                                                   main (?__write)
                                                   mode_1_process (?__write)
                                                   mode_1_receive_process (?__write)
                                                   mode_2_process (?__write)
                                                   out (?xprintftiny)
                                                   parse_uart_stream (?__write)
                                                   rand (?rand)
                                                   recv_sync (?__write)
                                                   scan_tx_buffer_by_ts (?__write)
                                                   scheduler_tx (?__write)
                                                   srand (?srand)
                                                   stream_write (?__write)
                                                   syncronize_timer (?__write)
                                                   validate_sync (?__write)
    -------------------------------------------------------------------------
VREG
  Relative segment, address: DATA 0000000B - 0000000B (0x1 bytes), align: 0
  Segment part 4.             Intra module refs:   ?V4
           ENTRY                   ADDRESS         REF BY
           =====                   =======         ======
           ?V3                     0000000B        AES_StreamCoder (?__write)
                                                   AT_set_alarm (?__write)
                                                   AT_set_time (?__write)
                                                   AT_time (?__write)
                                                   AT_wait (?__write)
                                                   DelayCalibrate (?__write)
                                                   FR_add_header (?__write)
                                                   Hot_Start (?__write)
                                                   RI_Measure_POW (?__write)
                                                   RI_Receive (?__write)
                                                   RI_Send (?__write)
                                                   RecvData (?__write)
                                                   Segment part 24 (?xprintftiny)
                                                   UST_delay (?__write)
                                                   UST_interval (?__write)
                                                   UST_time_over (?__write)
                                                   _PrintfTiny (?xprintftiny)
                                                   __list_add (?__write)
                                                   __write (?__write)
                                                   _free (?__write)
                                                   _interval (?__write)
                                                   _push (?__write)
                                                   array_index (?__write)
                                                   calcCompareTime (?__write)
                                                   cmd_0x00 (?__write)
                                                   cmd_0x01 (?__write)
                                                   cmd_0x02 (?__write)
                                                   cmd_0x03 (?__write)
                                                   cmd_0x04 (?__write)
                                                   cmd_0x05 (?__write)
                                                   cmd_0x06 (?__write)
                                                   cmd_0x07 (?__write)
                                                   cmd_0x08 (?__write)
                                                   cmd_0x09 (?__write)
                                                   cmd_0x0A (?__write)
                                                   cmd_0x0D (?__write)
                                                   cmd_0x0E (?__write)
                                                   cmd_0x0F (?__write)
                                                   cmd_0x10 (?__write)
                                                   cmd_answer (?__write)
                                                   is_array_ptr (?__write)
                                                   loadTimerCompare (?__write)
                                                   main (?__write)
                                                   mode_1_process (?__write)
                                                   mode_1_receive_process (?__write)
                                                   mode_2_process (?__write)
                                                   out (?xprintftiny)
                                                   parse_uart_stream (?__write)
                                                   rand (?rand)
                                                   recv_sync (?__write)
                                                   scheduler_tx (?__write)
                                                   srand (?srand)
                                                   stream_write (?__write)
                                                   syncronize_timer (?__write)
                                                   validate_sync (?__write)
    -------------------------------------------------------------------------
VREG
  Relative segment, address: DATA 0000000C - 0000000C (0x1 bytes), align: 0
  Segment part 5.             Intra module refs:   ?V5
           ENTRY                   ADDRESS         REF BY
           =====                   =======         ======
           ?V4                     0000000C        AES_StreamCoder (?__write)
                                                   AT_set_time (?__write)
                                                   AT_time (?__write)
                                                   DelayCalibrate (?__write)
                                                   FR_add_header (?__write)
                                                   RI_Measure_POW (?__write)
                                                   RI_Receive (?__write)
                                                   RI_Send (?__write)
                                                   RecvData (?__write)
                                                   UST_delay (?__write)
                                                   UST_interval (?__write)
                                                   UST_time_over (?__write)
                                                   _PrintfTiny (?xprintftiny)
                                                   _Prout (?xprout)
                                                   __write (?__write)
                                                   _interval (?__write)
                                                   _push (?__write)
                                                   calcCompareTime (?__write)
                                                   cmd_0x01 (?__write)
                                                   cmd_0x03 (?__write)
                                                   cmd_0x04 (?__write)
                                                   cmd_0x05 (?__write)
                                                   cmd_0x07 (?__write)
                                                   cmd_0x08 (?__write)
                                                   cmd_0x0B (?__write)
                                                   cmd_0x0C (?__write)
                                                   cmd_0x0D (?__write)
                                                   cmd_0x0E (?__write)
                                                   cmd_0x0F (?__write)
                                                   cmd_0x10 (?__write)
                                                   cmd_answer (?__write)
                                                   main (?__write)
                                                   mode_1_receive_process (?__write)
                                                   out (?xprintftiny)
                                                   rand (?rand)
                                                   recv_sync (?__write)
                                                   scan_tx_buffer_by_ts (?__write)
                                                   syncronize_timer (?__write)
    -------------------------------------------------------------------------
VREG
  Relative segment, address: DATA 0000000D - 0000000D (0x1 bytes), align: 0
  Segment part 6.             Intra module refs:   ?V6
           ENTRY                   ADDRESS         REF BY
           =====                   =======         ======
           ?V5                     0000000D        AES_StreamCoder (?__write)
                                                   AT_set_time (?__write)
                                                   AT_time (?__write)
                                                   DelayCalibrate (?__write)
                                                   RI_Measure_POW (?__write)
                                                   RI_Receive (?__write)
                                                   RI_Send (?__write)
                                                   RecvData (?__write)
                                                   UST_delay (?__write)
                                                   UST_interval (?__write)
                                                   UST_time_over (?__write)
                                                   _PrintfTiny (?xprintftiny)
                                                   _Prout (?xprout)
                                                   __write (?__write)
                                                   _interval (?__write)
                                                   _push (?__write)
                                                   calcCompareTime (?__write)
                                                   cmd_0x01 (?__write)
                                                   cmd_0x03 (?__write)
                                                   cmd_0x04 (?__write)
                                                   cmd_0x05 (?__write)
                                                   cmd_0x07 (?__write)
                                                   cmd_0x08 (?__write)
                                                   cmd_0x0B (?__write)
                                                   cmd_0x0C (?__write)
                                                   cmd_0x0D (?__write)
                                                   cmd_0x0E (?__write)
                                                   cmd_0x0F (?__write)
                                                   cmd_0x10 (?__write)
                                                   cmd_answer (?__write)
                                                   main (?__write)
                                                   mode_1_receive_process (?__write)
                                                   out (?xprintftiny)
                                                   rand (?rand)
                                                   recv_sync (?__write)
                                                   scan_tx_buffer_by_ts (?__write)
                                                   syncronize_timer (?__write)
    -------------------------------------------------------------------------
VREG
  Relative segment, address: DATA 0000000E - 0000000E (0x1 bytes), align: 0
  Segment part 7.             Intra module refs:   ?V7
           ENTRY                   ADDRESS         REF BY
           =====                   =======         ======
           ?V6                     0000000E        AES_StreamCoder (?__write)
                                                   AT_time (?__write)
                                                   DelayCalibrate (?__write)
                                                   RI_Receive (?__write)
                                                   RI_Send (?__write)
                                                   UST_delay (?__write)
                                                   UST_interval (?__write)
                                                   UST_time_over (?__write)
                                                   _PrintfTiny (?xprintftiny)
                                                   __write (?__write)
                                                   _interval (?__write)
                                                   calcCompareTime (?__write)
                                                   cmd_0x0B (?__write)
                                                   cmd_0x0C (?__write)
                                                   cmd_answer (?__write)
                                                   main (?__write)
                                                   rand (?rand)
    -------------------------------------------------------------------------
VREG
  Relative segment, address: DATA 0000000F - 0000000F (0x1 bytes), align: 0
  Segment part 8.
           ENTRY                   ADDRESS         REF BY
           =====                   =======         ======
           ?V7                     0000000F        AT_time (?__write)
                                                   DelayCalibrate (?__write)
                                                   RI_Receive (?__write)
                                                   RI_Send (?__write)
                                                   RecvData (?__write)
                                                   SendData (?__write)
                                                   UST_delay (?__write)
                                                   UST_interval (?__write)
                                                   UST_time_over (?__write)
                                                   _PrintfTiny (?xprintftiny)
                                                   __write (?__write)
                                                   _interval (?__write)
                                                   calcCompareTime (?__write)
                                                   cmd_0x0B (?__write)
                                                   cmd_0x0C (?__write)
                                                   cmd_answer (?__write)
                                                   main (?__write)
                                                   rand (?rand)
                                                   recv_sync (?__write)
    -------------------------------------------------------------------------
PSP
  Relative segment, address: DATA 00000010 - 00000010 (0x1 bytes), align: 0
  Segment part 33.
           ENTRY                   ADDRESS         REF BY
           =====                   =======         ======
           ?PSP                    00000010        ?LONGJMP_XDATA (?LONGJMP_XDATA)
                                                   ?RESET_PSP (CSTARTUP)
                                                   ?SETJMP_XDATA (?SETJMP_XDATA)
    -------------------------------------------------------------------------
XSP
  Relative segment, address: DATA 00000011 - 00000012 (0x2 bytes), align: 0
  Segment part 34.
           ENTRY                   ADDRESS         REF BY
           =====                   =======         ======
           ?XSP                    00000011        ?ADD_XSTACK_DISP0_8 (?ADD_XSTACK_DISP8)
                                                   ?ALLOC_XSTACK8 (?ALLOC_XSTACK8)
                                                   ?BANKED_ENTER_XDATA (?BANKED_ENTER_XDATA)
                                                   ?BANKED_LEAVE_XDATA (?BANKED_LEAVE_XDATA)
                                                   ?DEALLOC_XSTACK8 (?DEALLOC_XSTACK8)
                                                   ?INTERRUPT_ENTER_XSP (?INTERRUPT_ENTER_XSP)
                                                   ?INTERRUPT_LEAVE_XSP (?INTERRUPT_LEAVE_XSP)
                                                   ?LONGJMP_XDATA (?LONGJMP_XDATA)
                                                   ?PUSH_XSTACK8_X (?PUSH_XSTACK8_X)
                                                   ?RESET_XSP (CSTARTUP)
                                                   ?SETJMP_XDATA (?SETJMP_XDATA)
                                                   ?XSTACK_DISP0_8 (?XSTACK_DISP8)
                                                   ?XSTACK_DISP100_8 (?XSTACK_DISP8_RP)
                                                   ?XSTACK_DISP101_8 (?XSTACK_DISP8_RP)
                                                   ?XSTACK_DISP102_8 (?XSTACK_DISP8_RP)
                                                   AES_StreamCoder (?__write)
                                                   DelayCalibrate (?__write)
                                                   FR_add_header (?__write)
                                                   HW_Init (?__write)
                                                   RI_Receive (?__write)
                                                   RI_Send (?__write)
                                                   RecvData (?__write)
                                                   SL_alloc (?__write)
                                                   SW_Init (?__write)
                                                   Segment part 18 (?xprintftiny)
                                                   SendData (?__write)
                                                   UST_delay (?__write)
                                                   UST_interval (?__write)
                                                   UST_now (?__write)
                                                   UST_time_over (?__write)
                                                   _PrintfTiny (?xprintftiny)
                                                   __exit (?__exit)
                                                   _interval (?__write)
                                                   calcCompareTime (?__write)
                                                   cmd_0x00 (?__write)
                                                   cmd_0x09 (?__write)
                                                   cmd_0x0A (?__write)
                                                   cmd_0x0B (?__write)
                                                   cmd_0x0D (?__write)
                                                   cmd_answer (?__write)
                                                   cmd_answer_err (?__write)
                                                   loadTimerCompare (?__write)
                                                   memset (?memset)
                                                   parse_uart_stream (?__write)
                                                   printf (?printf)
                                                   putchar (?putchar)
                                                   recv_sync (?__write)
                                                   send_sync (?__write)
                                                   setFreq (?__write)
                                                   stream_write (?__write)

    -------------------------------------------------------------------------
  LIBRARY MODULE, NAME : ?exit

  SEGMENTS IN THE MODULE
  ======================
<BANKED_CODE> 1 (was BANKED_CODE)
  Relative segment, address: CODE 000058E9 - 000058F6 (0xe bytes), align: 0
  Segment part 6.
           ENTRY                   ADDRESS         REF BY
           =====                   =======         ======
           exit                    000058E9        ?call_main (?cmain)
               calls direct
               ISTACK = 00000000 ( 00000002 )

    -------------------------------------------------------------------------
  LIBRARY MODULE, NAME : ?BANKED_CODE_SUPPORT

  SEGMENTS IN THE MODULE
  ======================
CSTART
  Relative segment, address: CODE 0000009D - 000000BA (0x1e bytes), align: 0
  Segment part 0.
           ENTRY                   ADDRESS         REF BY
           =====                   =======         ======
           ?BCALL_FF               0000009D        ?call_main (?cmain)
                                                   Segment part 10 (?cexit)
           ?BRET_FF                000000A3        ?BANKED_LEAVE_XDATA (?BANKED_LEAVE_XDATA)
                                                   AT_interval (?__write)
                                                   BF_content (?__write)
                                                   BF_rx_busy (?__write)
                                                   BF_tx_busy (?__write)
                                                   Cold_Start (?__write)
                                                   FR_create (?__write)
                                                   HW_Init (?__write)
                                                   Hot_Start (?__write)
                                                   INIT_LIST_HEAD (?__write)
                                                   IRQEnable (?__write)
                                                   LoadTXData (?__write)
                                                   MEM_memcpy (?__write)
                                                   MEM_memset (?__write)
                                                   MyLowLevelPutchar (?__write)
                                                   RI_SetChannel (?__write)
                                                   ReadTimer (?__write)
                                                   SW_Init (?__write)
                                                   UST_now (?__write)
                                                   UnLoadRXData (?__write)
                                                   __DebugBreak (?__dbg_break)
                                                   __cli (?__write)
                                                   __list_add_valid (?__write)
                                                   __list_del (?__write)
                                                   __list_del_entry_valid (?__write)
                                                   _clr_all (?__write)
                                                   _inc_timeslot (?__write)
                                                   bits_count (?__write)
                                                   check_cmd_frame (?__write)
                                                   exit (?exit)
                                                   getRNDByte (?__write)
                                                   init (?__write)
                                                   isIRQEnable (?__write)
                                                   list_empty (?__write)
                                                   mcu_sleep (?__write)
                                                   memset (?memset)
                                                   mode_1_retransmition_process (?__write)
                                                   pre_config (?__write)
                                                   start_mode_1 (?__write)
                                                   start_mode_2 (?__write)
                                                   strlen (?strlen)
                                                   uart_dma_init (?__write)
                                                   uart_init (?__write)
                                                   uart_putchar (?__write)
                                                   uart_recv_cmd (?__write)
           ?BDISPATCH_FF           000000A6        AES_StreamCoder::?relay (?__write)
                                                   AM_Callback::?relay (?__write)
                                                   AM_Cold_start::?relay (?__write)
                                                   AM_HW_Init::?relay (?__write)
                                                   AM_Hot_start::?relay (?__write)
                                                   AM_SW_Init::?relay (?__write)
                                                   AT_enable::?relay (?__write)
                                                   AT_interval::?relay (?__write)
                                                   AT_set_alarm::?relay (?__write)
                                                   AT_set_time::?relay (?__write)
                                                   AT_time::?relay (?__write)
                                                   AT_wait::?relay (?__write)
                                                   BF_content::?relay (?__write)
                                                   BF_cursor_next::?relay (?__write)
                                                   BF_cursor_rx::?relay (?__write)
                                                   BF_cursor_tx::?relay (?__write)
                                                   BF_push_rx::?relay (?__write)
                                                   BF_push_tx::?relay (?__write)
                                                   BF_remove::?relay (?__write)
                                                   BF_rx_busy::?relay (?__write)
                                                   BF_tx_busy::?relay (?__write)
                                                   Cold_Start::?relay (?__write)
                                                   DBG_CORE_HALT::?relay (?__write)
                                                   DelayCalibrate::?relay (?__write)
                                                   FR_add_header::?relay (?__write)
                                                   FR_create::?relay (?__write)
                                                   FR_delete::?relay (?__write)
                                                   HW_Init::?relay (?__write)
                                                   Hot_Start::?relay (?__write)
                                                   INIT_LIST_HEAD::?relay (?__write)
                                                   IRQEnable::?relay (?__write)
                                                   LLC_close_slot::?relay (?__write)
                                                   LLC_open_slot::?relay (?__write)
                                                   LoadTXData::?relay (?__write)
                                                   MEM_memcpy::?relay (?__write)
                                                   MEM_memset::?relay (?__write)
                                                   MyLowLevelPutchar::?relay (?__write)
                                                   Neocore_start::?relay (?__write)
                                                   RI_Measure_POW::?relay (?__write)
                                                   RI_Receive::?relay (?__write)
                                                   RI_Send::?relay (?__write)
                                                   RI_SetChannel::?relay (?__write)
                                                   ReadTimer::?relay (?__write)
                                                   RecvData::?relay (?__write)
                                                   SL_alloc::?relay (?__write)
                                                   SL_free::?relay (?__write)
                                                   SW_Init::?relay (?__write)
                                                   SendData::?relay (?__write)
                                                   TM_ClrAlarm::?relay (?__write)
                                                   TM_IRQ::?relay (?__write)
                                                   TM_SetAlarm::?relay (?__write)
                                                   UST_delay::?relay (?__write)
                                                   UST_interval::?relay (?__write)
                                                   UST_now::?relay (?__write)
                                                   UST_time_over::?relay (?__write)
                                                   UnLoadRXData::?relay (?__write)
                                                   _PrintfTiny::?relay (?xprintftiny)
                                                   _Prout::?relay (?xprout)
                                                   __DebugBreak::?relay (?__dbg_break)
                                                   __cli::?relay (?__write)
                                                   __list_add::?relay (?__write)
                                                   __list_add_valid::?relay (?__write)
                                                   __list_del::?relay (?__write)
                                                   __list_del_entry::?relay (?__write)
                                                   __list_del_entry_valid::?relay (?__write)
                                                   __write::?relay (?__write)
                                                   _clr_all::?relay (?__write)
                                                   _exit::?relay (?cexit)
                                                   _find_next_active::?relay (?__write)
                                                   _free::?relay (?__write)
                                                   _inc_timeslot::?relay (?__write)
                                                   _interval::?relay (?__write)
                                                   _push::?relay (?__write)
                                                   _throw_dice::?relay (?__write)
                                                   accept_sync_data::?relay (?__write)
                                                   array_index::?relay (?__write)
                                                   bits_count::?relay (?__write)
                                                   calcCompareTime::?relay (?__write)
                                                   check_cmd_frame::?relay (?__write)
                                                   cmd_0x00::?relay (?__write)
                                                   cmd_0x01::?relay (?__write)
                                                   cmd_0x02::?relay (?__write)
                                                   cmd_0x03::?relay (?__write)
                                                   cmd_0x04::?relay (?__write)
                                                   cmd_0x05::?relay (?__write)
                                                   cmd_0x06::?relay (?__write)
                                                   cmd_0x07::?relay (?__write)
                                                   cmd_0x08::?relay (?__write)
                                                   cmd_0x09::?relay (?__write)
                                                   cmd_0x0A::?relay (?__write)
                                                   cmd_0x0B::?relay (?__write)
                                                   cmd_0x0C::?relay (?__write)
                                                   cmd_0x0D::?relay (?__write)
                                                   cmd_0x0E::?relay (?__write)
                                                   cmd_0x0F::?relay (?__write)
                                                   cmd_0x10::?relay (?__write)
                                                   cmd_answer::?relay (?__write)
                                                   cmd_answer_err::?relay (?__write)
                                                   com_uart_init::?relay (?__write)
                                                   crc16::?relay (?__write)
                                                   find_free_node::?relay (?__write)
                                                   getRNDByte::?relay (?__write)
                                                   init::?relay (?__write)
                                                   isIRQEnable::?relay (?__write)
                                                   is_array_ptr::?relay (?__write)
                                                   list_add::?relay (?__write)
                                                   list_del::?relay (?__write)
                                                   list_empty::?relay (?__write)
                                                   loadTimerCompare::?relay (?__write)
                                                   mcu_sleep::?relay (?__write)
                                                   mem_move::?relay (?__write)
                                                   memcpy::?relay (?memcpy)
                                                   memset::?relay (?memset)
                                                   mode_1_process::?relay (?__write)
                                                   mode_1_receive_process::?relay (?__write)
                                                   mode_1_retransmition_process::?relay (?__write)
                                                   mode_2_process::?relay (?__write)
                                                   out::?relay (?xprintftiny)
                                                   parse_uart_stream::?relay (?__write)
                                                   pre_config::?relay (?__write)
                                                   pre_init::?relay (?__write)
                                                   printf::?relay (?printf)
                                                   putchar::?relay (?putchar)
                                                   rand::?relay (?rand)
                                                   random_core_init::?relay (?__write)
                                                   readRandom::?relay (?__write)
                                                   receive::?relay (?__write)
                                                   recv_sync::?relay (?__write)
                                                   scan_tx_buffer_by_ts::?relay (?__write)
                                                   scheduler_rx::?relay (?__write)
                                                   scheduler_tx::?relay (?__write)
                                                   scheulder_next_alarm::?relay (?__write)
                                                   send_sync::?relay (?__write)
                                                   setFreq::?relay (?__write)
                                                   srand::?relay (?srand)
                                                   start_mode_1::?relay (?__write)
                                                   start_mode_2::?relay (?__write)
                                                   stream_write::?relay (?__write)
                                                   strlen::?relay (?strlen)
                                                   syncronize_timer::?relay (?__write)
                                                   transmite::?relay (?__write)
                                                   uart_dma_init::?relay (?__write)
                                                   uart_init::?relay (?__write)
                                                   uart_putchar::?relay (?__write)
                                                   uart_recv_cmd::?relay (?__write)
                                                   uart_write::?relay (?__write)
                                                   upload_frame::?relay (?__write)
                                                   validate_sync::?relay (?__write)

    -------------------------------------------------------------------------
  LIBRARY MODULE, NAME : ?L_EQ_X

  SEGMENTS IN THE MODULE
  ======================
RCODE
  Relative segment, address: CODE 00000EE2 - 00000EF6 (0x15 bytes), align: 0
  Segment part 1.
           ENTRY                   ADDRESS         REF BY
           =====                   =======         ======
           ?L_EQ_X                 00000EE2        main (?__write)
                                                   validate_sync (?__write)

    -------------------------------------------------------------------------
  LIBRARY MODULE, NAME : ?SL_GE_X

  SEGMENTS IN THE MODULE
  ======================
RCODE
  Relative segment, address: CODE 00000EF7 - 00000F1C (0x26 bytes), align: 0
  Segment part 1.
           ENTRY                   ADDRESS         REF BY
           =====                   =======         ======
           ?SL_GE_X                00000EF7        _PrintfTiny (?xprintftiny)

    -------------------------------------------------------------------------
  LIBRARY MODULE, NAME : ?UL_GT

  SEGMENTS IN THE MODULE
  ======================
RCODE
  Relative segment, address: CODE 00000F1D - 00000F2C (0x10 bytes), align: 0
  Segment part 1.
           ENTRY                   ADDRESS         REF BY
           =====                   =======         ======
           ?UL_GT                  00000F1D        UST_delay (?__write)
                                                   UST_time_over (?__write)

    -------------------------------------------------------------------------
  LIBRARY MODULE, NAME : ?UL_GT_X

  SEGMENTS IN THE MODULE
  ======================
RCODE
  Relative segment, address: CODE 00000F2D - 00000F3C (0x10 bytes), align: 0
  Segment part 1.
           ENTRY                   ADDRESS         REF BY
           =====                   =======         ======
           ?UL_GT_X                00000F2D        AT_wait (?__write)
                                                   UST_delay (?__write)
                                                   mode_1_process (?__write)
                                                   mode_2_process (?__write)

    -------------------------------------------------------------------------
  LIBRARY MODULE, NAME : ?UL_GE_X

  SEGMENTS IN THE MODULE
  ======================
RCODE
  Relative segment, address: CODE 00000F3D - 00000F5B (0x1f bytes), align: 0
  Segment part 1.
           ENTRY                   ADDRESS         REF BY
           =====                   =======         ======
           ?UL_GE_X                00000F3D        UST_interval (?__write)
                                                   _interval (?__write)
                                                   calcCompareTime (?__write)

    -------------------------------------------------------------------------
  LIBRARY MODULE, NAME : ?L_TO_FLT

  SEGMENTS IN THE MODULE
  ======================
RCODE
  Relative segment, address: CODE 00000F5C - 00000FB8 (0x5d bytes), align: 0
  Segment part 3.
           ENTRY                   ADDRESS         REF BY
           =====                   =======         ======
           ?UL_TO_FLT              00000F5C        RI_Receive (?__write)
                                                   RI_Send (?__write)

    -------------------------------------------------------------------------
  LIBRARY MODULE, NAME : ?FLT_TEST_ZERO

  SEGMENTS IN THE MODULE
  ======================
RCODE
  Relative segment, address: CODE 00000FB9 - 00000FC1 (0x9 bytes), align: 0
  Segment part 1.
           ENTRY                   ADDRESS         REF BY
           =====                   =======         ======
           ?FLT_TEST_ZERO_REW      00000FB9        ?FLT_ADD (?FLT_ADD)

    -------------------------------------------------------------------------
  LIBRARY MODULE, NAME : ?FLT_TEST_ZERO_R1

  SEGMENTS IN THE MODULE
  ======================
RCODE
  Relative segment, address: CODE 00000FC2 - 00000FCA (0x9 bytes), align: 0
  Segment part 1.
           ENTRY                   ADDRESS         REF BY
           =====                   =======         ======
           ?FLT_TEST_ZERO_R1_REW   00000FC2        ?FLT_ADD (?FLT_ADD)

    -------------------------------------------------------------------------
  LIBRARY MODULE, NAME : ?FLT_TEST_INF

  SEGMENTS IN THE MODULE
  ======================
RCODE
  Relative segment, address: CODE 00000FCB - 00000FCD (0x3 bytes), align: 0
  Segment part 0.
           ENTRY                   ADDRESS         REF BY
           =====                   =======         ======
           ?FLT_TEST_INF_REW       00000FCB        ?FLT_ADD (?FLT_ADD)
    -------------------------------------------------------------------------
RCODE
  Relative segment, address: CODE 00000FCE - 00000FDE (0x11 bytes), align: 0
  Segment part 1.             Intra module refs:   ?FLT_TEST_INF_REW
           ENTRY                   ADDRESS         REF BY
           =====                   =======         ======
           ?FLT_TEST_INF           00000FCE 

    -------------------------------------------------------------------------
  LIBRARY MODULE, NAME : ?FLT_TEST_INF_R1

  SEGMENTS IN THE MODULE
  ======================
RCODE
  Relative segment, address: CODE 00000FDF - 00000FE1 (0x3 bytes), align: 0
  Segment part 0.
           ENTRY                   ADDRESS         REF BY
           =====                   =======         ======
           ?FLT_TEST_INF_R1_REW    00000FDF        ?FLT_ADD (?FLT_ADD)
    -------------------------------------------------------------------------
RCODE
  Relative segment, address: CODE 00000FE2 - 00000FF2 (0x11 bytes), align: 0
  Segment part 1.             Intra module refs:   ?FLT_TEST_INF_R1_REW
           ENTRY                   ADDRESS         REF BY
           =====                   =======         ======
           ?FLT_TEST_INF_R1        00000FE2 

    -------------------------------------------------------------------------
  LIBRARY MODULE, NAME : ?FLT_TEST_NAN

  SEGMENTS IN THE MODULE
  ======================
RCODE
  Relative segment, address: CODE 00000FF3 - 00001001 (0xf bytes), align: 0
  Segment part 1.
           ENTRY                   ADDRESS         REF BY
           =====                   =======         ======
           ?FLT_TEST_NAN           00000FF3        ?FLT_ADD (?FLT_ADD)

    -------------------------------------------------------------------------
  LIBRARY MODULE, NAME : ?FLT_TEST_NAN_R1

  SEGMENTS IN THE MODULE
  ======================
RCODE
  Relative segment, address: CODE 00001002 - 00001010 (0xf bytes), align: 0
  Segment part 1.
           ENTRY                   ADDRESS         REF BY
           =====                   =======         ======
           ?FLT_TEST_NAN_R1        00001002        ?FLT_ADD (?FLT_ADD)

    -------------------------------------------------------------------------
  LIBRARY MODULE, NAME : ?FLT_ADD

  SEGMENTS IN THE MODULE
  ======================
RCODE
  Relative segment, address: CODE 00001011 - 0000122A (0x21a bytes), align: 0
  Segment part 3.
           ENTRY                   ADDRESS         REF BY
           =====                   =======         ======
           ?FLT_ADD                00001011        RI_Receive (?__write)
                                                   RI_Send (?__write)

    -------------------------------------------------------------------------
  LIBRARY MODULE, NAME : ?L_MUL

  SEGMENTS IN THE MODULE
  ======================
RCODE
  Relative segment, address: CODE 0000122B - 0000122D (0x3 bytes), align: 0
  Segment part 0.
           ENTRY                   ADDRESS         REF BY
           =====                   =======         ======
           ?L_MUL                  0000122B        UST_delay (?__write)
                                                   UST_time_over (?__write)
                                                   rand (?rand)
    -------------------------------------------------------------------------
RCODE
  Relative segment, address: CODE 0000122E - 000012AA (0x7d bytes), align: 0
  Segment part 1.             Intra module refs:   ?L_MUL
           ENTRY                   ADDRESS         REF BY
           =====                   =======         ======
           ?L_MUL_REW              0000122E 

    -------------------------------------------------------------------------
  LIBRARY MODULE, NAME : ?UL_DIV_MOD

  SEGMENTS IN THE MODULE
  ======================
RCODE
  Relative segment, address: CODE 000012AB - 00001319 (0x6f bytes), align: 0
  Segment part 1.
           ENTRY                   ADDRESS         REF BY
           =====                   =======         ======
           ?UL_DIV_MOD             000012AB        _PrintfTiny (?xprintftiny)

    -------------------------------------------------------------------------
  LIBRARY MODULE, NAME : ?L_NEG

  SEGMENTS IN THE MODULE
  ======================
RCODE
  Relative segment, address: CODE 0000131A - 0000132A (0x11 bytes), align: 0
  Segment part 1.
           ENTRY                   ADDRESS         REF BY
           =====                   =======         ======
           ?L_NEG                  0000131A        _PrintfTiny (?xprintftiny)

    -------------------------------------------------------------------------
  LIBRARY MODULE, NAME : ?UL_SHR

  SEGMENTS IN THE MODULE
  ======================
RCODE
  Relative segment, address: CODE 0000132B - 0000132F (0x5 bytes), align: 0
  Segment part 1.             Intra module refs:   Segment part 2
           ENTRY                   ADDRESS         REF BY
           =====                   =======         ======
           ?UL_SHR                 0000132B        UST_interval (?__write)
                                                   rand (?rand)
    -------------------------------------------------------------------------
RCODE
  Relative segment, address: CODE 00001330 - 00001343 (0x14 bytes), align: 0
  Segment part 2.             Intra module refs:   ?UL_SHR

    -------------------------------------------------------------------------
  LIBRARY MODULE, NAME : ?L_ADD

  SEGMENTS IN THE MODULE
  ======================
RCODE
  Relative segment, address: CODE 00001344 - 00001356 (0x13 bytes), align: 0
  Segment part 1.
           ENTRY                   ADDRESS         REF BY
           =====                   =======         ======
           ?L_ADD                  00001344        AT_time (?__write)
                                                   UST_interval (?__write)
                                                   _interval (?__write)

    -------------------------------------------------------------------------
  LIBRARY MODULE, NAME : ?L_ADD_X

  SEGMENTS IN THE MODULE
  ======================
RCODE
  Relative segment, address: CODE 00001357 - 00001369 (0x13 bytes), align: 0
  Segment part 1.
           ENTRY                   ADDRESS         REF BY
           =====                   =======         ======
           ?L_ADD_X                00001357        DelayCalibrate (?__write)
                                                   UST_delay (?__write)
                                                   UST_time_over (?__write)
                                                   mode_2_process (?__write)
                                                   rand (?rand)

    -------------------------------------------------------------------------
  LIBRARY MODULE, NAME : ?L_ADD_TO_X

  SEGMENTS IN THE MODULE
  ======================
RCODE
  Relative segment, address: CODE 0000136A - 0000137C (0x13 bytes), align: 0
  Segment part 1.
           ENTRY                   ADDRESS         REF BY
           =====                   =======         ======
           ?L_ADD_TO_X             0000136A        AT_wait (?__write)
                                                   Hot_Start (?__write)
                                                   RI_Receive (?__write)
                                                   RI_Send (?__write)
                                                   calcCompareTime (?__write)
                                                   mode_1_receive_process (?__write)

    -------------------------------------------------------------------------
  LIBRARY MODULE, NAME : ?L_SUB_X

  SEGMENTS IN THE MODULE
  ======================
RCODE
  Relative segment, address: CODE 0000137D - 00001394 (0x18 bytes), align: 0
  Segment part 1.
           ENTRY                   ADDRESS         REF BY
           =====                   =======         ======
           ?L_SUB_X                0000137D        UST_delay (?__write)
                                                   UST_interval (?__write)
                                                   _interval (?__write)

    -------------------------------------------------------------------------
  LIBRARY MODULE, NAME : ?L_AND_X

  SEGMENTS IN THE MODULE
  ======================
RCODE
  Relative segment, address: CODE 00001395 - 000013A7 (0x13 bytes), align: 0
  Segment part 1.
           ENTRY                   ADDRESS         REF BY
           =====                   =======         ======
           ?L_AND_X                00001395        AT_time (?__write)
                                                   _PrintfTiny (?xprintftiny)
                                                   calcCompareTime (?__write)

    -------------------------------------------------------------------------
  LIBRARY MODULE, NAME : ?L_AND_TO_X

  SEGMENTS IN THE MODULE
  ======================
RCODE
  Relative segment, address: CODE 000013A8 - 000013BA (0x13 bytes), align: 0
  Segment part 1.
           ENTRY                   ADDRESS         REF BY
           =====                   =======         ======
           ?L_AND_TO_X             000013A8        AT_wait (?__write)
                                                   calcCompareTime (?__write)

    -------------------------------------------------------------------------
  LIBRARY MODULE, NAME : ?L_IOR_TO_X

  SEGMENTS IN THE MODULE
  ======================
RCODE
  Relative segment, address: CODE 000013BB - 000013CD (0x13 bytes), align: 0
  Segment part 1.
           ENTRY                   ADDRESS         REF BY
           =====                   =======         ======
           ?L_IOR_TO_X             000013BB        calcCompareTime (?__write)

    -------------------------------------------------------------------------
  LIBRARY MODULE, NAME : ?L_MOV_X

  SEGMENTS IN THE MODULE
  ======================
RCODE
  Relative segment, address: CODE 000013CE - 000013DC (0xf bytes), align: 0
  Segment part 0.
           ENTRY                   ADDRESS         REF BY
           =====                   =======         ======
           ?L_MOV_X                000013CE        AT_set_time (?__write)
                                                   AT_wait (?__write)
                                                   Hot_Start (?__write)
                                                   RI_Receive (?__write)
                                                   RI_Send (?__write)
                                                   UST_delay (?__write)
                                                   UST_interval (?__write)
                                                   UST_time_over (?__write)
                                                   _PrintfTiny (?xprintftiny)
                                                   _interval (?__write)
                                                   calcCompareTime (?__write)
                                                   main (?__write)
                                                   mode_1_process (?__write)
                                                   mode_1_receive_process (?__write)
                                                   mode_2_process (?__write)
                                                   rand (?rand)
                                                   validate_sync (?__write)

    -------------------------------------------------------------------------
  LIBRARY MODULE, NAME : ?L_MOV_TO_X

  SEGMENTS IN THE MODULE
  ======================
RCODE
  Relative segment, address: CODE 000013DD - 000013EB (0xf bytes), align: 0
  Segment part 2.
           ENTRY                   ADDRESS         REF BY
           =====                   =======         ======
           ?L_MOV_TO_X             000013DD        DelayCalibrate (?__write)
                                                   RI_Receive (?__write)
                                                   RI_Send (?__write)
                                                   UST_delay (?__write)
                                                   UST_interval (?__write)
                                                   _PrintfTiny (?xprintftiny)
                                                   _interval (?__write)
                                                   calcCompareTime (?__write)
                                                   loadTimerCompare (?__write)
                                                   mode_2_process (?__write)
                                                   rand (?rand)
                                                   srand (?srand)

    -------------------------------------------------------------------------
  LIBRARY MODULE, NAME : ?XLOAD_R2345

  SEGMENTS IN THE MODULE
  ======================
RCODE
  Relative segment, address: CODE 000013EC - 000013F7 (0xc bytes), align: 0
  Segment part 0.
           ENTRY                   ADDRESS         REF BY
           =====                   =======         ======
           ?XLOAD_R2345            000013EC        DelayCalibrate (?__write)
                                                   RI_Receive (?__write)
                                                   RI_Send (?__write)
                                                   ReadTimer (?__write)
                                                   RecvData (?__write)
                                                   UST_interval (?__write)
                                                   UST_now (?__write)
                                                   _interval (?__write)
                                                   calcCompareTime (?__write)

    -------------------------------------------------------------------------
  LIBRARY MODULE, NAME : ?XSTORE_R2345

  SEGMENTS IN THE MODULE
  ======================
RCODE
  Relative segment, address: CODE 000013F8 - 00001403 (0xc bytes), align: 0
  Segment part 0.
           ENTRY                   ADDRESS         REF BY
           =====                   =======         ======
           ?XSTORE_R2345           000013F8        DelayCalibrate (?__write)
                                                   RI_Receive (?__write)
                                                   RI_Send (?__write)
                                                   UST_delay (?__write)

    -------------------------------------------------------------------------
  LIBRARY MODULE, NAME : ?XLOAD_R4567

  SEGMENTS IN THE MODULE
  ======================
RCODE
  Relative segment, address: CODE 00001404 - 0000140F (0xc bytes), align: 0
  Segment part 0.
           ENTRY                   ADDRESS         REF BY
           =====                   =======         ======
           ?XLOAD_R4567            00001404        accept_sync_data (?__write)
                                                   rand (?rand)

    -------------------------------------------------------------------------
  LIBRARY MODULE, NAME : ?XSTORE_R4567

  SEGMENTS IN THE MODULE
  ======================
RCODE
  Relative segment, address: CODE 00001410 - 0000141B (0xc bytes), align: 0
  Segment part 0.
           ENTRY                   ADDRESS         REF BY
           =====                   =======         ======
           ?XSTORE_R4567           00001410        accept_sync_data (?__write)
                                                   rand (?rand)

    -------------------------------------------------------------------------
  LIBRARY MODULE, NAME : ?XLOAD_R0123

  SEGMENTS IN THE MODULE
  ======================
RCODE
  Relative segment, address: CODE 0000141C - 00001427 (0xc bytes), align: 0
  Segment part 0.
           ENTRY                   ADDRESS         REF BY
           =====                   =======         ======
           ?XLOAD_R0123            0000141C        RI_Receive (?__write)
                                                   RI_Send (?__write)
                                                   UST_delay (?__write)
                                                   _PrintfTiny (?xprintftiny)
                                                   cmd_0x02 (?__write)
                                                   rand (?rand)
                                                   send_sync (?__write)

    -------------------------------------------------------------------------
  LIBRARY MODULE, NAME : ?XSTORE_R0123

  SEGMENTS IN THE MODULE
  ======================
RCODE
  Relative segment, address: CODE 00001428 - 00001433 (0xc bytes), align: 0
  Segment part 0.
           ENTRY                   ADDRESS         REF BY
           =====                   =======         ======
           ?XSTORE_R0123           00001428        RI_Receive (?__write)
                                                   RI_Send (?__write)
                                                   RecvData (?__write)
                                                   UST_delay (?__write)
                                                   cmd_0x02 (?__write)
                                                   rand (?rand)
                                                   send_sync (?__write)

    -------------------------------------------------------------------------
  LIBRARY MODULE, NAME : ?MOVE_LONG8_XDATA_IDATA

  SEGMENTS IN THE MODULE
  ======================
RCODE
  Relative segment, address: CODE 00001434 - 00001440 (0xd bytes), align: 0
  Segment part 0.
           ENTRY                   ADDRESS         REF BY
           =====                   =======         ======
           ?MOVE_LONG8_XDATA_IDATA
                                   00001434        ?PUSH_XSTACK_I (?PUSH_XSTACK_I)

    -------------------------------------------------------------------------
  LIBRARY MODULE, NAME : ?MOVE_LONG8_XDATA_XDATA

  SEGMENTS IN THE MODULE
  ======================
RCODE
  Relative segment, address: CODE 00001441 - 00001461 (0x21 bytes), align: 0
  Segment part 0.
           ENTRY                   ADDRESS         REF BY
           =====                   =======         ======
           ?MOVE_LONG8_XDATA_XDATA
                                   00001441        ?PUSH_XSTACK8_X (?PUSH_XSTACK8_X)
                                                   SL_alloc (?__write)
                                                   SW_Init (?__write)
                                                   cmd_0x0B (?__write)

    -------------------------------------------------------------------------
  LIBRARY MODULE, NAME : ?SETJMP_XDATA

  SEGMENTS IN THE MODULE
  ======================
RCODE
  Relative segment, address: CODE 00001462 - 000014AF (0x4e bytes), align: 0
  Segment part 0.
           ENTRY                   ADDRESS         REF BY
           =====                   =======         ======
           ?SETJMP_XDATA           00001462        RecvData (?__write)
                                                   SendData (?__write)
                                                   recv_sync (?__write)

    -------------------------------------------------------------------------
  LIBRARY MODULE, NAME : ?LONGJMP_XDATA

  SEGMENTS IN THE MODULE
  ======================
RCODE
  Relative segment, address: CODE 000014B0 - 00001503 (0x54 bytes), align: 0
  Segment part 0.
           ENTRY                   ADDRESS         REF BY
           =====                   =======         ======
           ?LONGJMP_XDATA          000014B0        RecvData (?__write)
                                                   SendData (?__write)
                                                   recv_sync (?__write)

    -------------------------------------------------------------------------
  LIBRARY MODULE, NAME : ?S_DIV_MOD

  SEGMENTS IN THE MODULE
  ======================
RCODE
  Relative segment, address: CODE 00001504 - 00001544 (0x41 bytes), align: 0
  Segment part 0.
           ENTRY                   ADDRESS         REF BY
           =====                   =======         ======
           ?S_DIV_MOD              0000153D        _throw_dice (?__write)
    -------------------------------------------------------------------------
RCODE
  Relative segment, address: CODE 00001545 - 0000159D (0x59 bytes), align: 0
  Segment part 1.             Intra module refs:   ?S_DIV_MOD
           ENTRY                   ADDRESS         REF BY
           =====                   =======         ======
           ?US_DIV_MOD             00001545        TM_IRQ (?__write)
                                                   array_index (?__write)
                                                   is_array_ptr (?__write)
                                                   scheulder_next_alarm (?__write)

    -------------------------------------------------------------------------
  LIBRARY MODULE, NAME : ?S_SHL

  SEGMENTS IN THE MODULE
  ======================
RCODE
  Relative segment, address: CODE 0000159E - 000015A0 (0x3 bytes), align: 0
  Segment part 0.
           ENTRY                   ADDRESS         REF BY
           =====                   =======         ======
           ?S_SHL                  0000159E        rand (?rand)
    -------------------------------------------------------------------------
RCODE
  Relative segment, address: CODE 000015A1 - 000015A3 (0x3 bytes), align: 0
  Segment part 1.             Intra module refs:   Segment part 2
           ENTRY                   ADDRESS         REF BY
           =====                   =======         ======
           ?S_SHL_REW              000015A1 
    -------------------------------------------------------------------------
RCODE
  Relative segment, address: CODE 000015A4 - 000015B0 (0xd bytes), align: 0
  Segment part 2.             Intra module refs:   ?S_SHL
                                                   ?S_SHL_REW

    -------------------------------------------------------------------------
  LIBRARY MODULE, NAME : ?ALLOC_XSTACK8

  SEGMENTS IN THE MODULE
  ======================
RCODE
  Relative segment, address: CODE 000015B1 - 000015C6 (0x16 bytes), align: 0
  Segment part 0.
           ENTRY                   ADDRESS         REF BY
           =====                   =======         ======
           ?ALLOC_XSTACK8          000015B1        AES_StreamCoder (?__write)
                                                   DelayCalibrate (?__write)
                                                   FR_add_header (?__write)
                                                   HW_Init (?__write)
                                                   RI_Receive (?__write)
                                                   RI_Send (?__write)
                                                   RecvData (?__write)
                                                   SL_alloc (?__write)
                                                   SW_Init (?__write)
                                                   SendData (?__write)
                                                   UST_delay (?__write)
                                                   UST_interval (?__write)
                                                   UST_now (?__write)
                                                   UST_time_over (?__write)
                                                   _PrintfTiny (?xprintftiny)
                                                   __exit (?__exit)
                                                   _interval (?__write)
                                                   calcCompareTime (?__write)
                                                   cmd_0x00 (?__write)
                                                   cmd_0x09 (?__write)
                                                   cmd_0x0A (?__write)
                                                   cmd_0x0B (?__write)
                                                   cmd_0x0D (?__write)
                                                   cmd_answer (?__write)
                                                   cmd_answer_err (?__write)
                                                   loadTimerCompare (?__write)
                                                   parse_uart_stream (?__write)
                                                   printf (?printf)
                                                   putchar (?putchar)
                                                   recv_sync (?__write)
                                                   send_sync (?__write)
                                                   setFreq (?__write)
                                                   stream_write (?__write)

    -------------------------------------------------------------------------
  LIBRARY MODULE, NAME : ?DEALLOC_XSTACK8

  SEGMENTS IN THE MODULE
  ======================
RCODE
  Relative segment, address: CODE 000015C7 - 000015E1 (0x1b bytes), align: 0
  Segment part 0.
           ENTRY                   ADDRESS         REF BY
           =====                   =======         ======
           ?DEALLOC_XSTACK8        000015C7        AES_StreamCoder (?__write)
                                                   AM_Callback (?__write)
                                                   AM_Cold_start (?__write)
                                                   AM_HW_Init (?__write)
                                                   AM_Hot_start (?__write)
                                                   AM_SW_Init (?__write)
                                                   AT_set_alarm (?__write)
                                                   AT_set_time (?__write)
                                                   AT_wait (?__write)
                                                   DelayCalibrate (?__write)
                                                   FR_add_header (?__write)
                                                   HW_Init (?__write)
                                                   Hot_Start (?__write)
                                                   LLC_close_slot (?__write)
                                                   LLC_open_slot (?__write)
                                                   Neocore_start (?__write)
                                                   RI_Receive (?__write)
                                                   RI_Send (?__write)
                                                   RecvData (?__write)
                                                   SL_alloc (?__write)
                                                   SW_Init (?__write)
                                                   SendData (?__write)
                                                   TM_ClrAlarm (?__write)
                                                   TM_SetAlarm (?__write)
                                                   UST_delay (?__write)
                                                   UST_interval (?__write)
                                                   UST_now (?__write)
                                                   UST_time_over (?__write)
                                                   _PrintfTiny (?xprintftiny)
                                                   __list_add (?__write)
                                                   _free (?__write)
                                                   _interval (?__write)
                                                   _push (?__write)
                                                   calcCompareTime (?__write)
                                                   cmd_0x00 (?__write)
                                                   cmd_0x01 (?__write)
                                                   cmd_0x03 (?__write)
                                                   cmd_0x04 (?__write)
                                                   cmd_0x05 (?__write)
                                                   cmd_0x06 (?__write)
                                                   cmd_0x07 (?__write)
                                                   cmd_0x08 (?__write)
                                                   cmd_0x09 (?__write)
                                                   cmd_0x0A (?__write)
                                                   cmd_0x0B (?__write)
                                                   cmd_0x0C (?__write)
                                                   cmd_0x0D (?__write)
                                                   cmd_0x0E (?__write)
                                                   cmd_0x0F (?__write)
                                                   cmd_0x10 (?__write)
                                                   cmd_answer (?__write)
                                                   cmd_answer_err (?__write)
                                                   list_add (?__write)
                                                   loadTimerCompare (?__write)
                                                   main (?__write)
                                                   pre_init (?__write)
                                                   printf (?printf)
                                                   putchar (?putchar)
                                                   receive (?__write)
                                                   recv_sync (?__write)
                                                   scan_tx_buffer_by_ts (?__write)
                                                   scheduler_rx (?__write)
                                                   scheduler_tx (?__write)
                                                   send_sync (?__write)
                                                   setFreq (?__write)
                                                   stream_write (?__write)

    -------------------------------------------------------------------------
  LIBRARY MODULE, NAME : ?ADD_XSTACK_DISP8

  SEGMENTS IN THE MODULE
  ======================
RCODE
  Relative segment, address: CODE 000015E2 - 000015FC (0x1b bytes), align: 0
  Segment part 1.
           ENTRY                   ADDRESS         REF BY
           =====                   =======         ======
           ?ADD_XSTACK_DISP0_8     000015E2        ?PUSH_XSTACK_I (?PUSH_XSTACK_I)

    -------------------------------------------------------------------------
  LIBRARY MODULE, NAME : ?XSTACK_DISP8

  SEGMENTS IN THE MODULE
  ======================
RCODE
  Relative segment, address: CODE 000015FD - 00001606 (0xa bytes), align: 0
  Segment part 1.
           ENTRY                   ADDRESS         REF BY
           =====                   =======         ======
           ?XSTACK_DISP0_8         000015FD        AES_StreamCoder (?__write)
                                                   DelayCalibrate (?__write)
                                                   FR_add_header (?__write)
                                                   RI_Measure_POW (?__write)
                                                   RI_Receive (?__write)
                                                   RI_Send (?__write)
                                                   RecvData (?__write)
                                                   UST_delay (?__write)
                                                   UST_interval (?__write)
                                                   UST_now (?__write)
                                                   UST_time_over (?__write)
                                                   _PrintfTiny (?xprintftiny)
                                                   __list_add (?__write)
                                                   __write (?__write)
                                                   _interval (?__write)
                                                   array_index (?__write)
                                                   calcCompareTime (?__write)
                                                   cmd_0x0B (?__write)
                                                   cmd_answer (?__write)
                                                   cmd_answer_err (?__write)
                                                   is_array_ptr (?__write)
                                                   loadTimerCompare (?__write)
                                                   memcpy (?memcpy)
                                                   out (?xprintftiny)
                                                   send_sync (?__write)
                                                   stream_write (?__write)

    -------------------------------------------------------------------------
  LIBRARY MODULE, NAME : ?XSTACK_DISP8_RP

  SEGMENTS IN THE MODULE
  ======================
RCODE
  Relative segment, address: CODE 00001607 - 0000160E (0x8 bytes), align: 0
  Segment part 0.
           ENTRY                   ADDRESS         REF BY
           =====                   =======         ======
           ?XSTACK_DISP100_8       00001607        RI_Receive (?__write)
                                                   _PrintfTiny (?xprintftiny)
                                                   printf (?printf)
    -------------------------------------------------------------------------
RCODE
  Relative segment, address: CODE 0000160F - 00001616 (0x8 bytes), align: 0
  Segment part 1.
           ENTRY                   ADDRESS         REF BY
           =====                   =======         ======
           ?XSTACK_DISP101_8       0000160F        AES_StreamCoder (?__write)
                                                   FR_add_header (?__write)
                                                   stream_write (?__write)
    -------------------------------------------------------------------------
RCODE
  Relative segment, address: CODE 00001617 - 0000161E (0x8 bytes), align: 0
  Segment part 2.
           ENTRY                   ADDRESS         REF BY
           =====                   =======         ======
           ?XSTACK_DISP102_8       00001617        AES_StreamCoder (?__write)
                                                   putchar (?putchar)

    -------------------------------------------------------------------------
  LIBRARY MODULE, NAME : ?CALL_IND

  SEGMENTS IN THE MODULE
  ======================
RCODE
  Relative segment, address: CODE 0000161F - 00001620 (0x2 bytes), align: 0
  Segment part 0.
           ENTRY                   ADDRESS         REF BY
           =====                   =======         ======
           ?CALL_IND               0000161F        AM_Callback (?__write)
                                                   AM_Cold_start (?__write)
                                                   AM_HW_Init (?__write)
                                                   AM_Hot_start (?__write)
                                                   AM_SW_Init (?__write)
                                                   out (?xprintftiny)
                                                   parse_uart_stream (?__write)
                                                   rand (?rand)
                                                   srand (?srand)

    -------------------------------------------------------------------------
  LIBRARY MODULE, NAME : ?BANKED_ENTER_XDATA

  SEGMENTS IN THE MODULE
  ======================
RCODE
  Relative segment, address: CODE 00001621 - 0000168C (0x6c bytes), align: 0
  Segment part 1.
           ENTRY                   ADDRESS         REF BY
           =====                   =======         ======
           ?BANKED_ENTER_XDATA     00001621        AES_StreamCoder (?__write)
                                                   AM_Callback (?__write)
                                                   AM_Cold_start (?__write)
                                                   AM_HW_Init (?__write)
                                                   AM_Hot_start (?__write)
                                                   AM_SW_Init (?__write)
                                                   AT_enable (?__write)
                                                   AT_set_alarm (?__write)
                                                   AT_set_time (?__write)
                                                   AT_time (?__write)
                                                   AT_wait (?__write)
                                                   BF_cursor_next (?__write)
                                                   BF_cursor_rx (?__write)
                                                   BF_cursor_tx (?__write)
                                                   BF_push_rx (?__write)
                                                   BF_push_tx (?__write)
                                                   BF_remove (?__write)
                                                   DelayCalibrate (?__write)
                                                   FR_add_header (?__write)
                                                   FR_delete (?__write)
                                                   Hot_Start (?__write)
                                                   LLC_close_slot (?__write)
                                                   LLC_open_slot (?__write)
                                                   Neocore_start (?__write)
                                                   RI_Measure_POW (?__write)
                                                   RI_Receive (?__write)
                                                   RI_Send (?__write)
                                                   RecvData (?__write)
                                                   SL_alloc (?__write)
                                                   SL_free (?__write)
                                                   SW_Init (?__write)
                                                   SendData (?__write)
                                                   TM_ClrAlarm (?__write)
                                                   TM_IRQ (?__write)
                                                   TM_SetAlarm (?__write)
                                                   UST_delay (?__write)
                                                   UST_interval (?__write)
                                                   UST_time_over (?__write)
                                                   _PrintfTiny (?xprintftiny)
                                                   _Prout (?xprout)
                                                   __exit (?__exit)
                                                   __list_add (?__write)
                                                   __list_del_entry (?__write)
                                                   __write (?__write)
                                                   _find_next_active (?__write)
                                                   _free (?__write)
                                                   _interval (?__write)
                                                   _push (?__write)
                                                   _throw_dice (?__write)
                                                   accept_sync_data (?__write)
                                                   array_index (?__write)
                                                   calcCompareTime (?__write)
                                                   cmd_0x00 (?__write)
                                                   cmd_0x01 (?__write)
                                                   cmd_0x02 (?__write)
                                                   cmd_0x03 (?__write)
                                                   cmd_0x04 (?__write)
                                                   cmd_0x05 (?__write)
                                                   cmd_0x06 (?__write)
                                                   cmd_0x07 (?__write)
                                                   cmd_0x08 (?__write)
                                                   cmd_0x09 (?__write)
                                                   cmd_0x0A (?__write)
                                                   cmd_0x0B (?__write)
                                                   cmd_0x0C (?__write)
                                                   cmd_0x0D (?__write)
                                                   cmd_0x0E (?__write)
                                                   cmd_0x0F (?__write)
                                                   cmd_0x10 (?__write)
                                                   cmd_answer (?__write)
                                                   cmd_answer_err (?__write)
                                                   com_uart_init (?__write)
                                                   crc16 (?__write)
                                                   find_free_node (?__write)
                                                   is_array_ptr (?__write)
                                                   list_add (?__write)
                                                   list_del (?__write)
                                                   loadTimerCompare (?__write)
                                                   mem_move (?__write)
                                                   memcpy (?memcpy)
                                                   mode_1_process (?__write)
                                                   mode_1_receive_process (?__write)
                                                   mode_2_process (?__write)
                                                   out (?xprintftiny)
                                                   parse_uart_stream (?__write)
                                                   pre_init (?__write)
                                                   printf (?printf)
                                                   putchar (?putchar)
                                                   rand (?rand)
                                                   random_core_init (?__write)
                                                   readRandom (?__write)
                                                   receive (?__write)
                                                   recv_sync (?__write)
                                                   scan_tx_buffer_by_ts (?__write)
                                                   scheduler_rx (?__write)
                                                   scheduler_tx (?__write)
                                                   scheulder_next_alarm (?__write)
                                                   send_sync (?__write)
                                                   setFreq (?__write)
                                                   srand (?srand)
                                                   stream_write (?__write)
                                                   syncronize_timer (?__write)
                                                   transmite (?__write)
                                                   uart_write (?__write)
                                                   upload_frame (?__write)
                                                   validate_sync (?__write)

    -------------------------------------------------------------------------
  LIBRARY MODULE, NAME : ?BANKED_LEAVE_XDATA

  SEGMENTS IN THE MODULE
  ======================
RCODE
  Relative segment, address: CODE 0000168D - 000016D2 (0x46 bytes), align: 0
  Segment part 1.
           ENTRY                   ADDRESS         REF BY
           =====                   =======         ======
           ?BANKED_LEAVE_XDATA     0000168D        AES_StreamCoder (?__write)
                                                   AM_Callback (?__write)
                                                   AM_Cold_start (?__write)
                                                   AM_HW_Init (?__write)
                                                   AM_Hot_start (?__write)
                                                   AM_SW_Init (?__write)
                                                   AT_enable (?__write)
                                                   AT_set_alarm (?__write)
                                                   AT_set_time (?__write)
                                                   AT_time (?__write)
                                                   AT_wait (?__write)
                                                   BF_cursor_next (?__write)
                                                   BF_cursor_rx (?__write)
                                                   BF_cursor_tx (?__write)
                                                   BF_push_rx (?__write)
                                                   BF_push_tx (?__write)
                                                   BF_remove (?__write)
                                                   DelayCalibrate (?__write)
                                                   FR_add_header (?__write)
                                                   FR_delete (?__write)
                                                   Hot_Start (?__write)
                                                   LLC_close_slot (?__write)
                                                   LLC_open_slot (?__write)
                                                   Neocore_start (?__write)
                                                   RI_Measure_POW (?__write)
                                                   RI_Receive (?__write)
                                                   RI_Send (?__write)
                                                   RecvData (?__write)
                                                   SL_alloc (?__write)
                                                   SL_free (?__write)
                                                   SW_Init (?__write)
                                                   SendData (?__write)
                                                   TM_ClrAlarm (?__write)
                                                   TM_IRQ (?__write)
                                                   TM_SetAlarm (?__write)
                                                   UST_delay (?__write)
                                                   UST_interval (?__write)
                                                   UST_time_over (?__write)
                                                   _PrintfTiny (?xprintftiny)
                                                   _Prout (?xprout)
                                                   __list_add (?__write)
                                                   __list_del_entry (?__write)
                                                   __write (?__write)
                                                   _find_next_active (?__write)
                                                   _free (?__write)
                                                   _interval (?__write)
                                                   _push (?__write)
                                                   _throw_dice (?__write)
                                                   accept_sync_data (?__write)
                                                   array_index (?__write)
                                                   calcCompareTime (?__write)
                                                   cmd_0x00 (?__write)
                                                   cmd_0x01 (?__write)
                                                   cmd_0x02 (?__write)
                                                   cmd_0x03 (?__write)
                                                   cmd_0x04 (?__write)
                                                   cmd_0x05 (?__write)
                                                   cmd_0x06 (?__write)
                                                   cmd_0x07 (?__write)
                                                   cmd_0x08 (?__write)
                                                   cmd_0x09 (?__write)
                                                   cmd_0x0A (?__write)
                                                   cmd_0x0B (?__write)
                                                   cmd_0x0C (?__write)
                                                   cmd_0x0D (?__write)
                                                   cmd_0x0E (?__write)
                                                   cmd_0x0F (?__write)
                                                   cmd_0x10 (?__write)
                                                   cmd_answer (?__write)
                                                   cmd_answer_err (?__write)
                                                   com_uart_init (?__write)
                                                   crc16 (?__write)
                                                   find_free_node (?__write)
                                                   is_array_ptr (?__write)
                                                   list_add (?__write)
                                                   list_del (?__write)
                                                   loadTimerCompare (?__write)
                                                   mem_move (?__write)
                                                   memcpy (?memcpy)
                                                   mode_1_process (?__write)
                                                   mode_1_receive_process (?__write)
                                                   mode_2_process (?__write)
                                                   out (?xprintftiny)
                                                   pre_init (?__write)
                                                   printf (?printf)
                                                   putchar (?putchar)
                                                   rand (?rand)
                                                   random_core_init (?__write)
                                                   readRandom (?__write)
                                                   receive (?__write)
                                                   recv_sync (?__write)
                                                   scan_tx_buffer_by_ts (?__write)
                                                   scheduler_rx (?__write)
                                                   scheduler_tx (?__write)
                                                   scheulder_next_alarm (?__write)
                                                   send_sync (?__write)
                                                   setFreq (?__write)
                                                   srand (?srand)
                                                   stream_write (?__write)
                                                   syncronize_timer (?__write)
                                                   transmite (?__write)
                                                   uart_write (?__write)
                                                   upload_frame (?__write)
                                                   validate_sync (?__write)

    -------------------------------------------------------------------------
  LIBRARY MODULE, NAME : ?INTERRUPT_ENTER_XSP

  SEGMENTS IN THE MODULE
  ======================
RCODE
  Relative segment, address: CODE 000016D3 - 00001731 (0x5f bytes), align: 0
  Segment part 1.
           ENTRY                   ADDRESS         REF BY
           =====                   =======         ======
           ?INTERRUPT_ENTER_XSP    000016D3        TimerCompareInterrupt (?__write)

    -------------------------------------------------------------------------
  LIBRARY MODULE, NAME : ?INTERRUPT_LEAVE_XSP

  SEGMENTS IN THE MODULE
  ======================
RCODE
  Relative segment, address: CODE 00001732 - 00001789 (0x58 bytes), align: 0
  Segment part 1.
           ENTRY                   ADDRESS         REF BY
           =====                   =======         ======
           ?INTERRUPT_LEAVE_XSP    00001732        TimerCompareInterrupt (?__write)

    -------------------------------------------------------------------------
  LIBRARY MODULE, NAME : ?PUSH_XSTACK_I

  SEGMENTS IN THE MODULE
  ======================
RCODE
  Relative segment, address: CODE 0000178A - 0000178D (0x4 bytes), align: 0
  Segment part 0.
           ENTRY                   ADDRESS         REF BY
           =====                   =======         ======
           ?PUSH_XSTACK_I_FOUR     0000178A        DelayCalibrate (?__write)
                                                   RecvData (?__write)
    -------------------------------------------------------------------------
RCODE
  Relative segment, address: CODE 0000178E - 00001791 (0x4 bytes), align: 0
  Segment part 2.
           ENTRY                   ADDRESS         REF BY
           =====                   =======         ======
           ?PUSH_XSTACK_I_TWO      0000178E        AES_StreamCoder (?__write)
                                                   AM_Callback (?__write)
                                                   AM_Cold_start (?__write)
                                                   AM_HW_Init (?__write)
                                                   AM_Hot_start (?__write)
                                                   AM_SW_Init (?__write)
                                                   AT_set_alarm (?__write)
                                                   AT_set_time (?__write)
                                                   AT_wait (?__write)
                                                   Hot_Start (?__write)
                                                   LLC_close_slot (?__write)
                                                   LLC_open_slot (?__write)
                                                   Neocore_start (?__write)
                                                   RI_Receive (?__write)
                                                   RI_Send (?__write)
                                                   TM_ClrAlarm (?__write)
                                                   TM_SetAlarm (?__write)
                                                   _PrintfTiny (?xprintftiny)
                                                   __list_add (?__write)
                                                   _free (?__write)
                                                   _push (?__write)
                                                   cmd_0x00 (?__write)
                                                   cmd_0x01 (?__write)
                                                   cmd_0x03 (?__write)
                                                   cmd_0x04 (?__write)
                                                   cmd_0x05 (?__write)
                                                   cmd_0x06 (?__write)
                                                   cmd_0x07 (?__write)
                                                   cmd_0x08 (?__write)
                                                   cmd_0x09 (?__write)
                                                   cmd_0x0A (?__write)
                                                   cmd_0x0B (?__write)
                                                   cmd_0x0C (?__write)
                                                   cmd_0x0D (?__write)
                                                   cmd_0x0E (?__write)
                                                   cmd_0x0F (?__write)
                                                   cmd_0x10 (?__write)
                                                   main (?__write)
                                                   pre_init (?__write)
                                                   printf (?printf)
                                                   putchar (?putchar)
                                                   receive (?__write)
                                                   recv_sync (?__write)
                                                   scan_tx_buffer_by_ts (?__write)
                                                   scheduler_rx (?__write)
                                                   scheduler_tx (?__write)
                                                   send_sync (?__write)
                                                   setFreq (?__write)
                                                   stream_write (?__write)
    -------------------------------------------------------------------------
RCODE
  Relative segment, address: CODE 00001792 - 0000179E (0xd bytes), align: 0
  Segment part 4.             Intra module refs:   ?PUSH_XSTACK_I_FOUR
                                                   ?PUSH_XSTACK_I_TWO
           ENTRY                   ADDRESS         REF BY
           =====                   =======         ======
           ?PUSH_XSTACK_I          00001792 

    -------------------------------------------------------------------------
  LIBRARY MODULE, NAME : ?PUSH_XSTACK8_X

  SEGMENTS IN THE MODULE
  ======================
RCODE
  Relative segment, address: CODE 0000179F - 000017A2 (0x4 bytes), align: 0
  Segment part 1.
           ENTRY                   ADDRESS         REF BY
           =====                   =======         ======
           ?PUSH_XSTACK8_X_FOUR    0000179F        RI_Receive (?__write)
                                                   RI_Send (?__write)
                                                   main (?__write)
    -------------------------------------------------------------------------
RCODE
  Relative segment, address: CODE 000017A3 - 000017A6 (0x4 bytes), align: 0
  Segment part 3.
           ENTRY                   ADDRESS         REF BY
           =====                   =======         ======
           ?PUSH_XSTACK8_X_TWO     000017A3        _PrintfTiny (?xprintftiny)
                                                   list_add (?__write)
    -------------------------------------------------------------------------
RCODE
  Relative segment, address: CODE 000017A7 - 000017CF (0x29 bytes), align: 0
  Segment part 5.             Intra module refs:   ?PUSH_XSTACK8_X_FOUR
                                                   ?PUSH_XSTACK8_X_TWO
           ENTRY                   ADDRESS         REF BY
           =====                   =======         ======
           ?PUSH_XSTACK8_X         000017A7 

    -------------------------------------------------------------------------
  LIBRARY MODULE, NAME : ?US_SWITCH_DENSE

  SEGMENTS IN THE MODULE
  ======================
RCODE
  Relative segment, address: CODE 000017D0 - 000017D6 (0x7 bytes), align: 0
  Segment part 0.
           ENTRY                   ADDRESS         REF BY
           =====                   =======         ======
           ?US_SWITCH_DENSE        000017D0        RecvData (?__write)
                                                   SendData (?__write)
                                                   recv_sync (?__write)
           ?US_SD_CFI_INV_BEGINS   000017D0 
    -------------------------------------------------------------------------
RCODE
  Relative segment, address: CODE 000017D7 - 00001814 (0x3e bytes), align: 0
  Segment part 2.             Intra module refs:   Segment part 0
    -------------------------------------------------------------------------
RCODE
  Relative segment, address: CODE 00001815 - 00001815 (0x1 bytes), align: 0
  Segment part 4.             Intra module refs:   Segment part 0
           ENTRY                   ADDRESS         REF BY
           =====                   =======         ======
           ?US_SD_CFI_INV_ENDS     00001816 

    -------------------------------------------------------------------------
  LIBRARY MODULE, NAME : ?memcpy

  SEGMENTS IN THE MODULE
  ======================
<BANKED_CODE> 1 (was BANKED_CODE)
  Relative segment, address: CODE 00005813 - 0000584F (0x3d bytes), align: 0
  Segment part 6.             Intra module refs:   memcpy::?relay
           ENTRY                   ADDRESS         REF BY
           =====                   =======         ======
           memcpy                  00005813 
               is indirectly called
               XSTACK = 00000002 ( 00000009 )
               ISTACK = 00000000 ( 00000001 )
    -------------------------------------------------------------------------
BANK_RELAYS
  Relative segment, address: CODE 00000EA6 - 00000EAB (0x6 bytes), align: 0
  Segment part 7.
           ENTRY                   ADDRESS         REF BY
           =====                   =======         ======
           memcpy::?relay          00000EA6        AES_StreamCoder (?__write)
                                                   cmd_0x04 (?__write)
                                                   cmd_0x05 (?__write)

    -------------------------------------------------------------------------
  LIBRARY MODULE, NAME : ?memset

  SEGMENTS IN THE MODULE
  ======================
<BANKED_CODE> 1 (was BANKED_CODE)
  Relative segment, address: CODE 00005850 - 0000587B (0x2c bytes), align: 0
  Segment part 6.             Intra module refs:   memset::?relay
           ENTRY                   ADDRESS         REF BY
           =====                   =======         ======
           memset                  00005850 
               is indirectly called
               XSTACK = 00000002 ( 00000000 )
               ISTACK = 00000000 ( 00000002 )
    -------------------------------------------------------------------------
BANK_RELAYS
  Relative segment, address: CODE 00000EAC - 00000EB1 (0x6 bytes), align: 0
  Segment part 7.
           ENTRY                   ADDRESS         REF BY
           =====                   =======         ======
           memset::?relay          00000EAC        AES_StreamCoder (?__write)

    -------------------------------------------------------------------------
  LIBRARY MODULE, NAME : ?printf

  SEGMENTS IN THE MODULE
  ======================
<BANKED_CODE> 1 (was BANKED_CODE)
  Relative segment, address: CODE 00005781 - 000057CA (0x4a bytes), align: 0
  Segment part 6.             Intra module refs:   printf::?relay
           ENTRY                   ADDRESS         REF BY
           =====                   =======         ======
           printf                  00005781 
               calls direct
               XSTACK = 00000000 ( 00000010 )
    -------------------------------------------------------------------------
BANK_RELAYS
  Relative segment, address: CODE 00000EB2 - 00000EB7 (0x6 bytes), align: 0
  Segment part 7.
           ENTRY                   ADDRESS         REF BY
           =====                   =======         ======
           printf::?relay          00000EB2        AM_Callback (?__write)
                                                   AM_Cold_start (?__write)
                                                   AM_HW_Init (?__write)
                                                   AM_Hot_start (?__write)
                                                   AM_SW_Init (?__write)
                                                   AT_set_alarm (?__write)
                                                   AT_set_time (?__write)
                                                   AT_wait (?__write)
                                                   Hot_Start (?__write)
                                                   LLC_close_slot (?__write)
                                                   LLC_open_slot (?__write)
                                                   Neocore_start (?__write)
                                                   RI_Receive (?__write)
                                                   RI_Send (?__write)
                                                   TM_ClrAlarm (?__write)
                                                   TM_SetAlarm (?__write)
                                                   _push (?__write)
                                                   cmd_0x00 (?__write)
                                                   cmd_0x01 (?__write)
                                                   cmd_0x03 (?__write)
                                                   cmd_0x04 (?__write)
                                                   cmd_0x05 (?__write)
                                                   cmd_0x06 (?__write)
                                                   cmd_0x07 (?__write)
                                                   cmd_0x08 (?__write)
                                                   cmd_0x09 (?__write)
                                                   cmd_0x0A (?__write)
                                                   cmd_0x0B (?__write)
                                                   cmd_0x0C (?__write)
                                                   cmd_0x0D (?__write)
                                                   cmd_0x0E (?__write)
                                                   cmd_0x0F (?__write)
                                                   cmd_0x10 (?__write)
                                                   main (?__write)
                                                   pre_init (?__write)
                                                   receive (?__write)
                                                   recv_sync (?__write)
                                                   scan_tx_buffer_by_ts (?__write)
                                                   scheduler_rx (?__write)
                                                   scheduler_tx (?__write)
                                                   send_sync (?__write)
                                                   setFreq (?__write)
                                                   stream_write (?__write)

    -------------------------------------------------------------------------
  LIBRARY MODULE, NAME : ?putchar

  SEGMENTS IN THE MODULE
  ======================
<BANKED_CODE> 1 (was BANKED_CODE)
  Relative segment, address: CODE 00005728 - 00005780 (0x59 bytes), align: 0
  Segment part 6.             Intra module refs:   putchar::?relay
           ENTRY                   ADDRESS         REF BY
           =====                   =======         ======
           putchar                 00005728 
               calls direct
               XSTACK = 00000000 ( 0000000D )
               ISTACK = 00000000 ( 00000001 )
    -------------------------------------------------------------------------
BANK_RELAYS
  Relative segment, address: CODE 00000EB8 - 00000EBD (0x6 bytes), align: 0
  Segment part 7.
           ENTRY                   ADDRESS         REF BY
           =====                   =======         ======
           putchar::?relay         00000EB8        _Prout (?xprout)

    -------------------------------------------------------------------------
  LIBRARY MODULE, NAME : ?rand

  SEGMENTS IN THE MODULE
  ======================
XDATA_Z
  Relative segment, address: XDATA 000010B6 - 000010B6 (0x1 bytes), align: 0
  Segment part 6.             Intra module refs:   rand
           ENTRY                   ADDRESS         REF BY
           =====                   =======         ======
           _Randinit               000010B6        srand (?srand)
    -------------------------------------------------------------------------
XDATA_Z
  Relative segment, address: XDATA 000010B7 - 000010B8 (0x2 bytes), align: 0
  Segment part 7.             Intra module refs:   rand
           ENTRY                   ADDRESS         REF BY
           =====                   =======         ======
           __iar_Tls_setup__Randinit
                                   000010B7        srand (?srand)
    -------------------------------------------------------------------------
XDATA_I
  Relative segment, address: XDATA 00001B44 - 00001B47 (0x4 bytes), align: 0
  Segment part 8.             Intra module refs:   rand
           ENTRY                   ADDRESS         REF BY
           =====                   =======         ======
           _Randseed               00001B44        srand (?srand)
    -------------------------------------------------------------------------
XDATA_I
  Relative segment, address: XDATA 00001B48 - 00001B4B (0x4 bytes), align: 0
  Segment part 15.            Intra module refs:   rand
           ENTRY                   ADDRESS         REF BY
           =====                   =======         ======
           __Constant_19660d       00001B48 
    -------------------------------------------------------------------------
XDATA_I
  Relative segment, address: XDATA 00001B4C - 00001B4F (0x4 bytes), align: 0
  Segment part 17.            Intra module refs:   rand
           ENTRY                   ADDRESS         REF BY
           =====                   =======         ======
           __Constant_3c6ef35f     00001B4C 
    -------------------------------------------------------------------------
XDATA_Z
  Relative segment, address: XDATA 000010B9 - 000010BA (0x2 bytes), align: 0
  Segment part 10.            Intra module refs:   rand
           ENTRY                   ADDRESS         REF BY
           =====                   =======         ======
           __iar_Tls_setup__Randseed
                                   000010B9        srand (?srand)
    -------------------------------------------------------------------------
XDATA_Z
  Relative segment, address: XDATA 000010BB - 000010BE (0x4 bytes), align: 0
  Segment part 11.            Intra module refs:   rand
    -------------------------------------------------------------------------
XDATA_Z
  Relative segment, address: XDATA 000010BF - 000010C0 (0x2 bytes), align: 0
  Segment part 12.            Intra module refs:   rand
    -------------------------------------------------------------------------
XDATA_Z
  Relative segment, address: XDATA 000010C1 - 00001140 (0x80 bytes), align: 0
  Segment part 13.            Intra module refs:   rand
    -------------------------------------------------------------------------
XDATA_Z
  Relative segment, address: XDATA 00001141 - 00001142 (0x2 bytes), align: 0
  Segment part 14.            Intra module refs:   rand
    -------------------------------------------------------------------------
<BANKED_CODE> 1 (was BANKED_CODE)
  Relative segment, address: CODE 000055B8 - 00005719 (0x162 bytes), align: 0
  Segment part 19.            Intra module refs:   rand::?relay
           ENTRY                   ADDRESS         REF BY
           =====                   =======         ======
           rand                    000055B8 
               XSTACK = 00000000 ( 00000010 )
    -------------------------------------------------------------------------
<BANKED_CODE> 1 (was BANKED_CODE)
  Relative segment, address: CODE 0000571A - 0000571F (0x6 bytes), align: 0
  Segment part 21.            Intra module refs:   rand
    -------------------------------------------------------------------------
<BANKED_CODE> 1 (was BANKED_CODE)
  Relative segment, address: CODE 00005720 - 00005727 (0x8 bytes), align: 0
  Segment part 22.            Intra module refs:   rand
    -------------------------------------------------------------------------
XDATA_ID
  Relative segment, address: CODE 00000ABC - 00000ABF (0x4 bytes), align: 0
  Segment part 9.             Intra module refs:   _Randseed
    -------------------------------------------------------------------------
XDATA_ID
  Relative segment, address: CODE 00000AC0 - 00000AC3 (0x4 bytes), align: 0
  Segment part 16.            Intra module refs:   __Constant_19660d
    -------------------------------------------------------------------------
XDATA_ID
  Relative segment, address: CODE 00000AC4 - 00000AC7 (0x4 bytes), align: 0
  Segment part 18.            Intra module refs:   __Constant_3c6ef35f
    -------------------------------------------------------------------------
BANK_RELAYS
  Relative segment, address: CODE 00000EBE - 00000EC3 (0x6 bytes), align: 0
  Segment part 20.
           ENTRY                   ADDRESS         REF BY
           =====                   =======         ======
           rand::?relay            00000EBE        _throw_dice (?__write)
                                                   random_core_init (?__write)

    -------------------------------------------------------------------------
  LIBRARY MODULE, NAME : ?srand

  SEGMENTS IN THE MODULE
  ======================
<BANKED_CODE> 1 (was BANKED_CODE)
  Relative segment, address: CODE 000057CB - 00005812 (0x48 bytes), align: 0
  Segment part 6.             Intra module refs:   srand::?relay
           ENTRY                   ADDRESS         REF BY
           =====                   =======         ======
           srand                   000057CB 
               XSTACK = 00000000 ( 0000000C )
    -------------------------------------------------------------------------
BANK_RELAYS
  Relative segment, address: CODE 00000EC4 - 00000EC9 (0x6 bytes), align: 0
  Segment part 7.
           ENTRY                   ADDRESS         REF BY
           =====                   =======         ======
           srand::?relay           00000EC4        random_core_init (?__write)

    -------------------------------------------------------------------------
  LIBRARY MODULE, NAME : ?strlen

  SEGMENTS IN THE MODULE
  ======================
<BANKED_CODE> 1 (was BANKED_CODE)
  Relative segment, address: CODE 000058CB - 000058E8 (0x1e bytes), align: 0
  Segment part 6.             Intra module refs:   strlen::?relay
           ENTRY                   ADDRESS         REF BY
           =====                   =======         ======
           strlen                  000058CB 
               is indirectly called
               ISTACK = 00000000 ( 00000002 )
    -------------------------------------------------------------------------
BANK_RELAYS
  Relative segment, address: CODE 00000ECA - 00000ECF (0x6 bytes), align: 0
  Segment part 7.
           ENTRY                   ADDRESS         REF BY
           =====                   =======         ======
           strlen::?relay          00000ECA        _PrintfTiny (?xprintftiny)

    -------------------------------------------------------------------------
  LIBRARY MODULE, NAME : ?xprintftiny

  SEGMENTS IN THE MODULE
  ======================
<BANKED_CODE> 1 (was BANKED_CODE)
  Relative segment, address: CODE 00005187 - 000051D8 (0x52 bytes), align: 0
  Segment part 14.            Intra module refs:   out::?relay
           LOCAL                   ADDRESS         
           =====                   =======         
           out                     00005187 
               XSTACK = 0000002F ( 0000000E )
    -------------------------------------------------------------------------
<BANKED_CODE> 1 (was BANKED_CODE)
  Relative segment, address: CODE 000051D9 - 00005559 (0x381 bytes), align: 0
  Segment part 16.            Intra module refs:   _PrintfTiny::?relay
           ENTRY                   ADDRESS         REF BY
           =====                   =======         ======
           _PrintfTiny             000051D9 
               calls direct
               XSTACK = 00000004 ( 0000002F )
               ISTACK = 00000000 ( 00000001 )
    -------------------------------------------------------------------------
<BANKED_CODE> 1 (was BANKED_CODE)
  Relative segment, address: CODE 0000555A - 00005562 (0x9 bytes), align: 0
  Segment part 18.            Intra module refs:   _PrintfTiny
    -------------------------------------------------------------------------
<BANKED_CODE> 1 (was BANKED_CODE)
  Relative segment, address: CODE 00005563 - 00005568 (0x6 bytes), align: 0
  Segment part 19.            Intra module refs:   _PrintfTiny
    -------------------------------------------------------------------------
<BANKED_CODE> 1 (was BANKED_CODE)
  Relative segment, address: CODE 00005569 - 0000556C (0x4 bytes), align: 0
  Segment part 20.            Intra module refs:   Segment part 19
                                                   Segment part 27
                                                   _PrintfTiny
    -------------------------------------------------------------------------
<BANKED_CODE> 1 (was BANKED_CODE)
  Relative segment, address: CODE 0000556D - 00005575 (0x9 bytes), align: 0
  Segment part 21.            Intra module refs:   Segment part 20
                                                   Segment part 23
    -------------------------------------------------------------------------
<BANKED_CODE> 1 (was BANKED_CODE)
  Relative segment, address: CODE 00005576 - 00005579 (0x4 bytes), align: 0
  Segment part 22.            Intra module refs:   _PrintfTiny
    -------------------------------------------------------------------------
<BANKED_CODE> 1 (was BANKED_CODE)
  Relative segment, address: CODE 0000557A - 00005581 (0x8 bytes), align: 0
  Segment part 23.            Intra module refs:   Segment part 22
                                                   Segment part 24
    -------------------------------------------------------------------------
<BANKED_CODE> 1 (was BANKED_CODE)
  Relative segment, address: CODE 00005582 - 00005592 (0x11 bytes), align: 0
  Segment part 24.            Intra module refs:   _PrintfTiny
    -------------------------------------------------------------------------
<BANKED_CODE> 1 (was BANKED_CODE)
  Relative segment, address: CODE 00005593 - 00005597 (0x5 bytes), align: 0
  Segment part 25.            Intra module refs:   _PrintfTiny
    -------------------------------------------------------------------------
<BANKED_CODE> 1 (was BANKED_CODE)
  Relative segment, address: CODE 00005598 - 000055A4 (0xd bytes), align: 0
  Segment part 26.            Intra module refs:   Segment part 25
                                                   _PrintfTiny
    -------------------------------------------------------------------------
<BANKED_CODE> 1 (was BANKED_CODE)
  Relative segment, address: CODE 000055A5 - 000055AD (0x9 bytes), align: 0
  Segment part 27.            Intra module refs:   _PrintfTiny
    -------------------------------------------------------------------------
<BANKED_CODE> 1 (was BANKED_CODE)
  Relative segment, address: CODE 000055AE - 000055B7 (0xa bytes), align: 0
  Segment part 28.            Intra module refs:   Segment part 27
                                                   _PrintfTiny
    -------------------------------------------------------------------------
XDATA_ID
  Relative segment, address: CODE 00000AC8 - 00000AC9 (0x2 bytes), align: 0
  Segment part 7.             Intra module refs:   Segment part 6
    -------------------------------------------------------------------------
XDATA_ID
  Relative segment, address: CODE 00000ACA - 00000ACB (0x2 bytes), align: 0
  Segment part 9.             Intra module refs:   Segment part 8
    -------------------------------------------------------------------------
XDATA_ID
  Relative segment, address: CODE 00000ACC - 00000ACF (0x4 bytes), align: 0
  Segment part 11.            Intra module refs:   __Constant_0
    -------------------------------------------------------------------------
XDATA_ID
  Relative segment, address: CODE 00000AD0 - 00000AD3 (0x4 bytes), align: 0
  Segment part 13.            Intra module refs:   __Constant_ffff
    -------------------------------------------------------------------------
BANK_RELAYS
  Relative segment, address: CODE 00000ED0 - 00000ED5 (0x6 bytes), align: 0
  Segment part 15.            Intra module refs:   _PrintfTiny
           LOCAL                   ADDRESS         
           =====                   =======         
           out::?relay             00000ED0 
    -------------------------------------------------------------------------
BANK_RELAYS
  Relative segment, address: CODE 00000ED6 - 00000EDB (0x6 bytes), align: 0
  Segment part 17.
           ENTRY                   ADDRESS         REF BY
           =====                   =======         ======
           _PrintfTiny::?relay     00000ED6        printf (?printf)
    -------------------------------------------------------------------------
XDATA_I
  Relative segment, address: XDATA 00001B50 - 00001B51 (0x2 bytes), align: 0
  Segment part 6.             Intra module refs:   _PrintfTiny
    -------------------------------------------------------------------------
XDATA_I
  Relative segment, address: XDATA 00001B52 - 00001B53 (0x2 bytes), align: 0
  Segment part 8.             Intra module refs:   _PrintfTiny
    -------------------------------------------------------------------------
XDATA_I
  Relative segment, address: XDATA 00001B54 - 00001B57 (0x4 bytes), align: 0
  Segment part 10.            Intra module refs:   _PrintfTiny
           ENTRY                   ADDRESS         REF BY
           =====                   =======         ======
           __Constant_0            00001B54 
    -------------------------------------------------------------------------
XDATA_I
  Relative segment, address: XDATA 00001B58 - 00001B5B (0x4 bytes), align: 0
  Segment part 12.            Intra module refs:   _PrintfTiny
           ENTRY                   ADDRESS         REF BY
           =====                   =======         ======
           __Constant_ffff         00001B58 

    -------------------------------------------------------------------------
  LIBRARY MODULE, NAME : ?xprout

  SEGMENTS IN THE MODULE
  ======================
<BANKED_CODE> 1 (was BANKED_CODE)
  Relative segment, address: CODE 0000587C - 000058A6 (0x2b bytes), align: 0
  Segment part 6.             Intra module refs:   _Prout::?relay
           ENTRY                   ADDRESS         REF BY
           =====                   =======         ======
           _Prout                  0000587C 
               calls direct
               XSTACK = 00000000 ( 0000000E )
    -------------------------------------------------------------------------
BANK_RELAYS
  Relative segment, address: CODE 00000EDC - 00000EE1 (0x6 bytes), align: 0
  Segment part 7.
           ENTRY                   ADDRESS         REF BY
           =====                   =======         ======
           _Prout::?relay          00000EDC        printf (?printf)




                ****************************************
                *                                      *
                *      SEGMENTS IN ADDRESS ORDER       *
                *                                      *
                ****************************************


SEGMENT              SPACE    START ADDRESS   END ADDRESS     SIZE  TYPE  ALIGN
=======              =====    =============   ===========     ====  ====  =====
INTVEC               CODE          00000000 - 0000002D          2E   com    0
CSTART               CODE          0000002E - 000000BA          8D   rel    0
DATA_ID              CODE               000000BB                     dse    0
BDATA_ID             CODE               000000BB                     dse    0
BIT_ID               CODE               000000BB                     dse    0
IDATA_ID             CODE               000000BB                     dse    0
IXDATA_ID            CODE               000000BB                     dse    0
PDATA_ID             CODE               000000BB                     dse    0
XDATA_ID             CODE          000000BB - 00000AD3         A19   rel    0
BANK_RELAYS          CODE          00000AD4 - 00000EE1         40E   rel    0
RCODE                CODE          00000EE2 - 00001815         934   rel    0
CODE_N               CODE               00001816                     dse    0
CODE_C               CODE               00001816                     dse    0
DIFUNCT              CODE               00001816                     rel    0
NEAR_CODE            CODE          00001816 - 0000183A          25   rel    0
<BANKED_CODE> 1      CODE          0000183B - 000058F9        40BF   rel    0
REGISTERS            DATA          00000000 - 00000007           8   rel    0
VREG                 DATA          00000008 - 0000000F           8   rel    0
PSP                  DATA          00000010 - 00000010           1   rel    0
XSP                  DATA          00000011 - 00000012           2   rel    0
BREG                 BIT        00000020.0  -  00000020.7        8   rel    0
SFR_AN               DATA          00000086 - 00000086           1   rel    0
                     DATA          00000091 - 00000091           1 
                     DATA          00000094 - 00000097           4 
                     DATA          0000009D - 0000009E           2 
                     DATA          000000A2 - 000000A5           4 
                     DATA          000000A8 - 000000A8           1 
                     DATA          000000AD - 000000AD           1 
                     DATA          000000B3 - 000000B3           1 
                     DATA          000000C0 - 000000C2           3 
                     DATA          000000C5 - 000000C6           2 
                     DATA          000000D2 - 000000D7           6 
                     DATA          000000D9 - 000000D9           1 
                     DATA          000000E1 - 000000E1           1 
                     DATA          000000E9 - 000000E9           1 
                     DATA          000000F1 - 000000F1           1 
                     DATA          000000F3 - 000000F4           2 
                     DATA          000000F8 - 000000FA           3 
                     DATA          000000FC - 000000FC           1 
XSTACK               XDATA         00000001 - 00000100         100   rel    0
XDATA_Z              XDATA         00000101 - 00001142        1042   rel    0
XDATA_I              XDATA         00001143 - 00001B5B         A19   rel    0
PDATA_Z              XDATA              00001E00                     dse    0
PSTACK               XDATA         00001E00 - 00001E7F          80   rel    0
ISTACK               IDATA         00000080 - 000000FF          80   rel    0

                ****************************************
                *                                      *
                *        END OF CROSS REFERENCE        *
                *                                      *
                ****************************************

 22 778 bytes of CODE  memory
     19 bytes of DATA  memory (+ 36 absolute )
  7 131 bytes of XDATA memory
    128 bytes of IDATA memory
      8 bits  of BIT   memory

Errors: none
Warnings: none

