###############################################################################
#
# IAR C/C++ Compiler V10.10.1.4655 for 8051               06/Feb/2020  18:22:26
# Copyright 2004-2017 IAR Systems AB.
# PC-locked license - IAR Embedded Workbench for 8051
#
#    Core               =  plain
#    Code model         =  banked
#    Data model         =  large
#    Calling convention =  xdata reentrant
#    Constant location  =  data
#    Dptr setup         =  1,16
#                          
#    Source file        =  E:\WMNU\IAR_new_arch\STACK_CORE_SRC\action_manager.c
#    Command line       =  
#        -f C:\Users\08A4~1\AppData\Local\Temp\EW3918.tmp
#        (E:\WMNU\IAR_new_arch\STACK_CORE_SRC\action_manager.c -lC
#        "E:\WMNU\IAR_new_arch\PRJ Test\Debug\List" -o
#        "E:\WMNU\IAR_new_arch\PRJ Test\Debug\Obj" -e --debug --core=plain
#        --dptr=16,1 --data_model=large --code_model=banked
#        --calling_convention=xdata_reentrant --place_constants=data
#        --nr_virtual_regs 8 --dlib_config "C:\Program Files (x86)\IAR
#        Systems\Embedded Workbench 8.0\8051\LIB\DLIB\dl8051Normal.h"
#        --no_path_in_file_macros -I E:\WMNU\IAR_new_arch\Stack_core_src\ -On
#        --no_cse --no_unroll --no_inline --no_code_motion --no_tbaa
#        --no_cross_call --mfc
#        E:\WMNU\IAR_new_arch\STACK_CORE_SRC\alarm_timer.c
#        E:\WMNU\IAR_new_arch\STACK_CORE_SRC\cpu.c
#        E:\WMNU\IAR_new_arch\STACK_CORE_SRC\debug.c
#        E:\WMNU\IAR_NEW_ARCH\STACK_CORE_SRC\frame.c "E:\WMNU\IAR_new_arch\PRJ
#        Test\main.c" E:\WMNU\IAR_new_arch\STACK_CORE_SRC\mem_utils.c
#        E:\WMNU\IAR_new_arch\STACK_CORE_SRC\model.c
#        E:\WMNU\IAR_new_arch\STACK_CORE_SRC\rtc.c
#        E:\WMNU\IAR_new_arch\STACK_CORE_SRC\time_manager.c
#        "E:\WMNU\IAR_new_arch\PRJ Test\u_alarm_timer.c"
#        "E:\WMNU\IAR_new_arch\PRJ Test\u_debug.c" "E:\WMNU\IAR_new_arch\PRJ
#        Test\u_mem_utils.c" E:\WMNU\IAR_new_arch\STACK_CORE_SRC\ustimer.c)
#    Locale             =  Russian_Russia.1251
#    List file          =  
#        E:\WMNU\IAR_new_arch\PRJ Test\Debug\List\action_manager.lst
#    Object file        =  
#        E:\WMNU\IAR_new_arch\PRJ Test\Debug\Obj\action_manager.r51
#
###############################################################################

E:\WMNU\IAR_new_arch\STACK_CORE_SRC\action_manager.c
      1          #include "action_manager.h"
      2          #include "modules_list.h"
      3          #include "model.h"
      4          #include "debug.h"

   \                                 In  segment SFR_AN, at 0x86
   \   unsigned char volatile __sfr U0CSR
   \                     U0CSR:
   \   000000                DS 1

   \                                 In  segment SFR_AN, at 0x95
   \   unsigned char volatile __sfr ST0
   \                     ST0:
   \   000000                DS 1

   \                                 In  segment SFR_AN, at 0x96
   \   unsigned char volatile __sfr ST1
   \                     ST1:
   \   000000                DS 1

   \                                 In  segment SFR_AN, at 0x97
   \   unsigned char volatile __sfr ST2
   \                     ST2:
   \   000000                DS 1

   \                                 In  segment SFR_AN, at 0x9d
   \   unsigned char volatile __sfr SLEEPSTA
   \                     SLEEPSTA:
   \   000000                DS 1

   \                                 In  segment SFR_AN, at 0x9e
   \   unsigned char volatile __sfr CLKCONSTA
   \                     CLKCONSTA:
   \   000000                DS 1

   \                                 In  segment SFR_AN, at 0xa8
   \   union <unnamed> volatile __sfr _A_IEN0
   \                     _A_IEN0:
   \   000000                DS 1

   \                                 In  segment SFR_AN, at 0xad
   \   unsigned char volatile __sfr STLOAD
   \                     STLOAD:
   \   000000                DS 1

   \                                 In  segment SFR_AN, at 0xc0
   \   union <unnamed> volatile __sfr _A_IRCON
   \                     _A_IRCON:
   \   000000                DS 1

   \                                 In  segment SFR_AN, at 0xc1
   \   unsigned char volatile __sfr U0DBUF
   \                     U0DBUF:
   \   000000                DS 1

   \                                 In  segment SFR_AN, at 0xc2
   \   unsigned char volatile __sfr U0BAUD
   \                     U0BAUD:
   \   000000                DS 1

   \                                 In  segment SFR_AN, at 0xc5
   \   unsigned char volatile __sfr U0GCR
   \                     U0GCR:
   \   000000                DS 1

   \                                 In  segment SFR_AN, at 0xc6
   \   unsigned char volatile __sfr CLKCONCMD
   \                     CLKCONCMD:
   \   000000                DS 1

   \                                 In  segment SFR_AN, at 0xf1
   \   unsigned char volatile __sfr PERCFG
   \                     PERCFG:
   \   000000                DS 1

   \                                 In  segment SFR_AN, at 0xf3
   \   unsigned char volatile __sfr P0SEL
   \                     P0SEL:
   \   000000                DS 1
      5          
      6          /**
      7          @file
      8          */
      9          
     10          /* Определения */
     11          #define ITEMS_COUNT(name) (sizeof(name)/sizeof(module_s*))
     12          #define RUNNER(array, fun) {\
     13          for (char i = 0; i < ITEMS_COUNT(array); i++){\
     14              ASSERT(array[i]->fun == NULL);\
     15              array[i]->fun();\
     16              }\
     17          };
     18          
     19          
     20          /* Локальные переменные */

   \                                 In  segment XDATA_Z, align 1, keep-with-next
     21          static module_s* COLD_MOD[] = COLD_MOD_DEF;
   \                     ??COLD_MOD:
   \   000000                DS 2
   \   000002                REQUIRE __INIT_XDATA_Z

   \                                 In  segment XDATA_Z, align 1, keep-with-next
     22          static module_s* HOT_MOD[] = HOT_MOD_DEF;
   \                     ??HOT_MOD:
   \   000000                DS 2
   \   000002                REQUIRE __INIT_XDATA_Z

   \                                 In  segment XDATA_I, align 1, keep-with-next
     23          static module_s* HW_MOD[] = HW_MOD_DEF;
   \                     ??HW_MOD:
   \   000000                DS 6
   \   000006                REQUIRE `?<Initializer for HW_MOD>`
   \   000006                REQUIRE __INIT_XDATA_I

   \                                 In  segment XDATA_I, align 1, keep-with-next
     24          static module_s* SW_MOD[] = SW_MOD_DEF;
   \                     ??SW_MOD:
   \   000000                DS 6
   \   000006                REQUIRE `?<Initializer for SW_MOD>`
   \   000006                REQUIRE __INIT_XDATA_I

   \                                 In  segment XDATA_I, align 1, keep-with-next
     25          static module_s* POW_MOD[] = POW_MOD_DEF;
   \                     ??POW_MOD:
   \   000000                DS 2
   \   000002                REQUIRE `?<Initializer for POW_MOD>`
   \   000002                REQUIRE __INIT_XDATA_I
     26          
     27          /* Локальные функции */
     28          

   \                                 In  segment BANKED_CODE, align 1, keep-with-next
     29          void AM_Cold_start(void){
   \                     AM_Cold_start:
   \   000000                REQUIRE ?V0
   \   000000                REQUIRE ?V1
   \   000000   74F6         MOV       A,#-0xa
   \   000002   12....       LCALL     ?BANKED_ENTER_XDATA
   \   000005                ; Saved register size: 10
   \   000005                ; Auto size: 0
     30            RUNNER(COLD_MOD, Cold_Start);
   \   000005   7E00         MOV       R6,#0x0
   \                     ??AM_Cold_start_0:
   \   000007   EE           MOV       A,R6
   \   000008   6003         JZ        $+5
   \   00000A   02....       LJMP      ??AM_Cold_start_1 & 0xFFFF
   \   00000D   EE           MOV       A,R6
   \   00000E   F8           MOV       R0,A
   \   00000F   7900         MOV       R1,#0x0
   \   000011   E8           MOV       A,R0
   \   000012   75F002       MOV       B,#0x2
   \   000015   A4           MUL       AB
   \   000016   C8           XCH       A,R0
   \   000017   AAF0         MOV       R2,B
   \   000019   75F000       MOV       B,#0x0
   \   00001C   A4           MUL       AB
   \   00001D   2A           ADD       A,R2
   \   00001E   FA           MOV       R2,A
   \   00001F   75F002       MOV       B,#0x2
   \   000022   E9           MOV       A,R1
   \   000023   A4           MUL       AB
   \   000024   2A           ADD       A,R2
   \   000025   F9           MOV       R1,A
   \   000026   74..         MOV       A,#??COLD_MOD & 0xff
   \   000028   28           ADD       A,R0
   \   000029   F582         MOV       DPL,A
   \   00002B   74..         MOV       A,#(??COLD_MOD >> 8) & 0xff
   \   00002D   39           ADDC      A,R1
   \   00002E   F583         MOV       DPH,A
   \   000030   E0           MOVX      A,@DPTR
   \   000031   F8           MOV       R0,A
   \   000032   A3           INC       DPTR
   \   000033   E0           MOVX      A,@DPTR
   \   000034   C8           XCH       A,R0
   \   000035   2408         ADD       A,#0x8
   \   000037   F582         MOV       DPL,A
   \   000039   C8           XCH       A,R0
   \   00003A   3400         ADDC      A,#0x0
   \   00003C   F583         MOV       DPH,A
   \   00003E   E0           MOVX      A,@DPTR
   \   00003F   F8           MOV       R0,A
   \   000040   A3           INC       DPTR
   \   000041   E0           MOVX      A,@DPTR
   \   000042   F9           MOV       R1,A
   \   000043   E8           MOV       A,R0
   \   000044   49           ORL       A,R1
   \   000045   7037         JNZ       ??AM_Cold_start_2
   \   000047                ; Setup parameters for call to function printf
   \   000047   75....       MOV       ?V0,#??__FUNCTION__ & 0xff
   \   00004A   75....       MOV       ?V1,#(??__FUNCTION__ >> 8) & 0xff
   \   00004D   78..         MOV       R0,#?V0
   \   00004F   12....       LCALL     ?PUSH_XSTACK_I_TWO
   \   000052   75..1E       MOV       ?V0,#0x1e
   \   000055   75..00       MOV       ?V1,#0x0
   \   000058   78..         MOV       R0,#?V0
   \   00005A   12....       LCALL     ?PUSH_XSTACK_I_TWO
   \   00005D   75....       MOV       ?V0,#`?<Constant "action_manager.c">` & 0xff
   \   000060   75....       MOV       ?V1,#(`?<Constant "action_manager.c">` >> 8) & 0xff
   \   000063   78..         MOV       R0,#?V0
   \   000065   12....       LCALL     ?PUSH_XSTACK_I_TWO
   \   000068   7A..         MOV       R2,#`?<Constant "%s:%d:%s -> ">` & 0xff
   \   00006A   7B..         MOV       R3,#(`?<Constant "%s:%d:%s -> ">` >> 8) & 0xff
   \   00006C   12....       LCALL     `??printf::?relay`; Banked call to: printf
   \   00006F   7406         MOV       A,#0x6
   \   000071   12....       LCALL     ?DEALLOC_XSTACK8
   \   000074                ; Setup parameters for call to function printf
   \   000074   7A..         MOV       R2,#`?<Constant "\\"COLD_MOD[i]->Cold_St...">` & 0xff
   \   000076   7B..         MOV       R3,#(`?<Constant "\\"COLD_MOD[i]->Cold_St...">` >> 8) & 0xff
   \   000078   12....       LCALL     `??printf::?relay`; Banked call to: printf
   \   00007B                ; Setup parameters for call to function DBG_CORE_HALT
   \   00007B   12....       LCALL     `??DBG_CORE_HALT::?relay`; Banked call to: DBG_CORE_HALT
   \                     ??AM_Cold_start_2:
   \   00007E                ; Setup parameters for indirect call
   \   00007E   EE           MOV       A,R6
   \   00007F   F8           MOV       R0,A
   \   000080   7900         MOV       R1,#0x0
   \   000082   E8           MOV       A,R0
   \   000083   75F002       MOV       B,#0x2
   \   000086   A4           MUL       AB
   \   000087   C8           XCH       A,R0
   \   000088   AAF0         MOV       R2,B
   \   00008A   75F000       MOV       B,#0x0
   \   00008D   A4           MUL       AB
   \   00008E   2A           ADD       A,R2
   \   00008F   FA           MOV       R2,A
   \   000090   75F002       MOV       B,#0x2
   \   000093   E9           MOV       A,R1
   \   000094   A4           MUL       AB
   \   000095   2A           ADD       A,R2
   \   000096   F9           MOV       R1,A
   \   000097   74..         MOV       A,#??COLD_MOD & 0xff
   \   000099   28           ADD       A,R0
   \   00009A   F582         MOV       DPL,A
   \   00009C   74..         MOV       A,#(??COLD_MOD >> 8) & 0xff
   \   00009E   39           ADDC      A,R1
   \   00009F   F583         MOV       DPH,A
   \   0000A1   E0           MOVX      A,@DPTR
   \   0000A2   F8           MOV       R0,A
   \   0000A3   A3           INC       DPTR
   \   0000A4   E0           MOVX      A,@DPTR
   \   0000A5   C8           XCH       A,R0
   \   0000A6   2408         ADD       A,#0x8
   \   0000A8   F582         MOV       DPL,A
   \   0000AA   C8           XCH       A,R0
   \   0000AB   3400         ADDC      A,#0x0
   \   0000AD   F583         MOV       DPH,A
   \   0000AF   E0           MOVX      A,@DPTR
   \   0000B0   F8           MOV       R0,A
   \   0000B1   A3           INC       DPTR
   \   0000B2   E0           MOVX      A,@DPTR
   \   0000B3   F583         MOV       DPH,A
   \   0000B5   8882         MOV       DPL,R0
   \   0000B7   12....       LCALL     ?CALL_IND
   \   0000BA   0E           INC       R6
   \   0000BB   02....       LJMP      ??AM_Cold_start_0 & 0xFFFF
     31          }
   \                     ??AM_Cold_start_1:
   \   0000BE   7F02         MOV       R7,#0x2
   \   0000C0   02....       LJMP      ?BANKED_LEAVE_XDATA
     32          

   \                                 In  segment BANKED_CODE, align 1, keep-with-next
     33          void AM_Hot_start(void){
   \                     AM_Hot_start:
   \   000000                REQUIRE ?V0
   \   000000                REQUIRE ?V1
   \   000000   74F6         MOV       A,#-0xa
   \   000002   12....       LCALL     ?BANKED_ENTER_XDATA
   \   000005                ; Saved register size: 10
   \   000005                ; Auto size: 0
     34            RUNNER(HOT_MOD, Hot_Start);  
   \   000005   7E00         MOV       R6,#0x0
   \                     ??AM_Hot_start_0:
   \   000007   EE           MOV       A,R6
   \   000008   6003         JZ        $+5
   \   00000A   02....       LJMP      ??AM_Hot_start_1 & 0xFFFF
   \   00000D   EE           MOV       A,R6
   \   00000E   F8           MOV       R0,A
   \   00000F   7900         MOV       R1,#0x0
   \   000011   E8           MOV       A,R0
   \   000012   75F002       MOV       B,#0x2
   \   000015   A4           MUL       AB
   \   000016   C8           XCH       A,R0
   \   000017   AAF0         MOV       R2,B
   \   000019   75F000       MOV       B,#0x0
   \   00001C   A4           MUL       AB
   \   00001D   2A           ADD       A,R2
   \   00001E   FA           MOV       R2,A
   \   00001F   75F002       MOV       B,#0x2
   \   000022   E9           MOV       A,R1
   \   000023   A4           MUL       AB
   \   000024   2A           ADD       A,R2
   \   000025   F9           MOV       R1,A
   \   000026   74..         MOV       A,#??HOT_MOD & 0xff
   \   000028   28           ADD       A,R0
   \   000029   F582         MOV       DPL,A
   \   00002B   74..         MOV       A,#(??HOT_MOD >> 8) & 0xff
   \   00002D   39           ADDC      A,R1
   \   00002E   F583         MOV       DPH,A
   \   000030   E0           MOVX      A,@DPTR
   \   000031   F8           MOV       R0,A
   \   000032   A3           INC       DPTR
   \   000033   E0           MOVX      A,@DPTR
   \   000034   C8           XCH       A,R0
   \   000035   240A         ADD       A,#0xa
   \   000037   F582         MOV       DPL,A
   \   000039   C8           XCH       A,R0
   \   00003A   3400         ADDC      A,#0x0
   \   00003C   F583         MOV       DPH,A
   \   00003E   E0           MOVX      A,@DPTR
   \   00003F   F8           MOV       R0,A
   \   000040   A3           INC       DPTR
   \   000041   E0           MOVX      A,@DPTR
   \   000042   F9           MOV       R1,A
   \   000043   E8           MOV       A,R0
   \   000044   49           ORL       A,R1
   \   000045   7037         JNZ       ??AM_Hot_start_2
   \   000047                ; Setup parameters for call to function printf
   \   000047   75....       MOV       ?V0,#??__FUNCTION___1 & 0xff
   \   00004A   75....       MOV       ?V1,#(??__FUNCTION___1 >> 8) & 0xff
   \   00004D   78..         MOV       R0,#?V0
   \   00004F   12....       LCALL     ?PUSH_XSTACK_I_TWO
   \   000052   75..22       MOV       ?V0,#0x22
   \   000055   75..00       MOV       ?V1,#0x0
   \   000058   78..         MOV       R0,#?V0
   \   00005A   12....       LCALL     ?PUSH_XSTACK_I_TWO
   \   00005D   75....       MOV       ?V0,#`?<Constant "action_manager.c">` & 0xff
   \   000060   75....       MOV       ?V1,#(`?<Constant "action_manager.c">` >> 8) & 0xff
   \   000063   78..         MOV       R0,#?V0
   \   000065   12....       LCALL     ?PUSH_XSTACK_I_TWO
   \   000068   7A..         MOV       R2,#`?<Constant "%s:%d:%s -> ">` & 0xff
   \   00006A   7B..         MOV       R3,#(`?<Constant "%s:%d:%s -> ">` >> 8) & 0xff
   \   00006C   12....       LCALL     `??printf::?relay`; Banked call to: printf
   \   00006F   7406         MOV       A,#0x6
   \   000071   12....       LCALL     ?DEALLOC_XSTACK8
   \   000074                ; Setup parameters for call to function printf
   \   000074   7A..         MOV       R2,#`?<Constant "\\"HOT_MOD[i]->Hot_Star...">` & 0xff
   \   000076   7B..         MOV       R3,#(`?<Constant "\\"HOT_MOD[i]->Hot_Star...">` >> 8) & 0xff
   \   000078   12....       LCALL     `??printf::?relay`; Banked call to: printf
   \   00007B                ; Setup parameters for call to function DBG_CORE_HALT
   \   00007B   12....       LCALL     `??DBG_CORE_HALT::?relay`; Banked call to: DBG_CORE_HALT
   \                     ??AM_Hot_start_2:
   \   00007E                ; Setup parameters for indirect call
   \   00007E   EE           MOV       A,R6
   \   00007F   F8           MOV       R0,A
   \   000080   7900         MOV       R1,#0x0
   \   000082   E8           MOV       A,R0
   \   000083   75F002       MOV       B,#0x2
   \   000086   A4           MUL       AB
   \   000087   C8           XCH       A,R0
   \   000088   AAF0         MOV       R2,B
   \   00008A   75F000       MOV       B,#0x0
   \   00008D   A4           MUL       AB
   \   00008E   2A           ADD       A,R2
   \   00008F   FA           MOV       R2,A
   \   000090   75F002       MOV       B,#0x2
   \   000093   E9           MOV       A,R1
   \   000094   A4           MUL       AB
   \   000095   2A           ADD       A,R2
   \   000096   F9           MOV       R1,A
   \   000097   74..         MOV       A,#??HOT_MOD & 0xff
   \   000099   28           ADD       A,R0
   \   00009A   F582         MOV       DPL,A
   \   00009C   74..         MOV       A,#(??HOT_MOD >> 8) & 0xff
   \   00009E   39           ADDC      A,R1
   \   00009F   F583         MOV       DPH,A
   \   0000A1   E0           MOVX      A,@DPTR
   \   0000A2   F8           MOV       R0,A
   \   0000A3   A3           INC       DPTR
   \   0000A4   E0           MOVX      A,@DPTR
   \   0000A5   C8           XCH       A,R0
   \   0000A6   240A         ADD       A,#0xa
   \   0000A8   F582         MOV       DPL,A
   \   0000AA   C8           XCH       A,R0
   \   0000AB   3400         ADDC      A,#0x0
   \   0000AD   F583         MOV       DPH,A
   \   0000AF   E0           MOVX      A,@DPTR
   \   0000B0   F8           MOV       R0,A
   \   0000B1   A3           INC       DPTR
   \   0000B2   E0           MOVX      A,@DPTR
   \   0000B3   F583         MOV       DPH,A
   \   0000B5   8882         MOV       DPL,R0
   \   0000B7   12....       LCALL     ?CALL_IND
   \   0000BA   0E           INC       R6
   \   0000BB   02....       LJMP      ??AM_Hot_start_0 & 0xFFFF
     35          }
   \                     ??AM_Hot_start_1:
   \   0000BE   7F02         MOV       R7,#0x2
   \   0000C0   02....       LJMP      ?BANKED_LEAVE_XDATA
     36          

   \                                 In  segment BANKED_CODE, align 1, keep-with-next
     37          void AM_HW_Init(void){
   \                     AM_HW_Init:
   \   000000                REQUIRE ?V0
   \   000000                REQUIRE ?V1
   \   000000   74F6         MOV       A,#-0xa
   \   000002   12....       LCALL     ?BANKED_ENTER_XDATA
   \   000005                ; Saved register size: 10
   \   000005                ; Auto size: 0
     38            RUNNER(HW_MOD, HW_Init);      
   \   000005   7E00         MOV       R6,#0x0
   \                     ??AM_HW_Init_0:
   \   000007   EE           MOV       A,R6
   \   000008   C3           CLR       C
   \   000009   9403         SUBB      A,#0x3
   \   00000B   4003         JC        $+5
   \   00000D   02....       LJMP      ??AM_HW_Init_1 & 0xFFFF
   \   000010   EE           MOV       A,R6
   \   000011   F8           MOV       R0,A
   \   000012   7900         MOV       R1,#0x0
   \   000014   E8           MOV       A,R0
   \   000015   75F002       MOV       B,#0x2
   \   000018   A4           MUL       AB
   \   000019   C8           XCH       A,R0
   \   00001A   AAF0         MOV       R2,B
   \   00001C   75F000       MOV       B,#0x0
   \   00001F   A4           MUL       AB
   \   000020   2A           ADD       A,R2
   \   000021   FA           MOV       R2,A
   \   000022   75F002       MOV       B,#0x2
   \   000025   E9           MOV       A,R1
   \   000026   A4           MUL       AB
   \   000027   2A           ADD       A,R2
   \   000028   F9           MOV       R1,A
   \   000029   74..         MOV       A,#??HW_MOD & 0xff
   \   00002B   28           ADD       A,R0
   \   00002C   F582         MOV       DPL,A
   \   00002E   74..         MOV       A,#(??HW_MOD >> 8) & 0xff
   \   000030   39           ADDC      A,R1
   \   000031   F583         MOV       DPH,A
   \   000033   E0           MOVX      A,@DPTR
   \   000034   F8           MOV       R0,A
   \   000035   A3           INC       DPTR
   \   000036   E0           MOVX      A,@DPTR
   \   000037   F583         MOV       DPH,A
   \   000039   8882         MOV       DPL,R0
   \   00003B   E0           MOVX      A,@DPTR
   \   00003C   F8           MOV       R0,A
   \   00003D   A3           INC       DPTR
   \   00003E   E0           MOVX      A,@DPTR
   \   00003F   F9           MOV       R1,A
   \   000040   E8           MOV       A,R0
   \   000041   49           ORL       A,R1
   \   000042   7037         JNZ       ??AM_HW_Init_2
   \   000044                ; Setup parameters for call to function printf
   \   000044   75....       MOV       ?V0,#??__FUNCTION___2 & 0xff
   \   000047   75....       MOV       ?V1,#(??__FUNCTION___2 >> 8) & 0xff
   \   00004A   78..         MOV       R0,#?V0
   \   00004C   12....       LCALL     ?PUSH_XSTACK_I_TWO
   \   00004F   75..26       MOV       ?V0,#0x26
   \   000052   75..00       MOV       ?V1,#0x0
   \   000055   78..         MOV       R0,#?V0
   \   000057   12....       LCALL     ?PUSH_XSTACK_I_TWO
   \   00005A   75....       MOV       ?V0,#`?<Constant "action_manager.c">` & 0xff
   \   00005D   75....       MOV       ?V1,#(`?<Constant "action_manager.c">` >> 8) & 0xff
   \   000060   78..         MOV       R0,#?V0
   \   000062   12....       LCALL     ?PUSH_XSTACK_I_TWO
   \   000065   7A..         MOV       R2,#`?<Constant "%s:%d:%s -> ">` & 0xff
   \   000067   7B..         MOV       R3,#(`?<Constant "%s:%d:%s -> ">` >> 8) & 0xff
   \   000069   12....       LCALL     `??printf::?relay`; Banked call to: printf
   \   00006C   7406         MOV       A,#0x6
   \   00006E   12....       LCALL     ?DEALLOC_XSTACK8
   \   000071                ; Setup parameters for call to function printf
   \   000071   7A..         MOV       R2,#`?<Constant "\\"HW_MOD[i]->HW_Init =...">` & 0xff
   \   000073   7B..         MOV       R3,#(`?<Constant "\\"HW_MOD[i]->HW_Init =...">` >> 8) & 0xff
   \   000075   12....       LCALL     `??printf::?relay`; Banked call to: printf
   \   000078                ; Setup parameters for call to function DBG_CORE_HALT
   \   000078   12....       LCALL     `??DBG_CORE_HALT::?relay`; Banked call to: DBG_CORE_HALT
   \                     ??AM_HW_Init_2:
   \   00007B                ; Setup parameters for indirect call
   \   00007B   EE           MOV       A,R6
   \   00007C   F8           MOV       R0,A
   \   00007D   7900         MOV       R1,#0x0
   \   00007F   E8           MOV       A,R0
   \   000080   75F002       MOV       B,#0x2
   \   000083   A4           MUL       AB
   \   000084   C8           XCH       A,R0
   \   000085   AAF0         MOV       R2,B
   \   000087   75F000       MOV       B,#0x0
   \   00008A   A4           MUL       AB
   \   00008B   2A           ADD       A,R2
   \   00008C   FA           MOV       R2,A
   \   00008D   75F002       MOV       B,#0x2
   \   000090   E9           MOV       A,R1
   \   000091   A4           MUL       AB
   \   000092   2A           ADD       A,R2
   \   000093   F9           MOV       R1,A
   \   000094   74..         MOV       A,#??HW_MOD & 0xff
   \   000096   28           ADD       A,R0
   \   000097   F582         MOV       DPL,A
   \   000099   74..         MOV       A,#(??HW_MOD >> 8) & 0xff
   \   00009B   39           ADDC      A,R1
   \   00009C   F583         MOV       DPH,A
   \   00009E   E0           MOVX      A,@DPTR
   \   00009F   F8           MOV       R0,A
   \   0000A0   A3           INC       DPTR
   \   0000A1   E0           MOVX      A,@DPTR
   \   0000A2   F583         MOV       DPH,A
   \   0000A4   8882         MOV       DPL,R0
   \   0000A6   E0           MOVX      A,@DPTR
   \   0000A7   F8           MOV       R0,A
   \   0000A8   A3           INC       DPTR
   \   0000A9   E0           MOVX      A,@DPTR
   \   0000AA   F583         MOV       DPH,A
   \   0000AC   8882         MOV       DPL,R0
   \   0000AE   12....       LCALL     ?CALL_IND
   \   0000B1   0E           INC       R6
   \   0000B2   02....       LJMP      ??AM_HW_Init_0 & 0xFFFF
     39          }
   \                     ??AM_HW_Init_1:
   \   0000B5   7F02         MOV       R7,#0x2
   \   0000B7   02....       LJMP      ?BANKED_LEAVE_XDATA
     40          

   \                                 In  segment BANKED_CODE, align 1, keep-with-next
     41          void AM_SW_Init(void){
   \                     AM_SW_Init:
   \   000000                REQUIRE ?V0
   \   000000                REQUIRE ?V1
   \   000000   74F6         MOV       A,#-0xa
   \   000002   12....       LCALL     ?BANKED_ENTER_XDATA
   \   000005                ; Saved register size: 10
   \   000005                ; Auto size: 0
     42            RUNNER(SW_MOD, SW_Init);
   \   000005   7E00         MOV       R6,#0x0
   \                     ??AM_SW_Init_0:
   \   000007   EE           MOV       A,R6
   \   000008   C3           CLR       C
   \   000009   9403         SUBB      A,#0x3
   \   00000B   4003         JC        $+5
   \   00000D   02....       LJMP      ??AM_SW_Init_1 & 0xFFFF
   \   000010   EE           MOV       A,R6
   \   000011   F8           MOV       R0,A
   \   000012   7900         MOV       R1,#0x0
   \   000014   E8           MOV       A,R0
   \   000015   75F002       MOV       B,#0x2
   \   000018   A4           MUL       AB
   \   000019   C8           XCH       A,R0
   \   00001A   AAF0         MOV       R2,B
   \   00001C   75F000       MOV       B,#0x0
   \   00001F   A4           MUL       AB
   \   000020   2A           ADD       A,R2
   \   000021   FA           MOV       R2,A
   \   000022   75F002       MOV       B,#0x2
   \   000025   E9           MOV       A,R1
   \   000026   A4           MUL       AB
   \   000027   2A           ADD       A,R2
   \   000028   F9           MOV       R1,A
   \   000029   74..         MOV       A,#??SW_MOD & 0xff
   \   00002B   28           ADD       A,R0
   \   00002C   F582         MOV       DPL,A
   \   00002E   74..         MOV       A,#(??SW_MOD >> 8) & 0xff
   \   000030   39           ADDC      A,R1
   \   000031   F583         MOV       DPH,A
   \   000033   E0           MOVX      A,@DPTR
   \   000034   F8           MOV       R0,A
   \   000035   A3           INC       DPTR
   \   000036   E0           MOVX      A,@DPTR
   \   000037   F583         MOV       DPH,A
   \   000039   8882         MOV       DPL,R0
   \   00003B   A3           INC       DPTR
   \   00003C   A3           INC       DPTR
   \   00003D   E0           MOVX      A,@DPTR
   \   00003E   F8           MOV       R0,A
   \   00003F   A3           INC       DPTR
   \   000040   E0           MOVX      A,@DPTR
   \   000041   F9           MOV       R1,A
   \   000042   E8           MOV       A,R0
   \   000043   49           ORL       A,R1
   \   000044   7037         JNZ       ??AM_SW_Init_2
   \   000046                ; Setup parameters for call to function printf
   \   000046   75....       MOV       ?V0,#??__FUNCTION___3 & 0xff
   \   000049   75....       MOV       ?V1,#(??__FUNCTION___3 >> 8) & 0xff
   \   00004C   78..         MOV       R0,#?V0
   \   00004E   12....       LCALL     ?PUSH_XSTACK_I_TWO
   \   000051   75..2A       MOV       ?V0,#0x2a
   \   000054   75..00       MOV       ?V1,#0x0
   \   000057   78..         MOV       R0,#?V0
   \   000059   12....       LCALL     ?PUSH_XSTACK_I_TWO
   \   00005C   75....       MOV       ?V0,#`?<Constant "action_manager.c">` & 0xff
   \   00005F   75....       MOV       ?V1,#(`?<Constant "action_manager.c">` >> 8) & 0xff
   \   000062   78..         MOV       R0,#?V0
   \   000064   12....       LCALL     ?PUSH_XSTACK_I_TWO
   \   000067   7A..         MOV       R2,#`?<Constant "%s:%d:%s -> ">` & 0xff
   \   000069   7B..         MOV       R3,#(`?<Constant "%s:%d:%s -> ">` >> 8) & 0xff
   \   00006B   12....       LCALL     `??printf::?relay`; Banked call to: printf
   \   00006E   7406         MOV       A,#0x6
   \   000070   12....       LCALL     ?DEALLOC_XSTACK8
   \   000073                ; Setup parameters for call to function printf
   \   000073   7A..         MOV       R2,#`?<Constant "\\"SW_MOD[i]->SW_Init =...">` & 0xff
   \   000075   7B..         MOV       R3,#(`?<Constant "\\"SW_MOD[i]->SW_Init =...">` >> 8) & 0xff
   \   000077   12....       LCALL     `??printf::?relay`; Banked call to: printf
   \   00007A                ; Setup parameters for call to function DBG_CORE_HALT
   \   00007A   12....       LCALL     `??DBG_CORE_HALT::?relay`; Banked call to: DBG_CORE_HALT
   \                     ??AM_SW_Init_2:
   \   00007D                ; Setup parameters for indirect call
   \   00007D   EE           MOV       A,R6
   \   00007E   F8           MOV       R0,A
   \   00007F   7900         MOV       R1,#0x0
   \   000081   E8           MOV       A,R0
   \   000082   75F002       MOV       B,#0x2
   \   000085   A4           MUL       AB
   \   000086   C8           XCH       A,R0
   \   000087   AAF0         MOV       R2,B
   \   000089   75F000       MOV       B,#0x0
   \   00008C   A4           MUL       AB
   \   00008D   2A           ADD       A,R2
   \   00008E   FA           MOV       R2,A
   \   00008F   75F002       MOV       B,#0x2
   \   000092   E9           MOV       A,R1
   \   000093   A4           MUL       AB
   \   000094   2A           ADD       A,R2
   \   000095   F9           MOV       R1,A
   \   000096   74..         MOV       A,#??SW_MOD & 0xff
   \   000098   28           ADD       A,R0
   \   000099   F582         MOV       DPL,A
   \   00009B   74..         MOV       A,#(??SW_MOD >> 8) & 0xff
   \   00009D   39           ADDC      A,R1
   \   00009E   F583         MOV       DPH,A
   \   0000A0   E0           MOVX      A,@DPTR
   \   0000A1   F8           MOV       R0,A
   \   0000A2   A3           INC       DPTR
   \   0000A3   E0           MOVX      A,@DPTR
   \   0000A4   F583         MOV       DPH,A
   \   0000A6   8882         MOV       DPL,R0
   \   0000A8   A3           INC       DPTR
   \   0000A9   A3           INC       DPTR
   \   0000AA   E0           MOVX      A,@DPTR
   \   0000AB   F8           MOV       R0,A
   \   0000AC   A3           INC       DPTR
   \   0000AD   E0           MOVX      A,@DPTR
   \   0000AE   F583         MOV       DPH,A
   \   0000B0   8882         MOV       DPL,R0
   \   0000B2   12....       LCALL     ?CALL_IND
   \   0000B5   0E           INC       R6
   \   0000B6   02....       LJMP      ??AM_SW_Init_0 & 0xFFFF
     43          }
   \                     ??AM_SW_Init_1:
   \   0000B9   7F02         MOV       R7,#0x2
   \   0000BB   02....       LJMP      ?BANKED_LEAVE_XDATA

   \                                 In  segment BANKED_CODE, align 1, keep-with-next
     44          void AM_Sleep(void){
   \                     AM_Sleep:
   \   000000                REQUIRE ?V0
   \   000000                REQUIRE ?V1
   \   000000   74F6         MOV       A,#-0xa
   \   000002   12....       LCALL     ?BANKED_ENTER_XDATA
   \   000005                ; Saved register size: 10
   \   000005                ; Auto size: 0
     45            RUNNER(POW_MOD, Sleep);
   \   000005   7E00         MOV       R6,#0x0
   \                     ??AM_Sleep_0:
   \   000007   EE           MOV       A,R6
   \   000008   6003         JZ        $+5
   \   00000A   02....       LJMP      ??AM_Sleep_1 & 0xFFFF
   \   00000D   EE           MOV       A,R6
   \   00000E   F8           MOV       R0,A
   \   00000F   7900         MOV       R1,#0x0
   \   000011   E8           MOV       A,R0
   \   000012   75F002       MOV       B,#0x2
   \   000015   A4           MUL       AB
   \   000016   C8           XCH       A,R0
   \   000017   AAF0         MOV       R2,B
   \   000019   75F000       MOV       B,#0x0
   \   00001C   A4           MUL       AB
   \   00001D   2A           ADD       A,R2
   \   00001E   FA           MOV       R2,A
   \   00001F   75F002       MOV       B,#0x2
   \   000022   E9           MOV       A,R1
   \   000023   A4           MUL       AB
   \   000024   2A           ADD       A,R2
   \   000025   F9           MOV       R1,A
   \   000026   74..         MOV       A,#??POW_MOD & 0xff
   \   000028   28           ADD       A,R0
   \   000029   F582         MOV       DPL,A
   \   00002B   74..         MOV       A,#(??POW_MOD >> 8) & 0xff
   \   00002D   39           ADDC      A,R1
   \   00002E   F583         MOV       DPH,A
   \   000030   E0           MOVX      A,@DPTR
   \   000031   F8           MOV       R0,A
   \   000032   A3           INC       DPTR
   \   000033   E0           MOVX      A,@DPTR
   \   000034   F583         MOV       DPH,A
   \   000036   8882         MOV       DPL,R0
   \   000038   A3           INC       DPTR
   \   000039   A3           INC       DPTR
   \   00003A   A3           INC       DPTR
   \   00003B   A3           INC       DPTR
   \   00003C   E0           MOVX      A,@DPTR
   \   00003D   F8           MOV       R0,A
   \   00003E   A3           INC       DPTR
   \   00003F   E0           MOVX      A,@DPTR
   \   000040   F9           MOV       R1,A
   \   000041   E8           MOV       A,R0
   \   000042   49           ORL       A,R1
   \   000043   7037         JNZ       ??AM_Sleep_2
   \   000045                ; Setup parameters for call to function printf
   \   000045   75....       MOV       ?V0,#??__FUNCTION___4 & 0xff
   \   000048   75....       MOV       ?V1,#(??__FUNCTION___4 >> 8) & 0xff
   \   00004B   78..         MOV       R0,#?V0
   \   00004D   12....       LCALL     ?PUSH_XSTACK_I_TWO
   \   000050   75..2D       MOV       ?V0,#0x2d
   \   000053   75..00       MOV       ?V1,#0x0
   \   000056   78..         MOV       R0,#?V0
   \   000058   12....       LCALL     ?PUSH_XSTACK_I_TWO
   \   00005B   75....       MOV       ?V0,#`?<Constant "action_manager.c">` & 0xff
   \   00005E   75....       MOV       ?V1,#(`?<Constant "action_manager.c">` >> 8) & 0xff
   \   000061   78..         MOV       R0,#?V0
   \   000063   12....       LCALL     ?PUSH_XSTACK_I_TWO
   \   000066   7A..         MOV       R2,#`?<Constant "%s:%d:%s -> ">` & 0xff
   \   000068   7B..         MOV       R3,#(`?<Constant "%s:%d:%s -> ">` >> 8) & 0xff
   \   00006A   12....       LCALL     `??printf::?relay`; Banked call to: printf
   \   00006D   7406         MOV       A,#0x6
   \   00006F   12....       LCALL     ?DEALLOC_XSTACK8
   \   000072                ; Setup parameters for call to function printf
   \   000072   7A..         MOV       R2,#`?<Constant "\\"POW_MOD[i]->Sleep ==...">` & 0xff
   \   000074   7B..         MOV       R3,#(`?<Constant "\\"POW_MOD[i]->Sleep ==...">` >> 8) & 0xff
   \   000076   12....       LCALL     `??printf::?relay`; Banked call to: printf
   \   000079                ; Setup parameters for call to function DBG_CORE_HALT
   \   000079   12....       LCALL     `??DBG_CORE_HALT::?relay`; Banked call to: DBG_CORE_HALT
   \                     ??AM_Sleep_2:
   \   00007C                ; Setup parameters for indirect call
   \   00007C   EE           MOV       A,R6
   \   00007D   F8           MOV       R0,A
   \   00007E   7900         MOV       R1,#0x0
   \   000080   E8           MOV       A,R0
   \   000081   75F002       MOV       B,#0x2
   \   000084   A4           MUL       AB
   \   000085   C8           XCH       A,R0
   \   000086   AAF0         MOV       R2,B
   \   000088   75F000       MOV       B,#0x0
   \   00008B   A4           MUL       AB
   \   00008C   2A           ADD       A,R2
   \   00008D   FA           MOV       R2,A
   \   00008E   75F002       MOV       B,#0x2
   \   000091   E9           MOV       A,R1
   \   000092   A4           MUL       AB
   \   000093   2A           ADD       A,R2
   \   000094   F9           MOV       R1,A
   \   000095   74..         MOV       A,#??POW_MOD & 0xff
   \   000097   28           ADD       A,R0
   \   000098   F582         MOV       DPL,A
   \   00009A   74..         MOV       A,#(??POW_MOD >> 8) & 0xff
   \   00009C   39           ADDC      A,R1
   \   00009D   F583         MOV       DPH,A
   \   00009F   E0           MOVX      A,@DPTR
   \   0000A0   F8           MOV       R0,A
   \   0000A1   A3           INC       DPTR
   \   0000A2   E0           MOVX      A,@DPTR
   \   0000A3   F583         MOV       DPH,A
   \   0000A5   8882         MOV       DPL,R0
   \   0000A7   A3           INC       DPTR
   \   0000A8   A3           INC       DPTR
   \   0000A9   A3           INC       DPTR
   \   0000AA   A3           INC       DPTR
   \   0000AB   E0           MOVX      A,@DPTR
   \   0000AC   F8           MOV       R0,A
   \   0000AD   A3           INC       DPTR
   \   0000AE   E0           MOVX      A,@DPTR
   \   0000AF   F583         MOV       DPH,A
   \   0000B1   8882         MOV       DPL,R0
   \   0000B3   12....       LCALL     ?CALL_IND
   \   0000B6   0E           INC       R6
   \   0000B7   02....       LJMP      ??AM_Sleep_0 & 0xFFFF
     46          }
   \                     ??AM_Sleep_1:
   \   0000BA   7F02         MOV       R7,#0x2
   \   0000BC   02....       LJMP      ?BANKED_LEAVE_XDATA

   \                                 In  segment BANKED_CODE, align 1, keep-with-next
     47          void AM_Wakeup(void){
   \                     AM_Wakeup:
   \   000000                REQUIRE ?V0
   \   000000                REQUIRE ?V1
   \   000000   74F6         MOV       A,#-0xa
   \   000002   12....       LCALL     ?BANKED_ENTER_XDATA
   \   000005                ; Saved register size: 10
   \   000005                ; Auto size: 0
     48            RUNNER(POW_MOD, Wakeup);
   \   000005   7E00         MOV       R6,#0x0
   \                     ??AM_Wakeup_0:
   \   000007   EE           MOV       A,R6
   \   000008   6003         JZ        $+5
   \   00000A   02....       LJMP      ??AM_Wakeup_1 & 0xFFFF
   \   00000D   EE           MOV       A,R6
   \   00000E   F8           MOV       R0,A
   \   00000F   7900         MOV       R1,#0x0
   \   000011   E8           MOV       A,R0
   \   000012   75F002       MOV       B,#0x2
   \   000015   A4           MUL       AB
   \   000016   C8           XCH       A,R0
   \   000017   AAF0         MOV       R2,B
   \   000019   75F000       MOV       B,#0x0
   \   00001C   A4           MUL       AB
   \   00001D   2A           ADD       A,R2
   \   00001E   FA           MOV       R2,A
   \   00001F   75F002       MOV       B,#0x2
   \   000022   E9           MOV       A,R1
   \   000023   A4           MUL       AB
   \   000024   2A           ADD       A,R2
   \   000025   F9           MOV       R1,A
   \   000026   74..         MOV       A,#??POW_MOD & 0xff
   \   000028   28           ADD       A,R0
   \   000029   F582         MOV       DPL,A
   \   00002B   74..         MOV       A,#(??POW_MOD >> 8) & 0xff
   \   00002D   39           ADDC      A,R1
   \   00002E   F583         MOV       DPH,A
   \   000030   E0           MOVX      A,@DPTR
   \   000031   F8           MOV       R0,A
   \   000032   A3           INC       DPTR
   \   000033   E0           MOVX      A,@DPTR
   \   000034   C8           XCH       A,R0
   \   000035   2406         ADD       A,#0x6
   \   000037   F582         MOV       DPL,A
   \   000039   C8           XCH       A,R0
   \   00003A   3400         ADDC      A,#0x0
   \   00003C   F583         MOV       DPH,A
   \   00003E   E0           MOVX      A,@DPTR
   \   00003F   F8           MOV       R0,A
   \   000040   A3           INC       DPTR
   \   000041   E0           MOVX      A,@DPTR
   \   000042   F9           MOV       R1,A
   \   000043   E8           MOV       A,R0
   \   000044   49           ORL       A,R1
   \   000045   7037         JNZ       ??AM_Wakeup_2
   \   000047                ; Setup parameters for call to function printf
   \   000047   75....       MOV       ?V0,#??__FUNCTION___5 & 0xff
   \   00004A   75....       MOV       ?V1,#(??__FUNCTION___5 >> 8) & 0xff
   \   00004D   78..         MOV       R0,#?V0
   \   00004F   12....       LCALL     ?PUSH_XSTACK_I_TWO
   \   000052   75..30       MOV       ?V0,#0x30
   \   000055   75..00       MOV       ?V1,#0x0
   \   000058   78..         MOV       R0,#?V0
   \   00005A   12....       LCALL     ?PUSH_XSTACK_I_TWO
   \   00005D   75....       MOV       ?V0,#`?<Constant "action_manager.c">` & 0xff
   \   000060   75....       MOV       ?V1,#(`?<Constant "action_manager.c">` >> 8) & 0xff
   \   000063   78..         MOV       R0,#?V0
   \   000065   12....       LCALL     ?PUSH_XSTACK_I_TWO
   \   000068   7A..         MOV       R2,#`?<Constant "%s:%d:%s -> ">` & 0xff
   \   00006A   7B..         MOV       R3,#(`?<Constant "%s:%d:%s -> ">` >> 8) & 0xff
   \   00006C   12....       LCALL     `??printf::?relay`; Banked call to: printf
   \   00006F   7406         MOV       A,#0x6
   \   000071   12....       LCALL     ?DEALLOC_XSTACK8
   \   000074                ; Setup parameters for call to function printf
   \   000074   7A..         MOV       R2,#`?<Constant "\\"POW_MOD[i]->Wakeup =...">` & 0xff
   \   000076   7B..         MOV       R3,#(`?<Constant "\\"POW_MOD[i]->Wakeup =...">` >> 8) & 0xff
   \   000078   12....       LCALL     `??printf::?relay`; Banked call to: printf
   \   00007B                ; Setup parameters for call to function DBG_CORE_HALT
   \   00007B   12....       LCALL     `??DBG_CORE_HALT::?relay`; Banked call to: DBG_CORE_HALT
   \                     ??AM_Wakeup_2:
   \   00007E                ; Setup parameters for indirect call
   \   00007E   EE           MOV       A,R6
   \   00007F   F8           MOV       R0,A
   \   000080   7900         MOV       R1,#0x0
   \   000082   E8           MOV       A,R0
   \   000083   75F002       MOV       B,#0x2
   \   000086   A4           MUL       AB
   \   000087   C8           XCH       A,R0
   \   000088   AAF0         MOV       R2,B
   \   00008A   75F000       MOV       B,#0x0
   \   00008D   A4           MUL       AB
   \   00008E   2A           ADD       A,R2
   \   00008F   FA           MOV       R2,A
   \   000090   75F002       MOV       B,#0x2
   \   000093   E9           MOV       A,R1
   \   000094   A4           MUL       AB
   \   000095   2A           ADD       A,R2
   \   000096   F9           MOV       R1,A
   \   000097   74..         MOV       A,#??POW_MOD & 0xff
   \   000099   28           ADD       A,R0
   \   00009A   F582         MOV       DPL,A
   \   00009C   74..         MOV       A,#(??POW_MOD >> 8) & 0xff
   \   00009E   39           ADDC      A,R1
   \   00009F   F583         MOV       DPH,A
   \   0000A1   E0           MOVX      A,@DPTR
   \   0000A2   F8           MOV       R0,A
   \   0000A3   A3           INC       DPTR
   \   0000A4   E0           MOVX      A,@DPTR
   \   0000A5   C8           XCH       A,R0
   \   0000A6   2406         ADD       A,#0x6
   \   0000A8   F582         MOV       DPL,A
   \   0000AA   C8           XCH       A,R0
   \   0000AB   3400         ADDC      A,#0x0
   \   0000AD   F583         MOV       DPH,A
   \   0000AF   E0           MOVX      A,@DPTR
   \   0000B0   F8           MOV       R0,A
   \   0000B1   A3           INC       DPTR
   \   0000B2   E0           MOVX      A,@DPTR
   \   0000B3   F583         MOV       DPH,A
   \   0000B5   8882         MOV       DPL,R0
   \   0000B7   12....       LCALL     ?CALL_IND
   \   0000BA   0E           INC       R6
   \   0000BB   02....       LJMP      ??AM_Wakeup_0 & 0xFFFF
     49          }
   \                     ??AM_Wakeup_1:
   \   0000BE   7F02         MOV       R7,#0x2
   \   0000C0   02....       LJMP      ?BANKED_LEAVE_XDATA
     50          
E:\WMNU\IAR_new_arch\STACK_CORE_SRC\alarm_timer.c
      1          #include "alarm_timer.h"
      2          #include "time_manager.h"
      3          #include "action_manager.h"
      4          #include "ioCC2530.h"
      5          #include "stdbool.h"
      6          #include "stdint.h"
      7          #include "debug.h"
      8          #include "cpu.h"
      9          
     10          /**
     11          @file
     12          */
     13          
     14          static void HW_Init(void);  
     15          static inline void IRQEnable(bool state);
     16          static uint32_t ReadTimer(void);
     17          static inline bool isIRQEnable(void);
     18          static inline uint32_t calcCompareTime(nwtime_t time);
     19          static void loadTimerCompare(uint32_t ticks);
     20          

   \                                 In  segment XDATA_I, align 1, keep-with-next
     21          module_s AT_MODULE = {ALIAS(HW_Init)};
   \                     AT_MODULE:
   \   000000                DS 12
   \   00000C                REQUIRE `?<Initializer for AT_MODULE>`
   \   00000C                REQUIRE __INIT_XDATA_I

   \                                 In  segment XDATA_Z, align 1, keep-with-next
     22          static nwtime_t TOFFSET; 
   \                     ??TOFFSET:
   \   000000                DS 2
   \   000002                REQUIRE __INIT_XDATA_Z

   \                                 In  segment XDATA_Z, align 1, keep-with-next
     23          static uint32_t COMPARE_TIME; //!< Значение в регистре compare
   \                     ??COMPARE_TIME:
   \   000000                DS 4
   \   000004                REQUIRE __INIT_XDATA_Z
     24          

   \                                 In  segment BANKED_CODE, align 1, keep-with-next
     25          static void HW_Init(void){
   \                     ??HW_Init:
   \   000000   C082         PUSH      DPL
   \   000002   C083         PUSH      DPH
   \   000004                ; Saved register size: 2
   \   000004                ; Auto size: 0
     26            TOFFSET = 0;
   \   000004   90....       MOV       DPTR,#??TOFFSET
   \   000007   7400         MOV       A,#0x0
   \   000009   F0           MOVX      @DPTR,A
   \   00000A   A3           INC       DPTR
   \   00000B   7400         MOV       A,#0x0
   \   00000D   F0           MOVX      @DPTR,A
     27            COMPARE_TIME = 0;
   \   00000E   90....       MOV       DPTR,#??COMPARE_TIME
   \   000011   7400         MOV       A,#0x0
   \   000013   F0           MOVX      @DPTR,A
   \   000014   A3           INC       DPTR
   \   000015   7400         MOV       A,#0x0
   \   000017   F0           MOVX      @DPTR,A
   \   000018   A3           INC       DPTR
   \   000019   7400         MOV       A,#0x0
   \   00001B   F0           MOVX      @DPTR,A
   \   00001C   A3           INC       DPTR
   \   00001D   7400         MOV       A,#0x0
   \   00001F   F0           MOVX      @DPTR,A
     28          }; 
   \   000020   D083         POP       DPH
   \   000022   D082         POP       DPL
   \   000024   02....       LJMP      ?BRET
     29          

   \                                 In  segment BANKED_CODE, align 1, keep-with-next
     30          void AT_set_time(nwtime_t time){
   \                     AT_set_time:
   \   000000                REQUIRE ?V0
   \   000000                REQUIRE ?V1
   \   000000                REQUIRE ?V2
   \   000000                REQUIRE ?V3
   \   000000                REQUIRE ?V4
   \   000000                REQUIRE ?V5
   \   000000   74F2         MOV       A,#-0xe
   \   000002   12....       LCALL     ?BANKED_ENTER_XDATA
   \   000005                ; Saved register size: 14
   \   000005                ; Auto size: 0
   \   000005   EA           MOV       A,R2
   \   000006   FE           MOV       R6,A
   \   000007   EB           MOV       A,R3
   \   000008   FF           MOV       R7,A
     31            ASSERT(time > 32767);
   \   000009   C3           CLR       C
   \   00000A   EE           MOV       A,R6
   \   00000B   9400         SUBB      A,#0x0
   \   00000D   EF           MOV       A,R7
   \   00000E   9480         SUBB      A,#-0x80
   \   000010   4037         JC        ??AT_set_time_0
   \   000012                ; Setup parameters for call to function printf
   \   000012   75....       MOV       ?V0,#??__FUNCTION___6 & 0xff
   \   000015   75....       MOV       ?V1,#(??__FUNCTION___6 >> 8) & 0xff
   \   000018   78..         MOV       R0,#?V0
   \   00001A   12....       LCALL     ?PUSH_XSTACK_I_TWO
   \   00001D   75..1F       MOV       ?V0,#0x1f
   \   000020   75..00       MOV       ?V1,#0x0
   \   000023   78..         MOV       R0,#?V0
   \   000025   12....       LCALL     ?PUSH_XSTACK_I_TWO
   \   000028   75....       MOV       ?V0,#`?<Constant "alarm_timer.c">` & 0xff
   \   00002B   75....       MOV       ?V1,#(`?<Constant "alarm_timer.c">` >> 8) & 0xff
   \   00002E   78..         MOV       R0,#?V0
   \   000030   12....       LCALL     ?PUSH_XSTACK_I_TWO
   \   000033   7A..         MOV       R2,#`?<Constant "%s:%d:%s -> ">_1` & 0xff
   \   000035   7B..         MOV       R3,#(`?<Constant "%s:%d:%s -> ">_1` >> 8) & 0xff
   \   000037   12....       LCALL     `??printf::?relay`; Banked call to: printf
   \   00003A   7406         MOV       A,#0x6
   \   00003C   12....       LCALL     ?DEALLOC_XSTACK8
   \   00003F                ; Setup parameters for call to function printf
   \   00003F   7A..         MOV       R2,#`?<Constant "\\"time > 32767\\" Faild! \\r\\n">` & 0xff
   \   000041   7B..         MOV       R3,#(`?<Constant "\\"time > 32767\\" Faild! \\r\\n">` >> 8) & 0xff
   \   000043   12....       LCALL     `??printf::?relay`; Banked call to: printf
   \   000046                ; Setup parameters for call to function DBG_CORE_HALT
   \   000046   12....       LCALL     `??DBG_CORE_HALT::?relay`; Banked call to: DBG_CORE_HALT
     32            nwtime_t timer = ReadTimer();
   \                     ??AT_set_time_0:
   \   000049                ; Setup parameters for call to function ReadTimer
   \   000049   12....       LCALL     `??ReadTimer::?relay`; Banked call to: ReadTimer
   \   00004C   8A..         MOV       ?V0,R2
   \   00004E   8B..         MOV       ?V1,R3
   \   000050   8C..         MOV       ?V2,R4
   \   000052   8D..         MOV       ?V3,R5
   \   000054   85....       MOV       ?V4,?V0
   \   000057   85....       MOV       ?V5,?V1
     33            TOFFSET = time - timer;
   \   00005A   EE           MOV       A,R6
   \   00005B   C3           CLR       C
   \   00005C   95..         SUBB      A,?V4
   \   00005E   F8           MOV       R0,A
   \   00005F   EF           MOV       A,R7
   \   000060   95..         SUBB      A,?V5
   \   000062   F9           MOV       R1,A
   \   000063   90....       MOV       DPTR,#??TOFFSET
   \   000066   E8           MOV       A,R0
   \   000067   F0           MOVX      @DPTR,A
   \   000068   A3           INC       DPTR
   \   000069   E9           MOV       A,R1
   \   00006A   F0           MOVX      @DPTR,A
     34            TOFFSET &= 0x7FFF;
   \   00006B   90....       MOV       DPTR,#??TOFFSET
   \   00006E   E0           MOVX      A,@DPTR
   \   00006F   54FF         ANL       A,#0xff
   \   000071   F0           MOVX      @DPTR,A
   \   000072   A3           INC       DPTR
   \   000073   E0           MOVX      A,@DPTR
   \   000074   547F         ANL       A,#0x7f
   \   000076   F0           MOVX      @DPTR,A
     35            // После установки времени нужно изменить compare time в таймере
     36            // Но только в случаи если прерывание активно
     37            if (isIRQEnable())
   \   000077                ; Setup parameters for call to function isIRQEnable
   \   000077   12....       LCALL     `??isIRQEnable::?relay`; Banked call to: isIRQEnable
   \   00007A   500F         JNC       ??AT_set_time_1
     38              AT_set_alarm(COMPARE_TIME);
   \   00007C                ; Setup parameters for call to function AT_set_alarm
   \   00007C   90....       MOV       DPTR,#??COMPARE_TIME
   \   00007F   78..         MOV       R0,#?V0
   \   000081   12....       LCALL     ?L_MOV_X
   \   000084   AA..         MOV       R2,?V0
   \   000086   AB..         MOV       R3,?V1
   \   000088   12....       LCALL     `??AT_set_alarm::?relay`; Banked call to: AT_set_alarm
     39          }
   \                     ??AT_set_time_1:
   \   00008B   7F06         MOV       R7,#0x6
   \   00008D   02....       LJMP      ?BANKED_LEAVE_XDATA
     40          

   \                                 In  segment BANKED_CODE, align 1, keep-with-next
     41          nwtime_t AT_time(void){
   \                     AT_time:
   \   000000                REQUIRE ?V0
   \   000000                REQUIRE ?V1
   \   000000                REQUIRE ?V2
   \   000000                REQUIRE ?V3
   \   000000                REQUIRE ?V4
   \   000000                REQUIRE ?V5
   \   000000                REQUIRE ?V6
   \   000000                REQUIRE ?V7
   \   000000   74F0         MOV       A,#-0x10
   \   000002   12....       LCALL     ?BANKED_ENTER_XDATA
   \   000005                ; Saved register size: 16
   \   000005                ; Auto size: 0
     42            uint32_t val = ReadTimer();
   \   000005                ; Setup parameters for call to function ReadTimer
   \   000005   12....       LCALL     `??ReadTimer::?relay`; Banked call to: ReadTimer
   \   000008   8A..         MOV       ?V4,R2
   \   00000A   8B..         MOV       ?V5,R3
   \   00000C   8C..         MOV       ?V6,R4
   \   00000E   8D..         MOV       ?V7,R5
     43            // TOFFSET = NETWORK TIME - TIMER
     44            // NETWORK TIME = TIMER + TOFFSET
     45            val +=TOFFSET;
   \   000010   90....       MOV       DPTR,#??TOFFSET
   \   000013   E0           MOVX      A,@DPTR
   \   000014   F5..         MOV       ?V0,A
   \   000016   A3           INC       DPTR
   \   000017   E0           MOVX      A,@DPTR
   \   000018   F5..         MOV       ?V1,A
   \   00001A   E4           CLR       A
   \   00001B   F5..         MOV       ?V2,A
   \   00001D   F5..         MOV       ?V3,A
   \   00001F   78..         MOV       R0,#?V4
   \   000021   79..         MOV       R1,#?V0
   \   000023   12....       LCALL     ?L_ADD
     46            val &= 0x7FFF; // Приводим значения таймера к 0-32767
   \   000026   90....       MOV       DPTR,#__Constant_7fff
   \   000029   78..         MOV       R0,#?V4
   \   00002B   12....       LCALL     ?L_AND_X
     47            return val;
   \   00002E   AA..         MOV       R2,?V4
   \   000030   AB..         MOV       R3,?V5
   \   000032   7F08         MOV       R7,#0x8
   \   000034   02....       LJMP      ?BANKED_LEAVE_XDATA
     48          }
     49          
     50          /**
     51          @brief Ждем наступления определенного момента времени
     52          */

   \                                 In  segment BANKED_CODE, align 1, keep-with-next
     53          void AT_wait(nwtime_t time){
   \                     AT_wait:
   \   000000                REQUIRE ?V0
   \   000000                REQUIRE ?V1
   \   000000                REQUIRE ?V2
   \   000000                REQUIRE ?V3
   \   000000   74F4         MOV       A,#-0xc
   \   000002   12....       LCALL     ?BANKED_ENTER_XDATA
   \   000005                ; Saved register size: 12
   \   000005                ; Auto size: 0
   \   000005   EA           MOV       A,R2
   \   000006   FE           MOV       R6,A
   \   000007   EB           MOV       A,R3
   \   000008   FF           MOV       R7,A
     54            ASSERT(time > 32767);  
   \   000009   C3           CLR       C
   \   00000A   EE           MOV       A,R6
   \   00000B   9400         SUBB      A,#0x0
   \   00000D   EF           MOV       A,R7
   \   00000E   9480         SUBB      A,#-0x80
   \   000010   4037         JC        ??AT_wait_0
   \   000012                ; Setup parameters for call to function printf
   \   000012   75....       MOV       ?V0,#??__FUNCTION___7 & 0xff
   \   000015   75....       MOV       ?V1,#(??__FUNCTION___7 >> 8) & 0xff
   \   000018   78..         MOV       R0,#?V0
   \   00001A   12....       LCALL     ?PUSH_XSTACK_I_TWO
   \   00001D   75..36       MOV       ?V0,#0x36
   \   000020   75..00       MOV       ?V1,#0x0
   \   000023   78..         MOV       R0,#?V0
   \   000025   12....       LCALL     ?PUSH_XSTACK_I_TWO
   \   000028   75....       MOV       ?V0,#`?<Constant "alarm_timer.c">` & 0xff
   \   00002B   75....       MOV       ?V1,#(`?<Constant "alarm_timer.c">` >> 8) & 0xff
   \   00002E   78..         MOV       R0,#?V0
   \   000030   12....       LCALL     ?PUSH_XSTACK_I_TWO
   \   000033   7A..         MOV       R2,#`?<Constant "%s:%d:%s -> ">_1` & 0xff
   \   000035   7B..         MOV       R3,#(`?<Constant "%s:%d:%s -> ">_1` >> 8) & 0xff
   \   000037   12....       LCALL     `??printf::?relay`; Banked call to: printf
   \   00003A   7406         MOV       A,#0x6
   \   00003C   12....       LCALL     ?DEALLOC_XSTACK8
   \   00003F                ; Setup parameters for call to function printf
   \   00003F   7A..         MOV       R2,#`?<Constant "\\"time > 32767\\" Faild! \\r\\n">` & 0xff
   \   000041   7B..         MOV       R3,#(`?<Constant "\\"time > 32767\\" Faild! \\r\\n">` >> 8) & 0xff
   \   000043   12....       LCALL     `??printf::?relay`; Banked call to: printf
   \   000046                ; Setup parameters for call to function DBG_CORE_HALT
   \   000046   12....       LCALL     `??DBG_CORE_HALT::?relay`; Banked call to: DBG_CORE_HALT
     55            static union 
     56            {
     57              uint32_t val;
     58              uint8_t fild[4];
     59            } val;
     60            val.val = 0;
   \                     ??AT_wait_0:
   \   000049   90....       MOV       DPTR,#??val
   \   00004C   7400         MOV       A,#0x0
   \   00004E   F0           MOVX      @DPTR,A
   \   00004F   A3           INC       DPTR
   \   000050   7400         MOV       A,#0x0
   \   000052   F0           MOVX      @DPTR,A
   \   000053   A3           INC       DPTR
   \   000054   7400         MOV       A,#0x0
   \   000056   F0           MOVX      @DPTR,A
   \   000057   A3           INC       DPTR
   \   000058   7400         MOV       A,#0x0
   \   00005A   F0           MOVX      @DPTR,A
     61            // TOFFSET = NETWORK TIME - TIMER
     62            // NETWORK TIME = TIMER + TOFFSET
     63            // Ждем синхронизацию таймера после пробуждения
     64            while (!(SLEEPSTA & 0x01));
   \                     ??AT_wait_1:
   \   00005B   E59D         MOV       A,0x9d
   \   00005D   A2E0         MOV       C,0xE0 /* A   */.0
   \   00005F   50FA         JNC       ??AT_wait_1
     65            do{
     66              // Соблюдаем порядок чтения регисторов ST  
     67              val.fild[0] = ST0;
   \                     ??AT_wait_2:
   \   000061   E595         MOV       A,0x95
   \   000063   90....       MOV       DPTR,#??val
   \   000066   F0           MOVX      @DPTR,A
     68              val.fild[1] = ST1;
   \   000067   E596         MOV       A,0x96
   \   000069   90....       MOV       DPTR,#??val + 1
   \   00006C   F0           MOVX      @DPTR,A
     69              val.fild[2] = ST2;
   \   00006D   E597         MOV       A,0x97
   \   00006F   90....       MOV       DPTR,#??val + 2
   \   000072   F0           MOVX      @DPTR,A
     70              val.val +=TOFFSET;
   \   000073   90....       MOV       DPTR,#??TOFFSET
   \   000076   E0           MOVX      A,@DPTR
   \   000077   F5..         MOV       ?V0,A
   \   000079   A3           INC       DPTR
   \   00007A   E0           MOVX      A,@DPTR
   \   00007B   F5..         MOV       ?V1,A
   \   00007D   E4           CLR       A
   \   00007E   F5..         MOV       ?V2,A
   \   000080   F5..         MOV       ?V3,A
   \   000082   90....       MOV       DPTR,#??val
   \   000085   78..         MOV       R0,#?V0
   \   000087   12....       LCALL     ?L_ADD_TO_X
     71              val.val &= 0x7FFF; // Приводим значения таймера к 0-32767    
   \   00008A   90....       MOV       DPTR,#__Constant_7fff
   \   00008D   78..         MOV       R0,#?V0
   \   00008F   12....       LCALL     ?L_MOV_X
   \   000092   90....       MOV       DPTR,#??val
   \   000095   78..         MOV       R0,#?V0
   \   000097   12....       LCALL     ?L_AND_TO_X
     72            } while (val.val < time);
   \   00009A   8E..         MOV       ?V0,R6
   \   00009C   8F..         MOV       ?V1,R7
   \   00009E   E4           CLR       A
   \   00009F   F5..         MOV       ?V2,A
   \   0000A1   F5..         MOV       ?V3,A
   \   0000A3   90....       MOV       DPTR,#??val
   \   0000A6   78..         MOV       R0,#?V0
   \   0000A8   12....       LCALL     ?UL_GT_X
   \   0000AB   40B4         JC        ??AT_wait_2
     73          }
   \   0000AD   7F04         MOV       R7,#0x4
   \   0000AF   02....       LJMP      ?BANKED_LEAVE_XDATA
   \   0000B2                REQUIRE SLEEPSTA
   \   0000B2                REQUIRE ST0
   \   0000B2                REQUIRE ST1
   \   0000B2                REQUIRE ST2

   \                                 In  segment XDATA_Z, align 1, keep-with-next
   \                     ??val:
   \   000000                DS 4
   \   000004                REQUIRE __INIT_XDATA_Z
     74          
     75          /**
     76          @brief Разрешение прерываний таймера сна
     77          @params[in] state = true - разрешить обработку прерываний
     78          */

   \                                 In  segment BANKED_CODE, align 1, keep-with-next
     79          static inline void IRQEnable(bool state){
   \                     ??IRQEnable:
   \   000000                ; Saved register size: 0
   \   000000                ; Auto size: 0
   \   000000   A2F0         MOV       C,B.0
   \   000002   92F0         MOV       B.0,C
     80            if (state)
   \   000004   A2F0         MOV       C,B.0
   \   000006   5004         JNC       ??IRQEnable_1
     81              STIE = 1;
   \   000008   D2AD         SETB      0xa8.5
   \   00000A   8002         SJMP      ??IRQEnable_2
     82            else
     83              STIE = 0;
   \                     ??IRQEnable_1:
   \   00000C   C2AD         CLR       0xa8.5
     84          }
   \                     ??IRQEnable_2:
   \   00000E   02....       LJMP      ?BRET
   \   000011                REQUIRE _A_IEN0
     85          
     86          /**
     87          @brief Устанавливает время прерывания
     88          @details Время прерывания устанавливается относительно времени сети
     89          ,к примеру, что бы проснуться в таймслот номер 0, нужно установить ticks = 0.
     90          Процедура учитывает текущее значение таймера и перерасчитывает значение ticks. 
     91          @params[in] ticks время сети в тиках когда нужно проснуться
     92          */

   \                                 In  segment BANKED_CODE, align 1, keep-with-next
     93          void AT_set_alarm(nwtime_t alarm){
   \                     AT_set_alarm:
   \   000000                REQUIRE ?V0
   \   000000                REQUIRE ?V1
   \   000000                REQUIRE ?V2
   \   000000                REQUIRE ?V3
   \   000000   74F4         MOV       A,#-0xc
   \   000002   12....       LCALL     ?BANKED_ENTER_XDATA
   \   000005                ; Saved register size: 12
   \   000005                ; Auto size: 0
   \   000005   EA           MOV       A,R2
   \   000006   FE           MOV       R6,A
   \   000007   EB           MOV       A,R3
   \   000008   FF           MOV       R7,A
     94            ASSERT(alarm > 32767);
   \   000009   C3           CLR       C
   \   00000A   EE           MOV       A,R6
   \   00000B   9400         SUBB      A,#0x0
   \   00000D   EF           MOV       A,R7
   \   00000E   9480         SUBB      A,#-0x80
   \   000010   4037         JC        ??AT_set_alarm_0
   \   000012                ; Setup parameters for call to function printf
   \   000012   75....       MOV       ?V0,#??__FUNCTION___8 & 0xff
   \   000015   75....       MOV       ?V1,#(??__FUNCTION___8 >> 8) & 0xff
   \   000018   78..         MOV       R0,#?V0
   \   00001A   12....       LCALL     ?PUSH_XSTACK_I_TWO
   \   00001D   75..5E       MOV       ?V0,#0x5e
   \   000020   75..00       MOV       ?V1,#0x0
   \   000023   78..         MOV       R0,#?V0
   \   000025   12....       LCALL     ?PUSH_XSTACK_I_TWO
   \   000028   75....       MOV       ?V0,#`?<Constant "alarm_timer.c">` & 0xff
   \   00002B   75....       MOV       ?V1,#(`?<Constant "alarm_timer.c">` >> 8) & 0xff
   \   00002E   78..         MOV       R0,#?V0
   \   000030   12....       LCALL     ?PUSH_XSTACK_I_TWO
   \   000033   7A..         MOV       R2,#`?<Constant "%s:%d:%s -> ">_1` & 0xff
   \   000035   7B..         MOV       R3,#(`?<Constant "%s:%d:%s -> ">_1` >> 8) & 0xff
   \   000037   12....       LCALL     `??printf::?relay`; Banked call to: printf
   \   00003A   7406         MOV       A,#0x6
   \   00003C   12....       LCALL     ?DEALLOC_XSTACK8
   \   00003F                ; Setup parameters for call to function printf
   \   00003F   7A..         MOV       R2,#`?<Constant "\\"alarm > 32767\\" Faild...">` & 0xff
   \   000041   7B..         MOV       R3,#(`?<Constant "\\"alarm > 32767\\" Faild...">` >> 8) & 0xff
   \   000043   12....       LCALL     `??printf::?relay`; Banked call to: printf
   \   000046                ; Setup parameters for call to function DBG_CORE_HALT
   \   000046   12....       LCALL     `??DBG_CORE_HALT::?relay`; Banked call to: DBG_CORE_HALT
     95            COMPARE_TIME = alarm; // Сохраняем установленное значение
   \                     ??AT_set_alarm_0:
   \   000049   EE           MOV       A,R6
   \   00004A   FA           MOV       R2,A
   \   00004B   EF           MOV       A,R7
   \   00004C   FB           MOV       R3,A
   \   00004D   E4           CLR       A
   \   00004E   FC           MOV       R4,A
   \   00004F   FD           MOV       R5,A
   \   000050   90....       MOV       DPTR,#??COMPARE_TIME
   \   000053   EA           MOV       A,R2
   \   000054   F0           MOVX      @DPTR,A
   \   000055   A3           INC       DPTR
   \   000056   EB           MOV       A,R3
   \   000057   F0           MOVX      @DPTR,A
   \   000058   A3           INC       DPTR
   \   000059   EC           MOV       A,R4
   \   00005A   F0           MOVX      @DPTR,A
   \   00005B   A3           INC       DPTR
   \   00005C   ED           MOV       A,R5
   \   00005D   F0           MOVX      @DPTR,A
     96            uint32_t compare_time = calcCompareTime(alarm);
   \   00005E                ; Setup parameters for call to function calcCompareTime
   \   00005E   EE           MOV       A,R6
   \   00005F   FA           MOV       R2,A
   \   000060   EF           MOV       A,R7
   \   000061   FB           MOV       R3,A
   \   000062   12....       LCALL     `??calcCompareTime::?relay`; Banked call to: calcCompareTime
   \   000065   8A..         MOV       ?V0,R2
   \   000067   8B..         MOV       ?V1,R3
   \   000069   8C..         MOV       ?V2,R4
   \   00006B   8D..         MOV       ?V3,R5
     97            loadTimerCompare(compare_time);
   \   00006D                ; Setup parameters for call to function loadTimerCompare
   \   00006D   AA..         MOV       R2,?V0
   \   00006F   AB..         MOV       R3,?V1
   \   000071   AC..         MOV       R4,?V2
   \   000073   AD..         MOV       R5,?V3
   \   000075   12....       LCALL     `??loadTimerCompare::?relay`; Banked call to: loadTimerCompare
     98            IRQEnable(true);
   \   000078                ; Setup parameters for call to function IRQEnable
   \   000078   D2F0         SETB      B.0
   \   00007A   12....       LCALL     `??IRQEnable::?relay`; Banked call to: IRQEnable
     99          }
   \   00007D   7F04         MOV       R7,#0x4
   \   00007F   02....       LJMP      ?BANKED_LEAVE_XDATA
    100          
    101          /**
    102          @brief Вычисляет значение, которое нужно установить в регистр compare таймера.
    103          @params[in] time время сети в тикак
    104          */

   \                                 In  segment BANKED_CODE, align 1, keep-with-next
    105          static inline uint32_t calcCompareTime(nwtime_t time){   
   \                     ??calcCompareTime:
   \   000000                REQUIRE ?V0
   \   000000                REQUIRE ?V1
   \   000000                REQUIRE ?V2
   \   000000                REQUIRE ?V3
   \   000000                REQUIRE ?V4
   \   000000                REQUIRE ?V5
   \   000000                REQUIRE ?V6
   \   000000                REQUIRE ?V7
   \   000000   74F0         MOV       A,#-0x10
   \   000002   12....       LCALL     ?BANKED_ENTER_XDATA
   \   000005                ; Saved register size: 16
   \   000005                ; Auto size: 6
   \   000005   74FA         MOV       A,#-0x6
   \   000007   12....       LCALL     ?ALLOC_XSTACK8
   \   00000A   7404         MOV       A,#0x4
   \   00000C   12....       LCALL     ?XSTACK_DISP0_8
   \   00000F   EA           MOV       A,R2
   \   000010   F0           MOVX      @DPTR,A
   \   000011   A3           INC       DPTR
   \   000012   EB           MOV       A,R3
   \   000013   F0           MOVX      @DPTR,A
    106              uint32_t timer = ReadTimer(); // Текущее значение счетчика
   \   000014                ; Setup parameters for call to function ReadTimer
   \   000014   12....       LCALL     `??ReadTimer::?relay`; Banked call to: ReadTimer
   \   000017   8A..         MOV       ?V4,R2
   \   000019   8B..         MOV       ?V5,R3
   \   00001B   8C..         MOV       ?V6,R4
   \   00001D   8D..         MOV       ?V7,R5
    107              //NETWORK TIME = TIMER + TOFFSET  
    108              // Приводим такты к тактам таймера
    109              uint16_t ticks_offset = (time - TOFFSET) & 0x7FFF;
   \   00001F   7404         MOV       A,#0x4
   \   000021   12....       LCALL     ?XSTACK_DISP0_8
   \   000024   C082         PUSH      DPL
   \   000026   C083         PUSH      DPH
   \   000028   90....       MOV       DPTR,#??TOFFSET
   \   00002B   E0           MOVX      A,@DPTR
   \   00002C   F8           MOV       R0,A
   \   00002D   A3           INC       DPTR
   \   00002E   E0           MOVX      A,@DPTR
   \   00002F   F9           MOV       R1,A
   \   000030   D083         POP       DPH
   \   000032   D082         POP       DPL
   \   000034   E0           MOVX      A,@DPTR
   \   000035   C3           CLR       C
   \   000036   98           SUBB      A,R0
   \   000037   F8           MOV       R0,A
   \   000038   A3           INC       DPTR
   \   000039   E0           MOVX      A,@DPTR
   \   00003A   99           SUBB      A,R1
   \   00003B   F9           MOV       R1,A
   \   00003C   E8           MOV       A,R0
   \   00003D   54FF         ANL       A,#0xff
   \   00003F   FE           MOV       R6,A
   \   000040   E9           MOV       A,R1
   \   000041   547F         ANL       A,#0x7f
   \   000043   FF           MOV       R7,A
    110              uint32_t cmp_time = timer & ~0x7FFF; // Убираем младшие 15 бит
   \   000044   85....       MOV       ?V0,?V4
   \   000047   85....       MOV       ?V1,?V5
   \   00004A   85....       MOV       ?V2,?V6
   \   00004D   85....       MOV       ?V3,?V7
   \   000050   90....       MOV       DPTR,#__Constant_ffff8000
   \   000053   78..         MOV       R0,#?V0
   \   000055   12....       LCALL     ?L_AND_X
   \   000058   85..82       MOV       DPL,?XSP + 0
   \   00005B   85..83       MOV       DPH,?XSP + 1
   \   00005E   78..         MOV       R0,#?V0
   \   000060   12....       LCALL     ?L_MOV_TO_X
    111              cmp_time |= ticks_offset; // Вычисляем новое время
   \   000063   8E..         MOV       ?V0,R6
   \   000065   8F..         MOV       ?V1,R7
   \   000067   E4           CLR       A
   \   000068   F5..         MOV       ?V2,A
   \   00006A   F5..         MOV       ?V3,A
   \   00006C   85..82       MOV       DPL,?XSP + 0
   \   00006F   85..83       MOV       DPH,?XSP + 1
   \   000072   78..         MOV       R0,#?V0
   \   000074   12....       LCALL     ?L_IOR_TO_X
    112              if (cmp_time <= timer){
   \   000077   85..82       MOV       DPL,?XSP + 0
   \   00007A   85..83       MOV       DPH,?XSP + 1
   \   00007D   78..         MOV       R0,#?V4
   \   00007F   12....       LCALL     ?UL_GE_X
   \   000082   5026         JNC       ??calcCompareTime_1
    113                cmp_time += 0x8000;
   \   000084   90....       MOV       DPTR,#__Constant_8000
   \   000087   78..         MOV       R0,#?V0
   \   000089   12....       LCALL     ?L_MOV_X
   \   00008C   85..82       MOV       DPL,?XSP + 0
   \   00008F   85..83       MOV       DPH,?XSP + 1
   \   000092   78..         MOV       R0,#?V0
   \   000094   12....       LCALL     ?L_ADD_TO_X
    114                cmp_time &=0xFFFFFF;
   \   000097   90....       MOV       DPTR,#__Constant_ffffff
   \   00009A   78..         MOV       R0,#?V0
   \   00009C   12....       LCALL     ?L_MOV_X
   \   00009F   85..82       MOV       DPL,?XSP + 0
   \   0000A2   85..83       MOV       DPH,?XSP + 1
   \   0000A5   78..         MOV       R0,#?V0
   \   0000A7   12....       LCALL     ?L_AND_TO_X
    115              }
    116               LOG_OFF("Timer = %lu, Ticks = %d,CMP = %lu \r\n",
    117                    timer, ticks, cmp_time );
    118              return cmp_time;
   \                     ??calcCompareTime_1:
   \   0000AA   85..82       MOV       DPL,?XSP + 0
   \   0000AD   85..83       MOV       DPH,?XSP + 1
   \   0000B0   12....       LCALL     ?XLOAD_R2345
   \   0000B3   7406         MOV       A,#0x6
   \   0000B5   12....       LCALL     ?DEALLOC_XSTACK8
   \   0000B8   7F08         MOV       R7,#0x8
   \   0000BA   02....       LJMP      ?BANKED_LEAVE_XDATA
    119          }
    120          
    121          /**
    122          @brief Возвращает текущее значение таймера
    123          @return Текущие ticks
    124          */

   \                                 In  segment BANKED_CODE, align 1, keep-with-next
    125          static uint32_t ReadTimer(void){
   \                     ??ReadTimer:
   \   000000   C082         PUSH      DPL
   \   000002   C083         PUSH      DPH
   \   000004                ; Saved register size: 2
   \   000004                ; Auto size: 0
    126            static union 
    127            {
    128              uint32_t val;
    129              uint8_t fild[4];
    130            } ret_val;
    131            ret_val.val = 0;
   \   000004   90....       MOV       DPTR,#??ret_val
   \   000007   7400         MOV       A,#0x0
   \   000009   F0           MOVX      @DPTR,A
   \   00000A   A3           INC       DPTR
   \   00000B   7400         MOV       A,#0x0
   \   00000D   F0           MOVX      @DPTR,A
   \   00000E   A3           INC       DPTR
   \   00000F   7400         MOV       A,#0x0
   \   000011   F0           MOVX      @DPTR,A
   \   000012   A3           INC       DPTR
   \   000013   7400         MOV       A,#0x0
   \   000015   F0           MOVX      @DPTR,A
    132            // Ждем синхронизацию таймера после пробуждения
    133            while (!(SLEEPSTA & 0x01));
   \                     ??ReadTimer_1:
   \   000016   E59D         MOV       A,0x9d
   \   000018   A2E0         MOV       C,0xE0 /* A   */.0
   \   00001A   50FA         JNC       ??ReadTimer_1
    134            // Соблюдаем порядок чтения регисторов ST  
    135            ret_val.fild[0] = ST0;
   \   00001C   E595         MOV       A,0x95
   \   00001E   90....       MOV       DPTR,#??ret_val
   \   000021   F0           MOVX      @DPTR,A
    136            ret_val.fild[1] = ST1;
   \   000022   E596         MOV       A,0x96
   \   000024   90....       MOV       DPTR,#??ret_val + 1
   \   000027   F0           MOVX      @DPTR,A
    137            ret_val.fild[2] = ST2;
   \   000028   E597         MOV       A,0x97
   \   00002A   90....       MOV       DPTR,#??ret_val + 2
   \   00002D   F0           MOVX      @DPTR,A
    138            return ret_val.val;
   \   00002E   90....       MOV       DPTR,#??ret_val
   \   000031   12....       LCALL     ?XLOAD_R2345
   \   000034   D083         POP       DPH
   \   000036   D082         POP       DPL
   \   000038   02....       LJMP      ?BRET
   \   00003B                REQUIRE SLEEPSTA
   \   00003B                REQUIRE ST0
   \   00003B                REQUIRE ST1
   \   00003B                REQUIRE ST2
    139          }

   \                                 In  segment XDATA_Z, align 1, keep-with-next
   \                     ??ret_val:
   \   000000                DS 4
   \   000004                REQUIRE __INIT_XDATA_Z
    140          
    141          /**
    142          @brief Устанавливает время пробуждения микроконтролера
    143          @params[in] ticks 24 битное значение времени пробуждения в ticks
    144          */

   \                                 In  segment BANKED_CODE, align 1, keep-with-next
    145          static void loadTimerCompare(uint32_t ticks){
   \                     ??loadTimerCompare:
   \   000000                REQUIRE ?V0
   \   000000                REQUIRE ?V1
   \   000000                REQUIRE ?V2
   \   000000                REQUIRE ?V3
   \   000000   74F4         MOV       A,#-0xc
   \   000002   12....       LCALL     ?BANKED_ENTER_XDATA
   \   000005                ; Saved register size: 12
   \   000005                ; Auto size: 4
   \   000005   74FC         MOV       A,#-0x4
   \   000007   12....       LCALL     ?ALLOC_XSTACK8
   \   00000A   8A..         MOV       ?V0,R2
   \   00000C   8B..         MOV       ?V1,R3
   \   00000E   8C..         MOV       ?V2,R4
   \   000010   8D..         MOV       ?V3,R5
    146            union 
    147            {
    148              uint32_t val;
    149              uint8_t fild[4];
    150            } value;
    151            value.val = ticks;
   \   000012   85..82       MOV       DPL,?XSP + 0
   \   000015   85..83       MOV       DPH,?XSP + 1
   \   000018   78..         MOV       R0,#?V0
   \   00001A   12....       LCALL     ?L_MOV_TO_X
    152            // Ждем разрешения на запись нового значения
    153            while (!(STLOAD & 0x01));
   \                     ??loadTimerCompare_1:
   \   00001D   E5AD         MOV       A,0xad
   \   00001F   A2E0         MOV       C,0xE0 /* A   */.0
   \   000021   50FA         JNC       ??loadTimerCompare_1
    154            // Регистр ST0 должен быть записан в последнию очередь
    155            ST2 = value.fild[2];
   \   000023   7402         MOV       A,#0x2
   \   000025   12....       LCALL     ?XSTACK_DISP0_8
   \   000028   E0           MOVX      A,@DPTR
   \   000029   F597         MOV       0x97,A
    156            ST1 = value.fild[1];
   \   00002B   7401         MOV       A,#0x1
   \   00002D   12....       LCALL     ?XSTACK_DISP0_8
   \   000030   E0           MOVX      A,@DPTR
   \   000031   F596         MOV       0x96,A
    157            ST0 = value.fild[0];
   \   000033   85..82       MOV       DPL,?XSP + 0
   \   000036   85..83       MOV       DPH,?XSP + 1
   \   000039   E0           MOVX      A,@DPTR
   \   00003A   F595         MOV       0x95,A
    158          }
   \   00003C   7404         MOV       A,#0x4
   \   00003E   12....       LCALL     ?DEALLOC_XSTACK8
   \   000041   7F04         MOV       R7,#0x4
   \   000043   02....       LJMP      ?BANKED_LEAVE_XDATA
   \   000046                REQUIRE STLOAD
   \   000046                REQUIRE ST2
   \   000046                REQUIRE ST1
   \   000046                REQUIRE ST0
    159          
    160          /**
    161          @brief Проверка активности прерывания таймера
    162          @return true если прерывание установленно
    163          */

   \                                 In  segment BANKED_CODE, align 1, keep-with-next
    164          static inline bool isIRQEnable(void){
   \                     ??isIRQEnable:
   \   000000                ; Saved register size: 0
   \   000000                ; Auto size: 0
    165            return STIE;
   \   000000   A2AD         MOV       C,0xa8.5
   \   000002   02....       LJMP      ?BRET
   \   000005                REQUIRE _A_IEN0
    166          }
    167          
    168          /**
    169          @brief Обработчик прерывания таймера сна
    170          */
    171          #pragma vector=ST_VECTOR

   \                                 In  segment NEAR_CODE, align 1, keep-with-next
    172          __interrupt void TimerCompareInterrupt(void){ 
   \                     TimerCompareInterrupt:
   \   000000                REQUIRE ?V0
   \   000000                REQUIRE ?V1
   \   000000   C0E0         PUSH      A
   \   000002   74F1         MOV       A,#-0xf
   \   000004   12....       LCALL     ?INTERRUPT_ENTER_XSP
   \   000007                ; Saved register size: 15
   \   000007                ; Auto size: 0
    173            INTERRUPT_DISABLE();  
   \   000007   C2AF         CLR       0xa8.7
    174            nwtime_t time = AT_time();
   \   000009                ; Setup parameters for call to function AT_time
   \   000009   12....       LCALL     `??AT_time::?relay`; Banked call to: AT_time
   \   00000C   8A..         MOV       ?V0,R2
   \   00000E   8B..         MOV       ?V1,R3
   \   000010   AE..         MOV       R6,?V0
   \   000012   AF..         MOV       R7,?V1
    175            // Отключаем прерывание таймера. Забота пользователя его включить
    176            IRQEnable(false); 
   \   000014                ; Setup parameters for call to function IRQEnable
   \   000014   C2F0         CLR       B.0
   \   000016   12....       LCALL     `??IRQEnable::?relay`; Banked call to: IRQEnable
    177            TM_IRQ(time); // Передаем управление менеджеру времени
   \   000019                ; Setup parameters for call to function TM_IRQ
   \   000019   EE           MOV       A,R6
   \   00001A   FA           MOV       R2,A
   \   00001B   EF           MOV       A,R7
   \   00001C   FB           MOV       R3,A
   \   00001D   12....       LCALL     `??TM_IRQ::?relay`; Banked call to: TM_IRQ
    178            STIF = 0; // Очищаем флаг прерывания
   \   000020   C2C7         CLR       0xc0.7
    179            INTERRUPT_ENABLE();
   \   000022   D2AF         SETB      0xa8.7
    180          }
   \   000024   7F02         MOV       R7,#0x2
   \   000026   02....       LJMP      ?INTERRUPT_LEAVE_XSP
   \   000029                REQUIRE _A_IEN0
   \   000029                REQUIRE _A_IRCON
E:\WMNU\IAR_new_arch\STACK_CORE_SRC\cpu.c
      1          #include "action_manager.h"
      2          #include "ioCC2530.h"
      3          
      4          /**
      5          @file
      6          */
      7          
      8          static void HW_Init(void);   
      9           

   \                                 In  segment XDATA_I, align 1, keep-with-next
     10          module_s CPU_MODULE = {ALIAS(HW_Init)};
   \                     CPU_MODULE:
   \   000000                DS 12
   \   00000C                REQUIRE `?<Initializer for CPU_MODULE>`
   \   00000C                REQUIRE __INIT_XDATA_I
     11          

   \                                 In  segment BANKED_CODE, align 1, keep-with-next
     12          static void HW_Init(void){
   \                     ??HW_Init_1:
   \   000000                ; Saved register size: 0
   \   000000                ; Auto size: 0
     13            /* Сбрасываем бит OSC32K, будет выбран 32.768 кварц */
     14            CLKCONCMD &= ~(1<<7); 
   \   000000   53C67F       ANL       0xc6,#0x7f
     15            /* Ждем пока бит не станет 0 */
     16            while (CLKCONSTA & (1<<7)); 
   \                     ??HW_Init_6:
   \   000003   E59E         MOV       A,0x9e
   \   000005   A2E7         MOV       C,0xE0 /* A   */.7
   \   000007   40FA         JC        ??HW_Init_6
     17            /* Переходим на 32 Мгц */
     18            CLKCONCMD = 0;// (1<<3);
   \   000009   75C600       MOV       0xc6,#0x0
     19            while (CLKCONSTA&(1<<6));
   \                     ??HW_Init_7:
   \   00000C   E59E         MOV       A,0x9e
   \   00000E   A2E6         MOV       C,0xE0 /* A   */.6
   \   000010   40FA         JC        ??HW_Init_7
     20          };  
   \   000012   02....       LJMP      ?BRET
   \   000015                REQUIRE CLKCONCMD
   \   000015                REQUIRE CLKCONSTA
E:\WMNU\IAR_new_arch\STACK_CORE_SRC\debug.c
      1          #include "debug.h"
      2          #include "action_manager.h"
      3          
      4          /**
      5          @file
      6          */
      7          
      8          static void HW_Init(void);  
      9          static void uart_init(void);
     10           

   \                                 In  segment XDATA_I, align 1, keep-with-next
     11          module_s DBG_MODULE = {ALIAS(HW_Init)};
   \                     DBG_MODULE:
   \   000000                DS 12
   \   00000C                REQUIRE `?<Initializer for DBG_MODULE>`
   \   00000C                REQUIRE __INIT_XDATA_I
     12          

   \                                 In  segment BANKED_CODE, align 1, keep-with-next
     13          static void HW_Init(void){
   \                     ??HW_Init_2:
   \   000000   C082         PUSH      DPL
   \   000002   C083         PUSH      DPH
   \   000004                ; Saved register size: 2
   \   000004                ; Auto size: 0
     14          #ifndef DEBUG
     15            return;
     16          #endif
     17            uart_init();
   \   000004                ; Setup parameters for call to function uart_init
   \   000004   12....       LCALL     `??uart_init::?relay`; Banked call to: uart_init
     18          };  
   \   000007   D083         POP       DPH
   \   000009   D082         POP       DPL
   \   00000B   02....       LJMP      ?BRET
     19          
     20          

   \                                 In  segment BANKED_CODE, align 1, keep-with-next
     21          void DBG_CORE_HALT(void){
   \                     DBG_CORE_HALT:
   \   000000                ; Saved register size: 0
   \   000000                ; Auto size: 0
     22            while(1);
   \                     ??DBG_CORE_HALT_0:
   \   000000   80FE         SJMP      ??DBG_CORE_HALT_0
     23          }
     24          

   \                                 In  segment BANKED_CODE, align 1, keep-with-next
     25          void DBG_CORE_FAULT(void){
   \                     DBG_CORE_FAULT:
   \   000000                ; Saved register size: 0
   \   000000                ; Auto size: 0
     26            while(1);
   \                     ??DBG_CORE_FAULT_0:
   \   000000   80FE         SJMP      ??DBG_CORE_FAULT_0
     27          }
     28          
     29          // Настройка порта uart для отладки

   \                                 In  segment BANKED_CODE, align 1, keep-with-next
     30          static void uart_init(void){
   \                     ??uart_init:
   \   000000                ; Saved register size: 0
   \   000000                ; Auto size: 0
     31            // Выбор расположения UART на выводах
     32            char U0CFG = 0; // 0={TX=P0_3, RX=P0_2
   \   000000   7800         MOV       R0,#0x0
     33            PERCFG |= (U0CFG<<0); 
   \   000002   E8           MOV       A,R0
   \   000003   42F1         ORL       0xf1,A
     34            // U0UCR регистр настройки режима uart. меня устраивает по умолчанию
     35            U0CSR = (1<<7); // Выбираем режим uart  
   \   000005   758680       MOV       0x86,#-0x80
     36            // Настройка скорости передачи данных на 2М  
     37            U0BAUD = 0;  // табличные значения из pdf
   \   000008   75C200       MOV       0xc2,#0x0
     38            U0GCR =  16;
   \   00000B   75C510       MOV       0xc5,#0x10
     39            // Включаем альтернативные функции выводов
     40            P0SEL = (1<<2)|(1<<3);
   \   00000E   75F30C       MOV       0xf3,#0xc
     41            U0CSR |= (1<<6);
   \   000011   438640       ORL       0x86,#0x40
     42          }
   \   000014   02....       LJMP      ?BRET
   \   000017                REQUIRE PERCFG
   \   000017                REQUIRE U0CSR
   \   000017                REQUIRE U0BAUD
   \   000017                REQUIRE U0GCR
   \   000017                REQUIRE P0SEL
     43          
     44          #ifdef DEBUG
     45          #include <yfuns.h>
     46          _STD_BEGIN
     47          #pragma module_name = "?__write"
     48          

   \                                 In  segment BANKED_CODE, align 1, keep-with-next
     49          int MyLowLevelPutchar(int x){
   \                     MyLowLevelPutchar:
   \   000000                ; Saved register size: 0
   \   000000                ; Auto size: 0
     50            while( U0CSR&(1<<0));
   \                     ??MyLowLevelPutchar_0:
   \   000000   E586         MOV       A,0x86
   \   000002   A2E0         MOV       C,0xE0 /* A   */.0
   \   000004   40FA         JC        ??MyLowLevelPutchar_0
     51            U0DBUF = x;
   \   000006   EA           MOV       A,R2
   \   000007   F5C1         MOV       0xc1,A
     52            return x;
   \   000009   02....       LJMP      ?BRET
   \   00000C                REQUIRE U0CSR
   \   00000C                REQUIRE U0DBUF
     53          }
     54          

   \                                 In  segment BANKED_CODE, align 1, keep-with-next
     55          size_t __write(int handle, const unsigned char * buffer, size_t size){
   \                     __write:
   \   000000                REQUIRE ?V0
   \   000000                REQUIRE ?V1
   \   000000                REQUIRE ?V2
   \   000000                REQUIRE ?V3
   \   000000                REQUIRE ?V4
   \   000000                REQUIRE ?V5
   \   000000                REQUIRE ?V6
   \   000000                REQUIRE ?V7
   \   000000   74F0         MOV       A,#-0x10
   \   000002   12....       LCALL     ?BANKED_ENTER_XDATA
   \   000005                ; Saved register size: 16
   \   000005                ; Auto size: 0
   \   000005   8A..         MOV       ?V6,R2
   \   000007   8B..         MOV       ?V7,R3
   \   000009   EC           MOV       A,R4
   \   00000A   FE           MOV       R6,A
   \   00000B   ED           MOV       A,R5
   \   00000C   FF           MOV       R7,A
   \   00000D   7410         MOV       A,#0x10
   \   00000F   12....       LCALL     ?XSTACK_DISP0_8
   \   000012   E0           MOVX      A,@DPTR
   \   000013   F5..         MOV       ?V2,A
   \   000015   A3           INC       DPTR
   \   000016   E0           MOVX      A,@DPTR
   \   000017   F5..         MOV       ?V3,A
     56            /* Remove the #if #endif pair to enable the implementation */
     57            size_t nChars = 0;
   \   000019   75..00       MOV       ?V0,#0x0
   \   00001C   75..00       MOV       ?V1,#0x0
     58            if (buffer == 0)  {
   \   00001F   EE           MOV       A,R6
   \   000020   4F           ORL       A,R7
   \   000021   7006         JNZ       ??__write_0
     59              return 0;
   \   000023   7A00         MOV       R2,#0x0
   \   000025   7B00         MOV       R3,#0x0
   \   000027   806E         SJMP      ??__write_1
     60            }
     61            /* This template only writes to "standard out" and "standard err",
     62             * for all other file handles it returns failure. */
     63            if (handle != _LLIO_STDOUT && handle != _LLIO_STDERR)  {
   \                     ??__write_0:
   \   000029   7401         MOV       A,#0x1
   \   00002B   65..         XRL       A,?V6
   \   00002D   7004         JNZ       ??__write_2
   \   00002F   7400         MOV       A,#0x0
   \   000031   65..         XRL       A,?V7
   \                     ??__write_2:
   \   000033   6012         JZ        ??__write_3
   \   000035   7402         MOV       A,#0x2
   \   000037   65..         XRL       A,?V6
   \   000039   7004         JNZ       ??__write_4
   \   00003B   7400         MOV       A,#0x0
   \   00003D   65..         XRL       A,?V7
   \                     ??__write_4:
   \   00003F   6006         JZ        ??__write_3
     64              return _LLIO_ERROR;
   \   000041   7AFF         MOV       R2,#-0x1
   \   000043   7BFF         MOV       R3,#-0x1
   \   000045   8050         SJMP      ??__write_1
     65            }
     66          
     67            for (/* Empty */; size != 0; --size){
   \                     ??__write_3:
   \   000047   E5..         MOV       A,?V2
   \   000049   45..         ORL       A,?V3
   \   00004B   6046         JZ        ??__write_5
     68              if (MyLowLevelPutchar(*buffer++) < 0){
   \   00004D                ; Setup parameters for call to function MyLowLevelPutchar
   \   00004D   8E82         MOV       DPL,R6
   \   00004F   8F83         MOV       DPH,R7
   \   000051   E0           MOVX      A,@DPTR
   \   000052   FA           MOV       R2,A
   \   000053   7B00         MOV       R3,#0x0
   \   000055   12....       LCALL     `??MyLowLevelPutchar::?relay`; Banked call to: MyLowLevelPutchar
   \   000058   8A..         MOV       ?V4,R2
   \   00005A   8B..         MOV       ?V5,R3
   \   00005C   A8..         MOV       R0,?V4
   \   00005E   A9..         MOV       R1,?V5
   \   000060   8E82         MOV       DPL,R6
   \   000062   8F83         MOV       DPH,R7
   \   000064   A3           INC       DPTR
   \   000065   AE82         MOV       R6,DPL
   \   000067   AF83         MOV       R7,DPH
   \   000069   C3           CLR       C
   \   00006A   E8           MOV       A,R0
   \   00006B   9400         SUBB      A,#0x0
   \   00006D   E9           MOV       A,R1
   \   00006E   9400         SUBB      A,#0x0
   \   000070   A2D2         MOV       C,0xD0 /* PSW */.2
   \   000072   65D0         XRL       A,PSW
   \   000074   33           RLC       A
   \   000075   5006         JNC       ??__write_6
     69                return _LLIO_ERROR;
   \   000077   7AFF         MOV       R2,#-0x1
   \   000079   7BFF         MOV       R3,#-0x1
   \   00007B   801A         SJMP      ??__write_1
     70              }
     71              ++nChars;
   \                     ??__write_6:
   \   00007D   05..         INC       ?V0
   \   00007F   E5..         MOV       A,?V0
   \   000081   7002         JNZ       ??__write_7
   \   000083   05..         INC       ?V1
     72            }
   \                     ??__write_7:
   \   000085   E5..         MOV       A,?V2
   \   000087   24FF         ADD       A,#-0x1
   \   000089   F5..         MOV       ?V2,A
   \   00008B   E5..         MOV       A,?V3
   \   00008D   34FF         ADDC      A,#-0x1
   \   00008F   F5..         MOV       ?V3,A
   \   000091   80B4         SJMP      ??__write_3
     73            return nChars;
   \                     ??__write_5:
   \   000093   AA..         MOV       R2,?V0
   \   000095   AB..         MOV       R3,?V1
   \                     ??__write_1:
   \   000097   7F08         MOV       R7,#0x8
   \   000099   02....       LJMP      ?BANKED_LEAVE_XDATA
     74          }
     75          _STD_END
     76          
     77          #endif
     78          
E:\WMNU\IAR_NEW_ARCH\STACK_CORE_SRC\frame.c
      1          #include "action_manager.h"
      2          #include "frame.h"
      3          #include "debug.h"
      4          #include "global.h"
      5          #include "frame.h"
      6          
      7          /**
      8          @file Статическое хранение принятых пакетов
      9          */
     10          #define FOR_EACH(ptr) for (                     \
     11               struct frame *ptr = FRAME_POOL;            \
     12               ptr <= &FRAME_POOL[FRAME_POOL_ITEMS_COUNT]; \
     13               ptr++)
     14          
     15          #define MARK_CLEAR(slot) {slot->slot_flag = 0;}
     16          
     17          enum slot_flags {
     18            TAKEN = 1<<0, SPACE = 1<<1, TX_READY = 1<<2, RX_READY = 1<<3
     19          };
     20          
     21          static void SW_Init(void); 
     22          static frame_id user_space_create(void);
     23          static frame_id irq_space_create(void);
     24          

   \                                 In  segment XDATA_I, align 1, keep-with-next
     25          module_s FR_MODULE = {ALIAS(SW_Init)};
   \                     FR_MODULE:
   \   000000                DS 12
   \   00000C                REQUIRE `?<Initializer for FR_MODULE>`
   \   00000C                REQUIRE __INIT_XDATA_I

   \                                 In  segment XDATA_Z, align 1, keep-with-next
     26          static int USER_SPACE_INDEX;
                            ^
Warning[Pe550]: variable "USER_SPACE_INDEX" was set but never used
          detected during compilation of secondary translation unit
                    "E:\WMNU\IAR_NEW_ARCH\STACK_CORE_SRC\frame.c"
   \                     ??USER_SPACE_INDEX:
   \   000000                DS 2
   \   000002                REQUIRE __INIT_XDATA_Z

   \                                 In  segment XDATA_Z, align 1, keep-with-next
     27          static struct frame FRAME_POOL[FRAME_POOL_ITEMS_COUNT];
   \                     ??FRAME_POOL:
   \   000000                DS 3000
   \   000BB8                REQUIRE __INIT_XDATA_Z
     28          

   \                                 In  segment BANKED_CODE, align 1, keep-with-next
     29          static void SW_Init(void){  
   \                     ??SW_Init:
   \   000000   C082         PUSH      DPL
   \   000002   C083         PUSH      DPH
   \   000004                ; Saved register size: 2
   \   000004                ; Auto size: 0
     30            FOR_EACH(slot)
   \   000004   7582..       MOV       DPL,#??FRAME_POOL & 0xff
   \   000007   7583..       MOV       DPH,#(??FRAME_POOL >> 8) & 0xff
   \                     ??SW_Init_4:
   \   00000A   C3           CLR       C
   \   00000B   74..         MOV       A,#(??FRAME_POOL + 184) & 0xff
   \   00000D   9582         SUBB      A,DPL
   \   00000F   74..         MOV       A,#((??FRAME_POOL + 3000) >> 8) & 0xff
   \   000011   9583         SUBB      A,DPH
   \   000013   400F         JC        ??SW_Init_5
     31              MARK_CLEAR(slot);
   \   000015   7400         MOV       A,#0x0
   \   000017   F0           MOVX      @DPTR,A
   \   000018   E582         MOV       A,DPL
   \   00001A   2496         ADD       A,#-0x6a
   \   00001C   F582         MOV       DPL,A
   \   00001E   50EA         JNC       ??SW_Init_4
   \   000020   0583         INC       DPH
   \   000022   80E6         SJMP      ??SW_Init_4
     32            USER_SPACE_INDEX = -1;
   \                     ??SW_Init_5:
   \   000024   90....       MOV       DPTR,#??USER_SPACE_INDEX
   \   000027   74FF         MOV       A,#-0x1
   \   000029   F0           MOVX      @DPTR,A
   \   00002A   A3           INC       DPTR
   \   00002B   74FF         MOV       A,#-0x1
   \   00002D   F0           MOVX      @DPTR,A
     33          }; 
   \   00002E   D083         POP       DPH
   \   000030   D082         POP       DPL
   \   000032   02....       LJMP      ?BRET
     34          
     35          

   \                                 In  segment BANKED_CODE, align 1, keep-with-next
     36          frame_id FR_Create(space sp){
   \                     FR_Create:
   \   000000                REQUIRE ?V0
   \   000000                REQUIRE ?V1
   \   000000   74F6         MOV       A,#-0xa
   \   000002   12....       LCALL     ?BANKED_ENTER_XDATA
   \   000005                ; Saved register size: 10
   \   000005                ; Auto size: 0
   \   000005   E9           MOV       A,R1
   \   000006   FE           MOV       R6,A
     37            if (sp == USER_SPACE)
   \   000007   EE           MOV       A,R6
   \   000008   7005         JNZ       ??FR_Create_0
     38              return user_space_create();
   \   00000A                ; Setup parameters for call to function user_space_create
   \   00000A   12....       LCALL     `??user_space_create::?relay`; Banked call to: user_space_create
   \   00000D   8045         SJMP      ??FR_Create_1
     39            else if (sp == IRQ_SPACE)
   \                     ??FR_Create_0:
   \   00000F   7401         MOV       A,#0x1
   \   000011   6E           XRL       A,R6
   \   000012   7005         JNZ       ??FR_Create_2
     40              return irq_space_create();
   \   000014                ; Setup parameters for call to function irq_space_create
   \   000014   12....       LCALL     `??irq_space_create::?relay`; Banked call to: irq_space_create
   \   000017   803B         SJMP      ??FR_Create_1
     41            HALT("Space not exist");
   \                     ??FR_Create_2:
   \   000019                ; Setup parameters for call to function printf
   \   000019   75....       MOV       ?V0,#??__FUNCTION___9 & 0xff
   \   00001C   75....       MOV       ?V1,#(??__FUNCTION___9 >> 8) & 0xff
   \   00001F   78..         MOV       R0,#?V0
   \   000021   12....       LCALL     ?PUSH_XSTACK_I_TWO
   \   000024   75..29       MOV       ?V0,#0x29
   \   000027   75..00       MOV       ?V1,#0x0
   \   00002A   78..         MOV       R0,#?V0
   \   00002C   12....       LCALL     ?PUSH_XSTACK_I_TWO
   \   00002F   75....       MOV       ?V0,#`?<Constant "frame.c">` & 0xff
   \   000032   75....       MOV       ?V1,#(`?<Constant "frame.c">` >> 8) & 0xff
   \   000035   78..         MOV       R0,#?V0
   \   000037   12....       LCALL     ?PUSH_XSTACK_I_TWO
   \   00003A   7A..         MOV       R2,#`?<Constant "%s:%d:%s -> ">_2` & 0xff
   \   00003C   7B..         MOV       R3,#(`?<Constant "%s:%d:%s -> ">_2` >> 8) & 0xff
   \   00003E   12....       LCALL     `??printf::?relay`; Banked call to: printf
   \   000041   7406         MOV       A,#0x6
   \   000043   12....       LCALL     ?DEALLOC_XSTACK8
   \   000046                ; Setup parameters for call to function printf
   \   000046   7A..         MOV       R2,#`?<Constant "Space not exist">` & 0xff
   \   000048   7B..         MOV       R3,#(`?<Constant "Space not exist">` >> 8) & 0xff
   \   00004A   12....       LCALL     `??printf::?relay`; Banked call to: printf
   \   00004D                ; Setup parameters for call to function DBG_CORE_HALT
   \   00004D   12....       LCALL     `??DBG_CORE_HALT::?relay`; Banked call to: DBG_CORE_HALT
     42            return -1;
   \   000050   7AFF         MOV       R2,#-0x1
   \   000052   7BFF         MOV       R3,#-0x1
   \                     ??FR_Create_1:
   \   000054   7F02         MOV       R7,#0x2
   \   000056   02....       LJMP      ?BANKED_LEAVE_XDATA
     43          }
     44          
     45          /**
     46          @brief
     47          @detail Использует знание об элементе который ищет сосед
     48          */

   \                                 In  segment BANKED_CODE, align 1, keep-with-next
     49          static frame_id user_space_create(void){
   \                     ??user_space_create:
   \   000000                ; Saved register size: 0
   \   000000                ; Auto size: 0
     50            return -1;
   \   000000   7AFF         MOV       R2,#-0x1
   \   000002   7BFF         MOV       R3,#-0x1
   \   000004   02....       LJMP      ?BRET
     51          }
     52          

   \                                 In  segment BANKED_CODE, align 1, keep-with-next
     53          static frame_id irq_space_create(void){
   \                     ??irq_space_create:
   \   000000                ; Saved register size: 0
   \   000000                ; Auto size: 0
     54            //USER_SPACE_INDEX
     55            return -1;
   \   000000   7AFF         MOV       R2,#-0x1
   \   000002   7BFF         MOV       R3,#-0x1
   \   000004   02....       LJMP      ?BRET
     56          }
E:\WMNU\IAR_new_arch\PRJ Test\main.c
      1          #include "action_manager.h"
      2          #include "debug.h"
      3          
      4          
      5          extern void u_test(void);
      6          extern void u_alarm_timer(void);
      7          extern void u_mem_utils(void);
      8          

   \                                 In  segment BANKED_CODE, align 1, keep-with-next
      9          void main(){
   \                     main:
   \   000000                ; Auto size: 0
     10            AM_HW_Init();
   \   000000                ; Setup parameters for call to function AM_HW_Init
   \   000000   12....       LCALL     `??AM_HW_Init::?relay`; Banked call to: AM_HW_Init
     11            
     12            //u_test();
     13           // u_alarm_timer();
     14            u_mem_utils(); // TODO красные зоны
   \   000003                ; Setup parameters for call to function u_mem_utils
   \   000003   12....       LCALL     `??u_mem_utils::?relay`; Banked call to: u_mem_utils
     15            DBG_CORE_HALT();
   \   000006                ; Setup parameters for call to function DBG_CORE_HALT
   \   000006   12....       LCALL     `??DBG_CORE_HALT::?relay`; Banked call to: DBG_CORE_HALT
     16          }
   \   000009   02....       LJMP      ?BRET
E:\WMNU\IAR_new_arch\STACK_CORE_SRC\mem_utils.c
      1          #include "mem_utils.h"
      2          #include "debug.h"
      3          
      4          /**
      5          @file Реентерабельное копирование
      6          */
      7          

   \                                 In  segment BANKED_CODE, align 1, keep-with-next
      8          void MEM_memcpy(struct memcpy *memcpy){
   \                     MEM_memcpy:
   \   000000   C082         PUSH      DPL
   \   000002   C083         PUSH      DPH
   \   000004                ; Saved register size: 2
   \   000004                ; Auto size: 0
      9            while (memcpy->len > 0){
   \                     ??MEM_memcpy_0:
   \   000004   8A82         MOV       DPL,R2
   \   000006   8B83         MOV       DPH,R3
   \   000008   A3           INC       DPTR
   \   000009   A3           INC       DPTR
   \   00000A   A3           INC       DPTR
   \   00000B   A3           INC       DPTR
   \   00000C   E0           MOVX      A,@DPTR
   \   00000D   605E         JZ        ??MEM_memcpy_1
     10              *memcpy->dst = *memcpy->src;
   \   00000F   8A82         MOV       DPL,R2
   \   000011   8B83         MOV       DPH,R3
   \   000013   A3           INC       DPTR
   \   000014   A3           INC       DPTR
   \   000015   E0           MOVX      A,@DPTR
   \   000016   F8           MOV       R0,A
   \   000017   A3           INC       DPTR
   \   000018   E0           MOVX      A,@DPTR
   \   000019   F583         MOV       DPH,A
   \   00001B   8882         MOV       DPL,R0
   \   00001D   E0           MOVX      A,@DPTR
   \   00001E   C0E0         PUSH      A
   \   000020   8A82         MOV       DPL,R2
   \   000022   8B83         MOV       DPH,R3
   \   000024   E0           MOVX      A,@DPTR
   \   000025   F8           MOV       R0,A
   \   000026   A3           INC       DPTR
   \   000027   E0           MOVX      A,@DPTR
   \   000028   F583         MOV       DPH,A
   \   00002A   8882         MOV       DPL,R0
   \   00002C   D0E0         POP       A
   \   00002E   F0           MOVX      @DPTR,A
     11              memcpy->dst++;
   \   00002F   8A82         MOV       DPL,R2
   \   000031   8B83         MOV       DPH,R3
   \   000033   E0           MOVX      A,@DPTR
   \   000034   2401         ADD       A,#0x1
   \   000036   F8           MOV       R0,A
   \   000037   A3           INC       DPTR
   \   000038   E0           MOVX      A,@DPTR
   \   000039   3400         ADDC      A,#0x0
   \   00003B   F9           MOV       R1,A
   \   00003C   8A82         MOV       DPL,R2
   \   00003E   8B83         MOV       DPH,R3
   \   000040   E8           MOV       A,R0
   \   000041   F0           MOVX      @DPTR,A
   \   000042   A3           INC       DPTR
   \   000043   E9           MOV       A,R1
   \   000044   F0           MOVX      @DPTR,A
     12              memcpy->src++;
   \   000045   8A82         MOV       DPL,R2
   \   000047   8B83         MOV       DPH,R3
   \   000049   A3           INC       DPTR
   \   00004A   A3           INC       DPTR
   \   00004B   E0           MOVX      A,@DPTR
   \   00004C   2401         ADD       A,#0x1
   \   00004E   F8           MOV       R0,A
   \   00004F   A3           INC       DPTR
   \   000050   E0           MOVX      A,@DPTR
   \   000051   3400         ADDC      A,#0x0
   \   000053   F9           MOV       R1,A
   \   000054   8A82         MOV       DPL,R2
   \   000056   8B83         MOV       DPH,R3
   \   000058   A3           INC       DPTR
   \   000059   A3           INC       DPTR
   \   00005A   E8           MOV       A,R0
   \   00005B   F0           MOVX      @DPTR,A
   \   00005C   A3           INC       DPTR
   \   00005D   E9           MOV       A,R1
   \   00005E   F0           MOVX      @DPTR,A
     13              memcpy->len--;
   \   00005F   8A82         MOV       DPL,R2
   \   000061   8B83         MOV       DPH,R3
   \   000063   A3           INC       DPTR
   \   000064   A3           INC       DPTR
   \   000065   A3           INC       DPTR
   \   000066   A3           INC       DPTR
   \   000067   E0           MOVX      A,@DPTR
   \   000068   24FF         ADD       A,#-0x1
   \   00006A   F0           MOVX      @DPTR,A
   \   00006B   8097         SJMP      ??MEM_memcpy_0
     14            }
     15          };
   \                     ??MEM_memcpy_1:
   \   00006D   D083         POP       DPH
   \   00006F   D082         POP       DPL
   \   000071   02....       LJMP      ?BRET
     16          

   \                                 In  segment BANKED_CODE, align 1, keep-with-next
     17          void MEM_memset(struct memset *memset){
   \                     MEM_memset:
   \   000000   C082         PUSH      DPL
   \   000002   C083         PUSH      DPH
   \   000004                ; Saved register size: 2
   \   000004                ; Auto size: 0
     18            while (memset->len > 0){
   \                     ??MEM_memset_0:
   \   000004   8A82         MOV       DPL,R2
   \   000006   8B83         MOV       DPH,R3
   \   000008   A3           INC       DPTR
   \   000009   A3           INC       DPTR
   \   00000A   E0           MOVX      A,@DPTR
   \   00000B   6025         JZ        ??MEM_memset_1
     19              *memset->dst = memset->val;
   \   00000D   8A82         MOV       DPL,R2
   \   00000F   8B83         MOV       DPH,R3
   \   000011   A3           INC       DPTR
   \   000012   A3           INC       DPTR
   \   000013   A3           INC       DPTR
   \   000014   E0           MOVX      A,@DPTR
   \   000015   C0E0         PUSH      A
   \   000017   8A82         MOV       DPL,R2
   \   000019   8B83         MOV       DPH,R3
   \   00001B   E0           MOVX      A,@DPTR
   \   00001C   F8           MOV       R0,A
   \   00001D   A3           INC       DPTR
   \   00001E   E0           MOVX      A,@DPTR
   \   00001F   F583         MOV       DPH,A
   \   000021   8882         MOV       DPL,R0
   \   000023   D0E0         POP       A
   \   000025   F0           MOVX      @DPTR,A
     20              memset->len--;
   \   000026   8A82         MOV       DPL,R2
   \   000028   8B83         MOV       DPH,R3
   \   00002A   A3           INC       DPTR
   \   00002B   A3           INC       DPTR
   \   00002C   E0           MOVX      A,@DPTR
   \   00002D   24FF         ADD       A,#-0x1
   \   00002F   F0           MOVX      @DPTR,A
   \   000030   80D2         SJMP      ??MEM_memset_0
     21            }  
     22          };
   \                     ??MEM_memset_1:
   \   000032   D083         POP       DPH
   \   000034   D082         POP       DPL
   \   000036   02....       LJMP      ?BRET
     23          
     24          
E:\WMNU\IAR_new_arch\STACK_CORE_SRC\model.c
      1          #include "model.h"
      2          #include "action_manager.h"
      3          
      4          /**
      5          @file
      6          */
      7          

   \                                 In  segment XDATA_Z, align 1, keep-with-next
      8          MODEL_s MODEL;
   \                     MODEL:
   \   000000                DS 10
   \   00000A                REQUIRE __INIT_XDATA_Z
      9          
     10          static void HW_Init(void);  
     11          static void SW_Init(void); 
     12          static void Sleep(void); 
     13          static void Wakeup(void); 
     14          static void Cold_Start(void); 
     15          static void Hot_Start(void); 
     16          

   \                                 In  segment XDATA_I, align 1, keep-with-next
     17          module_s MD_MODULE = {ALIAS(HW_Init),ALIAS(SW_Init),ALIAS(Sleep),
   \                     MD_MODULE:
   \   000000                DS 12
   \   00000C                REQUIRE `?<Initializer for MD_MODULE>`
   \   00000C                REQUIRE __INIT_XDATA_I
     18            ALIAS(Wakeup),ALIAS(Cold_Start), ALIAS(Hot_Start)};
     19          

   \                                 In  segment BANKED_CODE, align 1, keep-with-next
     20          static void HW_Init(void){};  
   \                     ??HW_Init_3:
   \   000000                ; Saved register size: 0
   \   000000                ; Auto size: 0
   \   000000   02....       LJMP      ?BRET

   \                                 In  segment BANKED_CODE, align 1, keep-with-next
     21          static void SW_Init(void){}; 
   \                     ??SW_Init_1:
   \   000000                ; Saved register size: 0
   \   000000                ; Auto size: 0
   \   000000   02....       LJMP      ?BRET

   \                                 In  segment BANKED_CODE, align 1, keep-with-next
     22          static void Sleep(void){}; 
   \                     ??Sleep:
   \   000000                ; Saved register size: 0
   \   000000                ; Auto size: 0
   \   000000   02....       LJMP      ?BRET

   \                                 In  segment BANKED_CODE, align 1, keep-with-next
     23          static void Wakeup(void){}; 
   \                     ??Wakeup:
   \   000000                ; Saved register size: 0
   \   000000                ; Auto size: 0
   \   000000   02....       LJMP      ?BRET

   \                                 In  segment BANKED_CODE, align 1, keep-with-next
     24          static void Cold_Start(void){}; 
   \                     ??Cold_Start:
   \   000000                ; Saved register size: 0
   \   000000                ; Auto size: 0
   \   000000   02....       LJMP      ?BRET

   \                                 In  segment BANKED_CODE, align 1, keep-with-next
     25          static void Hot_Start(void){};
   \                     ??Hot_Start:
   \   000000                ; Saved register size: 0
   \   000000                ; Auto size: 0
   \   000000   02....       LJMP      ?BRET
     26          
E:\WMNU\IAR_new_arch\STACK_CORE_SRC\rtc.c
      1          #include "action_manager.h"
      2          
      3          /**
      4          @file
      5          */
      6          
      7          // Определения
      8          // Локальные переменные
      9          // Локальные функции
     10          
     11          static void HW_Init(void);  
     12          static void SW_Init(void); 
     13          static void Sleep(void); 
     14          static void Wakeup(void); 
     15          static void Cold_Start(void); 
     16          static void Hot_Start(void); 
     17          

   \                                 In  segment XDATA_I, align 1, keep-with-next
     18          module_s RTC_MODULE = {ALIAS(HW_Init),ALIAS(SW_Init),ALIAS(Sleep),
   \                     RTC_MODULE:
   \   000000                DS 12
   \   00000C                REQUIRE `?<Initializer for RTC_MODULE>`
   \   00000C                REQUIRE __INIT_XDATA_I
     19            ALIAS(Wakeup),ALIAS(Cold_Start), ALIAS(Hot_Start)};
     20          

   \                                 In  segment BANKED_CODE, align 1, keep-with-next
     21          static void HW_Init(void){};  
   \                     ??HW_Init_4:
   \   000000                ; Saved register size: 0
   \   000000                ; Auto size: 0
   \   000000   02....       LJMP      ?BRET

   \                                 In  segment BANKED_CODE, align 1, keep-with-next
     22          static void SW_Init(void){}; 
   \                     ??SW_Init_2:
   \   000000                ; Saved register size: 0
   \   000000                ; Auto size: 0
   \   000000   02....       LJMP      ?BRET

   \                                 In  segment BANKED_CODE, align 1, keep-with-next
     23          static void Sleep(void){}; 
   \                     ??Sleep_1:
   \   000000                ; Saved register size: 0
   \   000000                ; Auto size: 0
   \   000000   02....       LJMP      ?BRET

   \                                 In  segment BANKED_CODE, align 1, keep-with-next
     24          static void Wakeup(void){}; 
   \                     ??Wakeup_1:
   \   000000                ; Saved register size: 0
   \   000000                ; Auto size: 0
   \   000000   02....       LJMP      ?BRET

   \                                 In  segment BANKED_CODE, align 1, keep-with-next
     25          static void Cold_Start(void){}; 
   \                     ??Cold_Start_1:
   \   000000                ; Saved register size: 0
   \   000000                ; Auto size: 0
   \   000000   02....       LJMP      ?BRET

   \                                 In  segment BANKED_CODE, align 1, keep-with-next
     26          static void Hot_Start(void){};
   \                     ??Hot_Start_1:
   \   000000                ; Saved register size: 0
   \   000000                ; Auto size: 0
   \   000000   02....       LJMP      ?BRET
E:\WMNU\IAR_new_arch\STACK_CORE_SRC\time_manager.c
      1          #include "time_manager.h"
      2          #include "model.h"
      3          #include "action_manager.h"
      4          #include "debug.h"
      5          
      6          /**
      7          @file
      8          */
      9          
     10          // Определения
     11          // Локальные переменные
     12          // Локальные функции
     13          static void HW_Init(void);  
     14          static void SW_Init(void); 
     15          static void Sleep(void); 
     16          static void Wakeup(void); 
     17          static void Cold_Start(void); 
     18          static void Hot_Start(void); 
     19          

   \                                 In  segment XDATA_I, align 1, keep-with-next
     20          module_s TM_MODULE = {ALIAS(HW_Init),ALIAS(SW_Init),ALIAS(Sleep),
   \                     TM_MODULE:
   \   000000                DS 12
   \   00000C                REQUIRE `?<Initializer for TM_MODULE>`
   \   00000C                REQUIRE __INIT_XDATA_I
     21            ALIAS(Wakeup),ALIAS(Cold_Start), ALIAS(Hot_Start)};
     22          

   \                                 In  segment BANKED_CODE, align 1, keep-with-next
     23          static void HW_Init(void){};  
   \                     ??HW_Init_5:
   \   000000                ; Saved register size: 0
   \   000000                ; Auto size: 0
   \   000000   02....       LJMP      ?BRET

   \                                 In  segment BANKED_CODE, align 1, keep-with-next
     24          static void SW_Init(void){}; 
   \                     ??SW_Init_3:
   \   000000                ; Saved register size: 0
   \   000000                ; Auto size: 0
   \   000000   02....       LJMP      ?BRET

   \                                 In  segment BANKED_CODE, align 1, keep-with-next
     25          static void Sleep(void){}; 
   \                     ??Sleep_2:
   \   000000                ; Saved register size: 0
   \   000000                ; Auto size: 0
   \   000000   02....       LJMP      ?BRET

   \                                 In  segment BANKED_CODE, align 1, keep-with-next
     26          static void Wakeup(void){}; 
   \                     ??Wakeup_2:
   \   000000                ; Saved register size: 0
   \   000000                ; Auto size: 0
   \   000000   02....       LJMP      ?BRET

   \                                 In  segment BANKED_CODE, align 1, keep-with-next
     27          static void Cold_Start(void){}; 
   \                     ??Cold_Start_2:
   \   000000                ; Saved register size: 0
   \   000000                ; Auto size: 0
   \   000000   02....       LJMP      ?BRET

   \                                 In  segment BANKED_CODE, align 1, keep-with-next
     28          static void Hot_Start(void){}; 
   \                     ??Hot_Start_2:
   \   000000                ; Saved register size: 0
   \   000000                ; Auto size: 0
   \   000000   02....       LJMP      ?BRET
     29          
     30          
     31          
     32          

   \                                 In  segment BANKED_CODE, align 1, keep-with-next
     33          void TM_SetAlarm(timeslot_t slot, alarm_t alarm){
   \                     TM_SetAlarm:
   \   000000                ; Saved register size: 0
   \   000000                ; Auto size: 0
     34          }
   \   000000   02....       LJMP      ?BRET
     35          

   \                                 In  segment BANKED_CODE, align 1, keep-with-next
     36          void TM_ClrAlarm(timeslot_t slot, alarm_t alarm){
   \                     TM_ClrAlarm:
   \   000000                ; Saved register size: 0
   \   000000                ; Auto size: 0
     37          }
   \   000000   02....       LJMP      ?BRET
     38          

   \                                 In  segment BANKED_CODE, align 1, keep-with-next
     39          void TM_AdjustTime(nwtime_t time){
   \                     TM_AdjustTime:
   \   000000                ; Saved register size: 0
   \   000000                ; Auto size: 0
     40          }
   \   000000   02....       LJMP      ?BRET
     41          

   \                                 In  segment BANKED_CODE, align 1, keep-with-next
     42          void TM_IRQ(nwtime_t time){
   \                     TM_IRQ:
   \   000000                REQUIRE ?V0
   \   000000                REQUIRE ?V1
   \   000000                REQUIRE ?V2
   \   000000                REQUIRE ?V3
   \   000000   74F4         MOV       A,#-0xc
   \   000002   12....       LCALL     ?BANKED_ENTER_XDATA
   \   000005                ; Saved register size: 12
   \   000005                ; Auto size: 0
   \   000005   8A..         MOV       ?V0,R2
   \   000007   8B..         MOV       ?V1,R3
     43            LOG_ON("ALARM! %d", time);
   \   000009                ; Setup parameters for call to function printf
   \   000009   75....       MOV       ?V2,#??__FUNCTION___10 & 0xff
   \   00000C   75....       MOV       ?V3,#(??__FUNCTION___10 >> 8) & 0xff
   \   00000F   78..         MOV       R0,#?V2
   \   000011   12....       LCALL     ?PUSH_XSTACK_I_TWO
   \   000014   75..2B       MOV       ?V2,#0x2b
   \   000017   75..00       MOV       ?V3,#0x0
   \   00001A   78..         MOV       R0,#?V2
   \   00001C   12....       LCALL     ?PUSH_XSTACK_I_TWO
   \   00001F   75....       MOV       ?V2,#`?<Constant "time_manager.c">` & 0xff
   \   000022   75....       MOV       ?V3,#(`?<Constant "time_manager.c">` >> 8) & 0xff
   \   000025   78..         MOV       R0,#?V2
   \   000027   12....       LCALL     ?PUSH_XSTACK_I_TWO
   \   00002A   7A..         MOV       R2,#`?<Constant "%s:%d:%s -> ">_3` & 0xff
   \   00002C   7B..         MOV       R3,#(`?<Constant "%s:%d:%s -> ">_3` >> 8) & 0xff
   \   00002E   12....       LCALL     `??printf::?relay`; Banked call to: printf
   \   000031   7406         MOV       A,#0x6
   \   000033   12....       LCALL     ?DEALLOC_XSTACK8
   \   000036                ; Setup parameters for call to function printf
   \   000036   78..         MOV       R0,#?V0
   \   000038   12....       LCALL     ?PUSH_XSTACK_I_TWO
   \   00003B   7A..         MOV       R2,#`?<Constant "ALARM! %d">` & 0xff
   \   00003D   7B..         MOV       R3,#(`?<Constant "ALARM! %d">` >> 8) & 0xff
   \   00003F   12....       LCALL     `??printf::?relay`; Banked call to: printf
   \   000042   7402         MOV       A,#0x2
   \   000044   12....       LCALL     ?DEALLOC_XSTACK8
   \   000047                ; Setup parameters for call to function printf
   \   000047   7A..         MOV       R2,#`?<Constant "\\r\\n">` & 0xff
   \   000049   7B..         MOV       R3,#(`?<Constant "\\r\\n">` >> 8) & 0xff
   \   00004B   12....       LCALL     `??printf::?relay`; Banked call to: printf
     44          }
   \   00004E   7F04         MOV       R7,#0x4
   \   000050   02....       LJMP      ?BANKED_LEAVE_XDATA
E:\WMNU\IAR_new_arch\PRJ Test\u_alarm_timer.c
      1          #include "debug.h"
      2          #include "alarm_timer.h"
      3          #include "cpu.h"
      4          
      5          // тестирование вставками. Теперь переопределить функции нельзя
      6          // void TM_IRQ(nwtime_t time) теперь вручную мониторить

   \                                 In  segment BANKED_CODE, align 1, keep-with-next
      7          void u_alarm_timer(void){
   \                     u_alarm_timer:
   \   000000   74F7         MOV       A,#-0x9
   \   000002   12....       LCALL     ?BANKED_ENTER_XDATA
   \   000005                ; Saved register size: 9
   \   000005                ; Auto size: 0
      8            nwtime_t alarm = 500;
   \   000005   7EF4         MOV       R6,#-0xc
   \   000007   7F01         MOV       R7,#0x1
      9            INTERRUPT_ENABLE();
   \   000009   D2AF         SETB      0xa8.7
     10            AT_set_alarm(alarm);
   \   00000B                ; Setup parameters for call to function AT_set_alarm
   \   00000B   EE           MOV       A,R6
   \   00000C   FA           MOV       R2,A
   \   00000D   EF           MOV       A,R7
   \   00000E   FB           MOV       R3,A
   \   00000F   12....       LCALL     `??AT_set_alarm::?relay`; Banked call to: AT_set_alarm
     11            while(1);
   \                     ??u_alarm_timer_0:
   \   000012   80FE         SJMP      ??u_alarm_timer_0
   \   000014                REQUIRE _A_IEN0
     12          }
E:\WMNU\IAR_new_arch\PRJ Test\u_debug.c
      1          #include "debug.h"
      2          
      3          

   \                                 In  segment BANKED_CODE, align 1, keep-with-next
      4          void u_test(void){
   \                     u_test:
   \   000000                REQUIRE ?V0
   \   000000                REQUIRE ?V1
   \   000000   74F6         MOV       A,#-0xa
   \   000002   12....       LCALL     ?BANKED_ENTER_XDATA
   \   000005                ; Saved register size: 10
   \   000005                ; Auto size: 0
      5            LOG_OFF("BAD")
      6            LOG_ON("HELLO");
   \   000005                ; Setup parameters for call to function printf
   \   000005   75....       MOV       ?V0,#??__FUNCTION___11 & 0xff
   \   000008   75....       MOV       ?V1,#(??__FUNCTION___11 >> 8) & 0xff
   \   00000B   78..         MOV       R0,#?V0
   \   00000D   12....       LCALL     ?PUSH_XSTACK_I_TWO
   \   000010   75..06       MOV       ?V0,#0x6
   \   000013   75..00       MOV       ?V1,#0x0
   \   000016   78..         MOV       R0,#?V0
   \   000018   12....       LCALL     ?PUSH_XSTACK_I_TWO
   \   00001B   75....       MOV       ?V0,#`?<Constant "u_debug.c">` & 0xff
   \   00001E   75....       MOV       ?V1,#(`?<Constant "u_debug.c">` >> 8) & 0xff
   \   000021   78..         MOV       R0,#?V0
   \   000023   12....       LCALL     ?PUSH_XSTACK_I_TWO
   \   000026   7A..         MOV       R2,#`?<Constant "%s:%d:%s -> ">_4` & 0xff
   \   000028   7B..         MOV       R3,#(`?<Constant "%s:%d:%s -> ">_4` >> 8) & 0xff
   \   00002A   12....       LCALL     `??printf::?relay`; Banked call to: printf
   \   00002D   7406         MOV       A,#0x6
   \   00002F   12....       LCALL     ?DEALLOC_XSTACK8
   \   000032                ; Setup parameters for call to function printf
   \   000032   7A..         MOV       R2,#`?<Constant "HELLO">` & 0xff
   \   000034   7B..         MOV       R3,#(`?<Constant "HELLO">` >> 8) & 0xff
   \   000036   12....       LCALL     `??printf::?relay`; Banked call to: printf
   \   000039                ; Setup parameters for call to function printf
   \   000039   7A..         MOV       R2,#`?<Constant "\\r\\n">_1` & 0xff
   \   00003B   7B..         MOV       R3,#(`?<Constant "\\r\\n">_1` >> 8) & 0xff
   \   00003D   12....       LCALL     `??printf::?relay`; Banked call to: printf
      7            ASSERT(2<0);
      8            ASSERT(2>0);
   \   000040                ; Setup parameters for call to function printf
   \   000040   75....       MOV       ?V0,#??__FUNCTION___11 & 0xff
   \   000043   75....       MOV       ?V1,#(??__FUNCTION___11 >> 8) & 0xff
   \   000046   78..         MOV       R0,#?V0
   \   000048   12....       LCALL     ?PUSH_XSTACK_I_TWO
   \   00004B   75..08       MOV       ?V0,#0x8
   \   00004E   75..00       MOV       ?V1,#0x0
   \   000051   78..         MOV       R0,#?V0
   \   000053   12....       LCALL     ?PUSH_XSTACK_I_TWO
   \   000056   75....       MOV       ?V0,#`?<Constant "u_debug.c">` & 0xff
   \   000059   75....       MOV       ?V1,#(`?<Constant "u_debug.c">` >> 8) & 0xff
   \   00005C   78..         MOV       R0,#?V0
   \   00005E   12....       LCALL     ?PUSH_XSTACK_I_TWO
   \   000061   7A..         MOV       R2,#`?<Constant "%s:%d:%s -> ">_4` & 0xff
   \   000063   7B..         MOV       R3,#(`?<Constant "%s:%d:%s -> ">_4` >> 8) & 0xff
   \   000065   12....       LCALL     `??printf::?relay`; Banked call to: printf
   \   000068   7406         MOV       A,#0x6
   \   00006A   12....       LCALL     ?DEALLOC_XSTACK8
   \   00006D                ; Setup parameters for call to function printf
   \   00006D   7A..         MOV       R2,#`?<Constant "\\"2>0\\" Faild! \\r\\n">` & 0xff
   \   00006F   7B..         MOV       R3,#(`?<Constant "\\"2>0\\" Faild! \\r\\n">` >> 8) & 0xff
   \   000071   12....       LCALL     `??printf::?relay`; Banked call to: printf
   \   000074                ; Setup parameters for call to function DBG_CORE_HALT
   \   000074   12....       LCALL     `??DBG_CORE_HALT::?relay`; Banked call to: DBG_CORE_HALT
      9          }
   \   000077   7F02         MOV       R7,#0x2
   \   000079   02....       LJMP      ?BANKED_LEAVE_XDATA
E:\WMNU\IAR_new_arch\PRJ Test\u_mem_utils.c
      1          #include "debug.h"
      2          #include "mem_utils.h"
      3          

   \                                 In  segment BANKED_CODE, align 1, keep-with-next
      4          void u_mem_utils(void){
   \                     u_mem_utils:
   \   000000                REQUIRE ?V0
   \   000000                REQUIRE ?V1
   \   000000                REQUIRE ?V2
   \   000000                REQUIRE ?V3
   \   000000   74F4         MOV       A,#-0xc
   \   000002   12....       LCALL     ?BANKED_ENTER_XDATA
   \   000005                ; Saved register size: 12
   \   000005                ; Auto size: 29
   \   000005   74E3         MOV       A,#-0x1d
   \   000007   12....       LCALL     ?ALLOC_XSTACK8
      5            char tst1[10] = {1,2,3,4,5,6,7,8,9,10};
   \   00000A   90....       MOV       DPTR,#`?<Constant {1, 2, 3, 4, 5, 6, 7, 8, 9, 10}>`
   \   00000D   7409         MOV       A,#0x9
   \   00000F   12....       LCALL     ?XSTACK_DISP102_8
   \   000012   740A         MOV       A,#0xa
   \   000014   12....       LCALL     ?MOVE_LONG8_XDATA_XDATA
      6            char tst2[10];
      7            int cmp_res;
      8            
      9            struct memcpy memcpy = {.src = tst1, .dst = tst2, .len = sizeof(tst1)};
   \   000017   90....       MOV       DPTR,#`?<Constant {(char *)0, (char *)0, 10}>`
   \   00001A   7404         MOV       A,#0x4
   \   00001C   12....       LCALL     ?XSTACK_DISP102_8
   \   00001F   7405         MOV       A,#0x5
   \   000021   12....       LCALL     ?MOVE_LONG8_XDATA_XDATA
   \   000024   7413         MOV       A,#0x13
   \   000026   12....       LCALL     ?XSTACK_DISP100_8
   \   000029   7404         MOV       A,#0x4
   \   00002B   12....       LCALL     ?XSTACK_DISP0_8
   \   00002E   E8           MOV       A,R0
   \   00002F   F0           MOVX      @DPTR,A
   \   000030   A3           INC       DPTR
   \   000031   E9           MOV       A,R1
   \   000032   F0           MOVX      @DPTR,A
   \   000033   7409         MOV       A,#0x9
   \   000035   12....       LCALL     ?XSTACK_DISP100_8
   \   000038   7406         MOV       A,#0x6
   \   00003A   12....       LCALL     ?XSTACK_DISP0_8
   \   00003D   E8           MOV       A,R0
   \   00003E   F0           MOVX      @DPTR,A
   \   00003F   A3           INC       DPTR
   \   000040   E9           MOV       A,R1
   \   000041   F0           MOVX      @DPTR,A
     10            MEM_memcpy(&memcpy);
   \   000042                ; Setup parameters for call to function MEM_memcpy
   \   000042   7404         MOV       A,#0x4
   \   000044   12....       LCALL     ?XSTACK_DISP101_8
   \   000047   12....       LCALL     `??MEM_memcpy::?relay`; Banked call to: MEM_memcpy
     11            
     12            for (int i = 0; i < sizeof(tst1); i++){
   \   00004A   75..00       MOV       ?V0,#0x0
   \   00004D   75..00       MOV       ?V1,#0x0
   \                     ??u_mem_utils_0:
   \   000050   C3           CLR       C
   \   000051   E5..         MOV       A,?V0
   \   000053   940A         SUBB      A,#0xa
   \   000055   E5..         MOV       A,?V1
   \   000057   9400         SUBB      A,#0x0
   \   000059   5078         JNC       ??u_mem_utils_1
     13              cmp_res = tst1[i] == tst2[i];
   \   00005B   7409         MOV       A,#0x9
   \   00005D   12....       LCALL     ?XSTACK_DISP0_8
   \   000060   E582         MOV       A,DPL
   \   000062   25..         ADD       A,?V0
   \   000064   F582         MOV       DPL,A
   \   000066   E583         MOV       A,DPH
   \   000068   35..         ADDC      A,?V1
   \   00006A   F583         MOV       DPH,A
   \   00006C   E0           MOVX      A,@DPTR
   \   00006D   F8           MOV       R0,A
   \   00006E   7413         MOV       A,#0x13
   \   000070   12....       LCALL     ?XSTACK_DISP0_8
   \   000073   E582         MOV       A,DPL
   \   000075   25..         ADD       A,?V0
   \   000077   F582         MOV       DPL,A
   \   000079   E583         MOV       A,DPH
   \   00007B   35..         ADDC      A,?V1
   \   00007D   F583         MOV       DPH,A
   \   00007F   E0           MOVX      A,@DPTR
   \   000080   68           XRL       A,R0
   \   000081   7006         JNZ       ??u_mem_utils_2
   \   000083   7E01         MOV       R6,#0x1
   \   000085   7F00         MOV       R7,#0x0
   \   000087   8004         SJMP      ??u_mem_utils_3
   \                     ??u_mem_utils_2:
   \   000089   7E00         MOV       R6,#0x0
   \   00008B   7F00         MOV       R7,#0x0
     14              ASSERT(cmp_res == 0);
   \                     ??u_mem_utils_3:
   \   00008D   EE           MOV       A,R6
   \   00008E   4F           ORL       A,R7
   \   00008F   7037         JNZ       ??u_mem_utils_4
   \   000091                ; Setup parameters for call to function printf
   \   000091   75....       MOV       ?V2,#??__FUNCTION___12 & 0xff
   \   000094   75....       MOV       ?V3,#(??__FUNCTION___12 >> 8) & 0xff
   \   000097   78..         MOV       R0,#?V2
   \   000099   12....       LCALL     ?PUSH_XSTACK_I_TWO
   \   00009C   75..0E       MOV       ?V2,#0xe
   \   00009F   75..00       MOV       ?V3,#0x0
   \   0000A2   78..         MOV       R0,#?V2
   \   0000A4   12....       LCALL     ?PUSH_XSTACK_I_TWO
   \   0000A7   75....       MOV       ?V2,#`?<Constant "u_mem_utils.c">` & 0xff
   \   0000AA   75....       MOV       ?V3,#(`?<Constant "u_mem_utils.c">` >> 8) & 0xff
   \   0000AD   78..         MOV       R0,#?V2
   \   0000AF   12....       LCALL     ?PUSH_XSTACK_I_TWO
   \   0000B2   7A..         MOV       R2,#`?<Constant "%s:%d:%s -> ">_5` & 0xff
   \   0000B4   7B..         MOV       R3,#(`?<Constant "%s:%d:%s -> ">_5` >> 8) & 0xff
   \   0000B6   12....       LCALL     `??printf::?relay`; Banked call to: printf
   \   0000B9   7406         MOV       A,#0x6
   \   0000BB   12....       LCALL     ?DEALLOC_XSTACK8
   \   0000BE                ; Setup parameters for call to function printf
   \   0000BE   7A..         MOV       R2,#`?<Constant "\\"cmp_res == 0\\" Faild! \\r\\n">` & 0xff
   \   0000C0   7B..         MOV       R3,#(`?<Constant "\\"cmp_res == 0\\" Faild! \\r\\n">` >> 8) & 0xff
   \   0000C2   12....       LCALL     `??printf::?relay`; Banked call to: printf
   \   0000C5                ; Setup parameters for call to function DBG_CORE_HALT
   \   0000C5   12....       LCALL     `??DBG_CORE_HALT::?relay`; Banked call to: DBG_CORE_HALT
     15              }
   \                     ??u_mem_utils_4:
   \   0000C8   05..         INC       ?V0
   \   0000CA   E5..         MOV       A,?V0
   \   0000CC   7082         JNZ       ??u_mem_utils_0
   \   0000CE   05..         INC       ?V1
   \   0000D0   02....       LJMP      ??u_mem_utils_0 & 0xFFFF
     16            LOG_ON("MEM_memcpy ok!");
   \                     ??u_mem_utils_1:
   \   0000D3                ; Setup parameters for call to function printf
   \   0000D3   75....       MOV       ?V0,#??__FUNCTION___12 & 0xff
   \   0000D6   75....       MOV       ?V1,#(??__FUNCTION___12 >> 8) & 0xff
   \   0000D9   78..         MOV       R0,#?V0
   \   0000DB   12....       LCALL     ?PUSH_XSTACK_I_TWO
   \   0000DE   75..10       MOV       ?V0,#0x10
   \   0000E1   75..00       MOV       ?V1,#0x0
   \   0000E4   78..         MOV       R0,#?V0
   \   0000E6   12....       LCALL     ?PUSH_XSTACK_I_TWO
   \   0000E9   75....       MOV       ?V0,#`?<Constant "u_mem_utils.c">` & 0xff
   \   0000EC   75....       MOV       ?V1,#(`?<Constant "u_mem_utils.c">` >> 8) & 0xff
   \   0000EF   78..         MOV       R0,#?V0
   \   0000F1   12....       LCALL     ?PUSH_XSTACK_I_TWO
   \   0000F4   7A..         MOV       R2,#`?<Constant "%s:%d:%s -> ">_5` & 0xff
   \   0000F6   7B..         MOV       R3,#(`?<Constant "%s:%d:%s -> ">_5` >> 8) & 0xff
   \   0000F8   12....       LCALL     `??printf::?relay`; Banked call to: printf
   \   0000FB   7406         MOV       A,#0x6
   \   0000FD   12....       LCALL     ?DEALLOC_XSTACK8
   \   000100                ; Setup parameters for call to function printf
   \   000100   7A..         MOV       R2,#`?<Constant "MEM_memcpy ok!">` & 0xff
   \   000102   7B..         MOV       R3,#(`?<Constant "MEM_memcpy ok!">` >> 8) & 0xff
   \   000104   12....       LCALL     `??printf::?relay`; Banked call to: printf
   \   000107                ; Setup parameters for call to function printf
   \   000107   7A..         MOV       R2,#`?<Constant "\\r\\n">_2` & 0xff
   \   000109   7B..         MOV       R3,#(`?<Constant "\\r\\n">_2` >> 8) & 0xff
   \   00010B   12....       LCALL     `??printf::?relay`; Banked call to: printf
     17            
     18            struct memset memset = {.dst = tst1, .val = 7, .len = sizeof(tst1)};
   \   00010E   90....       MOV       DPTR,#`?<Constant {(char *)0, 10, 7}>`
   \   000111   AC..         MOV       R4,?XSP + 0
   \   000113   AD..         MOV       R5,?XSP + 1
   \   000115   7404         MOV       A,#0x4
   \   000117   12....       LCALL     ?MOVE_LONG8_XDATA_XDATA
   \   00011A   7409         MOV       A,#0x9
   \   00011C   12....       LCALL     ?XSTACK_DISP100_8
   \   00011F   85..82       MOV       DPL,?XSP + 0
   \   000122   85..83       MOV       DPH,?XSP + 1
   \   000125   E8           MOV       A,R0
   \   000126   F0           MOVX      @DPTR,A
   \   000127   A3           INC       DPTR
   \   000128   E9           MOV       A,R1
   \   000129   F0           MOVX      @DPTR,A
     19            MEM_memset(&memset);
   \   00012A                ; Setup parameters for call to function MEM_memset
   \   00012A   AA..         MOV       R2,?XSP + 0
   \   00012C   AB..         MOV       R3,?XSP + 1
   \   00012E   12....       LCALL     `??MEM_memset::?relay`; Banked call to: MEM_memset
     20          
     21            for (int i = 0; i < sizeof(tst1); i++){
   \   000131   75..00       MOV       ?V0,#0x0
   \   000134   75..00       MOV       ?V1,#0x0
   \                     ??u_mem_utils_5:
   \   000137   C3           CLR       C
   \   000138   E5..         MOV       A,?V0
   \   00013A   940A         SUBB      A,#0xa
   \   00013C   E5..         MOV       A,?V1
   \   00013E   9400         SUBB      A,#0x0
   \   000140   5065         JNC       ??u_mem_utils_6
     22              cmp_res = tst1[i] == 7;
   \   000142   7409         MOV       A,#0x9
   \   000144   12....       LCALL     ?XSTACK_DISP0_8
   \   000147   E582         MOV       A,DPL
   \   000149   25..         ADD       A,?V0
   \   00014B   F582         MOV       DPL,A
   \   00014D   E583         MOV       A,DPH
   \   00014F   35..         ADDC      A,?V1
   \   000151   F583         MOV       DPH,A
   \   000153   E0           MOVX      A,@DPTR
   \   000154   6407         XRL       A,#0x7
   \   000156   7006         JNZ       ??u_mem_utils_7
   \   000158   7E01         MOV       R6,#0x1
   \   00015A   7F00         MOV       R7,#0x0
   \   00015C   8004         SJMP      ??u_mem_utils_8
   \                     ??u_mem_utils_7:
   \   00015E   7E00         MOV       R6,#0x0
   \   000160   7F00         MOV       R7,#0x0
     23              ASSERT(cmp_res == 0);
   \                     ??u_mem_utils_8:
   \   000162   EE           MOV       A,R6
   \   000163   4F           ORL       A,R7
   \   000164   7037         JNZ       ??u_mem_utils_9
   \   000166                ; Setup parameters for call to function printf
   \   000166   75....       MOV       ?V2,#??__FUNCTION___12 & 0xff
   \   000169   75....       MOV       ?V3,#(??__FUNCTION___12 >> 8) & 0xff
   \   00016C   78..         MOV       R0,#?V2
   \   00016E   12....       LCALL     ?PUSH_XSTACK_I_TWO
   \   000171   75..17       MOV       ?V2,#0x17
   \   000174   75..00       MOV       ?V3,#0x0
   \   000177   78..         MOV       R0,#?V2
   \   000179   12....       LCALL     ?PUSH_XSTACK_I_TWO
   \   00017C   75....       MOV       ?V2,#`?<Constant "u_mem_utils.c">` & 0xff
   \   00017F   75....       MOV       ?V3,#(`?<Constant "u_mem_utils.c">` >> 8) & 0xff
   \   000182   78..         MOV       R0,#?V2
   \   000184   12....       LCALL     ?PUSH_XSTACK_I_TWO
   \   000187   7A..         MOV       R2,#`?<Constant "%s:%d:%s -> ">_5` & 0xff
   \   000189   7B..         MOV       R3,#(`?<Constant "%s:%d:%s -> ">_5` >> 8) & 0xff
   \   00018B   12....       LCALL     `??printf::?relay`; Banked call to: printf
   \   00018E   7406         MOV       A,#0x6
   \   000190   12....       LCALL     ?DEALLOC_XSTACK8
   \   000193                ; Setup parameters for call to function printf
   \   000193   7A..         MOV       R2,#`?<Constant "\\"cmp_res == 0\\" Faild! \\r\\n">` & 0xff
   \   000195   7B..         MOV       R3,#(`?<Constant "\\"cmp_res == 0\\" Faild! \\r\\n">` >> 8) & 0xff
   \   000197   12....       LCALL     `??printf::?relay`; Banked call to: printf
   \   00019A                ; Setup parameters for call to function DBG_CORE_HALT
   \   00019A   12....       LCALL     `??DBG_CORE_HALT::?relay`; Banked call to: DBG_CORE_HALT
     24              }
   \                     ??u_mem_utils_9:
   \   00019D   05..         INC       ?V0
   \   00019F   E5..         MOV       A,?V0
   \   0001A1   7094         JNZ       ??u_mem_utils_5
   \   0001A3   05..         INC       ?V1
   \   0001A5   8090         SJMP      ??u_mem_utils_5
     25            LOG_ON("MEM_memset ok!");
   \                     ??u_mem_utils_6:
   \   0001A7                ; Setup parameters for call to function printf
   \   0001A7   75....       MOV       ?V0,#??__FUNCTION___12 & 0xff
   \   0001AA   75....       MOV       ?V1,#(??__FUNCTION___12 >> 8) & 0xff
   \   0001AD   78..         MOV       R0,#?V0
   \   0001AF   12....       LCALL     ?PUSH_XSTACK_I_TWO
   \   0001B2   75..19       MOV       ?V0,#0x19
   \   0001B5   75..00       MOV       ?V1,#0x0
   \   0001B8   78..         MOV       R0,#?V0
   \   0001BA   12....       LCALL     ?PUSH_XSTACK_I_TWO
   \   0001BD   75....       MOV       ?V0,#`?<Constant "u_mem_utils.c">` & 0xff
   \   0001C0   75....       MOV       ?V1,#(`?<Constant "u_mem_utils.c">` >> 8) & 0xff
   \   0001C3   78..         MOV       R0,#?V0
   \   0001C5   12....       LCALL     ?PUSH_XSTACK_I_TWO
   \   0001C8   7A..         MOV       R2,#`?<Constant "%s:%d:%s -> ">_5` & 0xff
   \   0001CA   7B..         MOV       R3,#(`?<Constant "%s:%d:%s -> ">_5` >> 8) & 0xff
   \   0001CC   12....       LCALL     `??printf::?relay`; Banked call to: printf
   \   0001CF   7406         MOV       A,#0x6
   \   0001D1   12....       LCALL     ?DEALLOC_XSTACK8
   \   0001D4                ; Setup parameters for call to function printf
   \   0001D4   7A..         MOV       R2,#`?<Constant "MEM_memset ok!">` & 0xff
   \   0001D6   7B..         MOV       R3,#(`?<Constant "MEM_memset ok!">` >> 8) & 0xff
   \   0001D8   12....       LCALL     `??printf::?relay`; Banked call to: printf
   \   0001DB                ; Setup parameters for call to function printf
   \   0001DB   7A..         MOV       R2,#`?<Constant "\\r\\n">_2` & 0xff
   \   0001DD   7B..         MOV       R3,#(`?<Constant "\\r\\n">_2` >> 8) & 0xff
   \   0001DF   12....       LCALL     `??printf::?relay`; Banked call to: printf
     26          }
   \   0001E2   741D         MOV       A,#0x1d
   \   0001E4   12....       LCALL     ?DEALLOC_XSTACK8
   \   0001E7   7F04         MOV       R7,#0x4
   \   0001E9   02....       LJMP      ?BANKED_LEAVE_XDATA

   \                                 In  segment XDATA_I, align 1, keep-with-next
   \                     `?<Constant {(char *)0, (char *)0, 10}>`:
   \   000000                DS 5
   \   000005                REQUIRE `?<Initializer for <Constant {(char *)0, (char `
   \   000005                REQUIRE __INIT_XDATA_I

   \                                 In  segment XDATA_I, align 1, keep-with-next
   \                     `?<Constant {(char *)0, 10, 7}>`:
   \   000000                DS 4
   \   000004                REQUIRE `?<Initializer for <Constant {(char *)0, 10, 7}`
   \   000004                REQUIRE __INIT_XDATA_I

   \                                 In  segment INTVEC, offset 0x2b, root
   \                     `??TimerCompareInterrupt::??INTVEC 43`:
   \   00002B   02....       LJMP       (TimerCompareInterrupt)

   \                                 In  segment XDATA_ID, align 1, keep-with-next
   \                     `?<Initializer for __FUNCTION__>`:
   \   000000   414D5F43     DB "AM_Cold_start"
   \            6F6C645F
   \            73746172
   \            7400    

   \                                 In  segment XDATA_ID, align 1, keep-with-next
   \                     `?<Initializer for <Constant "%s:%d:%s -> ">>`:
   \   000000   25733A25     DB "%s:%d:%s -> "
   \            643A2573
   \            202D3E20
   \            00      

   \                                 In  segment XDATA_ID, align 1, keep-with-next
   \                     `?<Initializer for <Constant "action_manager.c"`:
   \   000000   61637469     DB "action_manager.c"
   \            6F6E5F6D
   \            616E6167
   \            65722E63
   \            00      

   \                                 In  segment XDATA_ID, align 1, keep-with-next
   \                     `?<Initializer for <Constant "\\"COLD_MOD[i]->Co`:
   \   000000   22434F4C     DB "\"COLD_MOD[i]->Cold_Start == NULL\" Faild! \015\012"
   \            445F4D4F
   \            445B695D
   \            2D3E436F
   \            6C645F53
   \            74617274
   \            203D3D20
   \            4E554C4C
   \            22204661
   \            696C6421
   \            200D0A00

   \                                 In  segment XDATA_ID, align 1, keep-with-next
   \                     `?<Initializer for __FUNCTION__>_1`:
   \   000000   414D5F48     DB "AM_Hot_start"
   \            6F745F73
   \            74617274
   \            00      

   \                                 In  segment XDATA_ID, align 1, keep-with-next
   \                     `?<Initializer for <Constant "\\"HOT_MOD[i]->Hot`:
   \   000000   22484F54     DB "\"HOT_MOD[i]->Hot_Start == NULL\" Faild! \015\012"
   \            5F4D4F44
   \            5B695D2D
   \            3E486F74
   \            5F537461
   \            7274203D
   \            3D204E55
   \            4C4C2220
   \            4661696C
   \            6421200D
   \            0A00    

   \                                 In  segment XDATA_ID, align 1, keep-with-next
   \                     `?<Initializer for __FUNCTION__>_2`:
   \   000000   414D5F48     DB "AM_HW_Init"
   \            575F496E
   \            697400  

   \                                 In  segment XDATA_ID, align 1, keep-with-next
   \                     `?<Initializer for <Constant "\\"HW_MOD[i]->HW_I`:
   \   000000   2248575F     DB "\"HW_MOD[i]->HW_Init == NULL\" Faild! \015\012"
   \            4D4F445B
   \            695D2D3E
   \            48575F49
   \            6E697420
   \            3D3D204E
   \            554C4C22
   \            20466169
   \            6C642120
   \            0D0A00  

   \                                 In  segment XDATA_ID, align 1, keep-with-next
   \                     `?<Initializer for __FUNCTION__>_3`:
   \   000000   414D5F53     DB "AM_SW_Init"
   \            575F496E
   \            697400  

   \                                 In  segment XDATA_ID, align 1, keep-with-next
   \                     `?<Initializer for <Constant "\\"SW_MOD[i]->SW_I`:
   \   000000   2253575F     DB "\"SW_MOD[i]->SW_Init == NULL\" Faild! \015\012"
   \            4D4F445B
   \            695D2D3E
   \            53575F49
   \            6E697420
   \            3D3D204E
   \            554C4C22
   \            20466169
   \            6C642120
   \            0D0A00  

   \                                 In  segment XDATA_ID, align 1, keep-with-next
   \                     `?<Initializer for __FUNCTION__>_4`:
   \   000000   414D5F53     DB "AM_Sleep"
   \            6C656570
   \            00      

   \                                 In  segment XDATA_ID, align 1, keep-with-next
   \                     `?<Initializer for <Constant "\\"POW_MOD[i]->Sle`:
   \   000000   22504F57     DB "\"POW_MOD[i]->Sleep == NULL\" Faild! \015\012"
   \            5F4D4F44
   \            5B695D2D
   \            3E536C65
   \            6570203D
   \            3D204E55
   \            4C4C2220
   \            4661696C
   \            6421200D
   \            0A00    

   \                                 In  segment XDATA_ID, align 1, keep-with-next
   \                     `?<Initializer for __FUNCTION__>_5`:
   \   000000   414D5F57     DB "AM_Wakeup"
   \            616B6575
   \            7000    

   \                                 In  segment XDATA_ID, align 1, keep-with-next
   \                     `?<Initializer for <Constant "\\"POW_MOD[i]->Wak`:
   \   000000   22504F57     DB "\"POW_MOD[i]->Wakeup == NULL\" Faild! \015\012"
   \            5F4D4F44
   \            5B695D2D
   \            3E57616B
   \            65757020
   \            3D3D204E
   \            554C4C22
   \            20466169
   \            6C642120
   \            0D0A00  

   \                                 In  segment XDATA_ID, align 1, keep-with-next
   \                     `?<Initializer for __FUNCTION__>_6`:
   \   000000   41545F73     DB "AT_set_time"
   \            65745F74
   \            696D6500

   \                                 In  segment XDATA_ID, align 1, keep-with-next
   \                     `?<Initializer for <Constant "%s:%d:%s -> ">>_1`:
   \   000000   25733A25     DB "%s:%d:%s -> "
   \            643A2573
   \            202D3E20
   \            00      

   \                                 In  segment XDATA_ID, align 1, keep-with-next
   \                     `?<Initializer for <Constant "alarm_timer.c">>`:
   \   000000   616C6172     DB "alarm_timer.c"
   \            6D5F7469
   \            6D65722E
   \            6300    

   \                                 In  segment XDATA_ID, align 1, keep-with-next
   \                     `?<Initializer for <Constant "\\"time > 32767\\" `:
   \   000000   2274696D     DB "\"time > 32767\" Faild! \015\012"
   \            65203E20
   \            33323736
   \            37222046
   \            61696C64
   \            21200D0A
   \            00      

   \                                 In  segment XDATA_ID, align 1, keep-with-next
   \                     `?<Initializer for __FUNCTION__>_7`:
   \   000000   41545F77     DB "AT_wait"
   \            61697400

   \                                 In  segment XDATA_ID, align 1, keep-with-next
   \                     `?<Initializer for __FUNCTION__>_8`:
   \   000000   41545F73     DB "AT_set_alarm"
   \            65745F61
   \            6C61726D
   \            00      

   \                                 In  segment XDATA_ID, align 1, keep-with-next
   \                     `?<Initializer for <Constant "\\"alarm > 32767\\"`:
   \   000000   22616C61     DB "\"alarm > 32767\" Faild! \015\012"
   \            726D203E
   \            20333237
   \            36372220
   \            4661696C
   \            6421200D
   \            0A00    

   \                                 In  segment XDATA_ID, align 1, keep-with-next
   \                     `?<Initializer for __FUNCTION__>_9`:
   \   000000   46525F43     DB "FR_Create"
   \            72656174
   \            6500    

   \                                 In  segment XDATA_ID, align 1, keep-with-next
   \                     `?<Initializer for <Constant "%s:%d:%s -> ">>_2`:
   \   000000   25733A25     DB "%s:%d:%s -> "
   \            643A2573
   \            202D3E20
   \            00      

   \                                 In  segment XDATA_ID, align 1, keep-with-next
   \                     `?<Initializer for <Constant "frame.c">>`:
   \   000000   6672616D     DB "frame.c"
   \            652E6300

   \                                 In  segment XDATA_ID, align 1, keep-with-next
   \                     `?<Initializer for <Constant "Space not exist">`:
   \   000000   53706163     DB "Space not exist"
   \            65206E6F
   \            74206578
   \            69737400

   \                                 In  segment XDATA_ID, align 1, keep-with-next
   \                     `?<Initializer for __FUNCTION__>_10`:
   \   000000   544D5F49     DB "TM_IRQ"
   \            525100  

   \                                 In  segment XDATA_ID, align 1, keep-with-next
   \                     `?<Initializer for <Constant "%s:%d:%s -> ">>_3`:
   \   000000   25733A25     DB "%s:%d:%s -> "
   \            643A2573
   \            202D3E20
   \            00      

   \                                 In  segment XDATA_ID, align 1, keep-with-next
   \                     `?<Initializer for <Constant "time_manager.c">>`:
   \   000000   74696D65     DB "time_manager.c"
   \            5F6D616E
   \            61676572
   \            2E6300  

   \                                 In  segment XDATA_ID, align 1, keep-with-next
   \                     `?<Initializer for <Constant "ALARM! %d">>`:
   \   000000   414C4152     DB "ALARM! %d"
   \            4D212025
   \            6400    

   \                                 In  segment XDATA_ID, align 1, keep-with-next
   \                     `?<Initializer for <Constant "\\r\\n">>`:
   \   000000   0D0A00       DB "\015\012"

   \                                 In  segment XDATA_ID, align 1, keep-with-next
   \                     `?<Initializer for __FUNCTION__>_11`:
   \   000000   755F7465     DB "u_test"
   \            737400  

   \                                 In  segment XDATA_ID, align 1, keep-with-next
   \                     `?<Initializer for <Constant "%s:%d:%s -> ">>_4`:
   \   000000   25733A25     DB "%s:%d:%s -> "
   \            643A2573
   \            202D3E20
   \            00      

   \                                 In  segment XDATA_ID, align 1, keep-with-next
   \                     `?<Initializer for <Constant "u_debug.c">>`:
   \   000000   755F6465     DB "u_debug.c"
   \            6275672E
   \            6300    

   \                                 In  segment XDATA_ID, align 1, keep-with-next
   \                     `?<Initializer for <Constant "HELLO">>`:
   \   000000   48454C4C     DB "HELLO"
   \            4F00    

   \                                 In  segment XDATA_ID, align 1, keep-with-next
   \                     `?<Initializer for <Constant "\\r\\n">>_1`:
   \   000000   0D0A00       DB "\015\012"

   \                                 In  segment XDATA_ID, align 1, keep-with-next
   \                     `?<Initializer for <Constant "\\"2>0\\" Faild! \\r`:
   \   000000   22323E30     DB "\"2>0\" Faild! \015\012"
   \            22204661
   \            696C6421
   \            200D0A00

   \                                 In  segment XDATA_ID, align 1, keep-with-next
   \                     `?<Initializer for __FUNCTION__>_12`:
   \   000000   755F6D65     DB "u_mem_utils"
   \            6D5F7574
   \            696C7300

   \                                 In  segment XDATA_ID, align 1, keep-with-next
   \                     `?<Initializer for <Constant {1, 2, 3, 4, 5, 6,`:
   \   000000   01           DB 1
   \   000001   02           DB 2
   \   000002   03           DB 3
   \   000003   04           DB 4
   \   000004   05           DB 5
   \   000005   06           DB 6
   \   000006   07           DB 7
   \   000007   08           DB 8
   \   000008   09           DB 9
   \   000009   0A           DB 10

   \                                 In  segment XDATA_ID, align 1, keep-with-next
   \                     `?<Initializer for <Constant "%s:%d:%s -> ">>_5`:
   \   000000   25733A25     DB "%s:%d:%s -> "
   \            643A2573
   \            202D3E20
   \            00      

   \                                 In  segment XDATA_ID, align 1, keep-with-next
   \                     `?<Initializer for <Constant "u_mem_utils.c">>`:
   \   000000   755F6D65     DB "u_mem_utils.c"
   \            6D5F7574
   \            696C732E
   \            6300    

   \                                 In  segment XDATA_ID, align 1, keep-with-next
   \                     `?<Initializer for <Constant "\\"cmp_res == 0\\" `:
   \   000000   22636D70     DB "\"cmp_res == 0\" Faild! \015\012"
   \            5F726573
   \            203D3D20
   \            30222046
   \            61696C64
   \            21200D0A
   \            00      

   \                                 In  segment XDATA_ID, align 1, keep-with-next
   \                     `?<Initializer for <Constant "MEM_memcpy ok!">>`:
   \   000000   4D454D5F     DB "MEM_memcpy ok!"
   \            6D656D63
   \            7079206F
   \            6B2100  

   \                                 In  segment XDATA_ID, align 1, keep-with-next
   \                     `?<Initializer for <Constant "\\r\\n">>_2`:
   \   000000   0D0A00       DB "\015\012"

   \                                 In  segment XDATA_ID, align 1, keep-with-next
   \                     `?<Initializer for <Constant "MEM_memset ok!">>`:
   \   000000   4D454D5F     DB "MEM_memset ok!"
   \            6D656D73
   \            6574206F
   \            6B2100  

   \                                 In  segment XDATA_ID, align 1, keep-with-next
   \                     `?<Initializer for HW_MOD>`:
   \   000000   ....         DW CPU_MODULE
   \   000002   ....         DW DBG_MODULE
   \   000004   ....         DW AT_MODULE

   \                                 In  segment XDATA_ID, align 1, keep-with-next
   \                     `?<Initializer for SW_MOD>`:
   \   000000   ....         DW TM_MODULE
   \   000002   ....         DW FR_MODULE
   \   000004   ....         DW MD_MODULE

   \                                 In  segment XDATA_ID, align 1, keep-with-next
   \                     `?<Initializer for POW_MOD>`:
   \   000000   ....         DW RTC_MODULE

   \                                 In  segment XDATA_ID, align 1, keep-with-next
   \                     `?<Initializer for AT_MODULE>`:
   \   000000   ....         DW `??HW_Init::?relay`
   \   000002   00000000     DB 0, 0, 0, 0, 0, 0, 0, 0
   \            00000000
   \   00000A   0000         DB 0, 0

   \                                 In  segment XDATA_ID, align 1, keep-with-next
   \                     `?<Initializer for CPU_MODULE>`:
   \   000000   ....         DW `??HW_Init::?relay_1`
   \   000002   00000000     DB 0, 0, 0, 0, 0, 0, 0, 0
   \            00000000
   \   00000A   0000         DB 0, 0

   \                                 In  segment XDATA_ID, align 1, keep-with-next
   \                     `?<Initializer for DBG_MODULE>`:
   \   000000   ....         DW `??HW_Init::?relay_2`
   \   000002   00000000     DB 0, 0, 0, 0, 0, 0, 0, 0
   \            00000000
   \   00000A   0000         DB 0, 0

   \                                 In  segment XDATA_ID, align 1, keep-with-next
   \                     `?<Initializer for FR_MODULE>`:
   \   000000   0000         DW 0H
   \   000002   ....         DW `??SW_Init::?relay`
   \   000004   00000000     DB 0, 0, 0, 0, 0, 0, 0, 0
   \            00000000

   \                                 In  segment XDATA_ID, align 1, keep-with-next
   \                     `?<Initializer for MD_MODULE>`:
   \   000000   ....         DW `??HW_Init::?relay_3`
   \   000002   ....         DW `??SW_Init::?relay_1`
   \   000004   ....         DW `??Sleep::?relay`
   \   000006   ....         DW `??Wakeup::?relay`
   \   000008   ....         DW `??Cold_Start::?relay`
   \   00000A   ....         DW `??Hot_Start::?relay`

   \                                 In  segment XDATA_ID, align 1, keep-with-next
   \                     `?<Initializer for RTC_MODULE>`:
   \   000000   ....         DW `??HW_Init::?relay_4`
   \   000002   ....         DW `??SW_Init::?relay_2`
   \   000004   ....         DW `??Sleep::?relay_1`
   \   000006   ....         DW `??Wakeup::?relay_1`
   \   000008   ....         DW `??Cold_Start::?relay_1`
   \   00000A   ....         DW `??Hot_Start::?relay_1`

   \                                 In  segment XDATA_ID, align 1, keep-with-next
   \                     `?<Initializer for TM_MODULE>`:
   \   000000   ....         DW `??HW_Init::?relay_5`
   \   000002   ....         DW `??SW_Init::?relay_3`
   \   000004   ....         DW `??Sleep::?relay_2`
   \   000006   ....         DW `??Wakeup::?relay_2`
   \   000008   ....         DW `??Cold_Start::?relay_2`
   \   00000A   ....         DW `??Hot_Start::?relay_2`

   \                                 In  segment XDATA_ID, align 1, keep-with-next
   \                     `?<Initializer for <Constant {(char *)0, (char `:
   \   000000   0000         DW 0H
   \   000002   0000         DW 0H
   \   000004   0A           DB 10

   \                                 In  segment XDATA_ID, align 1, keep-with-next
   \                     `?<Initializer for <Constant {(char *)0, 10, 7}`:
   \   000000   0000         DW 0H
   \   000002   0A           DB 10
   \   000003   07           DB 7

   \                                 In  segment XDATA_ID, align 1, keep-with-next
   \                     `?<Initializer for __Constant_7fff>`:
   \   000000   FF7F0000     DD 32767

   \                                 In  segment XDATA_ID, align 1, keep-with-next
   \                     `?<Initializer for __Constant_ffff8000>`:
   \   000000   0080FFFF     DD 4294934528

   \                                 In  segment XDATA_ID, align 1, keep-with-next
   \                     `?<Initializer for __Constant_8000>`:
   \   000000   00800000     DD 32768

   \                                 In  segment XDATA_ID, align 1, keep-with-next
   \                     `?<Initializer for __Constant_ffffff>`:
   \   000000   FFFFFF00     DD 16777215

   \                                 In  segment BANK_RELAYS, align 1
   \                     `??AM_Cold_start::?relay`:
   \   000000   12....       LCALL   ?BDISPATCH
   \   000003   ......       DC24    AM_Cold_start

   \                                 In  segment BANK_RELAYS, align 1
   \                     `??AM_Hot_start::?relay`:
   \   000000   12....       LCALL   ?BDISPATCH
   \   000003   ......       DC24    AM_Hot_start

   \                                 In  segment BANK_RELAYS, align 1
   \                     `??AM_HW_Init::?relay`:
   \   000000   12....       LCALL   ?BDISPATCH
   \   000003   ......       DC24    AM_HW_Init

   \                                 In  segment BANK_RELAYS, align 1
   \                     `??AM_SW_Init::?relay`:
   \   000000   12....       LCALL   ?BDISPATCH
   \   000003   ......       DC24    AM_SW_Init

   \                                 In  segment BANK_RELAYS, align 1
   \                     `??AM_Sleep::?relay`:
   \   000000   12....       LCALL   ?BDISPATCH
   \   000003   ......       DC24    AM_Sleep

   \                                 In  segment BANK_RELAYS, align 1
   \                     `??AM_Wakeup::?relay`:
   \   000000   12....       LCALL   ?BDISPATCH
   \   000003   ......       DC24    AM_Wakeup

   \                                 In  segment BANK_RELAYS, align 1
   \                     `??HW_Init::?relay`:
   \   000000   12....       LCALL   ?BDISPATCH
   \   000003   ......       DC24    ??HW_Init

   \                                 In  segment BANK_RELAYS, align 1
   \                     `??AT_set_time::?relay`:
   \   000000   12....       LCALL   ?BDISPATCH
   \   000003   ......       DC24    AT_set_time

   \                                 In  segment BANK_RELAYS, align 1
   \                     `??AT_time::?relay`:
   \   000000   12....       LCALL   ?BDISPATCH
   \   000003   ......       DC24    AT_time

   \                                 In  segment BANK_RELAYS, align 1
   \                     `??AT_wait::?relay`:
   \   000000   12....       LCALL   ?BDISPATCH
   \   000003   ......       DC24    AT_wait

   \                                 In  segment BANK_RELAYS, align 1
   \                     `??IRQEnable::?relay`:
   \   000000   12....       LCALL   ?BDISPATCH
   \   000003   ......       DC24    ??IRQEnable

   \                                 In  segment BANK_RELAYS, align 1
   \                     `??AT_set_alarm::?relay`:
   \   000000   12....       LCALL   ?BDISPATCH
   \   000003   ......       DC24    AT_set_alarm

   \                                 In  segment BANK_RELAYS, align 1
   \                     `??calcCompareTime::?relay`:
   \   000000   12....       LCALL   ?BDISPATCH
   \   000003   ......       DC24    ??calcCompareTime

   \                                 In  segment BANK_RELAYS, align 1
   \                     `??ReadTimer::?relay`:
   \   000000   12....       LCALL   ?BDISPATCH
   \   000003   ......       DC24    ??ReadTimer

   \                                 In  segment BANK_RELAYS, align 1
   \                     `??loadTimerCompare::?relay`:
   \   000000   12....       LCALL   ?BDISPATCH
   \   000003   ......       DC24    ??loadTimerCompare

   \                                 In  segment BANK_RELAYS, align 1
   \                     `??isIRQEnable::?relay`:
   \   000000   12....       LCALL   ?BDISPATCH
   \   000003   ......       DC24    ??isIRQEnable

   \                                 In  segment BANK_RELAYS, align 1
   \                     `??HW_Init::?relay_1`:
   \   000000   12....       LCALL   ?BDISPATCH
   \   000003   ......       DC24    ??HW_Init_1

   \                                 In  segment BANK_RELAYS, align 1
   \                     `??HW_Init::?relay_2`:
   \   000000   12....       LCALL   ?BDISPATCH
   \   000003   ......       DC24    ??HW_Init_2

   \                                 In  segment BANK_RELAYS, align 1
   \                     `??DBG_CORE_HALT::?relay`:
   \   000000   12....       LCALL   ?BDISPATCH
   \   000003   ......       DC24    DBG_CORE_HALT

   \                                 In  segment BANK_RELAYS, align 1
   \                     `??DBG_CORE_FAULT::?relay`:
   \   000000   12....       LCALL   ?BDISPATCH
   \   000003   ......       DC24    DBG_CORE_FAULT

   \                                 In  segment BANK_RELAYS, align 1
   \                     `??uart_init::?relay`:
   \   000000   12....       LCALL   ?BDISPATCH
   \   000003   ......       DC24    ??uart_init

   \                                 In  segment BANK_RELAYS, align 1
   \                     `??MyLowLevelPutchar::?relay`:
   \   000000   12....       LCALL   ?BDISPATCH
   \   000003   ......       DC24    MyLowLevelPutchar

   \                                 In  segment BANK_RELAYS, align 1
   \                     `??__write::?relay`:
   \   000000   12....       LCALL   ?BDISPATCH
   \   000003   ......       DC24    __write

   \                                 In  segment BANK_RELAYS, align 1
   \                     `??SW_Init::?relay`:
   \   000000   12....       LCALL   ?BDISPATCH
   \   000003   ......       DC24    ??SW_Init

   \                                 In  segment BANK_RELAYS, align 1
   \                     `??FR_Create::?relay`:
   \   000000   12....       LCALL   ?BDISPATCH
   \   000003   ......       DC24    FR_Create

   \                                 In  segment BANK_RELAYS, align 1
   \                     `??user_space_create::?relay`:
   \   000000   12....       LCALL   ?BDISPATCH
   \   000003   ......       DC24    ??user_space_create

   \                                 In  segment BANK_RELAYS, align 1
   \                     `??irq_space_create::?relay`:
   \   000000   12....       LCALL   ?BDISPATCH
   \   000003   ......       DC24    ??irq_space_create

   \                                 In  segment BANK_RELAYS, align 1
   \                     `??main::?relay`:
   \   000000   12....       LCALL   ?BDISPATCH
   \   000003   ......       DC24    main

   \                                 In  segment BANK_RELAYS, align 1
   \                     `??MEM_memcpy::?relay`:
   \   000000   12....       LCALL   ?BDISPATCH
   \   000003   ......       DC24    MEM_memcpy

   \                                 In  segment BANK_RELAYS, align 1
   \                     `??MEM_memset::?relay`:
   \   000000   12....       LCALL   ?BDISPATCH
   \   000003   ......       DC24    MEM_memset

   \                                 In  segment BANK_RELAYS, align 1
   \                     `??HW_Init::?relay_3`:
   \   000000   12....       LCALL   ?BDISPATCH
   \   000003   ......       DC24    ??HW_Init_3

   \                                 In  segment BANK_RELAYS, align 1
   \                     `??SW_Init::?relay_1`:
   \   000000   12....       LCALL   ?BDISPATCH
   \   000003   ......       DC24    ??SW_Init_1

   \                                 In  segment BANK_RELAYS, align 1
   \                     `??Sleep::?relay`:
   \   000000   12....       LCALL   ?BDISPATCH
   \   000003   ......       DC24    ??Sleep

   \                                 In  segment BANK_RELAYS, align 1
   \                     `??Wakeup::?relay`:
   \   000000   12....       LCALL   ?BDISPATCH
   \   000003   ......       DC24    ??Wakeup

   \                                 In  segment BANK_RELAYS, align 1
   \                     `??Cold_Start::?relay`:
   \   000000   12....       LCALL   ?BDISPATCH
   \   000003   ......       DC24    ??Cold_Start

   \                                 In  segment BANK_RELAYS, align 1
   \                     `??Hot_Start::?relay`:
   \   000000   12....       LCALL   ?BDISPATCH
   \   000003   ......       DC24    ??Hot_Start

   \                                 In  segment BANK_RELAYS, align 1
   \                     `??HW_Init::?relay_4`:
   \   000000   12....       LCALL   ?BDISPATCH
   \   000003   ......       DC24    ??HW_Init_4

   \                                 In  segment BANK_RELAYS, align 1
   \                     `??SW_Init::?relay_2`:
   \   000000   12....       LCALL   ?BDISPATCH
   \   000003   ......       DC24    ??SW_Init_2

   \                                 In  segment BANK_RELAYS, align 1
   \                     `??Sleep::?relay_1`:
   \   000000   12....       LCALL   ?BDISPATCH
   \   000003   ......       DC24    ??Sleep_1

   \                                 In  segment BANK_RELAYS, align 1
   \                     `??Wakeup::?relay_1`:
   \   000000   12....       LCALL   ?BDISPATCH
   \   000003   ......       DC24    ??Wakeup_1

   \                                 In  segment BANK_RELAYS, align 1
   \                     `??Cold_Start::?relay_1`:
   \   000000   12....       LCALL   ?BDISPATCH
   \   000003   ......       DC24    ??Cold_Start_1

   \                                 In  segment BANK_RELAYS, align 1
   \                     `??Hot_Start::?relay_1`:
   \   000000   12....       LCALL   ?BDISPATCH
   \   000003   ......       DC24    ??Hot_Start_1

   \                                 In  segment BANK_RELAYS, align 1
   \                     `??HW_Init::?relay_5`:
   \   000000   12....       LCALL   ?BDISPATCH
   \   000003   ......       DC24    ??HW_Init_5

   \                                 In  segment BANK_RELAYS, align 1
   \                     `??SW_Init::?relay_3`:
   \   000000   12....       LCALL   ?BDISPATCH
   \   000003   ......       DC24    ??SW_Init_3

   \                                 In  segment BANK_RELAYS, align 1
   \                     `??Sleep::?relay_2`:
   \   000000   12....       LCALL   ?BDISPATCH
   \   000003   ......       DC24    ??Sleep_2

   \                                 In  segment BANK_RELAYS, align 1
   \                     `??Wakeup::?relay_2`:
   \   000000   12....       LCALL   ?BDISPATCH
   \   000003   ......       DC24    ??Wakeup_2

   \                                 In  segment BANK_RELAYS, align 1
   \                     `??Cold_Start::?relay_2`:
   \   000000   12....       LCALL   ?BDISPATCH
   \   000003   ......       DC24    ??Cold_Start_2

   \                                 In  segment BANK_RELAYS, align 1
   \                     `??Hot_Start::?relay_2`:
   \   000000   12....       LCALL   ?BDISPATCH
   \   000003   ......       DC24    ??Hot_Start_2

   \                                 In  segment BANK_RELAYS, align 1
   \                     `??TM_SetAlarm::?relay`:
   \   000000   12....       LCALL   ?BDISPATCH
   \   000003   ......       DC24    TM_SetAlarm

   \                                 In  segment BANK_RELAYS, align 1
   \                     `??TM_ClrAlarm::?relay`:
   \   000000   12....       LCALL   ?BDISPATCH
   \   000003   ......       DC24    TM_ClrAlarm

   \                                 In  segment BANK_RELAYS, align 1
   \                     `??TM_AdjustTime::?relay`:
   \   000000   12....       LCALL   ?BDISPATCH
   \   000003   ......       DC24    TM_AdjustTime

   \                                 In  segment BANK_RELAYS, align 1
   \                     `??TM_IRQ::?relay`:
   \   000000   12....       LCALL   ?BDISPATCH
   \   000003   ......       DC24    TM_IRQ

   \                                 In  segment BANK_RELAYS, align 1
   \                     `??u_alarm_timer::?relay`:
   \   000000   12....       LCALL   ?BDISPATCH
   \   000003   ......       DC24    u_alarm_timer

   \                                 In  segment BANK_RELAYS, align 1
   \                     `??u_test::?relay`:
   \   000000   12....       LCALL   ?BDISPATCH
   \   000003   ......       DC24    u_test

   \                                 In  segment BANK_RELAYS, align 1
   \                     `??u_mem_utils::?relay`:
   \   000000   12....       LCALL   ?BDISPATCH
   \   000003   ......       DC24    u_mem_utils

   \                                 In  segment XDATA_I, align 1, keep-with-next
   \                     `?<Constant "%s:%d:%s -> ">`:
   \   000000                DS 13
   \   00000D                REQUIRE `?<Initializer for <Constant "%s:%d:%s -> ">>`
   \   00000D                REQUIRE __INIT_XDATA_I

   \                                 In  segment XDATA_I, align 1, keep-with-next
   \                     `?<Constant "action_manager.c">`:
   \   000000                DS 17
   \   000011                REQUIRE `?<Initializer for <Constant "action_manager.c"`
   \   000011                REQUIRE __INIT_XDATA_I

   \                                 In  segment XDATA_I, align 1, keep-with-next
   \                     `?<Constant "\\"COLD_MOD[i]->Cold_St...">`:
   \   000000                DS 44
   \   00002C                REQUIRE `?<Initializer for <Constant "\\"COLD_MOD[i]->Co`
   \   00002C                REQUIRE __INIT_XDATA_I

   \                                 In  segment XDATA_I, align 1, keep-with-next
   \                     `?<Constant "\\"HOT_MOD[i]->Hot_Star...">`:
   \   000000                DS 42
   \   00002A                REQUIRE `?<Initializer for <Constant "\\"HOT_MOD[i]->Hot`
   \   00002A                REQUIRE __INIT_XDATA_I

   \                                 In  segment XDATA_I, align 1, keep-with-next
   \                     `?<Constant "\\"HW_MOD[i]->HW_Init =...">`:
   \   000000                DS 39
   \   000027                REQUIRE `?<Initializer for <Constant "\\"HW_MOD[i]->HW_I`
   \   000027                REQUIRE __INIT_XDATA_I

   \                                 In  segment XDATA_I, align 1, keep-with-next
   \                     `?<Constant "\\"SW_MOD[i]->SW_Init =...">`:
   \   000000                DS 39
   \   000027                REQUIRE `?<Initializer for <Constant "\\"SW_MOD[i]->SW_I`
   \   000027                REQUIRE __INIT_XDATA_I

   \                                 In  segment XDATA_I, align 1, keep-with-next
   \                     `?<Constant "\\"POW_MOD[i]->Sleep ==...">`:
   \   000000                DS 38
   \   000026                REQUIRE `?<Initializer for <Constant "\\"POW_MOD[i]->Sle`
   \   000026                REQUIRE __INIT_XDATA_I

   \                                 In  segment XDATA_I, align 1, keep-with-next
   \                     `?<Constant "\\"POW_MOD[i]->Wakeup =...">`:
   \   000000                DS 39
   \   000027                REQUIRE `?<Initializer for <Constant "\\"POW_MOD[i]->Wak`
   \   000027                REQUIRE __INIT_XDATA_I

   \                                 In  segment XDATA_I, align 1, keep-with-next
   \                     `?<Constant "%s:%d:%s -> ">_1`:
   \   000000                DS 13
   \   00000D                REQUIRE `?<Initializer for <Constant "%s:%d:%s -> ">>_1`
   \   00000D                REQUIRE __INIT_XDATA_I

   \                                 In  segment XDATA_I, align 1, keep-with-next
   \                     `?<Constant "alarm_timer.c">`:
   \   000000                DS 14
   \   00000E                REQUIRE `?<Initializer for <Constant "alarm_timer.c">>`
   \   00000E                REQUIRE __INIT_XDATA_I

   \                                 In  segment XDATA_I, align 1, keep-with-next
   \                     `?<Constant "\\"time > 32767\\" Faild! \\r\\n">`:
   \   000000                DS 25
   \   000019                REQUIRE `?<Initializer for <Constant "\\"time > 32767\\" `
   \   000019                REQUIRE __INIT_XDATA_I

   \                                 In  segment XDATA_I, align 1, keep-with-next
   \                     `?<Constant "\\"alarm > 32767\\" Faild...">`:
   \   000000                DS 26
   \   00001A                REQUIRE `?<Initializer for <Constant "\\"alarm > 32767\\"`
   \   00001A                REQUIRE __INIT_XDATA_I

   \                                 In  segment XDATA_I, align 1, keep-with-next
   \                     `?<Constant "%s:%d:%s -> ">_2`:
   \   000000                DS 13
   \   00000D                REQUIRE `?<Initializer for <Constant "%s:%d:%s -> ">>_2`
   \   00000D                REQUIRE __INIT_XDATA_I

   \                                 In  segment XDATA_I, align 1, keep-with-next
   \                     `?<Constant "frame.c">`:
   \   000000                DS 8
   \   000008                REQUIRE `?<Initializer for <Constant "frame.c">>`
   \   000008                REQUIRE __INIT_XDATA_I

   \                                 In  segment XDATA_I, align 1, keep-with-next
   \                     `?<Constant "Space not exist">`:
   \   000000                DS 16
   \   000010                REQUIRE `?<Initializer for <Constant "Space not exist">`
   \   000010                REQUIRE __INIT_XDATA_I

   \                                 In  segment XDATA_I, align 1, keep-with-next
   \                     `?<Constant "%s:%d:%s -> ">_3`:
   \   000000                DS 13
   \   00000D                REQUIRE `?<Initializer for <Constant "%s:%d:%s -> ">>_3`
   \   00000D                REQUIRE __INIT_XDATA_I

   \                                 In  segment XDATA_I, align 1, keep-with-next
   \                     `?<Constant "time_manager.c">`:
   \   000000                DS 15
   \   00000F                REQUIRE `?<Initializer for <Constant "time_manager.c">>`
   \   00000F                REQUIRE __INIT_XDATA_I

   \                                 In  segment XDATA_I, align 1, keep-with-next
   \                     `?<Constant "ALARM! %d">`:
   \   000000                DS 10
   \   00000A                REQUIRE `?<Initializer for <Constant "ALARM! %d">>`
   \   00000A                REQUIRE __INIT_XDATA_I

   \                                 In  segment XDATA_I, align 1, keep-with-next
   \                     `?<Constant "\\r\\n">`:
   \   000000                DS 3
   \   000003                REQUIRE `?<Initializer for <Constant "\\r\\n">>`
   \   000003                REQUIRE __INIT_XDATA_I

   \                                 In  segment XDATA_I, align 1, keep-with-next
   \                     `?<Constant "%s:%d:%s -> ">_4`:
   \   000000                DS 13
   \   00000D                REQUIRE `?<Initializer for <Constant "%s:%d:%s -> ">>_4`
   \   00000D                REQUIRE __INIT_XDATA_I

   \                                 In  segment XDATA_I, align 1, keep-with-next
   \                     `?<Constant "u_debug.c">`:
   \   000000                DS 10
   \   00000A                REQUIRE `?<Initializer for <Constant "u_debug.c">>`
   \   00000A                REQUIRE __INIT_XDATA_I

   \                                 In  segment XDATA_I, align 1, keep-with-next
   \                     `?<Constant "HELLO">`:
   \   000000                DS 6
   \   000006                REQUIRE `?<Initializer for <Constant "HELLO">>`
   \   000006                REQUIRE __INIT_XDATA_I

   \                                 In  segment XDATA_I, align 1, keep-with-next
   \                     `?<Constant "\\r\\n">_1`:
   \   000000                DS 3
   \   000003                REQUIRE `?<Initializer for <Constant "\\r\\n">>_1`
   \   000003                REQUIRE __INIT_XDATA_I

   \                                 In  segment XDATA_I, align 1, keep-with-next
   \                     `?<Constant "\\"2>0\\" Faild! \\r\\n">`:
   \   000000                DS 16
   \   000010                REQUIRE `?<Initializer for <Constant "\\"2>0\\" Faild! \\r`
   \   000010                REQUIRE __INIT_XDATA_I

   \                                 In  segment XDATA_I, align 1, keep-with-next
   \                     `?<Constant {1, 2, 3, 4, 5, 6, 7, 8, 9, 10}>`:
   \   000000                DS 10
   \   00000A                REQUIRE `?<Initializer for <Constant {1, 2, 3, 4, 5, 6,`
   \   00000A                REQUIRE __INIT_XDATA_I

   \                                 In  segment XDATA_I, align 1, keep-with-next
   \                     `?<Constant "%s:%d:%s -> ">_5`:
   \   000000                DS 13
   \   00000D                REQUIRE `?<Initializer for <Constant "%s:%d:%s -> ">>_5`
   \   00000D                REQUIRE __INIT_XDATA_I

   \                                 In  segment XDATA_I, align 1, keep-with-next
   \                     `?<Constant "u_mem_utils.c">`:
   \   000000                DS 14
   \   00000E                REQUIRE `?<Initializer for <Constant "u_mem_utils.c">>`
   \   00000E                REQUIRE __INIT_XDATA_I

   \                                 In  segment XDATA_I, align 1, keep-with-next
   \                     `?<Constant "\\"cmp_res == 0\\" Faild! \\r\\n">`:
   \   000000                DS 25
   \   000019                REQUIRE `?<Initializer for <Constant "\\"cmp_res == 0\\" `
   \   000019                REQUIRE __INIT_XDATA_I

   \                                 In  segment XDATA_I, align 1, keep-with-next
   \                     `?<Constant "MEM_memcpy ok!">`:
   \   000000                DS 15
   \   00000F                REQUIRE `?<Initializer for <Constant "MEM_memcpy ok!">>`
   \   00000F                REQUIRE __INIT_XDATA_I

   \                                 In  segment XDATA_I, align 1, keep-with-next
   \                     `?<Constant "\\r\\n">_2`:
   \   000000                DS 3
   \   000003                REQUIRE `?<Initializer for <Constant "\\r\\n">>_2`
   \   000003                REQUIRE __INIT_XDATA_I

   \                                 In  segment XDATA_I, align 1, keep-with-next
   \                     `?<Constant "MEM_memset ok!">`:
   \   000000                DS 15
   \   00000F                REQUIRE `?<Initializer for <Constant "MEM_memset ok!">>`
   \   00000F                REQUIRE __INIT_XDATA_I

   \                                 In  segment XDATA_I, align 1, keep-with-next
   \                     __Constant_7fff:
   \   000000                DS 4
   \   000004                REQUIRE `?<Initializer for __Constant_7fff>`
   \   000004                REQUIRE __INIT_XDATA_I

   \                                 In  segment XDATA_I, align 1, keep-with-next
   \                     __Constant_ffff8000:
   \   000000                DS 4
   \   000004                REQUIRE `?<Initializer for __Constant_ffff8000>`
   \   000004                REQUIRE __INIT_XDATA_I

   \                                 In  segment XDATA_I, align 1, keep-with-next
   \                     __Constant_8000:
   \   000000                DS 4
   \   000004                REQUIRE `?<Initializer for __Constant_8000>`
   \   000004                REQUIRE __INIT_XDATA_I

   \                                 In  segment XDATA_I, align 1, keep-with-next
   \                     __Constant_ffffff:
   \   000000                DS 4
   \   000004                REQUIRE `?<Initializer for __Constant_ffffff>`
   \   000004                REQUIRE __INIT_XDATA_I

   Maximum stack usage in bytes:

   ISTACK XSTACK Function
   ------ ------ --------
      0     16   AM_Cold_start
        0     10   -> DBG_CORE_HALT
        0     10   -> printf
        0     16   -> printf
      0     16   AM_HW_Init
        0     10   -> DBG_CORE_HALT
        0     10   -> printf
        0     16   -> printf
      0     16   AM_Hot_start
        0     10   -> DBG_CORE_HALT
        0     10   -> printf
        0     16   -> printf
      0     16   AM_SW_Init
        0     10   -> DBG_CORE_HALT
        0     10   -> printf
        0     16   -> printf
      0     16   AM_Sleep
        0     10   -> DBG_CORE_HALT
        0     10   -> printf
        0     16   -> printf
      0     16   AM_Wakeup
        0     10   -> DBG_CORE_HALT
        0     10   -> printf
        0     16   -> printf
      0     32   AT_set_alarm
        0     12   -> DBG_CORE_HALT
        0     12   -> IRQEnable
        0     12   -> calcCompareTime
        0     12   -> loadTimerCompare
        0     12   -> printf
        0     18   -> printf
      0     20   AT_set_time
        0     14   -> AT_set_alarm
        0     14   -> DBG_CORE_HALT
        0     14   -> ReadTimer
        0     14   -> isIRQEnable
        0     14   -> printf
        0     20   -> printf
      0     31   AT_time
        0     16   -> ReadTimer
      0     18   AT_wait
        0     12   -> DBG_CORE_HALT
        0     12   -> printf
        0     18   -> printf
      0      0   Cold_Start
      0      0   Cold_Start
      0      0   Cold_Start
      0      0   DBG_CORE_FAULT
      0     41   DBG_CORE_HALT
      0     16   FR_Create
        0     10   -> DBG_CORE_HALT
        0     10   -> irq_space_create
        0     10   -> printf
        0     16   -> printf
        0     10   -> user_space_create
      2      0   HW_Init
      0      0   HW_Init
      2      0   HW_Init
        2      0   -> uart_init
      0      0   HW_Init
      0      0   HW_Init
      0      0   HW_Init
      0      0   Hot_Start
      0      0   Hot_Start
      0      0   Hot_Start
      0     15   IRQEnable
      3     41   MEM_memcpy
      3     41   MEM_memset
      0     16   MyLowLevelPutchar
      2     22   ReadTimer
      0      0   SW_Init
      0      0   SW_Init
      2      0   SW_Init
      0      0   SW_Init
      0      0   Sleep
      0      0   Sleep
      0      0   Sleep
      0      0   TM_AdjustTime
      0      0   TM_ClrAlarm
      0     33   TM_IRQ
        0     12   -> printf
        0     14   -> printf
        0     18   -> printf
      0      0   TM_SetAlarm
      0     15   TimerCompareInterrupt
        0     15   -> AT_time
        0     15   -> IRQEnable
        0     15   -> TM_IRQ
      0      0   Wakeup
      0      0   Wakeup
      0      0   Wakeup
      0     18   __write
        0     16   -> MyLowLevelPutchar
      2     34   calcCompareTime
        0     22   -> ReadTimer
      0     10   irq_space_create
      0     14   isIRQEnable
      0     28   loadTimerCompare
      0      0   main
        0      0   -> AM_HW_Init
        0      0   -> DBG_CORE_HALT
        0      0   -> u_mem_utils
      0      9   u_alarm_timer
        0      9   -> AT_set_alarm
      0     47   u_mem_utils
        0     41   -> DBG_CORE_HALT
        0     41   -> MEM_memcpy
        0     41   -> MEM_memset
        0     41   -> printf
        0     47   -> printf
      0     16   u_test
        0     10   -> DBG_CORE_HALT
        0     10   -> printf
        0     16   -> printf
      0      0   uart_init
      0     10   user_space_create


   Segment part sizes:

   Bytes  Function/Label
   -----  --------------
      13  ?<Constant "%s:%d:%s -> ">
      13  ?<Constant "%s:%d:%s -> ">_1
      13  ?<Constant "%s:%d:%s -> ">_2
      13  ?<Constant "%s:%d:%s -> ">_3
      13  ?<Constant "%s:%d:%s -> ">_4
      13  ?<Constant "%s:%d:%s -> ">_5
      10  ?<Constant "ALARM! %d">
       6  ?<Constant "HELLO">
      15  ?<Constant "MEM_memcpy ok!">
      15  ?<Constant "MEM_memset ok!">
      16  ?<Constant "Space not exist">
      16  ?<Constant "\"2>0\" Faild! \r\n">
      44  ?<Constant "\"COLD_MOD[i]->Cold_St...">
      42  ?<Constant "\"HOT_MOD[i]->Hot_Star...">
      39  ?<Constant "\"HW_MOD[i]->HW_Init =...">
      38  ?<Constant "\"POW_MOD[i]->Sleep ==...">
      39  ?<Constant "\"POW_MOD[i]->Wakeup =...">
      39  ?<Constant "\"SW_MOD[i]->SW_Init =...">
      26  ?<Constant "\"alarm > 32767\" Faild...">
      25  ?<Constant "\"cmp_res == 0\" Faild! \r\n">
      25  ?<Constant "\"time > 32767\" Faild! \r\n">
       3  ?<Constant "\r\n">
       3  ?<Constant "\r\n">_1
       3  ?<Constant "\r\n">_2
      17  ?<Constant "action_manager.c">
      14  ?<Constant "alarm_timer.c">
       8  ?<Constant "frame.c">
      15  ?<Constant "time_manager.c">
      10  ?<Constant "u_debug.c">
      14  ?<Constant "u_mem_utils.c">
       5  ?<Constant {(char *)0, (char *)0, 10}>
       4  ?<Constant {(char *)0, 10, 7}>
      10  ?<Constant {1, 2, 3, 4, 5, 6, 7, 8, 9, 10}>
      13  ?<Initializer for <Constant "%s:%d:%s -> ">>
      13  ?<Initializer for <Constant "%s:%d:%s -> ">>_1
      13  ?<Initializer for <Constant "%s:%d:%s -> ">>_2
      13  ?<Initializer for <Constant "%s:%d:%s -> ">>_3
      13  ?<Initializer for <Constant "%s:%d:%s -> ">>_4
      13  ?<Initializer for <Constant "%s:%d:%s -> ">>_5
      10  ?<Initializer for <Constant "ALARM! %d">>
       6  ?<Initializer for <Constant "HELLO">>
      15  ?<Initializer for <Constant "MEM_memcpy ok!">>
      15  ?<Initializer for <Constant "MEM_memset ok!">>
      16  ?<Initializer for <Constant "Space not exist">
      16  ?<Initializer for <Constant "\"2>0\" Faild! \r
      44  ?<Initializer for <Constant "\"COLD_MOD[i]->Co
      42  ?<Initializer for <Constant "\"HOT_MOD[i]->Hot
      39  ?<Initializer for <Constant "\"HW_MOD[i]->HW_I
      38  ?<Initializer for <Constant "\"POW_MOD[i]->Sle
      39  ?<Initializer for <Constant "\"POW_MOD[i]->Wak
      39  ?<Initializer for <Constant "\"SW_MOD[i]->SW_I
      26  ?<Initializer for <Constant "\"alarm > 32767\"
      25  ?<Initializer for <Constant "\"cmp_res == 0\"
      25  ?<Initializer for <Constant "\"time > 32767\"
       3  ?<Initializer for <Constant "\r\n">>
       3  ?<Initializer for <Constant "\r\n">>_1
       3  ?<Initializer for <Constant "\r\n">>_2
      17  ?<Initializer for <Constant "action_manager.c"
      14  ?<Initializer for <Constant "alarm_timer.c">>
       8  ?<Initializer for <Constant "frame.c">>
      15  ?<Initializer for <Constant "time_manager.c">>
      10  ?<Initializer for <Constant "u_debug.c">>
      14  ?<Initializer for <Constant "u_mem_utils.c">>
       5  ?<Initializer for <Constant {(char *)0, (char
       4  ?<Initializer for <Constant {(char *)0, 10, 7}
      10  ?<Initializer for <Constant {1, 2, 3, 4, 5, 6,
      12  ?<Initializer for AT_MODULE>
      12  ?<Initializer for CPU_MODULE>
      12  ?<Initializer for DBG_MODULE>
      12  ?<Initializer for FR_MODULE>
       6  ?<Initializer for HW_MOD>
      12  ?<Initializer for MD_MODULE>
       2  ?<Initializer for POW_MOD>
      12  ?<Initializer for RTC_MODULE>
       6  ?<Initializer for SW_MOD>
      12  ?<Initializer for TM_MODULE>
       4  ?<Initializer for __Constant_7fff>
       4  ?<Initializer for __Constant_8000>
       4  ?<Initializer for __Constant_ffff8000>
       4  ?<Initializer for __Constant_ffffff>
      14  ?<Initializer for __FUNCTION__>
      13  ?<Initializer for __FUNCTION__>_1
       7  ?<Initializer for __FUNCTION__>_10
       7  ?<Initializer for __FUNCTION__>_11
      12  ?<Initializer for __FUNCTION__>_12
      11  ?<Initializer for __FUNCTION__>_2
      11  ?<Initializer for __FUNCTION__>_3
       9  ?<Initializer for __FUNCTION__>_4
      10  ?<Initializer for __FUNCTION__>_5
      12  ?<Initializer for __FUNCTION__>_6
       8  ?<Initializer for __FUNCTION__>_7
      13  ?<Initializer for __FUNCTION__>_8
      10  ?<Initializer for __FUNCTION__>_9
     195  AM_Cold_start
       6  AM_Cold_start::?relay
     186  AM_HW_Init
       6  AM_HW_Init::?relay
     195  AM_Hot_start
       6  AM_Hot_start::?relay
     190  AM_SW_Init
       6  AM_SW_Init::?relay
     191  AM_Sleep
       6  AM_Sleep::?relay
     195  AM_Wakeup
       6  AM_Wakeup::?relay
      12  AT_MODULE
     130  AT_set_alarm
       6  AT_set_alarm::?relay
     144  AT_set_time
       6  AT_set_time::?relay
      55  AT_time
       6  AT_time::?relay
     178  AT_wait
       6  AT_wait::?relay
       1  CLKCONCMD
       1  CLKCONSTA
       2  COLD_MOD
       4  COMPARE_TIME
      12  CPU_MODULE
       3  Cold_Start
       3  Cold_Start
       3  Cold_Start
       6  Cold_Start::?relay
       6  Cold_Start::?relay
       6  Cold_Start::?relay
       2  DBG_CORE_FAULT
       6  DBG_CORE_FAULT::?relay
       2  DBG_CORE_HALT
       6  DBG_CORE_HALT::?relay
      12  DBG_MODULE
    3000  FRAME_POOL
      89  FR_Create
       6  FR_Create::?relay
      12  FR_MODULE
       2  HOT_MOD
       3  HW_Init
       3  HW_Init
       3  HW_Init
      14  HW_Init
      21  HW_Init
      39  HW_Init
       6  HW_Init::?relay
       6  HW_Init::?relay
       6  HW_Init::?relay
       6  HW_Init::?relay
       6  HW_Init::?relay
       6  HW_Init::?relay
       6  HW_MOD
       3  Hot_Start
       3  Hot_Start
       3  Hot_Start
       6  Hot_Start::?relay
       6  Hot_Start::?relay
       6  Hot_Start::?relay
      17  IRQEnable
       6  IRQEnable::?relay
      12  MD_MODULE
     116  MEM_memcpy
       6  MEM_memcpy::?relay
      57  MEM_memset
       6  MEM_memset::?relay
      10  MODEL
      12  MyLowLevelPutchar
       6  MyLowLevelPutchar::?relay
       1  P0SEL
       1  PERCFG
       2  POW_MOD
      12  RTC_MODULE
      59  ReadTimer
       6  ReadTimer::?relay
       1  SLEEPSTA
       1  ST0
       1  ST1
       1  ST2
       1  STLOAD
       3  SW_Init
       3  SW_Init
       3  SW_Init
      53  SW_Init
       6  SW_Init::?relay
       6  SW_Init::?relay
       6  SW_Init::?relay
       6  SW_Init::?relay
       6  SW_MOD
       3  Sleep
       3  Sleep
       3  Sleep
       6  Sleep::?relay
       6  Sleep::?relay
       6  Sleep::?relay
       3  TM_AdjustTime
       6  TM_AdjustTime::?relay
       3  TM_ClrAlarm
       6  TM_ClrAlarm::?relay
      83  TM_IRQ
       6  TM_IRQ::?relay
      12  TM_MODULE
       3  TM_SetAlarm
       6  TM_SetAlarm::?relay
       2  TOFFSET
      41  TimerCompareInterrupt
       3  TimerCompareInterrupt::??INTVEC 43
       1  U0BAUD
       1  U0CSR
       1  U0DBUF
       1  U0GCR
       2  USER_SPACE_INDEX
       3  Wakeup
       3  Wakeup
       3  Wakeup
       6  Wakeup::?relay
       6  Wakeup::?relay
       6  Wakeup::?relay
       1  _A_IEN0
       1  _A_IRCON
       4  __Constant_7fff
       4  __Constant_8000
       4  __Constant_ffff8000
       4  __Constant_ffffff
     156  __write
       6  __write::?relay
     189  calcCompareTime
       6  calcCompareTime::?relay
       7  irq_space_create
       6  irq_space_create::?relay
       5  isIRQEnable
       6  isIRQEnable::?relay
      70  loadTimerCompare
       6  loadTimerCompare::?relay
      12  main
       6  main::?relay
       4  ret_val
      20  u_alarm_timer
       6  u_alarm_timer::?relay
     492  u_mem_utils
       6  u_mem_utils::?relay
     124  u_test
       6  u_test::?relay
      23  uart_init
       6  uart_init::?relay
       7  user_space_create
       6  user_space_create::?relay
       4  val
     137  -- Other

 
 3 391 bytes in segment BANKED_CODE
   330 bytes in segment BANK_RELAYS
     3 bytes in segment INTVEC
    41 bytes in segment NEAR_CODE
    15 bytes in segment SFR_AN
   830 bytes in segment XDATA_I
   830 bytes in segment XDATA_ID
 3 030 bytes in segment XDATA_Z
 
 1 185 bytes of CODE     memory (+ 19 bytes shared)
     0 bytes of DATA     memory (+ 15 bytes shared)
 3 391 bytes of HUGECODE memory
 3 844 bytes of XDATA    memory (+ 16 bytes shared)

Errors: none
Warnings: 1
