###############################################################################
#
# IAR C/C++ Compiler V10.10.1.4655 for 8051               14/Feb/2020  12:59:32
# Copyright 2004-2017 IAR Systems AB.
# PC-locked license - IAR Embedded Workbench for 8051
#
#    Core               =  plain
#    Code model         =  banked
#    Data model         =  large
#    Calling convention =  xdata reentrant
#    Constant location  =  data_rom
#    Dptr setup         =  1,16
#                          
#    Source file        =  E:\WMNU\IAR_NEW_ARCH\STACK_CORE_SRC\action_manager.c
#    Command line       =  
#        -f C:\Users\08A4~1\AppData\Local\Temp\EW6D5B.tmp
#        (E:\WMNU\IAR_NEW_ARCH\STACK_CORE_SRC\action_manager.c -lC
#        "E:\WMNU\IAR_new_arch\PRJ Test\Debug\List" -o
#        "E:\WMNU\IAR_new_arch\PRJ Test\Debug\Obj" -e --debug --core=plain
#        --dptr=16,1 --data_model=large --code_model=banked
#        --calling_convention=xdata_reentrant --place_constants=data_rom
#        --nr_virtual_regs 8 --dlib_config "C:\Program Files (x86)\IAR
#        Systems\Embedded Workbench 8.0\8051\LIB\DLIB\dl8051Normal.h"
#        --no_path_in_file_macros -I E:\WMNU\IAR_new_arch\Stack_core_src\ -On
#        --vla --use_c++_inline --no_cse --no_unroll --no_inline
#        --no_code_motion --no_tbaa --no_cross_call --mfc
#        E:\WMNU\IAR_NEW_ARCH\STACK_CORE_SRC\alarm_timer.c
#        E:\WMNU\IAR_NEW_ARCH\STACK_CORE_SRC\buffer.c
#        E:\WMNU\IAR_NEW_ARCH\STACK_CORE_SRC\coder.c
#        E:\WMNU\IAR_new_arch\STACK_CORE_SRC\cpu.c
#        E:\WMNU\IAR_new_arch\STACK_CORE_SRC\debug.c
#        E:\WMNU\IAR_NEW_ARCH\STACK_CORE_SRC\dma.c
#        E:\WMNU\IAR_new_arch\STACK_CORE_SRC\frame.c "E:\WMNU\IAR_NEW_ARCH\PRJ
#        Test\main.c" E:\WMNU\IAR_new_arch\STACK_CORE_SRC\mem_slots.c
#        E:\WMNU\IAR_new_arch\STACK_CORE_SRC\mem_utils.c
#        E:\WMNU\IAR_new_arch\STACK_CORE_SRC\model.c
#        E:\WMNU\IAR_NEW_ARCH\STACK_CORE_SRC\radio.c
#        E:\WMNU\IAR_new_arch\STACK_CORE_SRC\rtc.c
#        E:\WMNU\IAR_NEW_ARCH\STACK_CORE_SRC\time_manager.c
#        "E:\WMNU\IAR_new_arch\PRJ Test\u_alarm_timer.c"
#        "E:\WMNU\IAR_NEW_ARCH\PRJ Test\u_buffer.c" "E:\WMNU\IAR_NEW_ARCH\PRJ
#        Test\u_debug.c" "E:\WMNU\IAR_new_arch\PRJ Test\u_frame.c"
#        "E:\WMNU\IAR_NEW_ARCH\PRJ Test\u_macros.c" "E:\WMNU\IAR_NEW_ARCH\PRJ
#        Test\u_mem_slots.c" "E:\WMNU\IAR_new_arch\PRJ Test\u_mem_utils.c"
#        E:\WMNU\IAR_NEW_ARCH\STACK_CORE_SRC\ustimer.c
#        "E:\WMNU\IAR_new_arch\PRJ Test\utest.c")
#    Locale             =  Russian_Russia.1251
#    List file          =  
#        E:\WMNU\IAR_new_arch\PRJ Test\Debug\List\action_manager.lst
#    Object file        =  
#        E:\WMNU\IAR_new_arch\PRJ Test\Debug\Obj\action_manager.r51
#
###############################################################################

E:\WMNU\IAR_NEW_ARCH\STACK_CORE_SRC\action_manager.c
      1          #include "action_manager.h"
      2          #include "modules_list.h"
      3          #include "model.h"
      4          #include "debug.h"

   \                                 In  segment SFR_AN, at 0x91
   \   unsigned char volatile __sfr RFIRQF1
   \                     RFIRQF1:
   \   000000                DS 1

   \                                 In  segment SFR_AN, at 0x94
   \   unsigned char volatile __sfr T2CTRL
   \                     T2CTRL:
   \   000000                DS 1

   \                                 In  segment SFR_AN, at 0x95
   \   unsigned char volatile __sfr ST0
   \                     ST0:
   \   000000                DS 1

   \                                 In  segment SFR_AN, at 0x96
   \   unsigned char volatile __sfr ST1
   \                     ST1:
   \   000000                DS 1

   \                                 In  segment SFR_AN, at 0x97
   \   unsigned char volatile __sfr ST2
   \                     ST2:
   \   000000                DS 1

   \                                 In  segment SFR_AN, at 0x9d
   \   unsigned char volatile __sfr SLEEPSTA
   \                     SLEEPSTA:
   \   000000                DS 1

   \                                 In  segment SFR_AN, at 0x9e
   \   unsigned char volatile __sfr CLKCONSTA
   \                     CLKCONSTA:
   \   000000                DS 1

   \                                 In  segment SFR_AN, at 0xa2
   \   unsigned char volatile __sfr T2M0
   \                     T2M0:
   \   000000                DS 1

   \                                 In  segment SFR_AN, at 0xa3
   \   unsigned char volatile __sfr T2M1
   \                     T2M1:
   \   000000                DS 1

   \                                 In  segment SFR_AN, at 0xa4
   \   unsigned char volatile __sfr T2MOVF0
   \                     T2MOVF0:
   \   000000                DS 1

   \                                 In  segment SFR_AN, at 0xa5
   \   unsigned char volatile __sfr T2MOVF1
   \                     T2MOVF1:
   \   000000                DS 1

   \                                 In  segment SFR_AN, at 0xa8
   \   union <unnamed> volatile __sfr _A_IEN0
   \                     _A_IEN0:
   \   000000                DS 1

   \                                 In  segment SFR_AN, at 0xad
   \   unsigned char volatile __sfr STLOAD
   \                     STLOAD:
   \   000000                DS 1

   \                                 In  segment SFR_AN, at 0xb3
   \   unsigned char volatile __sfr ENCCS
   \                     ENCCS:
   \   000000                DS 1

   \                                 In  segment SFR_AN, at 0xc0
   \   union <unnamed> volatile __sfr _A_IRCON
   \                     _A_IRCON:
   \   000000                DS 1

   \                                 In  segment SFR_AN, at 0xc6
   \   unsigned char volatile __sfr CLKCONCMD
   \                     CLKCONCMD:
   \   000000                DS 1

   \                                 In  segment SFR_AN, at 0xd2
   \   unsigned char volatile __sfr DMA1CFGL
   \                     DMA1CFGL:
   \   000000                DS 1

   \                                 In  segment SFR_AN, at 0xd3
   \   unsigned char volatile __sfr DMA1CFGH
   \                     DMA1CFGH:
   \   000000                DS 1

   \                                 In  segment SFR_AN, at 0xd4
   \   unsigned char volatile __sfr DMA0CFGL
   \                     DMA0CFGL:
   \   000000                DS 1

   \                                 In  segment SFR_AN, at 0xd5
   \   unsigned char volatile __sfr DMA0CFGH
   \                     DMA0CFGH:
   \   000000                DS 1

   \                                 In  segment SFR_AN, at 0xd6
   \   unsigned char volatile __sfr DMAARM
   \                     DMAARM:
   \   000000                DS 1

   \                                 In  segment SFR_AN, at 0xd7
   \   unsigned char volatile __sfr DMAREQ
   \                     DMAREQ:
   \   000000                DS 1

   \                                 In  segment SFR_AN, at 0xd9
   \   unsigned char volatile __sfr RFD
   \                     RFD:
   \   000000                DS 1

   \                                 In  segment SFR_AN, at 0xe1
   \   unsigned char volatile __sfr RFST
   \                     RFST:
   \   000000                DS 1

   \                                 In  segment SFR_AN, at 0xe9
   \   unsigned char volatile __sfr RFIRQF0
   \                     RFIRQF0:
   \   000000                DS 1
      5          
      6          /**
      7          @file
      8          */
      9          
     10          /* Определения */
     11          #define ITEMS_COUNT(name) (sizeof(name)/sizeof(module_s*))
     12          #define RUNNER(array, fun) {\
     13          for (char i = 0; i < ITEMS_COUNT(array); i++){\
     14              ASSERT(array[i]->fun != NULL);\
     15              array[i]->fun();\
     16              }\
     17          };
     18          
     19          
     20          /* Локальные переменные */

   \                                 In  segment XDATA_Z, align 1, keep-with-next
     21          static module_s* COLD_MOD[] = COLD_MOD_DEF;
   \                     ??COLD_MOD:
   \   000000                DS 2
   \   000002                REQUIRE __INIT_XDATA_Z

   \                                 In  segment XDATA_Z, align 1, keep-with-next
     22          static module_s* HOT_MOD[] = HOT_MOD_DEF;
   \                     ??HOT_MOD:
   \   000000                DS 2
   \   000002                REQUIRE __INIT_XDATA_Z

   \                                 In  segment XDATA_I, align 1, keep-with-next
     23          static module_s* HW_MOD[] = HW_MOD_DEF;
   \                     ??HW_MOD:
   \   000000                DS 14
   \   00000E                REQUIRE `?<Initializer for HW_MOD>`
   \   00000E                REQUIRE __INIT_XDATA_I

   \                                 In  segment XDATA_I, align 1, keep-with-next
     24          static module_s* SW_MOD[] = SW_MOD_DEF;
   \                     ??SW_MOD:
   \   000000                DS 10
   \   00000A                REQUIRE `?<Initializer for SW_MOD>`
   \   00000A                REQUIRE __INIT_XDATA_I

   \                                 In  segment XDATA_I, align 1, keep-with-next
     25          static module_s* POW_MOD[] = POW_MOD_DEF;
   \                     ??POW_MOD:
   \   000000                DS 2
   \   000002                REQUIRE `?<Initializer for POW_MOD>`
   \   000002                REQUIRE __INIT_XDATA_I
     26          
     27          /* Локальные функции */
     28          

   \                                 In  segment BANKED_CODE, align 1, keep-with-next
     29          void AM_Cold_start(void){
   \                     AM_Cold_start:
   \   000000                REQUIRE ?V0
   \   000000                REQUIRE ?V1
   \   000000   74F6         MOV       A,#-0xa
   \   000002   12....       LCALL     ?BANKED_ENTER_XDATA
   \   000005                ; Saved register size: 10
   \   000005                ; Auto size: 0
     30            RUNNER(COLD_MOD, Cold_Start);
   \   000005   7E00         MOV       R6,#0x0
   \                     ??AM_Cold_start_0:
   \   000007   EE           MOV       A,R6
   \   000008   6003         JZ        $+5
   \   00000A   02....       LJMP      ??AM_Cold_start_1 & 0xFFFF
   \   00000D   EE           MOV       A,R6
   \   00000E   F8           MOV       R0,A
   \   00000F   7900         MOV       R1,#0x0
   \   000011   E8           MOV       A,R0
   \   000012   75F002       MOV       B,#0x2
   \   000015   A4           MUL       AB
   \   000016   C8           XCH       A,R0
   \   000017   AAF0         MOV       R2,B
   \   000019   75F000       MOV       B,#0x0
   \   00001C   A4           MUL       AB
   \   00001D   2A           ADD       A,R2
   \   00001E   FA           MOV       R2,A
   \   00001F   75F002       MOV       B,#0x2
   \   000022   E9           MOV       A,R1
   \   000023   A4           MUL       AB
   \   000024   2A           ADD       A,R2
   \   000025   F9           MOV       R1,A
   \   000026   74..         MOV       A,#??COLD_MOD & 0xff
   \   000028   28           ADD       A,R0
   \   000029   F582         MOV       DPL,A
   \   00002B   74..         MOV       A,#(??COLD_MOD >> 8) & 0xff
   \   00002D   39           ADDC      A,R1
   \   00002E   F583         MOV       DPH,A
   \   000030   E0           MOVX      A,@DPTR
   \   000031   F8           MOV       R0,A
   \   000032   A3           INC       DPTR
   \   000033   E0           MOVX      A,@DPTR
   \   000034   C8           XCH       A,R0
   \   000035   2408         ADD       A,#0x8
   \   000037   F582         MOV       DPL,A
   \   000039   C8           XCH       A,R0
   \   00003A   3400         ADDC      A,#0x0
   \   00003C   F583         MOV       DPH,A
   \   00003E   E0           MOVX      A,@DPTR
   \   00003F   F8           MOV       R0,A
   \   000040   A3           INC       DPTR
   \   000041   E0           MOVX      A,@DPTR
   \   000042   F9           MOV       R1,A
   \   000043   E8           MOV       A,R0
   \   000044   49           ORL       A,R1
   \   000045   7037         JNZ       ??AM_Cold_start_2
   \   000047                ; Setup parameters for call to function printf
   \   000047   75....       MOV       ?V0,#??__FUNCTION__ & 0xff
   \   00004A   75....       MOV       ?V1,#(??__FUNCTION__ >> 8) & 0xff
   \   00004D   78..         MOV       R0,#?V0
   \   00004F   12....       LCALL     ?PUSH_XSTACK_I_TWO
   \   000052   75..1E       MOV       ?V0,#0x1e
   \   000055   75..00       MOV       ?V1,#0x0
   \   000058   78..         MOV       R0,#?V0
   \   00005A   12....       LCALL     ?PUSH_XSTACK_I_TWO
   \   00005D   75....       MOV       ?V0,#`?<Constant "action_manager.c">` & 0xff
   \   000060   75....       MOV       ?V1,#(`?<Constant "action_manager.c">` >> 8) & 0xff
   \   000063   78..         MOV       R0,#?V0
   \   000065   12....       LCALL     ?PUSH_XSTACK_I_TWO
   \   000068   7A..         MOV       R2,#`?<Constant "%s:%d:%s -> ">` & 0xff
   \   00006A   7B..         MOV       R3,#(`?<Constant "%s:%d:%s -> ">` >> 8) & 0xff
   \   00006C   12....       LCALL     `??printf::?relay`; Banked call to: printf
   \   00006F   7406         MOV       A,#0x6
   \   000071   12....       LCALL     ?DEALLOC_XSTACK8
   \   000074                ; Setup parameters for call to function printf
   \   000074   7A..         MOV       R2,#`?<Constant "\\"COLD_MOD[i]->Cold_St...">` & 0xff
   \   000076   7B..         MOV       R3,#(`?<Constant "\\"COLD_MOD[i]->Cold_St...">` >> 8) & 0xff
   \   000078   12....       LCALL     `??printf::?relay`; Banked call to: printf
   \   00007B                ; Setup parameters for call to function DBG_CORE_HALT
   \   00007B   12....       LCALL     `??DBG_CORE_HALT::?relay`; Banked call to: DBG_CORE_HALT
   \                     ??AM_Cold_start_2:
   \   00007E                ; Setup parameters for indirect call
   \   00007E   EE           MOV       A,R6
   \   00007F   F8           MOV       R0,A
   \   000080   7900         MOV       R1,#0x0
   \   000082   E8           MOV       A,R0
   \   000083   75F002       MOV       B,#0x2
   \   000086   A4           MUL       AB
   \   000087   C8           XCH       A,R0
   \   000088   AAF0         MOV       R2,B
   \   00008A   75F000       MOV       B,#0x0
   \   00008D   A4           MUL       AB
   \   00008E   2A           ADD       A,R2
   \   00008F   FA           MOV       R2,A
   \   000090   75F002       MOV       B,#0x2
   \   000093   E9           MOV       A,R1
   \   000094   A4           MUL       AB
   \   000095   2A           ADD       A,R2
   \   000096   F9           MOV       R1,A
   \   000097   74..         MOV       A,#??COLD_MOD & 0xff
   \   000099   28           ADD       A,R0
   \   00009A   F582         MOV       DPL,A
   \   00009C   74..         MOV       A,#(??COLD_MOD >> 8) & 0xff
   \   00009E   39           ADDC      A,R1
   \   00009F   F583         MOV       DPH,A
   \   0000A1   E0           MOVX      A,@DPTR
   \   0000A2   F8           MOV       R0,A
   \   0000A3   A3           INC       DPTR
   \   0000A4   E0           MOVX      A,@DPTR
   \   0000A5   C8           XCH       A,R0
   \   0000A6   2408         ADD       A,#0x8
   \   0000A8   F582         MOV       DPL,A
   \   0000AA   C8           XCH       A,R0
   \   0000AB   3400         ADDC      A,#0x0
   \   0000AD   F583         MOV       DPH,A
   \   0000AF   E0           MOVX      A,@DPTR
   \   0000B0   F8           MOV       R0,A
   \   0000B1   A3           INC       DPTR
   \   0000B2   E0           MOVX      A,@DPTR
   \   0000B3   F583         MOV       DPH,A
   \   0000B5   8882         MOV       DPL,R0
   \   0000B7   12....       LCALL     ?CALL_IND
   \   0000BA   0E           INC       R6
   \   0000BB   02....       LJMP      ??AM_Cold_start_0 & 0xFFFF
     31          }
   \                     ??AM_Cold_start_1:
   \   0000BE   7F02         MOV       R7,#0x2
   \   0000C0   02....       LJMP      ?BANKED_LEAVE_XDATA
     32          

   \                                 In  segment BANKED_CODE, align 1, keep-with-next
     33          void AM_Hot_start(void){
   \                     AM_Hot_start:
   \   000000                REQUIRE ?V0
   \   000000                REQUIRE ?V1
   \   000000   74F6         MOV       A,#-0xa
   \   000002   12....       LCALL     ?BANKED_ENTER_XDATA
   \   000005                ; Saved register size: 10
   \   000005                ; Auto size: 0
     34            RUNNER(HOT_MOD, Hot_Start);  
   \   000005   7E00         MOV       R6,#0x0
   \                     ??AM_Hot_start_0:
   \   000007   EE           MOV       A,R6
   \   000008   6003         JZ        $+5
   \   00000A   02....       LJMP      ??AM_Hot_start_1 & 0xFFFF
   \   00000D   EE           MOV       A,R6
   \   00000E   F8           MOV       R0,A
   \   00000F   7900         MOV       R1,#0x0
   \   000011   E8           MOV       A,R0
   \   000012   75F002       MOV       B,#0x2
   \   000015   A4           MUL       AB
   \   000016   C8           XCH       A,R0
   \   000017   AAF0         MOV       R2,B
   \   000019   75F000       MOV       B,#0x0
   \   00001C   A4           MUL       AB
   \   00001D   2A           ADD       A,R2
   \   00001E   FA           MOV       R2,A
   \   00001F   75F002       MOV       B,#0x2
   \   000022   E9           MOV       A,R1
   \   000023   A4           MUL       AB
   \   000024   2A           ADD       A,R2
   \   000025   F9           MOV       R1,A
   \   000026   74..         MOV       A,#??HOT_MOD & 0xff
   \   000028   28           ADD       A,R0
   \   000029   F582         MOV       DPL,A
   \   00002B   74..         MOV       A,#(??HOT_MOD >> 8) & 0xff
   \   00002D   39           ADDC      A,R1
   \   00002E   F583         MOV       DPH,A
   \   000030   E0           MOVX      A,@DPTR
   \   000031   F8           MOV       R0,A
   \   000032   A3           INC       DPTR
   \   000033   E0           MOVX      A,@DPTR
   \   000034   C8           XCH       A,R0
   \   000035   240A         ADD       A,#0xa
   \   000037   F582         MOV       DPL,A
   \   000039   C8           XCH       A,R0
   \   00003A   3400         ADDC      A,#0x0
   \   00003C   F583         MOV       DPH,A
   \   00003E   E0           MOVX      A,@DPTR
   \   00003F   F8           MOV       R0,A
   \   000040   A3           INC       DPTR
   \   000041   E0           MOVX      A,@DPTR
   \   000042   F9           MOV       R1,A
   \   000043   E8           MOV       A,R0
   \   000044   49           ORL       A,R1
   \   000045   7037         JNZ       ??AM_Hot_start_2
   \   000047                ; Setup parameters for call to function printf
   \   000047   75....       MOV       ?V0,#??__FUNCTION___1 & 0xff
   \   00004A   75....       MOV       ?V1,#(??__FUNCTION___1 >> 8) & 0xff
   \   00004D   78..         MOV       R0,#?V0
   \   00004F   12....       LCALL     ?PUSH_XSTACK_I_TWO
   \   000052   75..22       MOV       ?V0,#0x22
   \   000055   75..00       MOV       ?V1,#0x0
   \   000058   78..         MOV       R0,#?V0
   \   00005A   12....       LCALL     ?PUSH_XSTACK_I_TWO
   \   00005D   75....       MOV       ?V0,#`?<Constant "action_manager.c">` & 0xff
   \   000060   75....       MOV       ?V1,#(`?<Constant "action_manager.c">` >> 8) & 0xff
   \   000063   78..         MOV       R0,#?V0
   \   000065   12....       LCALL     ?PUSH_XSTACK_I_TWO
   \   000068   7A..         MOV       R2,#`?<Constant "%s:%d:%s -> ">` & 0xff
   \   00006A   7B..         MOV       R3,#(`?<Constant "%s:%d:%s -> ">` >> 8) & 0xff
   \   00006C   12....       LCALL     `??printf::?relay`; Banked call to: printf
   \   00006F   7406         MOV       A,#0x6
   \   000071   12....       LCALL     ?DEALLOC_XSTACK8
   \   000074                ; Setup parameters for call to function printf
   \   000074   7A..         MOV       R2,#`?<Constant "\\"HOT_MOD[i]->Hot_Star...">` & 0xff
   \   000076   7B..         MOV       R3,#(`?<Constant "\\"HOT_MOD[i]->Hot_Star...">` >> 8) & 0xff
   \   000078   12....       LCALL     `??printf::?relay`; Banked call to: printf
   \   00007B                ; Setup parameters for call to function DBG_CORE_HALT
   \   00007B   12....       LCALL     `??DBG_CORE_HALT::?relay`; Banked call to: DBG_CORE_HALT
   \                     ??AM_Hot_start_2:
   \   00007E                ; Setup parameters for indirect call
   \   00007E   EE           MOV       A,R6
   \   00007F   F8           MOV       R0,A
   \   000080   7900         MOV       R1,#0x0
   \   000082   E8           MOV       A,R0
   \   000083   75F002       MOV       B,#0x2
   \   000086   A4           MUL       AB
   \   000087   C8           XCH       A,R0
   \   000088   AAF0         MOV       R2,B
   \   00008A   75F000       MOV       B,#0x0
   \   00008D   A4           MUL       AB
   \   00008E   2A           ADD       A,R2
   \   00008F   FA           MOV       R2,A
   \   000090   75F002       MOV       B,#0x2
   \   000093   E9           MOV       A,R1
   \   000094   A4           MUL       AB
   \   000095   2A           ADD       A,R2
   \   000096   F9           MOV       R1,A
   \   000097   74..         MOV       A,#??HOT_MOD & 0xff
   \   000099   28           ADD       A,R0
   \   00009A   F582         MOV       DPL,A
   \   00009C   74..         MOV       A,#(??HOT_MOD >> 8) & 0xff
   \   00009E   39           ADDC      A,R1
   \   00009F   F583         MOV       DPH,A
   \   0000A1   E0           MOVX      A,@DPTR
   \   0000A2   F8           MOV       R0,A
   \   0000A3   A3           INC       DPTR
   \   0000A4   E0           MOVX      A,@DPTR
   \   0000A5   C8           XCH       A,R0
   \   0000A6   240A         ADD       A,#0xa
   \   0000A8   F582         MOV       DPL,A
   \   0000AA   C8           XCH       A,R0
   \   0000AB   3400         ADDC      A,#0x0
   \   0000AD   F583         MOV       DPH,A
   \   0000AF   E0           MOVX      A,@DPTR
   \   0000B0   F8           MOV       R0,A
   \   0000B1   A3           INC       DPTR
   \   0000B2   E0           MOVX      A,@DPTR
   \   0000B3   F583         MOV       DPH,A
   \   0000B5   8882         MOV       DPL,R0
   \   0000B7   12....       LCALL     ?CALL_IND
   \   0000BA   0E           INC       R6
   \   0000BB   02....       LJMP      ??AM_Hot_start_0 & 0xFFFF
     35          }
   \                     ??AM_Hot_start_1:
   \   0000BE   7F02         MOV       R7,#0x2
   \   0000C0   02....       LJMP      ?BANKED_LEAVE_XDATA
     36          

   \                                 In  segment BANKED_CODE, align 1, keep-with-next
     37          void AM_HW_Init(void){
   \                     AM_HW_Init:
   \   000000                REQUIRE ?V0
   \   000000                REQUIRE ?V1
   \   000000   74F6         MOV       A,#-0xa
   \   000002   12....       LCALL     ?BANKED_ENTER_XDATA
   \   000005                ; Saved register size: 10
   \   000005                ; Auto size: 0
     38            RUNNER(HW_MOD, HW_Init);      
   \   000005   7E00         MOV       R6,#0x0
   \                     ??AM_HW_Init_0:
   \   000007   EE           MOV       A,R6
   \   000008   C3           CLR       C
   \   000009   9407         SUBB      A,#0x7
   \   00000B   4003         JC        $+5
   \   00000D   02....       LJMP      ??AM_HW_Init_1 & 0xFFFF
   \   000010   EE           MOV       A,R6
   \   000011   F8           MOV       R0,A
   \   000012   7900         MOV       R1,#0x0
   \   000014   E8           MOV       A,R0
   \   000015   75F002       MOV       B,#0x2
   \   000018   A4           MUL       AB
   \   000019   C8           XCH       A,R0
   \   00001A   AAF0         MOV       R2,B
   \   00001C   75F000       MOV       B,#0x0
   \   00001F   A4           MUL       AB
   \   000020   2A           ADD       A,R2
   \   000021   FA           MOV       R2,A
   \   000022   75F002       MOV       B,#0x2
   \   000025   E9           MOV       A,R1
   \   000026   A4           MUL       AB
   \   000027   2A           ADD       A,R2
   \   000028   F9           MOV       R1,A
   \   000029   74..         MOV       A,#??HW_MOD & 0xff
   \   00002B   28           ADD       A,R0
   \   00002C   F582         MOV       DPL,A
   \   00002E   74..         MOV       A,#(??HW_MOD >> 8) & 0xff
   \   000030   39           ADDC      A,R1
   \   000031   F583         MOV       DPH,A
   \   000033   E0           MOVX      A,@DPTR
   \   000034   F8           MOV       R0,A
   \   000035   A3           INC       DPTR
   \   000036   E0           MOVX      A,@DPTR
   \   000037   F583         MOV       DPH,A
   \   000039   8882         MOV       DPL,R0
   \   00003B   E0           MOVX      A,@DPTR
   \   00003C   F8           MOV       R0,A
   \   00003D   A3           INC       DPTR
   \   00003E   E0           MOVX      A,@DPTR
   \   00003F   F9           MOV       R1,A
   \   000040   E8           MOV       A,R0
   \   000041   49           ORL       A,R1
   \   000042   7037         JNZ       ??AM_HW_Init_2
   \   000044                ; Setup parameters for call to function printf
   \   000044   75....       MOV       ?V0,#??__FUNCTION___2 & 0xff
   \   000047   75....       MOV       ?V1,#(??__FUNCTION___2 >> 8) & 0xff
   \   00004A   78..         MOV       R0,#?V0
   \   00004C   12....       LCALL     ?PUSH_XSTACK_I_TWO
   \   00004F   75..26       MOV       ?V0,#0x26
   \   000052   75..00       MOV       ?V1,#0x0
   \   000055   78..         MOV       R0,#?V0
   \   000057   12....       LCALL     ?PUSH_XSTACK_I_TWO
   \   00005A   75....       MOV       ?V0,#`?<Constant "action_manager.c">` & 0xff
   \   00005D   75....       MOV       ?V1,#(`?<Constant "action_manager.c">` >> 8) & 0xff
   \   000060   78..         MOV       R0,#?V0
   \   000062   12....       LCALL     ?PUSH_XSTACK_I_TWO
   \   000065   7A..         MOV       R2,#`?<Constant "%s:%d:%s -> ">` & 0xff
   \   000067   7B..         MOV       R3,#(`?<Constant "%s:%d:%s -> ">` >> 8) & 0xff
   \   000069   12....       LCALL     `??printf::?relay`; Banked call to: printf
   \   00006C   7406         MOV       A,#0x6
   \   00006E   12....       LCALL     ?DEALLOC_XSTACK8
   \   000071                ; Setup parameters for call to function printf
   \   000071   7A..         MOV       R2,#`?<Constant "\\"HW_MOD[i]->HW_Init !...">` & 0xff
   \   000073   7B..         MOV       R3,#(`?<Constant "\\"HW_MOD[i]->HW_Init !...">` >> 8) & 0xff
   \   000075   12....       LCALL     `??printf::?relay`; Banked call to: printf
   \   000078                ; Setup parameters for call to function DBG_CORE_HALT
   \   000078   12....       LCALL     `??DBG_CORE_HALT::?relay`; Banked call to: DBG_CORE_HALT
   \                     ??AM_HW_Init_2:
   \   00007B                ; Setup parameters for indirect call
   \   00007B   EE           MOV       A,R6
   \   00007C   F8           MOV       R0,A
   \   00007D   7900         MOV       R1,#0x0
   \   00007F   E8           MOV       A,R0
   \   000080   75F002       MOV       B,#0x2
   \   000083   A4           MUL       AB
   \   000084   C8           XCH       A,R0
   \   000085   AAF0         MOV       R2,B
   \   000087   75F000       MOV       B,#0x0
   \   00008A   A4           MUL       AB
   \   00008B   2A           ADD       A,R2
   \   00008C   FA           MOV       R2,A
   \   00008D   75F002       MOV       B,#0x2
   \   000090   E9           MOV       A,R1
   \   000091   A4           MUL       AB
   \   000092   2A           ADD       A,R2
   \   000093   F9           MOV       R1,A
   \   000094   74..         MOV       A,#??HW_MOD & 0xff
   \   000096   28           ADD       A,R0
   \   000097   F582         MOV       DPL,A
   \   000099   74..         MOV       A,#(??HW_MOD >> 8) & 0xff
   \   00009B   39           ADDC      A,R1
   \   00009C   F583         MOV       DPH,A
   \   00009E   E0           MOVX      A,@DPTR
   \   00009F   F8           MOV       R0,A
   \   0000A0   A3           INC       DPTR
   \   0000A1   E0           MOVX      A,@DPTR
   \   0000A2   F583         MOV       DPH,A
   \   0000A4   8882         MOV       DPL,R0
   \   0000A6   E0           MOVX      A,@DPTR
   \   0000A7   F8           MOV       R0,A
   \   0000A8   A3           INC       DPTR
   \   0000A9   E0           MOVX      A,@DPTR
   \   0000AA   F583         MOV       DPH,A
   \   0000AC   8882         MOV       DPL,R0
   \   0000AE   12....       LCALL     ?CALL_IND
   \   0000B1   0E           INC       R6
   \   0000B2   02....       LJMP      ??AM_HW_Init_0 & 0xFFFF
     39          }
   \                     ??AM_HW_Init_1:
   \   0000B5   7F02         MOV       R7,#0x2
   \   0000B7   02....       LJMP      ?BANKED_LEAVE_XDATA
     40          

   \                                 In  segment BANKED_CODE, align 1, keep-with-next
     41          void AM_SW_Init(void){
   \                     AM_SW_Init:
   \   000000                REQUIRE ?V0
   \   000000                REQUIRE ?V1
   \   000000   74F6         MOV       A,#-0xa
   \   000002   12....       LCALL     ?BANKED_ENTER_XDATA
   \   000005                ; Saved register size: 10
   \   000005                ; Auto size: 0
     42            RUNNER(SW_MOD, SW_Init);
   \   000005   7E00         MOV       R6,#0x0
   \                     ??AM_SW_Init_0:
   \   000007   EE           MOV       A,R6
   \   000008   C3           CLR       C
   \   000009   9405         SUBB      A,#0x5
   \   00000B   4003         JC        $+5
   \   00000D   02....       LJMP      ??AM_SW_Init_1 & 0xFFFF
   \   000010   EE           MOV       A,R6
   \   000011   F8           MOV       R0,A
   \   000012   7900         MOV       R1,#0x0
   \   000014   E8           MOV       A,R0
   \   000015   75F002       MOV       B,#0x2
   \   000018   A4           MUL       AB
   \   000019   C8           XCH       A,R0
   \   00001A   AAF0         MOV       R2,B
   \   00001C   75F000       MOV       B,#0x0
   \   00001F   A4           MUL       AB
   \   000020   2A           ADD       A,R2
   \   000021   FA           MOV       R2,A
   \   000022   75F002       MOV       B,#0x2
   \   000025   E9           MOV       A,R1
   \   000026   A4           MUL       AB
   \   000027   2A           ADD       A,R2
   \   000028   F9           MOV       R1,A
   \   000029   74..         MOV       A,#??SW_MOD & 0xff
   \   00002B   28           ADD       A,R0
   \   00002C   F582         MOV       DPL,A
   \   00002E   74..         MOV       A,#(??SW_MOD >> 8) & 0xff
   \   000030   39           ADDC      A,R1
   \   000031   F583         MOV       DPH,A
   \   000033   E0           MOVX      A,@DPTR
   \   000034   F8           MOV       R0,A
   \   000035   A3           INC       DPTR
   \   000036   E0           MOVX      A,@DPTR
   \   000037   F583         MOV       DPH,A
   \   000039   8882         MOV       DPL,R0
   \   00003B   A3           INC       DPTR
   \   00003C   A3           INC       DPTR
   \   00003D   E0           MOVX      A,@DPTR
   \   00003E   F8           MOV       R0,A
   \   00003F   A3           INC       DPTR
   \   000040   E0           MOVX      A,@DPTR
   \   000041   F9           MOV       R1,A
   \   000042   E8           MOV       A,R0
   \   000043   49           ORL       A,R1
   \   000044   7037         JNZ       ??AM_SW_Init_2
   \   000046                ; Setup parameters for call to function printf
   \   000046   75....       MOV       ?V0,#??__FUNCTION___3 & 0xff
   \   000049   75....       MOV       ?V1,#(??__FUNCTION___3 >> 8) & 0xff
   \   00004C   78..         MOV       R0,#?V0
   \   00004E   12....       LCALL     ?PUSH_XSTACK_I_TWO
   \   000051   75..2A       MOV       ?V0,#0x2a
   \   000054   75..00       MOV       ?V1,#0x0
   \   000057   78..         MOV       R0,#?V0
   \   000059   12....       LCALL     ?PUSH_XSTACK_I_TWO
   \   00005C   75....       MOV       ?V0,#`?<Constant "action_manager.c">` & 0xff
   \   00005F   75....       MOV       ?V1,#(`?<Constant "action_manager.c">` >> 8) & 0xff
   \   000062   78..         MOV       R0,#?V0
   \   000064   12....       LCALL     ?PUSH_XSTACK_I_TWO
   \   000067   7A..         MOV       R2,#`?<Constant "%s:%d:%s -> ">` & 0xff
   \   000069   7B..         MOV       R3,#(`?<Constant "%s:%d:%s -> ">` >> 8) & 0xff
   \   00006B   12....       LCALL     `??printf::?relay`; Banked call to: printf
   \   00006E   7406         MOV       A,#0x6
   \   000070   12....       LCALL     ?DEALLOC_XSTACK8
   \   000073                ; Setup parameters for call to function printf
   \   000073   7A..         MOV       R2,#`?<Constant "\\"SW_MOD[i]->SW_Init !...">` & 0xff
   \   000075   7B..         MOV       R3,#(`?<Constant "\\"SW_MOD[i]->SW_Init !...">` >> 8) & 0xff
   \   000077   12....       LCALL     `??printf::?relay`; Banked call to: printf
   \   00007A                ; Setup parameters for call to function DBG_CORE_HALT
   \   00007A   12....       LCALL     `??DBG_CORE_HALT::?relay`; Banked call to: DBG_CORE_HALT
   \                     ??AM_SW_Init_2:
   \   00007D                ; Setup parameters for indirect call
   \   00007D   EE           MOV       A,R6
   \   00007E   F8           MOV       R0,A
   \   00007F   7900         MOV       R1,#0x0
   \   000081   E8           MOV       A,R0
   \   000082   75F002       MOV       B,#0x2
   \   000085   A4           MUL       AB
   \   000086   C8           XCH       A,R0
   \   000087   AAF0         MOV       R2,B
   \   000089   75F000       MOV       B,#0x0
   \   00008C   A4           MUL       AB
   \   00008D   2A           ADD       A,R2
   \   00008E   FA           MOV       R2,A
   \   00008F   75F002       MOV       B,#0x2
   \   000092   E9           MOV       A,R1
   \   000093   A4           MUL       AB
   \   000094   2A           ADD       A,R2
   \   000095   F9           MOV       R1,A
   \   000096   74..         MOV       A,#??SW_MOD & 0xff
   \   000098   28           ADD       A,R0
   \   000099   F582         MOV       DPL,A
   \   00009B   74..         MOV       A,#(??SW_MOD >> 8) & 0xff
   \   00009D   39           ADDC      A,R1
   \   00009E   F583         MOV       DPH,A
   \   0000A0   E0           MOVX      A,@DPTR
   \   0000A1   F8           MOV       R0,A
   \   0000A2   A3           INC       DPTR
   \   0000A3   E0           MOVX      A,@DPTR
   \   0000A4   F583         MOV       DPH,A
   \   0000A6   8882         MOV       DPL,R0
   \   0000A8   A3           INC       DPTR
   \   0000A9   A3           INC       DPTR
   \   0000AA   E0           MOVX      A,@DPTR
   \   0000AB   F8           MOV       R0,A
   \   0000AC   A3           INC       DPTR
   \   0000AD   E0           MOVX      A,@DPTR
   \   0000AE   F583         MOV       DPH,A
   \   0000B0   8882         MOV       DPL,R0
   \   0000B2   12....       LCALL     ?CALL_IND
   \   0000B5   0E           INC       R6
   \   0000B6   02....       LJMP      ??AM_SW_Init_0 & 0xFFFF
     43          }
   \                     ??AM_SW_Init_1:
   \   0000B9   7F02         MOV       R7,#0x2
   \   0000BB   02....       LJMP      ?BANKED_LEAVE_XDATA

   \                                 In  segment BANKED_CODE, align 1, keep-with-next
     44          void AM_Sleep(void){
   \                     AM_Sleep:
   \   000000                REQUIRE ?V0
   \   000000                REQUIRE ?V1
   \   000000   74F6         MOV       A,#-0xa
   \   000002   12....       LCALL     ?BANKED_ENTER_XDATA
   \   000005                ; Saved register size: 10
   \   000005                ; Auto size: 0
     45            RUNNER(POW_MOD, Sleep);
   \   000005   7E00         MOV       R6,#0x0
   \                     ??AM_Sleep_0:
   \   000007   EE           MOV       A,R6
   \   000008   6003         JZ        $+5
   \   00000A   02....       LJMP      ??AM_Sleep_1 & 0xFFFF
   \   00000D   EE           MOV       A,R6
   \   00000E   F8           MOV       R0,A
   \   00000F   7900         MOV       R1,#0x0
   \   000011   E8           MOV       A,R0
   \   000012   75F002       MOV       B,#0x2
   \   000015   A4           MUL       AB
   \   000016   C8           XCH       A,R0
   \   000017   AAF0         MOV       R2,B
   \   000019   75F000       MOV       B,#0x0
   \   00001C   A4           MUL       AB
   \   00001D   2A           ADD       A,R2
   \   00001E   FA           MOV       R2,A
   \   00001F   75F002       MOV       B,#0x2
   \   000022   E9           MOV       A,R1
   \   000023   A4           MUL       AB
   \   000024   2A           ADD       A,R2
   \   000025   F9           MOV       R1,A
   \   000026   74..         MOV       A,#??POW_MOD & 0xff
   \   000028   28           ADD       A,R0
   \   000029   F582         MOV       DPL,A
   \   00002B   74..         MOV       A,#(??POW_MOD >> 8) & 0xff
   \   00002D   39           ADDC      A,R1
   \   00002E   F583         MOV       DPH,A
   \   000030   E0           MOVX      A,@DPTR
   \   000031   F8           MOV       R0,A
   \   000032   A3           INC       DPTR
   \   000033   E0           MOVX      A,@DPTR
   \   000034   F583         MOV       DPH,A
   \   000036   8882         MOV       DPL,R0
   \   000038   A3           INC       DPTR
   \   000039   A3           INC       DPTR
   \   00003A   A3           INC       DPTR
   \   00003B   A3           INC       DPTR
   \   00003C   E0           MOVX      A,@DPTR
   \   00003D   F8           MOV       R0,A
   \   00003E   A3           INC       DPTR
   \   00003F   E0           MOVX      A,@DPTR
   \   000040   F9           MOV       R1,A
   \   000041   E8           MOV       A,R0
   \   000042   49           ORL       A,R1
   \   000043   7037         JNZ       ??AM_Sleep_2
   \   000045                ; Setup parameters for call to function printf
   \   000045   75....       MOV       ?V0,#??__FUNCTION___4 & 0xff
   \   000048   75....       MOV       ?V1,#(??__FUNCTION___4 >> 8) & 0xff
   \   00004B   78..         MOV       R0,#?V0
   \   00004D   12....       LCALL     ?PUSH_XSTACK_I_TWO
   \   000050   75..2D       MOV       ?V0,#0x2d
   \   000053   75..00       MOV       ?V1,#0x0
   \   000056   78..         MOV       R0,#?V0
   \   000058   12....       LCALL     ?PUSH_XSTACK_I_TWO
   \   00005B   75....       MOV       ?V0,#`?<Constant "action_manager.c">` & 0xff
   \   00005E   75....       MOV       ?V1,#(`?<Constant "action_manager.c">` >> 8) & 0xff
   \   000061   78..         MOV       R0,#?V0
   \   000063   12....       LCALL     ?PUSH_XSTACK_I_TWO
   \   000066   7A..         MOV       R2,#`?<Constant "%s:%d:%s -> ">` & 0xff
   \   000068   7B..         MOV       R3,#(`?<Constant "%s:%d:%s -> ">` >> 8) & 0xff
   \   00006A   12....       LCALL     `??printf::?relay`; Banked call to: printf
   \   00006D   7406         MOV       A,#0x6
   \   00006F   12....       LCALL     ?DEALLOC_XSTACK8
   \   000072                ; Setup parameters for call to function printf
   \   000072   7A..         MOV       R2,#`?<Constant "\\"POW_MOD[i]->Sleep !=...">` & 0xff
   \   000074   7B..         MOV       R3,#(`?<Constant "\\"POW_MOD[i]->Sleep !=...">` >> 8) & 0xff
   \   000076   12....       LCALL     `??printf::?relay`; Banked call to: printf
   \   000079                ; Setup parameters for call to function DBG_CORE_HALT
   \   000079   12....       LCALL     `??DBG_CORE_HALT::?relay`; Banked call to: DBG_CORE_HALT
   \                     ??AM_Sleep_2:
   \   00007C                ; Setup parameters for indirect call
   \   00007C   EE           MOV       A,R6
   \   00007D   F8           MOV       R0,A
   \   00007E   7900         MOV       R1,#0x0
   \   000080   E8           MOV       A,R0
   \   000081   75F002       MOV       B,#0x2
   \   000084   A4           MUL       AB
   \   000085   C8           XCH       A,R0
   \   000086   AAF0         MOV       R2,B
   \   000088   75F000       MOV       B,#0x0
   \   00008B   A4           MUL       AB
   \   00008C   2A           ADD       A,R2
   \   00008D   FA           MOV       R2,A
   \   00008E   75F002       MOV       B,#0x2
   \   000091   E9           MOV       A,R1
   \   000092   A4           MUL       AB
   \   000093   2A           ADD       A,R2
   \   000094   F9           MOV       R1,A
   \   000095   74..         MOV       A,#??POW_MOD & 0xff
   \   000097   28           ADD       A,R0
   \   000098   F582         MOV       DPL,A
   \   00009A   74..         MOV       A,#(??POW_MOD >> 8) & 0xff
   \   00009C   39           ADDC      A,R1
   \   00009D   F583         MOV       DPH,A
   \   00009F   E0           MOVX      A,@DPTR
   \   0000A0   F8           MOV       R0,A
   \   0000A1   A3           INC       DPTR
   \   0000A2   E0           MOVX      A,@DPTR
   \   0000A3   F583         MOV       DPH,A
   \   0000A5   8882         MOV       DPL,R0
   \   0000A7   A3           INC       DPTR
   \   0000A8   A3           INC       DPTR
   \   0000A9   A3           INC       DPTR
   \   0000AA   A3           INC       DPTR
   \   0000AB   E0           MOVX      A,@DPTR
   \   0000AC   F8           MOV       R0,A
   \   0000AD   A3           INC       DPTR
   \   0000AE   E0           MOVX      A,@DPTR
   \   0000AF   F583         MOV       DPH,A
   \   0000B1   8882         MOV       DPL,R0
   \   0000B3   12....       LCALL     ?CALL_IND
   \   0000B6   0E           INC       R6
   \   0000B7   02....       LJMP      ??AM_Sleep_0 & 0xFFFF
     46          }
   \                     ??AM_Sleep_1:
   \   0000BA   7F02         MOV       R7,#0x2
   \   0000BC   02....       LJMP      ?BANKED_LEAVE_XDATA

   \                                 In  segment BANKED_CODE, align 1, keep-with-next
     47          void AM_Wakeup(void){
   \                     AM_Wakeup:
   \   000000                REQUIRE ?V0
   \   000000                REQUIRE ?V1
   \   000000   74F6         MOV       A,#-0xa
   \   000002   12....       LCALL     ?BANKED_ENTER_XDATA
   \   000005                ; Saved register size: 10
   \   000005                ; Auto size: 0
     48            RUNNER(POW_MOD, Wakeup);
   \   000005   7E00         MOV       R6,#0x0
   \                     ??AM_Wakeup_0:
   \   000007   EE           MOV       A,R6
   \   000008   6003         JZ        $+5
   \   00000A   02....       LJMP      ??AM_Wakeup_1 & 0xFFFF
   \   00000D   EE           MOV       A,R6
   \   00000E   F8           MOV       R0,A
   \   00000F   7900         MOV       R1,#0x0
   \   000011   E8           MOV       A,R0
   \   000012   75F002       MOV       B,#0x2
   \   000015   A4           MUL       AB
   \   000016   C8           XCH       A,R0
   \   000017   AAF0         MOV       R2,B
   \   000019   75F000       MOV       B,#0x0
   \   00001C   A4           MUL       AB
   \   00001D   2A           ADD       A,R2
   \   00001E   FA           MOV       R2,A
   \   00001F   75F002       MOV       B,#0x2
   \   000022   E9           MOV       A,R1
   \   000023   A4           MUL       AB
   \   000024   2A           ADD       A,R2
   \   000025   F9           MOV       R1,A
   \   000026   74..         MOV       A,#??POW_MOD & 0xff
   \   000028   28           ADD       A,R0
   \   000029   F582         MOV       DPL,A
   \   00002B   74..         MOV       A,#(??POW_MOD >> 8) & 0xff
   \   00002D   39           ADDC      A,R1
   \   00002E   F583         MOV       DPH,A
   \   000030   E0           MOVX      A,@DPTR
   \   000031   F8           MOV       R0,A
   \   000032   A3           INC       DPTR
   \   000033   E0           MOVX      A,@DPTR
   \   000034   C8           XCH       A,R0
   \   000035   2406         ADD       A,#0x6
   \   000037   F582         MOV       DPL,A
   \   000039   C8           XCH       A,R0
   \   00003A   3400         ADDC      A,#0x0
   \   00003C   F583         MOV       DPH,A
   \   00003E   E0           MOVX      A,@DPTR
   \   00003F   F8           MOV       R0,A
   \   000040   A3           INC       DPTR
   \   000041   E0           MOVX      A,@DPTR
   \   000042   F9           MOV       R1,A
   \   000043   E8           MOV       A,R0
   \   000044   49           ORL       A,R1
   \   000045   7037         JNZ       ??AM_Wakeup_2
   \   000047                ; Setup parameters for call to function printf
   \   000047   75....       MOV       ?V0,#??__FUNCTION___5 & 0xff
   \   00004A   75....       MOV       ?V1,#(??__FUNCTION___5 >> 8) & 0xff
   \   00004D   78..         MOV       R0,#?V0
   \   00004F   12....       LCALL     ?PUSH_XSTACK_I_TWO
   \   000052   75..30       MOV       ?V0,#0x30
   \   000055   75..00       MOV       ?V1,#0x0
   \   000058   78..         MOV       R0,#?V0
   \   00005A   12....       LCALL     ?PUSH_XSTACK_I_TWO
   \   00005D   75....       MOV       ?V0,#`?<Constant "action_manager.c">` & 0xff
   \   000060   75....       MOV       ?V1,#(`?<Constant "action_manager.c">` >> 8) & 0xff
   \   000063   78..         MOV       R0,#?V0
   \   000065   12....       LCALL     ?PUSH_XSTACK_I_TWO
   \   000068   7A..         MOV       R2,#`?<Constant "%s:%d:%s -> ">` & 0xff
   \   00006A   7B..         MOV       R3,#(`?<Constant "%s:%d:%s -> ">` >> 8) & 0xff
   \   00006C   12....       LCALL     `??printf::?relay`; Banked call to: printf
   \   00006F   7406         MOV       A,#0x6
   \   000071   12....       LCALL     ?DEALLOC_XSTACK8
   \   000074                ; Setup parameters for call to function printf
   \   000074   7A..         MOV       R2,#`?<Constant "\\"POW_MOD[i]->Wakeup !...">` & 0xff
   \   000076   7B..         MOV       R3,#(`?<Constant "\\"POW_MOD[i]->Wakeup !...">` >> 8) & 0xff
   \   000078   12....       LCALL     `??printf::?relay`; Banked call to: printf
   \   00007B                ; Setup parameters for call to function DBG_CORE_HALT
   \   00007B   12....       LCALL     `??DBG_CORE_HALT::?relay`; Banked call to: DBG_CORE_HALT
   \                     ??AM_Wakeup_2:
   \   00007E                ; Setup parameters for indirect call
   \   00007E   EE           MOV       A,R6
   \   00007F   F8           MOV       R0,A
   \   000080   7900         MOV       R1,#0x0
   \   000082   E8           MOV       A,R0
   \   000083   75F002       MOV       B,#0x2
   \   000086   A4           MUL       AB
   \   000087   C8           XCH       A,R0
   \   000088   AAF0         MOV       R2,B
   \   00008A   75F000       MOV       B,#0x0
   \   00008D   A4           MUL       AB
   \   00008E   2A           ADD       A,R2
   \   00008F   FA           MOV       R2,A
   \   000090   75F002       MOV       B,#0x2
   \   000093   E9           MOV       A,R1
   \   000094   A4           MUL       AB
   \   000095   2A           ADD       A,R2
   \   000096   F9           MOV       R1,A
   \   000097   74..         MOV       A,#??POW_MOD & 0xff
   \   000099   28           ADD       A,R0
   \   00009A   F582         MOV       DPL,A
   \   00009C   74..         MOV       A,#(??POW_MOD >> 8) & 0xff
   \   00009E   39           ADDC      A,R1
   \   00009F   F583         MOV       DPH,A
   \   0000A1   E0           MOVX      A,@DPTR
   \   0000A2   F8           MOV       R0,A
   \   0000A3   A3           INC       DPTR
   \   0000A4   E0           MOVX      A,@DPTR
   \   0000A5   C8           XCH       A,R0
   \   0000A6   2406         ADD       A,#0x6
   \   0000A8   F582         MOV       DPL,A
   \   0000AA   C8           XCH       A,R0
   \   0000AB   3400         ADDC      A,#0x0
   \   0000AD   F583         MOV       DPH,A
   \   0000AF   E0           MOVX      A,@DPTR
   \   0000B0   F8           MOV       R0,A
   \   0000B1   A3           INC       DPTR
   \   0000B2   E0           MOVX      A,@DPTR
   \   0000B3   F583         MOV       DPH,A
   \   0000B5   8882         MOV       DPL,R0
   \   0000B7   12....       LCALL     ?CALL_IND
   \   0000BA   0E           INC       R6
   \   0000BB   02....       LJMP      ??AM_Wakeup_0 & 0xFFFF
     49          }
   \                     ??AM_Wakeup_1:
   \   0000BE   7F02         MOV       R7,#0x2
   \   0000C0   02....       LJMP      ?BANKED_LEAVE_XDATA
     50          
E:\WMNU\IAR_NEW_ARCH\STACK_CORE_SRC\alarm_timer.c
      1          #include "alarm_timer.h"
      2          #include "time_manager.h"
      3          #include "action_manager.h"
      4          #include "ioCC2530.h"
      5          #include "stdbool.h"
      6          #include "stdint.h"
      7          #include "debug.h"
      8          #include "cpu.h"

   \                                 In  segment BANKED_CODE, align 1, keep-with-next
   \   static __banked_func __xdata_reentrant char __cli(void)
   \                     ??__cli:
   \   000000                ; Saved register size: 0
   \   000000                ; Auto size: 0
   \   000000   C2AF         CLR       0xa8.7
   \   000002   7901         MOV       R1,#0x1
   \   000004   02....       LJMP      ?BRET
   \   000007                REQUIRE _A_IEN0
      9          
     10          /**
     11          @file
     12          */
     13          
     14          #define MAX_NWTIME (nwtime_t)32767
     15          
     16          static void HW_Init(void);  
     17          static inline void IRQEnable(bool state);
     18          static uint32_t ReadTimer(void);
     19          static inline bool isIRQEnable(void);
     20          static inline uint32_t calcCompareTime(nwtime_t time);
     21          static void loadTimerCompare(uint32_t ticks);
     22          

   \                                 In  segment XDATA_I, align 1, keep-with-next
     23          module_s AT_MODULE = {ALIAS(HW_Init)};
   \                     AT_MODULE:
   \   000000                DS 12
   \   00000C                REQUIRE `?<Initializer for AT_MODULE>`
   \   00000C                REQUIRE __INIT_XDATA_I

   \                                 In  segment XDATA_Z, align 1, keep-with-next
     24          static nwtime_t TOFFSET; 
   \                     ??TOFFSET:
   \   000000                DS 2
   \   000002                REQUIRE __INIT_XDATA_Z

   \                                 In  segment XDATA_Z, align 1, keep-with-next
     25          static uint32_t COMPARE_TIME; //!< Значение в регистре compare
   \                     ??COMPARE_TIME:
   \   000000                DS 4
   \   000004                REQUIRE __INIT_XDATA_Z
     26          
     27          

   \                                 In  segment BANKED_CODE, align 1, keep-with-next
     28          static void HW_Init(void){
   \                     ??HW_Init:
   \   000000   C082         PUSH      DPL
   \   000002   C083         PUSH      DPH
   \   000004                ; Saved register size: 2
   \   000004                ; Auto size: 0
     29            TOFFSET = 0;
   \   000004   90....       MOV       DPTR,#??TOFFSET
   \   000007   7400         MOV       A,#0x0
   \   000009   F0           MOVX      @DPTR,A
   \   00000A   A3           INC       DPTR
   \   00000B   7400         MOV       A,#0x0
   \   00000D   F0           MOVX      @DPTR,A
     30            COMPARE_TIME = 0;
   \   00000E   90....       MOV       DPTR,#??COMPARE_TIME
   \   000011   7400         MOV       A,#0x0
   \   000013   F0           MOVX      @DPTR,A
   \   000014   A3           INC       DPTR
   \   000015   7400         MOV       A,#0x0
   \   000017   F0           MOVX      @DPTR,A
   \   000018   A3           INC       DPTR
   \   000019   7400         MOV       A,#0x0
   \   00001B   F0           MOVX      @DPTR,A
   \   00001C   A3           INC       DPTR
   \   00001D   7400         MOV       A,#0x0
   \   00001F   F0           MOVX      @DPTR,A
     31            IRQEnable(false);
   \   000020                ; Setup parameters for call to function IRQEnable
   \   000020   C2F0         CLR       B.0
   \   000022   12....       LCALL     `??IRQEnable::?relay`; Banked call to: IRQEnable
     32          };
   \   000025   D083         POP       DPH
   \   000027   D082         POP       DPL
   \   000029   02....       LJMP      ?BRET
     33          
     34          static void SW_Init(void){
     35            TOFFSET = 0;
     36            COMPARE_TIME = 0;
     37            IRQEnable(false);
     38          }; 

   \                                 In  segment BANKED_CODE, align 1, keep-with-next
     39          void AT_enable(bool state){
   \                     AT_enable:
   \   000000   74F7         MOV       A,#-0x9
   \   000002   12....       LCALL     ?BANKED_ENTER_XDATA
   \   000005                ; Saved register size: 9
   \   000005                ; Auto size: 0
   \   000005   A2F0         MOV       C,B.0
   \   000007   92..         MOV       ?VB.0,C
     40            ATOMIC_BLOCK_RESTORE{
   \   000009   A2AF         MOV       C,0xa8.7
   \   00000B   E4           CLR       A
   \   00000C   33           RLC       A
   \   00000D   FE           MOV       R6,A
   \   00000E                ; Setup parameters for call to function __cli
   \   00000E   12....       LCALL     `??__cli::?relay`; Banked call to: __cli
   \   000011   E9           MOV       A,R1
   \   000012   F8           MOV       R0,A
   \                     ??AT_enable_0:
   \   000013   E8           MOV       A,R0
   \   000014   6010         JZ        ??AT_enable_1
     41              IRQEnable(state);
   \   000016                ; Setup parameters for call to function IRQEnable
   \   000016   A2..         MOV       C,?VB.0
   \   000018   92F0         MOV       B.0,C
   \   00001A   12....       LCALL     `??IRQEnable::?relay`; Banked call to: IRQEnable
     42            }
   \   00001D   7800         MOV       R0,#0x0
   \   00001F   EE           MOV       A,R6
   \   000020   A2E0         MOV       C,0xE0 /* A   */.0
   \   000022   92AF         MOV       0xa8.7,C
   \   000024   80ED         SJMP      ??AT_enable_0
     43          };
   \                     ??AT_enable_1:
   \   000026   7F01         MOV       R7,#0x1
   \   000028   02....       LJMP      ?BANKED_LEAVE_XDATA
   \   00002B                REQUIRE _A_IEN0
     44          

   \                                 In  segment BANKED_CODE, align 1, keep-with-next
     45          void AT_set_time(nwtime_t time){
   \                     AT_set_time:
   \   000000                REQUIRE ?V0
   \   000000                REQUIRE ?V1
   \   000000                REQUIRE ?V2
   \   000000                REQUIRE ?V3
   \   000000                REQUIRE ?V4
   \   000000                REQUIRE ?V5
   \   000000   74F2         MOV       A,#-0xe
   \   000002   12....       LCALL     ?BANKED_ENTER_XDATA
   \   000005                ; Saved register size: 14
   \   000005                ; Auto size: 0
   \   000005   EA           MOV       A,R2
   \   000006   FE           MOV       R6,A
   \   000007   EB           MOV       A,R3
   \   000008   FF           MOV       R7,A
     46            ASSERT(time <= MAX_NWTIME);
   \   000009   C3           CLR       C
   \   00000A   EE           MOV       A,R6
   \   00000B   9400         SUBB      A,#0x0
   \   00000D   EF           MOV       A,R7
   \   00000E   9480         SUBB      A,#-0x80
   \   000010   4037         JC        ??AT_set_time_0
   \   000012                ; Setup parameters for call to function printf
   \   000012   75....       MOV       ?V0,#??__FUNCTION___6 & 0xff
   \   000015   75....       MOV       ?V1,#(??__FUNCTION___6 >> 8) & 0xff
   \   000018   78..         MOV       R0,#?V0
   \   00001A   12....       LCALL     ?PUSH_XSTACK_I_TWO
   \   00001D   75..2E       MOV       ?V0,#0x2e
   \   000020   75..00       MOV       ?V1,#0x0
   \   000023   78..         MOV       R0,#?V0
   \   000025   12....       LCALL     ?PUSH_XSTACK_I_TWO
   \   000028   75....       MOV       ?V0,#`?<Constant "alarm_timer.c">` & 0xff
   \   00002B   75....       MOV       ?V1,#(`?<Constant "alarm_timer.c">` >> 8) & 0xff
   \   00002E   78..         MOV       R0,#?V0
   \   000030   12....       LCALL     ?PUSH_XSTACK_I_TWO
   \   000033   7A..         MOV       R2,#`?<Constant "%s:%d:%s -> ">_1` & 0xff
   \   000035   7B..         MOV       R3,#(`?<Constant "%s:%d:%s -> ">_1` >> 8) & 0xff
   \   000037   12....       LCALL     `??printf::?relay`; Banked call to: printf
   \   00003A   7406         MOV       A,#0x6
   \   00003C   12....       LCALL     ?DEALLOC_XSTACK8
   \   00003F                ; Setup parameters for call to function printf
   \   00003F   7A..         MOV       R2,#`?<Constant "\\"time <= MAX_NWTIME\\" ...">` & 0xff
   \   000041   7B..         MOV       R3,#(`?<Constant "\\"time <= MAX_NWTIME\\" ...">` >> 8) & 0xff
   \   000043   12....       LCALL     `??printf::?relay`; Banked call to: printf
   \   000046                ; Setup parameters for call to function DBG_CORE_HALT
   \   000046   12....       LCALL     `??DBG_CORE_HALT::?relay`; Banked call to: DBG_CORE_HALT
     47            nwtime_t timer = ReadTimer();
   \                     ??AT_set_time_0:
   \   000049                ; Setup parameters for call to function ReadTimer
   \   000049   12....       LCALL     `??ReadTimer::?relay`; Banked call to: ReadTimer
   \   00004C   8A..         MOV       ?V0,R2
   \   00004E   8B..         MOV       ?V1,R3
   \   000050   8C..         MOV       ?V2,R4
   \   000052   8D..         MOV       ?V3,R5
   \   000054   85....       MOV       ?V4,?V0
   \   000057   85....       MOV       ?V5,?V1
     48            TOFFSET = time - timer;
   \   00005A   EE           MOV       A,R6
   \   00005B   C3           CLR       C
   \   00005C   95..         SUBB      A,?V4
   \   00005E   F8           MOV       R0,A
   \   00005F   EF           MOV       A,R7
   \   000060   95..         SUBB      A,?V5
   \   000062   F9           MOV       R1,A
   \   000063   90....       MOV       DPTR,#??TOFFSET
   \   000066   E8           MOV       A,R0
   \   000067   F0           MOVX      @DPTR,A
   \   000068   A3           INC       DPTR
   \   000069   E9           MOV       A,R1
   \   00006A   F0           MOVX      @DPTR,A
     49            TOFFSET &= 0x7FFF;
   \   00006B   90....       MOV       DPTR,#??TOFFSET
   \   00006E   E0           MOVX      A,@DPTR
   \   00006F   54FF         ANL       A,#0xff
   \   000071   F0           MOVX      @DPTR,A
   \   000072   A3           INC       DPTR
   \   000073   E0           MOVX      A,@DPTR
   \   000074   547F         ANL       A,#0x7f
   \   000076   F0           MOVX      @DPTR,A
     50            // После установки времени нужно изменить compare time в таймере
     51            // Но только в случаи если прерывание активно
     52            if (isIRQEnable())
   \   000077                ; Setup parameters for call to function isIRQEnable
   \   000077   12....       LCALL     `??isIRQEnable::?relay`; Banked call to: isIRQEnable
   \   00007A   500F         JNC       ??AT_set_time_1
     53              AT_set_alarm(COMPARE_TIME);
   \   00007C                ; Setup parameters for call to function AT_set_alarm
   \   00007C   90....       MOV       DPTR,#??COMPARE_TIME
   \   00007F   78..         MOV       R0,#?V0
   \   000081   12....       LCALL     ?L_MOV_X
   \   000084   AA..         MOV       R2,?V0
   \   000086   AB..         MOV       R3,?V1
   \   000088   12....       LCALL     `??AT_set_alarm::?relay`; Banked call to: AT_set_alarm
     54          }
   \                     ??AT_set_time_1:
   \   00008B   7F06         MOV       R7,#0x6
   \   00008D   02....       LJMP      ?BANKED_LEAVE_XDATA
     55          

   \                                 In  segment BANKED_CODE, align 1, keep-with-next
     56          nwtime_t AT_time(void){
   \                     AT_time:
   \   000000                REQUIRE ?V0
   \   000000                REQUIRE ?V1
   \   000000                REQUIRE ?V2
   \   000000                REQUIRE ?V3
   \   000000                REQUIRE ?V4
   \   000000                REQUIRE ?V5
   \   000000                REQUIRE ?V6
   \   000000                REQUIRE ?V7
   \   000000   74F0         MOV       A,#-0x10
   \   000002   12....       LCALL     ?BANKED_ENTER_XDATA
   \   000005                ; Saved register size: 16
   \   000005                ; Auto size: 0
     57            uint32_t val = ReadTimer();
   \   000005                ; Setup parameters for call to function ReadTimer
   \   000005   12....       LCALL     `??ReadTimer::?relay`; Banked call to: ReadTimer
   \   000008   8A..         MOV       ?V4,R2
   \   00000A   8B..         MOV       ?V5,R3
   \   00000C   8C..         MOV       ?V6,R4
   \   00000E   8D..         MOV       ?V7,R5
     58            // TOFFSET = NETWORK TIME - TIMER
     59            // NETWORK TIME = TIMER + TOFFSET
     60            val +=TOFFSET;
   \   000010   90....       MOV       DPTR,#??TOFFSET
   \   000013   E0           MOVX      A,@DPTR
   \   000014   F5..         MOV       ?V0,A
   \   000016   A3           INC       DPTR
   \   000017   E0           MOVX      A,@DPTR
   \   000018   F5..         MOV       ?V1,A
   \   00001A   E4           CLR       A
   \   00001B   F5..         MOV       ?V2,A
   \   00001D   F5..         MOV       ?V3,A
   \   00001F   78..         MOV       R0,#?V4
   \   000021   79..         MOV       R1,#?V0
   \   000023   12....       LCALL     ?L_ADD
     61            val &= 0x7FFF; // Приводим значения таймера к 0-32767
   \   000026   90....       MOV       DPTR,#__Constant_7fff
   \   000029   78..         MOV       R0,#?V4
   \   00002B   12....       LCALL     ?L_AND_X
     62            return val;
   \   00002E   AA..         MOV       R2,?V4
   \   000030   AB..         MOV       R3,?V5
   \   000032   7F08         MOV       R7,#0x8
   \   000034   02....       LJMP      ?BANKED_LEAVE_XDATA
     63          }
     64          
     65          /**
     66          @brief Ждем наступления определенного момента времени
     67          */

   \                                 In  segment BANKED_CODE, align 1, keep-with-next
     68          void AT_wait(nwtime_t time){
   \                     AT_wait:
   \   000000                REQUIRE ?V0
   \   000000                REQUIRE ?V1
   \   000000                REQUIRE ?V2
   \   000000                REQUIRE ?V3
   \   000000   74F4         MOV       A,#-0xc
   \   000002   12....       LCALL     ?BANKED_ENTER_XDATA
   \   000005                ; Saved register size: 12
   \   000005                ; Auto size: 0
   \   000005   EA           MOV       A,R2
   \   000006   FE           MOV       R6,A
   \   000007   EB           MOV       A,R3
   \   000008   FF           MOV       R7,A
     69            ASSERT(time <= MAX_NWTIME);  
   \   000009   C3           CLR       C
   \   00000A   EE           MOV       A,R6
   \   00000B   9400         SUBB      A,#0x0
   \   00000D   EF           MOV       A,R7
   \   00000E   9480         SUBB      A,#-0x80
   \   000010   4037         JC        ??AT_wait_0
   \   000012                ; Setup parameters for call to function printf
   \   000012   75....       MOV       ?V0,#??__FUNCTION___7 & 0xff
   \   000015   75....       MOV       ?V1,#(??__FUNCTION___7 >> 8) & 0xff
   \   000018   78..         MOV       R0,#?V0
   \   00001A   12....       LCALL     ?PUSH_XSTACK_I_TWO
   \   00001D   75..45       MOV       ?V0,#0x45
   \   000020   75..00       MOV       ?V1,#0x0
   \   000023   78..         MOV       R0,#?V0
   \   000025   12....       LCALL     ?PUSH_XSTACK_I_TWO
   \   000028   75....       MOV       ?V0,#`?<Constant "alarm_timer.c">` & 0xff
   \   00002B   75....       MOV       ?V1,#(`?<Constant "alarm_timer.c">` >> 8) & 0xff
   \   00002E   78..         MOV       R0,#?V0
   \   000030   12....       LCALL     ?PUSH_XSTACK_I_TWO
   \   000033   7A..         MOV       R2,#`?<Constant "%s:%d:%s -> ">_1` & 0xff
   \   000035   7B..         MOV       R3,#(`?<Constant "%s:%d:%s -> ">_1` >> 8) & 0xff
   \   000037   12....       LCALL     `??printf::?relay`; Banked call to: printf
   \   00003A   7406         MOV       A,#0x6
   \   00003C   12....       LCALL     ?DEALLOC_XSTACK8
   \   00003F                ; Setup parameters for call to function printf
   \   00003F   7A..         MOV       R2,#`?<Constant "\\"time <= MAX_NWTIME\\" ...">` & 0xff
   \   000041   7B..         MOV       R3,#(`?<Constant "\\"time <= MAX_NWTIME\\" ...">` >> 8) & 0xff
   \   000043   12....       LCALL     `??printf::?relay`; Banked call to: printf
   \   000046                ; Setup parameters for call to function DBG_CORE_HALT
   \   000046   12....       LCALL     `??DBG_CORE_HALT::?relay`; Banked call to: DBG_CORE_HALT
     70            static union 
     71            {
     72              uint32_t val;
     73              uint8_t fild[4];
     74            } val;
     75            val.val = 0;
   \                     ??AT_wait_0:
   \   000049   90....       MOV       DPTR,#??val
   \   00004C   7400         MOV       A,#0x0
   \   00004E   F0           MOVX      @DPTR,A
   \   00004F   A3           INC       DPTR
   \   000050   7400         MOV       A,#0x0
   \   000052   F0           MOVX      @DPTR,A
   \   000053   A3           INC       DPTR
   \   000054   7400         MOV       A,#0x0
   \   000056   F0           MOVX      @DPTR,A
   \   000057   A3           INC       DPTR
   \   000058   7400         MOV       A,#0x0
   \   00005A   F0           MOVX      @DPTR,A
     76            // TOFFSET = NETWORK TIME - TIMER
     77            // NETWORK TIME = TIMER + TOFFSET
     78            // Ждем синхронизацию таймера после пробуждения
     79            while (!(SLEEPSTA & 0x01));
   \                     ??AT_wait_1:
   \   00005B   E59D         MOV       A,0x9d
   \   00005D   A2E0         MOV       C,0xE0 /* A   */.0
   \   00005F   50FA         JNC       ??AT_wait_1
     80            do{
     81              // Соблюдаем порядок чтения регисторов ST  
     82              val.fild[0] = ST0;
   \                     ??AT_wait_2:
   \   000061   E595         MOV       A,0x95
   \   000063   90....       MOV       DPTR,#??val
   \   000066   F0           MOVX      @DPTR,A
     83              val.fild[1] = ST1;
   \   000067   E596         MOV       A,0x96
   \   000069   90....       MOV       DPTR,#??val + 1
   \   00006C   F0           MOVX      @DPTR,A
     84              val.fild[2] = ST2;
   \   00006D   E597         MOV       A,0x97
   \   00006F   90....       MOV       DPTR,#??val + 2
   \   000072   F0           MOVX      @DPTR,A
     85              val.val +=TOFFSET;
   \   000073   90....       MOV       DPTR,#??TOFFSET
   \   000076   E0           MOVX      A,@DPTR
   \   000077   F5..         MOV       ?V0,A
   \   000079   A3           INC       DPTR
   \   00007A   E0           MOVX      A,@DPTR
   \   00007B   F5..         MOV       ?V1,A
   \   00007D   E4           CLR       A
   \   00007E   F5..         MOV       ?V2,A
   \   000080   F5..         MOV       ?V3,A
   \   000082   90....       MOV       DPTR,#??val
   \   000085   78..         MOV       R0,#?V0
   \   000087   12....       LCALL     ?L_ADD_TO_X
     86              val.val &= 0x7FFF; // Приводим значения таймера к 0-32767    
   \   00008A   90....       MOV       DPTR,#__Constant_7fff
   \   00008D   78..         MOV       R0,#?V0
   \   00008F   12....       LCALL     ?L_MOV_X
   \   000092   90....       MOV       DPTR,#??val
   \   000095   78..         MOV       R0,#?V0
   \   000097   12....       LCALL     ?L_AND_TO_X
     87            } while (val.val < time);
   \   00009A   8E..         MOV       ?V0,R6
   \   00009C   8F..         MOV       ?V1,R7
   \   00009E   E4           CLR       A
   \   00009F   F5..         MOV       ?V2,A
   \   0000A1   F5..         MOV       ?V3,A
   \   0000A3   90....       MOV       DPTR,#??val
   \   0000A6   78..         MOV       R0,#?V0
   \   0000A8   12....       LCALL     ?UL_GT_X
   \   0000AB   40B4         JC        ??AT_wait_2
     88          }
   \   0000AD   7F04         MOV       R7,#0x4
   \   0000AF   02....       LJMP      ?BANKED_LEAVE_XDATA
   \   0000B2                REQUIRE SLEEPSTA
   \   0000B2                REQUIRE ST0
   \   0000B2                REQUIRE ST1
   \   0000B2                REQUIRE ST2

   \                                 In  segment XDATA_Z, align 1, keep-with-next
   \                     ??val:
   \   000000                DS 4
   \   000004                REQUIRE __INIT_XDATA_Z
     89          
     90          /**
     91          @brief Разрешение прерываний таймера сна
     92          @params[in] state = true - разрешить обработку прерываний
     93          */

   \                                 In  segment BANKED_CODE, align 1, keep-with-next
     94          static inline void IRQEnable(bool state){
   \                     ??IRQEnable:
   \   000000                ; Saved register size: 0
   \   000000                ; Auto size: 0
   \   000000   A2F0         MOV       C,B.0
   \   000002   92F0         MOV       B.0,C
     95            if (state)
   \   000004   A2F0         MOV       C,B.0
   \   000006   5004         JNC       ??IRQEnable_1
     96              STIE = 1;
   \   000008   D2AD         SETB      0xa8.5
   \   00000A   8002         SJMP      ??IRQEnable_2
     97            else
     98              STIE = 0;
   \                     ??IRQEnable_1:
   \   00000C   C2AD         CLR       0xa8.5
     99          }
   \                     ??IRQEnable_2:
   \   00000E   02....       LJMP      ?BRET
   \   000011                REQUIRE _A_IEN0
    100          
    101          /**
    102          @brief Устанавливает время прерывания
    103          @details Время прерывания устанавливается относительно времени сети
    104          ,к примеру, что бы проснуться в таймслот номер 0, нужно установить ticks = 0.
    105          Процедура учитывает текущее значение таймера и перерасчитывает значение ticks. 
    106          @params[in] ticks время сети в тиках когда нужно проснуться
    107          */

   \                                 In  segment BANKED_CODE, align 1, keep-with-next
    108          void AT_set_alarm(nwtime_t alarm){
   \                     AT_set_alarm:
   \   000000                REQUIRE ?V0
   \   000000                REQUIRE ?V1
   \   000000                REQUIRE ?V2
   \   000000                REQUIRE ?V3
   \   000000   74F4         MOV       A,#-0xc
   \   000002   12....       LCALL     ?BANKED_ENTER_XDATA
   \   000005                ; Saved register size: 12
   \   000005                ; Auto size: 0
   \   000005   EA           MOV       A,R2
   \   000006   FE           MOV       R6,A
   \   000007   EB           MOV       A,R3
   \   000008   FF           MOV       R7,A
    109            ASSERT(alarm <= MAX_NWTIME);
   \   000009   C3           CLR       C
   \   00000A   EE           MOV       A,R6
   \   00000B   9400         SUBB      A,#0x0
   \   00000D   EF           MOV       A,R7
   \   00000E   9480         SUBB      A,#-0x80
   \   000010   4037         JC        ??AT_set_alarm_0
   \   000012                ; Setup parameters for call to function printf
   \   000012   75....       MOV       ?V0,#??__FUNCTION___8 & 0xff
   \   000015   75....       MOV       ?V1,#(??__FUNCTION___8 >> 8) & 0xff
   \   000018   78..         MOV       R0,#?V0
   \   00001A   12....       LCALL     ?PUSH_XSTACK_I_TWO
   \   00001D   75..6D       MOV       ?V0,#0x6d
   \   000020   75..00       MOV       ?V1,#0x0
   \   000023   78..         MOV       R0,#?V0
   \   000025   12....       LCALL     ?PUSH_XSTACK_I_TWO
   \   000028   75....       MOV       ?V0,#`?<Constant "alarm_timer.c">` & 0xff
   \   00002B   75....       MOV       ?V1,#(`?<Constant "alarm_timer.c">` >> 8) & 0xff
   \   00002E   78..         MOV       R0,#?V0
   \   000030   12....       LCALL     ?PUSH_XSTACK_I_TWO
   \   000033   7A..         MOV       R2,#`?<Constant "%s:%d:%s -> ">_1` & 0xff
   \   000035   7B..         MOV       R3,#(`?<Constant "%s:%d:%s -> ">_1` >> 8) & 0xff
   \   000037   12....       LCALL     `??printf::?relay`; Banked call to: printf
   \   00003A   7406         MOV       A,#0x6
   \   00003C   12....       LCALL     ?DEALLOC_XSTACK8
   \   00003F                ; Setup parameters for call to function printf
   \   00003F   7A..         MOV       R2,#`?<Constant "\\"alarm <= MAX_NWTIME\\"...">` & 0xff
   \   000041   7B..         MOV       R3,#(`?<Constant "\\"alarm <= MAX_NWTIME\\"...">` >> 8) & 0xff
   \   000043   12....       LCALL     `??printf::?relay`; Banked call to: printf
   \   000046                ; Setup parameters for call to function DBG_CORE_HALT
   \   000046   12....       LCALL     `??DBG_CORE_HALT::?relay`; Banked call to: DBG_CORE_HALT
    110            COMPARE_TIME = alarm; // Сохраняем установленное значение
   \                     ??AT_set_alarm_0:
   \   000049   EE           MOV       A,R6
   \   00004A   FA           MOV       R2,A
   \   00004B   EF           MOV       A,R7
   \   00004C   FB           MOV       R3,A
   \   00004D   E4           CLR       A
   \   00004E   FC           MOV       R4,A
   \   00004F   FD           MOV       R5,A
   \   000050   90....       MOV       DPTR,#??COMPARE_TIME
   \   000053   EA           MOV       A,R2
   \   000054   F0           MOVX      @DPTR,A
   \   000055   A3           INC       DPTR
   \   000056   EB           MOV       A,R3
   \   000057   F0           MOVX      @DPTR,A
   \   000058   A3           INC       DPTR
   \   000059   EC           MOV       A,R4
   \   00005A   F0           MOVX      @DPTR,A
   \   00005B   A3           INC       DPTR
   \   00005C   ED           MOV       A,R5
   \   00005D   F0           MOVX      @DPTR,A
    111            uint32_t compare_time = calcCompareTime(alarm);
   \   00005E                ; Setup parameters for call to function calcCompareTime
   \   00005E   EE           MOV       A,R6
   \   00005F   FA           MOV       R2,A
   \   000060   EF           MOV       A,R7
   \   000061   FB           MOV       R3,A
   \   000062   12....       LCALL     `??calcCompareTime::?relay`; Banked call to: calcCompareTime
   \   000065   8A..         MOV       ?V0,R2
   \   000067   8B..         MOV       ?V1,R3
   \   000069   8C..         MOV       ?V2,R4
   \   00006B   8D..         MOV       ?V3,R5
    112            loadTimerCompare(compare_time);
   \   00006D                ; Setup parameters for call to function loadTimerCompare
   \   00006D   AA..         MOV       R2,?V0
   \   00006F   AB..         MOV       R3,?V1
   \   000071   AC..         MOV       R4,?V2
   \   000073   AD..         MOV       R5,?V3
   \   000075   12....       LCALL     `??loadTimerCompare::?relay`; Banked call to: loadTimerCompare
    113            IRQEnable(true);
   \   000078                ; Setup parameters for call to function IRQEnable
   \   000078   D2F0         SETB      B.0
   \   00007A   12....       LCALL     `??IRQEnable::?relay`; Banked call to: IRQEnable
    114          }
   \   00007D   7F04         MOV       R7,#0x4
   \   00007F   02....       LJMP      ?BANKED_LEAVE_XDATA
    115          
    116          /**
    117          @brief Вычисляет значение, которое нужно установить в регистр compare таймера.
    118          @params[in] time время сети в тикак
    119          */

   \                                 In  segment BANKED_CODE, align 1, keep-with-next
    120          static inline uint32_t calcCompareTime(nwtime_t time){   
   \                     ??calcCompareTime:
   \   000000                REQUIRE ?V0
   \   000000                REQUIRE ?V1
   \   000000                REQUIRE ?V2
   \   000000                REQUIRE ?V3
   \   000000                REQUIRE ?V4
   \   000000                REQUIRE ?V5
   \   000000                REQUIRE ?V6
   \   000000                REQUIRE ?V7
   \   000000   74F0         MOV       A,#-0x10
   \   000002   12....       LCALL     ?BANKED_ENTER_XDATA
   \   000005                ; Saved register size: 16
   \   000005                ; Auto size: 6
   \   000005   74FA         MOV       A,#-0x6
   \   000007   12....       LCALL     ?ALLOC_XSTACK8
   \   00000A   7404         MOV       A,#0x4
   \   00000C   12....       LCALL     ?XSTACK_DISP0_8
   \   00000F   EA           MOV       A,R2
   \   000010   F0           MOVX      @DPTR,A
   \   000011   A3           INC       DPTR
   \   000012   EB           MOV       A,R3
   \   000013   F0           MOVX      @DPTR,A
    121              uint32_t timer = ReadTimer(); // Текущее значение счетчика
   \   000014                ; Setup parameters for call to function ReadTimer
   \   000014   12....       LCALL     `??ReadTimer::?relay`; Banked call to: ReadTimer
   \   000017   8A..         MOV       ?V4,R2
   \   000019   8B..         MOV       ?V5,R3
   \   00001B   8C..         MOV       ?V6,R4
   \   00001D   8D..         MOV       ?V7,R5
    122              //NETWORK TIME = TIMER + TOFFSET  
    123              // Приводим такты к тактам таймера
    124              uint16_t ticks_offset = (time - TOFFSET) & 0x7FFF;
   \   00001F   7404         MOV       A,#0x4
   \   000021   12....       LCALL     ?XSTACK_DISP0_8
   \   000024   C082         PUSH      DPL
   \   000026   C083         PUSH      DPH
   \   000028   90....       MOV       DPTR,#??TOFFSET
   \   00002B   E0           MOVX      A,@DPTR
   \   00002C   F8           MOV       R0,A
   \   00002D   A3           INC       DPTR
   \   00002E   E0           MOVX      A,@DPTR
   \   00002F   F9           MOV       R1,A
   \   000030   D083         POP       DPH
   \   000032   D082         POP       DPL
   \   000034   E0           MOVX      A,@DPTR
   \   000035   C3           CLR       C
   \   000036   98           SUBB      A,R0
   \   000037   F8           MOV       R0,A
   \   000038   A3           INC       DPTR
   \   000039   E0           MOVX      A,@DPTR
   \   00003A   99           SUBB      A,R1
   \   00003B   F9           MOV       R1,A
   \   00003C   E8           MOV       A,R0
   \   00003D   54FF         ANL       A,#0xff
   \   00003F   FE           MOV       R6,A
   \   000040   E9           MOV       A,R1
   \   000041   547F         ANL       A,#0x7f
   \   000043   FF           MOV       R7,A
    125              uint32_t cmp_time = timer & ~0x7FFF; // Убираем младшие 15 бит
   \   000044   85....       MOV       ?V0,?V4
   \   000047   85....       MOV       ?V1,?V5
   \   00004A   85....       MOV       ?V2,?V6
   \   00004D   85....       MOV       ?V3,?V7
   \   000050   90....       MOV       DPTR,#__Constant_ffff8000
   \   000053   78..         MOV       R0,#?V0
   \   000055   12....       LCALL     ?L_AND_X
   \   000058   85..82       MOV       DPL,?XSP + 0
   \   00005B   85..83       MOV       DPH,?XSP + 1
   \   00005E   78..         MOV       R0,#?V0
   \   000060   12....       LCALL     ?L_MOV_TO_X
    126              cmp_time |= ticks_offset; // Вычисляем новое время
   \   000063   8E..         MOV       ?V0,R6
   \   000065   8F..         MOV       ?V1,R7
   \   000067   E4           CLR       A
   \   000068   F5..         MOV       ?V2,A
   \   00006A   F5..         MOV       ?V3,A
   \   00006C   85..82       MOV       DPL,?XSP + 0
   \   00006F   85..83       MOV       DPH,?XSP + 1
   \   000072   78..         MOV       R0,#?V0
   \   000074   12....       LCALL     ?L_IOR_TO_X
    127              if (cmp_time <= timer){
   \   000077   85..82       MOV       DPL,?XSP + 0
   \   00007A   85..83       MOV       DPH,?XSP + 1
   \   00007D   78..         MOV       R0,#?V4
   \   00007F   12....       LCALL     ?UL_GE_X
   \   000082   5026         JNC       ??calcCompareTime_1
    128                cmp_time += 0x8000;
   \   000084   90....       MOV       DPTR,#__Constant_8000
   \   000087   78..         MOV       R0,#?V0
   \   000089   12....       LCALL     ?L_MOV_X
   \   00008C   85..82       MOV       DPL,?XSP + 0
   \   00008F   85..83       MOV       DPH,?XSP + 1
   \   000092   78..         MOV       R0,#?V0
   \   000094   12....       LCALL     ?L_ADD_TO_X
    129                cmp_time &=0xFFFFFF;
   \   000097   90....       MOV       DPTR,#__Constant_ffffff
   \   00009A   78..         MOV       R0,#?V0
   \   00009C   12....       LCALL     ?L_MOV_X
   \   00009F   85..82       MOV       DPL,?XSP + 0
   \   0000A2   85..83       MOV       DPH,?XSP + 1
   \   0000A5   78..         MOV       R0,#?V0
   \   0000A7   12....       LCALL     ?L_AND_TO_X
    130              }
    131               LOG_OFF("Timer = %lu, Ticks = %d,CMP = %lu \r\n",
    132                    timer, ticks, cmp_time );
    133              return cmp_time;
   \                     ??calcCompareTime_1:
   \   0000AA   85..82       MOV       DPL,?XSP + 0
   \   0000AD   85..83       MOV       DPH,?XSP + 1
   \   0000B0   12....       LCALL     ?XLOAD_R2345
   \   0000B3   7406         MOV       A,#0x6
   \   0000B5   12....       LCALL     ?DEALLOC_XSTACK8
   \   0000B8   7F08         MOV       R7,#0x8
   \   0000BA   02....       LJMP      ?BANKED_LEAVE_XDATA
    134          }
    135          
    136          /**
    137          @brief Возвращает текущее значение таймера
    138          @return Текущие ticks
    139          */

   \                                 In  segment BANKED_CODE, align 1, keep-with-next
    140          static uint32_t ReadTimer(void){
   \                     ??ReadTimer:
   \   000000   C082         PUSH      DPL
   \   000002   C083         PUSH      DPH
   \   000004                ; Saved register size: 2
   \   000004                ; Auto size: 0
    141            static union 
    142            {
    143              uint32_t val;
    144              uint8_t fild[4];
    145            } ret_val;
    146            ret_val.val = 0;
   \   000004   90....       MOV       DPTR,#??ret_val
   \   000007   7400         MOV       A,#0x0
   \   000009   F0           MOVX      @DPTR,A
   \   00000A   A3           INC       DPTR
   \   00000B   7400         MOV       A,#0x0
   \   00000D   F0           MOVX      @DPTR,A
   \   00000E   A3           INC       DPTR
   \   00000F   7400         MOV       A,#0x0
   \   000011   F0           MOVX      @DPTR,A
   \   000012   A3           INC       DPTR
   \   000013   7400         MOV       A,#0x0
   \   000015   F0           MOVX      @DPTR,A
    147            // Ждем синхронизацию таймера после пробуждения
    148            while (!(SLEEPSTA & 0x01));
   \                     ??ReadTimer_1:
   \   000016   E59D         MOV       A,0x9d
   \   000018   A2E0         MOV       C,0xE0 /* A   */.0
   \   00001A   50FA         JNC       ??ReadTimer_1
    149            // Соблюдаем порядок чтения регисторов ST  
    150            ret_val.fild[0] = ST0;
   \   00001C   E595         MOV       A,0x95
   \   00001E   90....       MOV       DPTR,#??ret_val
   \   000021   F0           MOVX      @DPTR,A
    151            ret_val.fild[1] = ST1;
   \   000022   E596         MOV       A,0x96
   \   000024   90....       MOV       DPTR,#??ret_val + 1
   \   000027   F0           MOVX      @DPTR,A
    152            ret_val.fild[2] = ST2;
   \   000028   E597         MOV       A,0x97
   \   00002A   90....       MOV       DPTR,#??ret_val + 2
   \   00002D   F0           MOVX      @DPTR,A
    153            return ret_val.val;
   \   00002E   90....       MOV       DPTR,#??ret_val
   \   000031   12....       LCALL     ?XLOAD_R2345
   \   000034   D083         POP       DPH
   \   000036   D082         POP       DPL
   \   000038   02....       LJMP      ?BRET
   \   00003B                REQUIRE SLEEPSTA
   \   00003B                REQUIRE ST0
   \   00003B                REQUIRE ST1
   \   00003B                REQUIRE ST2
    154          }

   \                                 In  segment XDATA_Z, align 1, keep-with-next
   \                     ??ret_val:
   \   000000                DS 4
   \   000004                REQUIRE __INIT_XDATA_Z
    155          
    156          /**
    157          @brief Устанавливает время пробуждения микроконтролера
    158          @params[in] ticks 24 битное значение времени пробуждения в ticks
    159          */

   \                                 In  segment BANKED_CODE, align 1, keep-with-next
    160          static void loadTimerCompare(uint32_t ticks){
   \                     ??loadTimerCompare:
   \   000000                REQUIRE ?V0
   \   000000                REQUIRE ?V1
   \   000000                REQUIRE ?V2
   \   000000                REQUIRE ?V3
   \   000000   74F4         MOV       A,#-0xc
   \   000002   12....       LCALL     ?BANKED_ENTER_XDATA
   \   000005                ; Saved register size: 12
   \   000005                ; Auto size: 4
   \   000005   74FC         MOV       A,#-0x4
   \   000007   12....       LCALL     ?ALLOC_XSTACK8
   \   00000A   8A..         MOV       ?V0,R2
   \   00000C   8B..         MOV       ?V1,R3
   \   00000E   8C..         MOV       ?V2,R4
   \   000010   8D..         MOV       ?V3,R5
    161            union 
    162            {
    163              uint32_t val;
    164              uint8_t fild[4];
    165            } value;
    166            value.val = ticks;
   \   000012   85..82       MOV       DPL,?XSP + 0
   \   000015   85..83       MOV       DPH,?XSP + 1
   \   000018   78..         MOV       R0,#?V0
   \   00001A   12....       LCALL     ?L_MOV_TO_X
    167            // Ждем разрешения на запись нового значения
    168            while (!(STLOAD & 0x01));
   \                     ??loadTimerCompare_1:
   \   00001D   E5AD         MOV       A,0xad
   \   00001F   A2E0         MOV       C,0xE0 /* A   */.0
   \   000021   50FA         JNC       ??loadTimerCompare_1
    169            // Регистр ST0 должен быть записан в последнию очередь
    170            ST2 = value.fild[2];
   \   000023   7402         MOV       A,#0x2
   \   000025   12....       LCALL     ?XSTACK_DISP0_8
   \   000028   E0           MOVX      A,@DPTR
   \   000029   F597         MOV       0x97,A
    171            ST1 = value.fild[1];
   \   00002B   7401         MOV       A,#0x1
   \   00002D   12....       LCALL     ?XSTACK_DISP0_8
   \   000030   E0           MOVX      A,@DPTR
   \   000031   F596         MOV       0x96,A
    172            ST0 = value.fild[0];
   \   000033   85..82       MOV       DPL,?XSP + 0
   \   000036   85..83       MOV       DPH,?XSP + 1
   \   000039   E0           MOVX      A,@DPTR
   \   00003A   F595         MOV       0x95,A
    173          }
   \   00003C   7404         MOV       A,#0x4
   \   00003E   12....       LCALL     ?DEALLOC_XSTACK8
   \   000041   7F04         MOV       R7,#0x4
   \   000043   02....       LJMP      ?BANKED_LEAVE_XDATA
   \   000046                REQUIRE STLOAD
   \   000046                REQUIRE ST2
   \   000046                REQUIRE ST1
   \   000046                REQUIRE ST0
    174          
    175          /**
    176          @brief Проверка активности прерывания таймера
    177          @return true если прерывание установленно
    178          */

   \                                 In  segment BANKED_CODE, align 1, keep-with-next
    179          static inline bool isIRQEnable(void){
   \                     ??isIRQEnable:
   \   000000                ; Saved register size: 0
   \   000000                ; Auto size: 0
    180            return STIE;
   \   000000   A2AD         MOV       C,0xa8.5
   \   000002   02....       LJMP      ?BRET
   \   000005                REQUIRE _A_IEN0
    181          }
    182          
    183          /**
    184          @brief Обработчик прерывания таймера сна
    185          */
    186          #pragma vector=ST_VECTOR

   \                                 In  segment NEAR_CODE, align 1, keep-with-next
    187          __interrupt void TimerCompareInterrupt(void){ 
   \                     TimerCompareInterrupt:
   \   000000                REQUIRE ?V0
   \   000000                REQUIRE ?V1
   \   000000   C0E0         PUSH      A
   \   000002   74F1         MOV       A,#-0xf
   \   000004   12....       LCALL     ?INTERRUPT_ENTER_XSP
   \   000007                ; Saved register size: 15
   \   000007                ; Auto size: 0
    188            nwtime_t time = AT_time();
   \   000007                ; Setup parameters for call to function AT_time
   \   000007   12....       LCALL     `??AT_time::?relay`; Banked call to: AT_time
   \   00000A   8A..         MOV       ?V0,R2
   \   00000C   8B..         MOV       ?V1,R3
   \   00000E   AE..         MOV       R6,?V0
   \   000010   AF..         MOV       R7,?V1
    189            // Отключаем прерывание таймера. Забота пользователя его включить
    190            IRQEnable(false); 
   \   000012                ; Setup parameters for call to function IRQEnable
   \   000012   C2F0         CLR       B.0
   \   000014   12....       LCALL     `??IRQEnable::?relay`; Banked call to: IRQEnable
    191            TM_IRQ(time); // Передаем управление менеджеру времени
   \   000017                ; Setup parameters for call to function TM_IRQ
   \   000017   EE           MOV       A,R6
   \   000018   FA           MOV       R2,A
   \   000019   EF           MOV       A,R7
   \   00001A   FB           MOV       R3,A
   \   00001B   12....       LCALL     `??TM_IRQ::?relay`; Banked call to: TM_IRQ
    192            STIF = 0; // Очищаем флаг прерывания
   \   00001E   C2C7         CLR       0xc0.7
    193          }
   \   000020   7F02         MOV       R7,#0x2
   \   000022   02....       LJMP      ?INTERRUPT_LEAVE_XSP
   \   000025                REQUIRE _A_IRCON
E:\WMNU\IAR_NEW_ARCH\STACK_CORE_SRC\buffer.c
      1          #include "debug.h"
      2          #include "macros.h"
      3          #include "frame.h"
      4          #include "stdbool.h"
      5          #include "cpu.h"

   \                                 In  segment BANKED_CODE, align 1, keep-with-next
   \   static __banked_func __xdata_reentrant char __cli(void)
   \                     ??__cli_1:
   \   000000                ; Saved register size: 0
   \   000000                ; Auto size: 0
   \   000000   C2AF         CLR       0xa8.7
   \   000002   7901         MOV       R1,#0x1
   \   000004   02....       LJMP      ?BRET
   \   000007                REQUIRE _A_IEN0
      6          #include "list.h"

   \                                 In  segment BANKED_CODE, align 1, keep-with-next
   \   static __banked_func __xdata_reentrant void INIT_LIST_HEAD(struct list_head *)
   \                     ??INIT_LIST_HEAD:
   \   000000   C082         PUSH      DPL
   \   000002   C083         PUSH      DPH
   \   000004                ; Saved register size: 2
   \   000004                ; Auto size: 0
   \   000004   8A82         MOV       DPL,R2
   \   000006   8B83         MOV       DPH,R3
   \   000008   EA           MOV       A,R2
   \   000009   F0           MOVX      @DPTR,A
   \   00000A   A3           INC       DPTR
   \   00000B   EB           MOV       A,R3
   \   00000C   F0           MOVX      @DPTR,A
   \   00000D   8A82         MOV       DPL,R2
   \   00000F   8B83         MOV       DPH,R3
   \   000011   A3           INC       DPTR
   \   000012   A3           INC       DPTR
   \   000013   EA           MOV       A,R2
   \   000014   F0           MOVX      @DPTR,A
   \   000015   A3           INC       DPTR
   \   000016   EB           MOV       A,R3
   \   000017   F0           MOVX      @DPTR,A
   \   000018   D083         POP       DPH
   \   00001A   D082         POP       DPL
   \   00001C   02....       LJMP      ?BRET

   \                                 In  segment BANKED_CODE, align 1, keep-with-next
   \   static __banked_func __xdata_reentrant bool __list_add_valid(struct list_head *, struct list_head *, struct list_head *)
   \                     ??__list_add_valid:
   \   000000                ; Saved register size: 0
   \   000000                ; Auto size: 0
   \   000000   D3           SETB      C
   \   000001   02....       LJMP      ?BRET

   \                                 In  segment BANKED_CODE, align 1, keep-with-next
   \   static __banked_func __xdata_reentrant bool __list_del_entry_valid(struct list_head *)
   \                     ??__list_del_entry_valid:
   \   000000                ; Saved register size: 0
   \   000000                ; Auto size: 0
   \   000000   D3           SETB      C
   \   000001   02....       LJMP      ?BRET

   \                                 In  segment BANKED_CODE, align 1, keep-with-next
   \   static __banked_func __xdata_reentrant void __list_add(struct list_head *, struct list_head *, struct list_head *)
   \                     ??__list_add:
   \   000000                REQUIRE ?V0
   \   000000                REQUIRE ?V1
   \   000000                REQUIRE ?V2
   \   000000                REQUIRE ?V3
   \   000000   74F4         MOV       A,#-0xc
   \   000002   12....       LCALL     ?BANKED_ENTER_XDATA
   \   000005                ; Saved register size: 12
   \   000005                ; Auto size: 0
   \   000005   EA           MOV       A,R2
   \   000006   FE           MOV       R6,A
   \   000007   EB           MOV       A,R3
   \   000008   FF           MOV       R7,A
   \   000009   8C..         MOV       ?V0,R4
   \   00000B   8D..         MOV       ?V1,R5
   \   00000D   740C         MOV       A,#0xc
   \   00000F   12....       LCALL     ?XSTACK_DISP0_8
   \   000012   E0           MOVX      A,@DPTR
   \   000013   F5..         MOV       ?V2,A
   \   000015   A3           INC       DPTR
   \   000016   E0           MOVX      A,@DPTR
   \   000017   F5..         MOV       ?V3,A
   \   000019                ; Setup parameters for call to function __list_add_valid
   \   000019   78..         MOV       R0,#?V2
   \   00001B   12....       LCALL     ?PUSH_XSTACK_I_TWO
   \   00001E   AC..         MOV       R4,?V0
   \   000020   AD..         MOV       R5,?V1
   \   000022   EE           MOV       A,R6
   \   000023   FA           MOV       R2,A
   \   000024   EF           MOV       A,R7
   \   000025   FB           MOV       R3,A
   \   000026   12....       LCALL     `??__list_add_valid::?relay`; Banked call to: __list_add_valid
   \   000029   7402         MOV       A,#0x2
   \   00002B   12....       LCALL     ?DEALLOC_XSTACK8
   \   00002E   5030         JNC       ??__list_add_1
   \   000030   85..82       MOV       DPL,?V2
   \   000033   85..83       MOV       DPH,?V3
   \   000036   A3           INC       DPTR
   \   000037   A3           INC       DPTR
   \   000038   EE           MOV       A,R6
   \   000039   F0           MOVX      @DPTR,A
   \   00003A   A3           INC       DPTR
   \   00003B   EF           MOV       A,R7
   \   00003C   F0           MOVX      @DPTR,A
   \   00003D   8E82         MOV       DPL,R6
   \   00003F   8F83         MOV       DPH,R7
   \   000041   E5..         MOV       A,?V2
   \   000043   F0           MOVX      @DPTR,A
   \   000044   A3           INC       DPTR
   \   000045   E5..         MOV       A,?V3
   \   000047   F0           MOVX      @DPTR,A
   \   000048   8E82         MOV       DPL,R6
   \   00004A   8F83         MOV       DPH,R7
   \   00004C   A3           INC       DPTR
   \   00004D   A3           INC       DPTR
   \   00004E   E5..         MOV       A,?V0
   \   000050   F0           MOVX      @DPTR,A
   \   000051   A3           INC       DPTR
   \   000052   E5..         MOV       A,?V1
   \   000054   F0           MOVX      @DPTR,A
   \   000055   85..82       MOV       DPL,?V0
   \   000058   85..83       MOV       DPH,?V1
   \   00005B   EE           MOV       A,R6
   \   00005C   F0           MOVX      @DPTR,A
   \   00005D   A3           INC       DPTR
   \   00005E   EF           MOV       A,R7
   \   00005F   F0           MOVX      @DPTR,A
   \                     ??__list_add_1:
   \   000060   7F04         MOV       R7,#0x4
   \   000062   02....       LJMP      ?BANKED_LEAVE_XDATA

   \                                 In  segment BANKED_CODE, align 1, keep-with-next
   \   static __banked_func __xdata_reentrant void list_add(struct list_head *, struct list_head *)
   \                     ??list_add:
   \   000000                REQUIRE ?V0
   \   000000                REQUIRE ?V1
   \   000000   74F6         MOV       A,#-0xa
   \   000002   12....       LCALL     ?BANKED_ENTER_XDATA
   \   000005                ; Saved register size: 10
   \   000005                ; Auto size: 0
   \   000005   8A..         MOV       ?V0,R2
   \   000007   8B..         MOV       ?V1,R3
   \   000009   EC           MOV       A,R4
   \   00000A   FE           MOV       R6,A
   \   00000B   ED           MOV       A,R5
   \   00000C   FF           MOV       R7,A
   \   00000D                ; Setup parameters for call to function __list_add
   \   00000D   8E82         MOV       DPL,R6
   \   00000F   8F83         MOV       DPH,R7
   \   000011   12....       LCALL     ?PUSH_XSTACK8_X_TWO
   \   000014   EE           MOV       A,R6
   \   000015   FC           MOV       R4,A
   \   000016   EF           MOV       A,R7
   \   000017   FD           MOV       R5,A
   \   000018   AA..         MOV       R2,?V0
   \   00001A   AB..         MOV       R3,?V1
   \   00001C   12....       LCALL     `??__list_add::?relay`; Banked call to: __list_add
   \   00001F   7402         MOV       A,#0x2
   \   000021   12....       LCALL     ?DEALLOC_XSTACK8
   \   000024   7F02         MOV       R7,#0x2
   \   000026   02....       LJMP      ?BANKED_LEAVE_XDATA

   \                                 In  segment BANKED_CODE, align 1, keep-with-next
   \   static __banked_func __xdata_reentrant void __list_del(struct list_head *, struct list_head *)
   \                     ??__list_del:
   \   000000   C082         PUSH      DPL
   \   000002   C083         PUSH      DPH
   \   000004                ; Saved register size: 2
   \   000004                ; Auto size: 0
   \   000004   8C82         MOV       DPL,R4
   \   000006   8D83         MOV       DPH,R5
   \   000008   A3           INC       DPTR
   \   000009   A3           INC       DPTR
   \   00000A   EA           MOV       A,R2
   \   00000B   F0           MOVX      @DPTR,A
   \   00000C   A3           INC       DPTR
   \   00000D   EB           MOV       A,R3
   \   00000E   F0           MOVX      @DPTR,A
   \   00000F   8A82         MOV       DPL,R2
   \   000011   8B83         MOV       DPH,R3
   \   000013   EC           MOV       A,R4
   \   000014   F0           MOVX      @DPTR,A
   \   000015   A3           INC       DPTR
   \   000016   ED           MOV       A,R5
   \   000017   F0           MOVX      @DPTR,A
   \   000018   D083         POP       DPH
   \   00001A   D082         POP       DPL
   \   00001C   02....       LJMP      ?BRET

   \                                 In  segment BANKED_CODE, align 1, keep-with-next
   \   static __banked_func __xdata_reentrant void __list_del_entry(struct list_head *)
   \                     ??__list_del_entry:
   \   000000   74F7         MOV       A,#-0x9
   \   000002   12....       LCALL     ?BANKED_ENTER_XDATA
   \   000005                ; Saved register size: 9
   \   000005                ; Auto size: 0
   \   000005   EA           MOV       A,R2
   \   000006   FE           MOV       R6,A
   \   000007   EB           MOV       A,R3
   \   000008   FF           MOV       R7,A
   \   000009                ; Setup parameters for call to function __list_del_entry_valid
   \   000009   EE           MOV       A,R6
   \   00000A   FA           MOV       R2,A
   \   00000B   EF           MOV       A,R7
   \   00000C   FB           MOV       R3,A
   \   00000D   12....       LCALL     `??__list_del_entry_valid::?relay`; Banked call to: __list_del_entry_valid
   \   000010   5017         JNC       ??__list_del_entry_1
   \   000012                ; Setup parameters for call to function __list_del
   \   000012   8E82         MOV       DPL,R6
   \   000014   8F83         MOV       DPH,R7
   \   000016   E0           MOVX      A,@DPTR
   \   000017   FC           MOV       R4,A
   \   000018   A3           INC       DPTR
   \   000019   E0           MOVX      A,@DPTR
   \   00001A   FD           MOV       R5,A
   \   00001B   8E82         MOV       DPL,R6
   \   00001D   8F83         MOV       DPH,R7
   \   00001F   A3           INC       DPTR
   \   000020   A3           INC       DPTR
   \   000021   E0           MOVX      A,@DPTR
   \   000022   FA           MOV       R2,A
   \   000023   A3           INC       DPTR
   \   000024   E0           MOVX      A,@DPTR
   \   000025   FB           MOV       R3,A
   \   000026   12....       LCALL     `??__list_del::?relay`; Banked call to: __list_del
   \                     ??__list_del_entry_1:
   \   000029   7F01         MOV       R7,#0x1
   \   00002B   02....       LJMP      ?BANKED_LEAVE_XDATA

   \                                 In  segment BANKED_CODE, align 1, keep-with-next
   \   static __banked_func __xdata_reentrant void list_del(struct list_head *)
   \                     ??list_del:
   \   000000   74F7         MOV       A,#-0x9
   \   000002   12....       LCALL     ?BANKED_ENTER_XDATA
   \   000005                ; Saved register size: 9
   \   000005                ; Auto size: 0
   \   000005   EA           MOV       A,R2
   \   000006   FE           MOV       R6,A
   \   000007   EB           MOV       A,R3
   \   000008   FF           MOV       R7,A
   \   000009                ; Setup parameters for call to function __list_del_entry
   \   000009   EE           MOV       A,R6
   \   00000A   FA           MOV       R2,A
   \   00000B   EF           MOV       A,R7
   \   00000C   FB           MOV       R3,A
   \   00000D   12....       LCALL     `??__list_del_entry::?relay`; Banked call to: __list_del_entry
   \   000010   8E82         MOV       DPL,R6
   \   000012   8F83         MOV       DPH,R7
   \   000014   7401         MOV       A,#0x1
   \   000016   F0           MOVX      @DPTR,A
   \   000017   A3           INC       DPTR
   \   000018   7401         MOV       A,#0x1
   \   00001A   F0           MOVX      @DPTR,A
   \   00001B   8E82         MOV       DPL,R6
   \   00001D   8F83         MOV       DPH,R7
   \   00001F   A3           INC       DPTR
   \   000020   A3           INC       DPTR
   \   000021   7402         MOV       A,#0x2
   \   000023   F0           MOVX      @DPTR,A
   \   000024   A3           INC       DPTR
   \   000025   7402         MOV       A,#0x2
   \   000027   F0           MOVX      @DPTR,A
   \   000028   7F01         MOV       R7,#0x1
   \   00002A   02....       LJMP      ?BANKED_LEAVE_XDATA

   \                                 In  segment BANKED_CODE, align 1, keep-with-next
   \   static __banked_func __xdata_reentrant int list_empty(struct list_head const *)
   \                     ??list_empty:
   \   000000   C082         PUSH      DPL
   \   000002   C083         PUSH      DPH
   \   000004                ; Saved register size: 2
   \   000004                ; Auto size: 0
   \   000004   8A82         MOV       DPL,R2
   \   000006   8B83         MOV       DPH,R3
   \   000008   E0           MOVX      A,@DPTR
   \   000009   F8           MOV       R0,A
   \   00000A   A3           INC       DPTR
   \   00000B   E0           MOVX      A,@DPTR
   \   00000C   F9           MOV       R1,A
   \   00000D   EA           MOV       A,R2
   \   00000E   68           XRL       A,R0
   \   00000F   7002         JNZ       ??list_empty_1
   \   000011   EB           MOV       A,R3
   \   000012   69           XRL       A,R1
   \                     ??list_empty_1:
   \   000013   7004         JNZ       ??list_empty_2
   \   000015   D2F0         SETB      B.0
   \   000017   8002         SJMP      ??list_empty_3
   \                     ??list_empty_2:
   \   000019   C2F0         CLR       B.0
   \                     ??list_empty_3:
   \   00001B   A2F0         MOV       C,B.0
   \   00001D   E4           CLR       A
   \   00001E   33           RLC       A
   \   00001F   FA           MOV       R2,A
   \   000020   7B00         MOV       R3,#0x0
   \   000022   D083         POP       DPH
   \   000024   D082         POP       DPL
   \   000026   02....       LJMP      ?BRET
      7          
      8          #include "action_manager.h"
      9          static void SW_Init(void);

   \                                 In  segment XDATA_I, align 1, keep-with-next
     10          module_s BF_MODULE = {ALIAS(SW_Init)};
   \                     BF_MODULE:
   \   000000                DS 12
   \   00000C                REQUIRE `?<Initializer for BF_MODULE>`
   \   00000C                REQUIRE __INIT_XDATA_I
     11          
     12          struct node {
     13            struct frame *frame;
     14            struct list_head list ;
     15          };
     16          

   \                                 In  segment XDATA_Z, align 1, keep-with-next
     17          static struct node NODE_LIST[MAX_TXRX_BUFF_SIZE];
   \                     ??NODE_LIST:
   \   000000                DS 120
   \   000078                REQUIRE __INIT_XDATA_Z

   \                                 In  segment XDATA_I, align 1, keep-with-next
     18          LIST_HEAD(TX_LIST_HEAD);
   \                     TX_LIST_HEAD:
   \   000000                DS 4
   \   000004                REQUIRE `?<Initializer for TX_LIST_HEAD>`
   \   000004                REQUIRE __INIT_XDATA_I

   \                                 In  segment XDATA_I, align 1, keep-with-next
     19          LIST_HEAD(RX_LIST_HEAD);
   \                     RX_LIST_HEAD:
   \   000000                DS 4
   \   000004                REQUIRE `?<Initializer for RX_LIST_HEAD>`
   \   000004                REQUIRE __INIT_XDATA_I

   \                                 In  segment XDATA_Z, align 1, keep-with-next
     20          static int TX_BUFF_FRAME_COUNT;
   \                     ??TX_BUFF_FRAME_COUNT:
   \   000000                DS 2
   \   000002                REQUIRE __INIT_XDATA_Z

   \                                 In  segment XDATA_Z, align 1, keep-with-next
     21          static int RX_BUFF_FRAME_COUNT;
   \                     ??RX_BUFF_FRAME_COUNT:
   \   000000                DS 2
   \   000002                REQUIRE __INIT_XDATA_Z
     22          

   \                                 In  segment BANKED_CODE, align 1, keep-with-next
     23          static void SW_Init(void){
   \                     ??SW_Init:
   \   000000   74F7         MOV       A,#-0x9
   \   000002   12....       LCALL     ?BANKED_ENTER_XDATA
   \   000005                ; Saved register size: 9
   \   000005                ; Auto size: 0
     24            TX_BUFF_FRAME_COUNT = 0;
   \   000005   90....       MOV       DPTR,#??TX_BUFF_FRAME_COUNT
   \   000008   7400         MOV       A,#0x0
   \   00000A   F0           MOVX      @DPTR,A
   \   00000B   A3           INC       DPTR
   \   00000C   7400         MOV       A,#0x0
   \   00000E   F0           MOVX      @DPTR,A
     25            RX_BUFF_FRAME_COUNT = 0;
   \   00000F   90....       MOV       DPTR,#??RX_BUFF_FRAME_COUNT
   \   000012   7400         MOV       A,#0x0
   \   000014   F0           MOVX      @DPTR,A
   \   000015   A3           INC       DPTR
   \   000016   7400         MOV       A,#0x0
   \   000018   F0           MOVX      @DPTR,A
     26            INIT_LIST_HEAD(&TX_LIST_HEAD);
   \   000019                ; Setup parameters for call to function INIT_LIST_HEAD
   \   000019   7A..         MOV       R2,#TX_LIST_HEAD & 0xff
   \   00001B   7B..         MOV       R3,#(TX_LIST_HEAD >> 8) & 0xff
   \   00001D   12....       LCALL     `??INIT_LIST_HEAD::?relay`; Banked call to: INIT_LIST_HEAD
     27            INIT_LIST_HEAD(&RX_LIST_HEAD);
   \   000020                ; Setup parameters for call to function INIT_LIST_HEAD
   \   000020   7A..         MOV       R2,#RX_LIST_HEAD & 0xff
   \   000022   7B..         MOV       R3,#(RX_LIST_HEAD >> 8) & 0xff
   \   000024   12....       LCALL     `??INIT_LIST_HEAD::?relay`; Banked call to: INIT_LIST_HEAD
     28            
     29            for_each_type(struct node, NODE_LIST, node){
   \   000027   7E..         MOV       R6,#??NODE_LIST & 0xff
   \   000029   7F..         MOV       R7,#(??NODE_LIST >> 8) & 0xff
   \                     ??SW_Init_6:
   \   00002B   C3           CLR       C
   \   00002C   EE           MOV       A,R6
   \   00002D   94..         SUBB      A,#(??NODE_LIST + 120) & 0xff
   \   00002F   EF           MOV       A,R7
   \   000030   94..         SUBB      A,#((??NODE_LIST + 120) >> 8) & 0xff
   \   000032   501E         JNC       ??SW_Init_7
     30              node->frame = NULL;
   \   000034   8E82         MOV       DPL,R6
   \   000036   8F83         MOV       DPH,R7
   \   000038   7400         MOV       A,#0x0
   \   00003A   F0           MOVX      @DPTR,A
   \   00003B   A3           INC       DPTR
   \   00003C   7400         MOV       A,#0x0
   \   00003E   F0           MOVX      @DPTR,A
     31              INIT_LIST_HEAD(&node->list);
   \   00003F                ; Setup parameters for call to function INIT_LIST_HEAD
   \   00003F   EE           MOV       A,R6
   \   000040   2402         ADD       A,#0x2
   \   000042   FA           MOV       R2,A
   \   000043   E4           CLR       A
   \   000044   3F           ADDC      A,R7
   \   000045   FB           MOV       R3,A
   \   000046   12....       LCALL     `??INIT_LIST_HEAD::?relay`; Banked call to: INIT_LIST_HEAD
     32            }
   \   000049   EE           MOV       A,R6
   \   00004A   2406         ADD       A,#0x6
   \   00004C   FE           MOV       R6,A
   \   00004D   50DC         JNC       ??SW_Init_6
   \   00004F   0F           INC       R7
   \   000050   80D9         SJMP      ??SW_Init_6
     33          };
   \                     ??SW_Init_7:
   \   000052   7F01         MOV       R7,#0x1
   \   000054   02....       LJMP      ?BANKED_LEAVE_XDATA
     34          

   \                                 In  segment BANKED_CODE, align 1, keep-with-next
     35          int BF_rx_busy(){
   \                     BF_rx_busy:
   \   000000   C082         PUSH      DPL
   \   000002   C083         PUSH      DPH
   \   000004                ; Saved register size: 2
   \   000004                ; Auto size: 0
     36            return RX_BUFF_FRAME_COUNT;
   \   000004   90....       MOV       DPTR,#??RX_BUFF_FRAME_COUNT
   \   000007   E0           MOVX      A,@DPTR
   \   000008   FA           MOV       R2,A
   \   000009   A3           INC       DPTR
   \   00000A   E0           MOVX      A,@DPTR
   \   00000B   FB           MOV       R3,A
   \   00000C   D083         POP       DPH
   \   00000E   D082         POP       DPL
   \   000010   02....       LJMP      ?BRET
     37          };
     38          

   \                                 In  segment BANKED_CODE, align 1, keep-with-next
     39          int BF_tx_busy(){
   \                     BF_tx_busy:
   \   000000   C082         PUSH      DPL
   \   000002   C083         PUSH      DPH
   \   000004                ; Saved register size: 2
   \   000004                ; Auto size: 0
     40            return TX_BUFF_FRAME_COUNT;
   \   000004   90....       MOV       DPTR,#??TX_BUFF_FRAME_COUNT
   \   000007   E0           MOVX      A,@DPTR
   \   000008   FA           MOV       R2,A
   \   000009   A3           INC       DPTR
   \   00000A   E0           MOVX      A,@DPTR
   \   00000B   FB           MOV       R3,A
   \   00000C   D083         POP       DPH
   \   00000E   D082         POP       DPL
   \   000010   02....       LJMP      ?BRET
     41          }
     42          

   \                                 In  segment BANKED_CODE, align 1, keep-with-next
     43          int BF_available(){
   \                     BF_available:
   \   000000                REQUIRE ?V0
   \   000000                REQUIRE ?V1
   \   000000   74F6         MOV       A,#-0xa
   \   000002   12....       LCALL     ?BANKED_ENTER_XDATA
   \   000005                ; Saved register size: 10
   \   000005                ; Auto size: 0
     44            int summ = RX_BUFF_FRAME_COUNT + TX_BUFF_FRAME_COUNT;
   \   000005   90....       MOV       DPTR,#??RX_BUFF_FRAME_COUNT
   \   000008   E0           MOVX      A,@DPTR
   \   000009   F8           MOV       R0,A
   \   00000A   A3           INC       DPTR
   \   00000B   E0           MOVX      A,@DPTR
   \   00000C   F9           MOV       R1,A
   \   00000D   90....       MOV       DPTR,#??TX_BUFF_FRAME_COUNT
   \   000010   E0           MOVX      A,@DPTR
   \   000011   28           ADD       A,R0
   \   000012   FE           MOV       R6,A
   \   000013   A3           INC       DPTR
   \   000014   E0           MOVX      A,@DPTR
   \   000015   39           ADDC      A,R1
   \   000016   FF           MOV       R7,A
     45            ASSERT(summ <= MAX_TXRX_BUFF_SIZE);
   \   000017   C3           CLR       C
   \   000018   EE           MOV       A,R6
   \   000019   9415         SUBB      A,#0x15
   \   00001B   EF           MOV       A,R7
   \   00001C   9400         SUBB      A,#0x0
   \   00001E   A2D2         MOV       C,0xD0 /* PSW */.2
   \   000020   65D0         XRL       A,PSW
   \   000022   33           RLC       A
   \   000023   4037         JC        ??BF_available_0
   \   000025                ; Setup parameters for call to function printf
   \   000025   75....       MOV       ?V0,#??__FUNCTION___9 & 0xff
   \   000028   75....       MOV       ?V1,#(??__FUNCTION___9 >> 8) & 0xff
   \   00002B   78..         MOV       R0,#?V0
   \   00002D   12....       LCALL     ?PUSH_XSTACK_I_TWO
   \   000030   75..2D       MOV       ?V0,#0x2d
   \   000033   75..00       MOV       ?V1,#0x0
   \   000036   78..         MOV       R0,#?V0
   \   000038   12....       LCALL     ?PUSH_XSTACK_I_TWO
   \   00003B   75....       MOV       ?V0,#`?<Constant "buffer.c">` & 0xff
   \   00003E   75....       MOV       ?V1,#(`?<Constant "buffer.c">` >> 8) & 0xff
   \   000041   78..         MOV       R0,#?V0
   \   000043   12....       LCALL     ?PUSH_XSTACK_I_TWO
   \   000046   7A..         MOV       R2,#`?<Constant "%s:%d:%s -> ">_2` & 0xff
   \   000048   7B..         MOV       R3,#(`?<Constant "%s:%d:%s -> ">_2` >> 8) & 0xff
   \   00004A   12....       LCALL     `??printf::?relay`; Banked call to: printf
   \   00004D   7406         MOV       A,#0x6
   \   00004F   12....       LCALL     ?DEALLOC_XSTACK8
   \   000052                ; Setup parameters for call to function printf
   \   000052   7A..         MOV       R2,#`?<Constant "\\"summ <= MAX_TXRX_BUF...">` & 0xff
   \   000054   7B..         MOV       R3,#(`?<Constant "\\"summ <= MAX_TXRX_BUF...">` >> 8) & 0xff
   \   000056   12....       LCALL     `??printf::?relay`; Banked call to: printf
   \   000059                ; Setup parameters for call to function DBG_CORE_HALT
   \   000059   12....       LCALL     `??DBG_CORE_HALT::?relay`; Banked call to: DBG_CORE_HALT
     46            return MAX_TXRX_BUFF_SIZE - summ;
   \                     ??BF_available_0:
   \   00005C   7414         MOV       A,#0x14
   \   00005E   C3           CLR       C
   \   00005F   9E           SUBB      A,R6
   \   000060   FA           MOV       R2,A
   \   000061   7400         MOV       A,#0x0
   \   000063   9F           SUBB      A,R7
   \   000064   FB           MOV       R3,A
   \   000065   7F02         MOV       R7,#0x2
   \   000067   02....       LJMP      ?BANKED_LEAVE_XDATA
     47          }
     48          

   \                                 In  segment BANKED_CODE, align 1, keep-with-next
     49          static inline struct node* find_free_node(void){
   \                     ??find_free_node:
   \   000000   74F7         MOV       A,#-0x9
   \   000002   12....       LCALL     ?BANKED_ENTER_XDATA
   \   000005                ; Saved register size: 9
   \   000005                ; Auto size: 0
     50            for_each_type(struct node, NODE_LIST, node)
   \   000005   7E..         MOV       R6,#??NODE_LIST & 0xff
   \   000007   7F..         MOV       R7,#(??NODE_LIST >> 8) & 0xff
   \                     ??find_free_node_1:
   \   000009   C3           CLR       C
   \   00000A   EE           MOV       A,R6
   \   00000B   94..         SUBB      A,#(??NODE_LIST + 120) & 0xff
   \   00000D   EF           MOV       A,R7
   \   00000E   94..         SUBB      A,#((??NODE_LIST + 120) >> 8) & 0xff
   \   000010   5026         JNC       ??find_free_node_2
     51              if (node->frame == NULL){
   \   000012   8E82         MOV       DPL,R6
   \   000014   8F83         MOV       DPH,R7
   \   000016   E0           MOVX      A,@DPTR
   \   000017   F8           MOV       R0,A
   \   000018   A3           INC       DPTR
   \   000019   E0           MOVX      A,@DPTR
   \   00001A   F9           MOV       R1,A
   \   00001B   E8           MOV       A,R0
   \   00001C   49           ORL       A,R1
   \   00001D   7010         JNZ       ??find_free_node_3
     52                INIT_LIST_HEAD(&node->list);
   \   00001F                ; Setup parameters for call to function INIT_LIST_HEAD
   \   00001F   EE           MOV       A,R6
   \   000020   2402         ADD       A,#0x2
   \   000022   FA           MOV       R2,A
   \   000023   E4           CLR       A
   \   000024   3F           ADDC      A,R7
   \   000025   FB           MOV       R3,A
   \   000026   12....       LCALL     `??INIT_LIST_HEAD::?relay`; Banked call to: INIT_LIST_HEAD
     53                return node;
   \   000029   EE           MOV       A,R6
   \   00002A   FA           MOV       R2,A
   \   00002B   EF           MOV       A,R7
   \   00002C   FB           MOV       R3,A
   \   00002D   800D         SJMP      ??find_free_node_4
     54              }
   \                     ??find_free_node_3:
   \   00002F   EE           MOV       A,R6
   \   000030   2406         ADD       A,#0x6
   \   000032   FE           MOV       R6,A
   \   000033   50D4         JNC       ??find_free_node_1
   \   000035   0F           INC       R7
   \   000036   80D1         SJMP      ??find_free_node_1
     55            return NULL;
   \                     ??find_free_node_2:
   \   000038   7A00         MOV       R2,#0x0
   \   00003A   7B00         MOV       R3,#0x0
   \                     ??find_free_node_4:
   \   00003C   7F01         MOV       R7,#0x1
   \   00003E   02....       LJMP      ?BANKED_LEAVE_XDATA
     56          };
     57          

   \                                 In  segment BANKED_CODE, align 1, keep-with-next
     58          static inline bool _push(struct list_head *list, struct frame *frame){
   \                     ??_push:
   \   000000                REQUIRE ?V0
   \   000000                REQUIRE ?V1
   \   000000                REQUIRE ?V2
   \   000000                REQUIRE ?V3
   \   000000                REQUIRE ?V4
   \   000000                REQUIRE ?V5
   \   000000   74F2         MOV       A,#-0xe
   \   000002   12....       LCALL     ?BANKED_ENTER_XDATA
   \   000005                ; Saved register size: 14
   \   000005                ; Auto size: 0
   \   000005   8A..         MOV       ?V2,R2
   \   000007   8B..         MOV       ?V3,R3
   \   000009   8C..         MOV       ?V0,R4
   \   00000B   8D..         MOV       ?V1,R5
     59            ASSERT(frame != NULL);
   \   00000D   E5..         MOV       A,?V0
   \   00000F   45..         ORL       A,?V1
   \   000011   7037         JNZ       ??_push_1
   \   000013                ; Setup parameters for call to function printf
   \   000013   75....       MOV       ?V4,#??__FUNCTION___10 & 0xff
   \   000016   75....       MOV       ?V5,#(??__FUNCTION___10 >> 8) & 0xff
   \   000019   78..         MOV       R0,#?V4
   \   00001B   12....       LCALL     ?PUSH_XSTACK_I_TWO
   \   00001E   75..3B       MOV       ?V4,#0x3b
   \   000021   75..00       MOV       ?V5,#0x0
   \   000024   78..         MOV       R0,#?V4
   \   000026   12....       LCALL     ?PUSH_XSTACK_I_TWO
   \   000029   75....       MOV       ?V4,#`?<Constant "buffer.c">` & 0xff
   \   00002C   75....       MOV       ?V5,#(`?<Constant "buffer.c">` >> 8) & 0xff
   \   00002F   78..         MOV       R0,#?V4
   \   000031   12....       LCALL     ?PUSH_XSTACK_I_TWO
   \   000034   7A..         MOV       R2,#`?<Constant "%s:%d:%s -> ">_2` & 0xff
   \   000036   7B..         MOV       R3,#(`?<Constant "%s:%d:%s -> ">_2` >> 8) & 0xff
   \   000038   12....       LCALL     `??printf::?relay`; Banked call to: printf
   \   00003B   7406         MOV       A,#0x6
   \   00003D   12....       LCALL     ?DEALLOC_XSTACK8
   \   000040                ; Setup parameters for call to function printf
   \   000040   7A..         MOV       R2,#`?<Constant "\\"frame != NULL\\" Faild...">` & 0xff
   \   000042   7B..         MOV       R3,#(`?<Constant "\\"frame != NULL\\" Faild...">` >> 8) & 0xff
   \   000044   12....       LCALL     `??printf::?relay`; Banked call to: printf
   \   000047                ; Setup parameters for call to function DBG_CORE_HALT
   \   000047   12....       LCALL     `??DBG_CORE_HALT::?relay`; Banked call to: DBG_CORE_HALT
     60            struct node *node = find_free_node();
   \                     ??_push_1:
   \   00004A                ; Setup parameters for call to function find_free_node
   \   00004A   12....       LCALL     `??find_free_node::?relay`; Banked call to: find_free_node
   \   00004D   8A..         MOV       ?V4,R2
   \   00004F   8B..         MOV       ?V5,R3
   \   000051   AE..         MOV       R6,?V4
   \   000053   AF..         MOV       R7,?V5
     61            if (!node) // Нет свободных мест
   \   000055   EE           MOV       A,R6
   \   000056   4F           ORL       A,R7
   \   000057   7003         JNZ       ??_push_2
     62              return false;
   \   000059   C3           CLR       C
   \   00005A   801A         SJMP      ??_push_3
     63            node->frame = frame;
   \                     ??_push_2:
   \   00005C   8E82         MOV       DPL,R6
   \   00005E   8F83         MOV       DPH,R7
   \   000060   E5..         MOV       A,?V0
   \   000062   F0           MOVX      @DPTR,A
   \   000063   A3           INC       DPTR
   \   000064   E5..         MOV       A,?V1
   \   000066   F0           MOVX      @DPTR,A
     64            list_add(&node->list , list);
   \   000067                ; Setup parameters for call to function list_add
   \   000067   AC..         MOV       R4,?V2
   \   000069   AD..         MOV       R5,?V3
   \   00006B   EE           MOV       A,R6
   \   00006C   2402         ADD       A,#0x2
   \   00006E   FA           MOV       R2,A
   \   00006F   E4           CLR       A
   \   000070   3F           ADDC      A,R7
   \   000071   FB           MOV       R3,A
   \   000072   12....       LCALL     `??list_add::?relay`; Banked call to: list_add
     65            return true;
   \   000075   D3           SETB      C
   \                     ??_push_3:
   \   000076   7F06         MOV       R7,#0x6
   \   000078   02....       LJMP      ?BANKED_LEAVE_XDATA
     66          };
     67          

   \                                 In  segment BANKED_CODE, align 1, keep-with-next
     68          bool BF_push_tx(struct frame *frame){
   \                     BF_push_tx:
   \   000000                REQUIRE ?V0
   \   000000   74F7         MOV       A,#-0x9
   \   000002   12....       LCALL     ?BANKED_ENTER_XDATA
   \   000005                ; Saved register size: 9
   \   000005                ; Auto size: 0
   \   000005   EA           MOV       A,R2
   \   000006   FE           MOV       R6,A
   \   000007   EB           MOV       A,R3
   \   000008   FF           MOV       R7,A
     69            bool res;
     70            ATOMIC_BLOCK_RESTORE{
   \   000009   A2AF         MOV       C,0xa8.7
   \   00000B   E4           CLR       A
   \   00000C   33           RLC       A
   \   00000D   F5..         MOV       ?V0,A
   \   00000F                ; Setup parameters for call to function __cli
   \   00000F   12....       LCALL     `??__cli::?relay_1`; Banked call to: __cli
   \   000012   E9           MOV       A,R1
   \   000013   F8           MOV       R0,A
   \                     ??BF_push_tx_0:
   \   000014   E8           MOV       A,R0
   \   000015   6027         JZ        ??BF_push_tx_1
     71              res = _push(&TX_LIST_HEAD, frame);
   \   000017                ; Setup parameters for call to function _push
   \   000017   EE           MOV       A,R6
   \   000018   FC           MOV       R4,A
   \   000019   EF           MOV       A,R7
   \   00001A   FD           MOV       R5,A
   \   00001B   7A..         MOV       R2,#TX_LIST_HEAD & 0xff
   \   00001D   7B..         MOV       R3,#(TX_LIST_HEAD >> 8) & 0xff
   \   00001F   12....       LCALL     `??_push::?relay`; Banked call to: _push
   \   000022   92..         MOV       ?VB.0,C
     72              if (res)
   \   000024   A2..         MOV       C,?VB.0
   \   000026   500C         JNC       ??BF_push_tx_2
     73                TX_BUFF_FRAME_COUNT++;
   \   000028   90....       MOV       DPTR,#??TX_BUFF_FRAME_COUNT
   \   00002B   E0           MOVX      A,@DPTR
   \   00002C   2401         ADD       A,#0x1
   \   00002E   F0           MOVX      @DPTR,A
   \   00002F   A3           INC       DPTR
   \   000030   E0           MOVX      A,@DPTR
   \   000031   3400         ADDC      A,#0x0
   \   000033   F0           MOVX      @DPTR,A
     74            };
   \                     ??BF_push_tx_2:
   \   000034   7800         MOV       R0,#0x0
   \   000036   E5..         MOV       A,?V0
   \   000038   A2E0         MOV       C,0xE0 /* A   */.0
   \   00003A   92AF         MOV       0xa8.7,C
   \   00003C   80D6         SJMP      ??BF_push_tx_0
     75            return res;
   \                     ??BF_push_tx_1:
   \   00003E   A2..         MOV       C,?VB.0
   \   000040   7F01         MOV       R7,#0x1
   \   000042   02....       LJMP      ?BANKED_LEAVE_XDATA
   \   000045                REQUIRE _A_IEN0
     76          };
     77          

   \                                 In  segment BANKED_CODE, align 1, keep-with-next
     78          bool BF_push_rx(struct frame *frame){
   \                     BF_push_rx:
   \   000000                REQUIRE ?V0
   \   000000   74F7         MOV       A,#-0x9
   \   000002   12....       LCALL     ?BANKED_ENTER_XDATA
   \   000005                ; Saved register size: 9
   \   000005                ; Auto size: 0
   \   000005   EA           MOV       A,R2
   \   000006   FE           MOV       R6,A
   \   000007   EB           MOV       A,R3
   \   000008   FF           MOV       R7,A
     79            bool res;
     80            ATOMIC_BLOCK_RESTORE{
   \   000009   A2AF         MOV       C,0xa8.7
   \   00000B   E4           CLR       A
   \   00000C   33           RLC       A
   \   00000D   F5..         MOV       ?V0,A
   \   00000F                ; Setup parameters for call to function __cli
   \   00000F   12....       LCALL     `??__cli::?relay_1`; Banked call to: __cli
   \   000012   E9           MOV       A,R1
   \   000013   F8           MOV       R0,A
   \                     ??BF_push_rx_0:
   \   000014   E8           MOV       A,R0
   \   000015   6027         JZ        ??BF_push_rx_1
     81              res = _push(&RX_LIST_HEAD, frame);
   \   000017                ; Setup parameters for call to function _push
   \   000017   EE           MOV       A,R6
   \   000018   FC           MOV       R4,A
   \   000019   EF           MOV       A,R7
   \   00001A   FD           MOV       R5,A
   \   00001B   7A..         MOV       R2,#RX_LIST_HEAD & 0xff
   \   00001D   7B..         MOV       R3,#(RX_LIST_HEAD >> 8) & 0xff
   \   00001F   12....       LCALL     `??_push::?relay`; Banked call to: _push
   \   000022   92..         MOV       ?VB.0,C
     82              if (res)
   \   000024   A2..         MOV       C,?VB.0
   \   000026   500C         JNC       ??BF_push_rx_2
     83                RX_BUFF_FRAME_COUNT++;
   \   000028   90....       MOV       DPTR,#??RX_BUFF_FRAME_COUNT
   \   00002B   E0           MOVX      A,@DPTR
   \   00002C   2401         ADD       A,#0x1
   \   00002E   F0           MOVX      @DPTR,A
   \   00002F   A3           INC       DPTR
   \   000030   E0           MOVX      A,@DPTR
   \   000031   3400         ADDC      A,#0x0
   \   000033   F0           MOVX      @DPTR,A
     84            };
   \                     ??BF_push_rx_2:
   \   000034   7800         MOV       R0,#0x0
   \   000036   E5..         MOV       A,?V0
   \   000038   A2E0         MOV       C,0xE0 /* A   */.0
   \   00003A   92AF         MOV       0xa8.7,C
   \   00003C   80D6         SJMP      ??BF_push_rx_0
     85            return res;
   \                     ??BF_push_rx_1:
   \   00003E   A2..         MOV       C,?VB.0
   \   000040   7F01         MOV       R7,#0x1
   \   000042   02....       LJMP      ?BANKED_LEAVE_XDATA
   \   000045                REQUIRE _A_IEN0
     86          };
     87          

   \                                 In  segment BANKED_CODE, align 1, keep-with-next
     88          void* BF_cursor_rx(void){
   \                     BF_cursor_rx:
   \   000000                REQUIRE ?V0
   \   000000                REQUIRE ?V1
   \   000000   74F6         MOV       A,#-0xa
   \   000002   12....       LCALL     ?BANKED_ENTER_XDATA
   \   000005                ; Saved register size: 10
   \   000005                ; Auto size: 0
     89            if (list_empty(&RX_LIST_HEAD)) 
   \   000005                ; Setup parameters for call to function list_empty
   \   000005   7A..         MOV       R2,#RX_LIST_HEAD & 0xff
   \   000007   7B..         MOV       R3,#(RX_LIST_HEAD >> 8) & 0xff
   \   000009   12....       LCALL     `??list_empty::?relay`; Banked call to: list_empty
   \   00000C   8A..         MOV       ?V0,R2
   \   00000E   8B..         MOV       ?V1,R3
   \   000010   E5..         MOV       A,?V0
   \   000012   45..         ORL       A,?V1
   \   000014   6006         JZ        ??BF_cursor_rx_0
     90              return NULL;
   \   000016   7A00         MOV       R2,#0x0
   \   000018   7B00         MOV       R3,#0x0
   \   00001A   802C         SJMP      ??BF_cursor_rx_1
     91            void *ret_val;
     92            ATOMIC_BLOCK_RESTORE{   
   \                     ??BF_cursor_rx_0:
   \   00001C   A2AF         MOV       C,0xa8.7
   \   00001E   E4           CLR       A
   \   00001F   33           RLC       A
   \   000020   F5..         MOV       ?V0,A
   \   000022                ; Setup parameters for call to function __cli
   \   000022   12....       LCALL     `??__cli::?relay_1`; Banked call to: __cli
   \   000025   E9           MOV       A,R1
   \   000026   F8           MOV       R0,A
   \                     ??BF_cursor_rx_2:
   \   000027   E8           MOV       A,R0
   \   000028   601A         JZ        ??BF_cursor_rx_3
     93              struct node *node = list_first_entry(&RX_LIST_HEAD, struct node, list);
   \   00002A   90....       MOV       DPTR,#RX_LIST_HEAD
   \   00002D   E0           MOVX      A,@DPTR
   \   00002E   24FE         ADD       A,#-0x2
   \   000030   F8           MOV       R0,A
   \   000031   A3           INC       DPTR
   \   000032   E0           MOVX      A,@DPTR
   \   000033   34FF         ADDC      A,#-0x1
   \   000035   F9           MOV       R1,A
     94              ret_val =  node;
   \   000036   E8           MOV       A,R0
   \   000037   FE           MOV       R6,A
   \   000038   E9           MOV       A,R1
   \   000039   FF           MOV       R7,A
     95            }
   \   00003A   7800         MOV       R0,#0x0
   \   00003C   E5..         MOV       A,?V0
   \   00003E   A2E0         MOV       C,0xE0 /* A   */.0
   \   000040   92AF         MOV       0xa8.7,C
   \   000042   80E3         SJMP      ??BF_cursor_rx_2
     96            return ret_val;
   \                     ??BF_cursor_rx_3:
   \   000044   EE           MOV       A,R6
   \   000045   FA           MOV       R2,A
   \   000046   EF           MOV       A,R7
   \   000047   FB           MOV       R3,A
   \                     ??BF_cursor_rx_1:
   \   000048   7F02         MOV       R7,#0x2
   \   00004A   02....       LJMP      ?BANKED_LEAVE_XDATA
   \   00004D                REQUIRE _A_IEN0
     97          }
     98          

   \                                 In  segment BANKED_CODE, align 1, keep-with-next
     99          void* BF_cursor_tx(void){
   \                     BF_cursor_tx:
   \   000000                REQUIRE ?V0
   \   000000                REQUIRE ?V1
   \   000000   74F6         MOV       A,#-0xa
   \   000002   12....       LCALL     ?BANKED_ENTER_XDATA
   \   000005                ; Saved register size: 10
   \   000005                ; Auto size: 0
    100            if (list_empty(&TX_LIST_HEAD)) 
   \   000005                ; Setup parameters for call to function list_empty
   \   000005   7A..         MOV       R2,#TX_LIST_HEAD & 0xff
   \   000007   7B..         MOV       R3,#(TX_LIST_HEAD >> 8) & 0xff
   \   000009   12....       LCALL     `??list_empty::?relay`; Banked call to: list_empty
   \   00000C   8A..         MOV       ?V0,R2
   \   00000E   8B..         MOV       ?V1,R3
   \   000010   E5..         MOV       A,?V0
   \   000012   45..         ORL       A,?V1
   \   000014   6006         JZ        ??BF_cursor_tx_0
    101              return NULL;
   \   000016   7A00         MOV       R2,#0x0
   \   000018   7B00         MOV       R3,#0x0
   \   00001A   802C         SJMP      ??BF_cursor_tx_1
    102            void *ret_val;
    103            ATOMIC_BLOCK_RESTORE{   
   \                     ??BF_cursor_tx_0:
   \   00001C   A2AF         MOV       C,0xa8.7
   \   00001E   E4           CLR       A
   \   00001F   33           RLC       A
   \   000020   F5..         MOV       ?V0,A
   \   000022                ; Setup parameters for call to function __cli
   \   000022   12....       LCALL     `??__cli::?relay_1`; Banked call to: __cli
   \   000025   E9           MOV       A,R1
   \   000026   F8           MOV       R0,A
   \                     ??BF_cursor_tx_2:
   \   000027   E8           MOV       A,R0
   \   000028   601A         JZ        ??BF_cursor_tx_3
    104              struct node *node = list_first_entry(&TX_LIST_HEAD, struct node, list);
   \   00002A   90....       MOV       DPTR,#TX_LIST_HEAD
   \   00002D   E0           MOVX      A,@DPTR
   \   00002E   24FE         ADD       A,#-0x2
   \   000030   F8           MOV       R0,A
   \   000031   A3           INC       DPTR
   \   000032   E0           MOVX      A,@DPTR
   \   000033   34FF         ADDC      A,#-0x1
   \   000035   F9           MOV       R1,A
    105              ret_val =  node;
   \   000036   E8           MOV       A,R0
   \   000037   FE           MOV       R6,A
   \   000038   E9           MOV       A,R1
   \   000039   FF           MOV       R7,A
    106            }
   \   00003A   7800         MOV       R0,#0x0
   \   00003C   E5..         MOV       A,?V0
   \   00003E   A2E0         MOV       C,0xE0 /* A   */.0
   \   000040   92AF         MOV       0xa8.7,C
   \   000042   80E3         SJMP      ??BF_cursor_tx_2
    107            return ret_val;
   \                     ??BF_cursor_tx_3:
   \   000044   EE           MOV       A,R6
   \   000045   FA           MOV       R2,A
   \   000046   EF           MOV       A,R7
   \   000047   FB           MOV       R3,A
   \                     ??BF_cursor_tx_1:
   \   000048   7F02         MOV       R7,#0x2
   \   00004A   02....       LJMP      ?BANKED_LEAVE_XDATA
   \   00004D                REQUIRE _A_IEN0
    108          }  
    109          

   \                                 In  segment BANKED_CODE, align 1, keep-with-next
    110          void* BF_cursor_next(void* cursor){
   \                     BF_cursor_next:
   \   000000                REQUIRE ?V0
   \   000000                REQUIRE ?V1
   \   000000                REQUIRE ?V2
   \   000000   74F5         MOV       A,#-0xb
   \   000002   12....       LCALL     ?BANKED_ENTER_XDATA
   \   000005                ; Saved register size: 11
   \   000005                ; Auto size: 0
   \   000005   8A..         MOV       ?V0,R2
   \   000007   8B..         MOV       ?V1,R3
    111            if (!cursor)
   \   000009   E5..         MOV       A,?V0
   \   00000B   45..         ORL       A,?V1
   \   00000D   7006         JNZ       ??BF_cursor_next_0
    112              return NULL;
   \   00000F   7A00         MOV       R2,#0x0
   \   000011   7B00         MOV       R3,#0x0
   \   000013   8041         SJMP      ??BF_cursor_next_1
    113            void *ret_val;
    114            ATOMIC_BLOCK_RESTORE{  
   \                     ??BF_cursor_next_0:
   \   000015   A2AF         MOV       C,0xa8.7
   \   000017   E4           CLR       A
   \   000018   33           RLC       A
   \   000019   F5..         MOV       ?V2,A
   \   00001B                ; Setup parameters for call to function __cli
   \   00001B   12....       LCALL     `??__cli::?relay_1`; Banked call to: __cli
   \   00001E   E9           MOV       A,R1
   \   00001F   F8           MOV       R0,A
   \                     ??BF_cursor_next_2:
   \   000020   E8           MOV       A,R0
   \   000021   602F         JZ        ??BF_cursor_next_3
    115              struct node *node = (struct node*)(cursor);
   \   000023   A8..         MOV       R0,?V0
   \   000025   A9..         MOV       R1,?V1
    116              struct node *next = list_next_entry(node, struct node, list);
   \   000027   8882         MOV       DPL,R0
   \   000029   8983         MOV       DPH,R1
   \   00002B   A3           INC       DPTR
   \   00002C   A3           INC       DPTR
   \   00002D   E0           MOVX      A,@DPTR
   \   00002E   24FE         ADD       A,#-0x2
   \   000030   FA           MOV       R2,A
   \   000031   A3           INC       DPTR
   \   000032   E0           MOVX      A,@DPTR
   \   000033   34FF         ADDC      A,#-0x1
   \   000035   FB           MOV       R3,A
    117              if (node == next)
   \   000036   EA           MOV       A,R2
   \   000037   68           XRL       A,R0
   \   000038   7002         JNZ       ??BF_cursor_next_4
   \   00003A   EB           MOV       A,R3
   \   00003B   69           XRL       A,R1
   \                     ??BF_cursor_next_4:
   \   00003C   7006         JNZ       ??BF_cursor_next_5
    118                ret_val = NULL;
   \   00003E   7E00         MOV       R6,#0x0
   \   000040   7F00         MOV       R7,#0x0
   \   000042   8004         SJMP      ??BF_cursor_next_6
    119              else 
    120                ret_val = next;
   \                     ??BF_cursor_next_5:
   \   000044   EA           MOV       A,R2
   \   000045   FE           MOV       R6,A
   \   000046   EB           MOV       A,R3
   \   000047   FF           MOV       R7,A
    121            }
   \                     ??BF_cursor_next_6:
   \   000048   7800         MOV       R0,#0x0
   \   00004A   E5..         MOV       A,?V2
   \   00004C   A2E0         MOV       C,0xE0 /* A   */.0
   \   00004E   92AF         MOV       0xa8.7,C
   \   000050   80CE         SJMP      ??BF_cursor_next_2
    122            return ret_val;
   \                     ??BF_cursor_next_3:
   \   000052   EE           MOV       A,R6
   \   000053   FA           MOV       R2,A
   \   000054   EF           MOV       A,R7
   \   000055   FB           MOV       R3,A
   \                     ??BF_cursor_next_1:
   \   000056   7F03         MOV       R7,#0x3
   \   000058   02....       LJMP      ?BANKED_LEAVE_XDATA
   \   00005B                REQUIRE _A_IEN0
    123          }
    124          

   \                                 In  segment BANKED_CODE, align 1, keep-with-next
    125          bool BF_remove(void *cursor){
   \                     BF_remove:
   \   000000                REQUIRE ?V0
   \   000000                REQUIRE ?V1
   \   000000                REQUIRE ?V2
   \   000000   74F5         MOV       A,#-0xb
   \   000002   12....       LCALL     ?BANKED_ENTER_XDATA
   \   000005                ; Saved register size: 11
   \   000005                ; Auto size: 0
   \   000005   8A..         MOV       ?V0,R2
   \   000007   8B..         MOV       ?V1,R3
    126            if (!cursor)
   \   000009   E5..         MOV       A,?V0
   \   00000B   45..         ORL       A,?V1
   \   00000D   7003         JNZ       ??BF_remove_0
    127              return false;
   \   00000F   C3           CLR       C
   \   000010   803E         SJMP      ??BF_remove_1
    128            ATOMIC_BLOCK_RESTORE{
   \                     ??BF_remove_0:
   \   000012   A2AF         MOV       C,0xa8.7
   \   000014   E4           CLR       A
   \   000015   33           RLC       A
   \   000016   F5..         MOV       ?V2,A
   \   000018                ; Setup parameters for call to function __cli
   \   000018   12....       LCALL     `??__cli::?relay_1`; Banked call to: __cli
   \   00001B   E9           MOV       A,R1
   \   00001C   F8           MOV       R0,A
   \                     ??BF_remove_2:
   \   00001D   E8           MOV       A,R0
   \   00001E   602F         JZ        ??BF_remove_3
    129              struct node *node = (struct node*)(cursor);    
   \   000020   AE..         MOV       R6,?V0
   \   000022   AF..         MOV       R7,?V1
    130              node->frame = NULL;
   \   000024   8E82         MOV       DPL,R6
   \   000026   8F83         MOV       DPH,R7
   \   000028   7400         MOV       A,#0x0
   \   00002A   F0           MOVX      @DPTR,A
   \   00002B   A3           INC       DPTR
   \   00002C   7400         MOV       A,#0x0
   \   00002E   F0           MOVX      @DPTR,A
    131              list_del(&node->list);    
   \   00002F                ; Setup parameters for call to function list_del
   \   00002F   EE           MOV       A,R6
   \   000030   2402         ADD       A,#0x2
   \   000032   FA           MOV       R2,A
   \   000033   E4           CLR       A
   \   000034   3F           ADDC      A,R7
   \   000035   FB           MOV       R3,A
   \   000036   12....       LCALL     `??list_del::?relay`; Banked call to: list_del
    132              TX_BUFF_FRAME_COUNT--; 
   \   000039   90....       MOV       DPTR,#??TX_BUFF_FRAME_COUNT
   \   00003C   E0           MOVX      A,@DPTR
   \   00003D   24FF         ADD       A,#-0x1
   \   00003F   F0           MOVX      @DPTR,A
   \   000040   A3           INC       DPTR
   \   000041   E0           MOVX      A,@DPTR
   \   000042   34FF         ADDC      A,#-0x1
   \   000044   F0           MOVX      @DPTR,A
    133            };  
   \   000045   7800         MOV       R0,#0x0
   \   000047   E5..         MOV       A,?V2
   \   000049   A2E0         MOV       C,0xE0 /* A   */.0
   \   00004B   92AF         MOV       0xa8.7,C
   \   00004D   80CE         SJMP      ??BF_remove_2
    134            return true;
   \                     ??BF_remove_3:
   \   00004F   D3           SETB      C
   \                     ??BF_remove_1:
   \   000050   7F03         MOV       R7,#0x3
   \   000052   02....       LJMP      ?BANKED_LEAVE_XDATA
   \   000055                REQUIRE _A_IEN0
    135          }
    136          

   \                                 In  segment BANKED_CODE, align 1, keep-with-next
    137          struct frame* BF_content(void* cursor){
   \                     BF_content:
   \   000000   C082         PUSH      DPL
   \   000002   C083         PUSH      DPH
   \   000004                ; Saved register size: 2
   \   000004                ; Auto size: 0
   \   000004   EA           MOV       A,R2
   \   000005   F8           MOV       R0,A
   \   000006   EB           MOV       A,R3
   \   000007   F9           MOV       R1,A
    138            if (!cursor)
   \   000008   E8           MOV       A,R0
   \   000009   49           ORL       A,R1
   \   00000A   7006         JNZ       ??BF_content_0
    139              return NULL;
   \   00000C   7A00         MOV       R2,#0x0
   \   00000E   7B00         MOV       R3,#0x0
   \   000010   8009         SJMP      ??BF_content_1
    140            struct node *node = (struct node*)(cursor);
   \                     ??BF_content_0:
   \   000012   8882         MOV       DPL,R0
   \   000014   8983         MOV       DPH,R1
    141            return node->frame;
   \   000016   E0           MOVX      A,@DPTR
   \   000017   FA           MOV       R2,A
   \   000018   A3           INC       DPTR
   \   000019   E0           MOVX      A,@DPTR
   \   00001A   FB           MOV       R3,A
   \                     ??BF_content_1:
   \   00001B   D083         POP       DPH
   \   00001D   D082         POP       DPL
   \   00001F   02....       LJMP      ?BRET
    142          }
E:\WMNU\IAR_NEW_ARCH\STACK_CORE_SRC\coder.c
      1          #include "coder.h"
      2          #include "ioCC2530.h"
      3          #include "string.h"
      4          #include "ustimer.h" // Для профилирования, Отладка
      5          #include "dma.h"
      6          #include "action_manager.h"
      7          #include "model.h"
      8          
      9          static void HW_Init(void);

   \                                 In  segment XDATA_I, align 1, keep-with-next
     10          module_s CODER_MODULE = {ALIAS(HW_Init)};
   \                     CODER_MODULE:
   \   000000                DS 12
   \   00000C                REQUIRE `?<Initializer for CODER_MODULE>`
   \   00000C                REQUIRE __INIT_XDATA_I
     11          
     12          #define AES_START()  {ENCCS |= 0x01;} //!< Запуск выполнения команды  
     13          #define AES_SET_MODE(mode) {ENCCS &= ~0x70; ENCCS |= mode;} //!< Установка режима
     14          #define AES_SET_OPERATION(op) {ENCCS = (ENCCS & ~0x07) | op;} 
     15          #define AES_RDY() (ENCCS & 8) //!< Состояние модуля
     16          
     17          #define BV(n)                   (1 << (n))
     18          #define MIC_2_MICLEN(m)         (BV((m&3)+1) & ~3)
     19          
     20          // Режимы шифрования
     21          #define AES_MODE_CBC            0x00
     22          #define AES_MODE_CFB            0x10
     23          #define AES_MODE_OFB            0x20
     24          #define AES_MODE_CTR            0x30
     25          #define AES_MODE_ECB            0x40
     26          #define AES_MODE_CBCMAC         0x50
     27          
     28          // Операции 
     29          #define AES_ENCRYPT             0x00
     30          #define AES_DECRYPT             0x02
     31          #define AES_LOAD_KEY            0x04
     32          #define AES_LOAD_IV             0x06
     33          
     34          #define ENC_DW 29 // DMA AES тригер запрос загрузки
     35          #define ENC_UP 30 // DMA AES тригер запрос выгрузки
     36          
     37          #define STREAM_ENC_MODE     AES_MODE_OFB //!< Метод шифрования потока данных
     38          
     39          
     40          // Приватные функции
     41          static inline uint8_t generateAuthData(uint8_t *src, uint8_t *nonce, uint8_t c,
     42                                                 uint8_t f, uint8_t lm);
     43          static void CBCMAC_buf_encrypt(uint8_t len, uint8_t *key, uint8_t *mac);
     44          
     45          /**
     46          @brief Локальный буфер для работы режима CCM
     47          @detail 128 длина сообщения. 18 длинна блока B0 и строки состояния.
     48           16 длина дополнения нулями
     49          */

   \                                 In  segment XDATA_Z, align 1, keep-with-next
     50          static uint8_t buf[128+18+16]; 
   \                     ??buf:
   \   000000                DS 162
   \   0000A2                REQUIRE __INIT_XDATA_Z
     51          
     52          
     53          typedef struct //!< Структура блока B0 для режима CCM
     54          {
     55            struct 
     56            {
     57              uint8_t L:3;
     58              uint8_t M:3;
     59              uint8_t A_Data:1;
     60            } flag;
     61            uint16_t nonce[9];
     62            uint8_t L_M[6];
     63          } __attribute__((packed)) B0_s;
     64          
     65          typedef struct //!< Структура блока A0 для режима CCM
     66          {
     67            struct 
     68            {
     69              uint8_t L:3;
     70            } flag;
     71            uint8_t nonce[11];
     72            uint8_t ctr;
     73          } __attribute__((packed)) A0_s;
     74          
     75          
     76          
     77          /**
     78          @brief Иницилизация модуля
     79          @detail Модуль использует DMA каналы 0 и 1
     80          */

   \                                 In  segment BANKED_CODE, align 1, keep-with-next
     81          void HW_Init(void)
   \                     ??HW_Init_1:
     82          {
   \   000000   C082         PUSH      DPL
   \   000002   C083         PUSH      DPH
   \   000004                ; Saved register size: 2
   \   000004                ; Auto size: 0
     83            //DMA_AES_s DMA_CH[0]; //!< DMA на запись будет DMA[0]
     84            //DMA_AES_s DMA_CH[1]; //!< DMA на чтение DMA_CH[1]
     85            
     86            ST_DEF(DMA_CH[0], DSTADDRH, 0x70); // Пишем данные XENCDI = 0xB1 
   \   000004   90....       MOV       DPTR,#DMA_CH + 2
   \   000007   7470         MOV       A,#0x70
   \   000009   F0           MOVX      @DPTR,A
     87            ST_DEF(DMA_CH[0], DSTADDRL, 0xB1); //  
   \   00000A   90....       MOV       DPTR,#DMA_CH + 3
   \   00000D   74B1         MOV       A,#-0x4f
   \   00000F   F0           MOVX      @DPTR,A
     88            ST_DEF(DMA_CH[0], PRIORITY, 0x00); // Низкий приоритет
   \   000010   90....       MOV       DPTR,#DMA_CH + 7
   \   000013   E0           MOVX      A,@DPTR
   \   000014   54FC         ANL       A,#0xfc
   \   000016   F0           MOVX      @DPTR,A
     89            ST_DEF(DMA_CH[0], M8, 0x00); // Используем 8 бит для счетика длинны
   \   000017   90....       MOV       DPTR,#DMA_CH + 7
   \   00001A   E0           MOVX      A,@DPTR
   \   00001B   C2E2         CLR       0xE0 /* A   */.2
   \   00001D   F0           MOVX      @DPTR,A
     90            ST_DEF(DMA_CH[0], IRQMASK, 0x00); // Запрещаем генерировать перывания
   \   00001E   90....       MOV       DPTR,#DMA_CH + 7
   \   000021   E0           MOVX      A,@DPTR
   \   000022   C2E3         CLR       0xE0 /* A   */.3
   \   000024   F0           MOVX      @DPTR,A
     91            ST_DEF(DMA_CH[0], DESTINC, 0x00); // Не увеличиваем адресс назначения
   \   000025   90....       MOV       DPTR,#DMA_CH + 7
   \   000028   E0           MOVX      A,@DPTR
   \   000029   54CF         ANL       A,#0xcf
   \   00002B   F0           MOVX      @DPTR,A
     92            ST_DEF(DMA_CH[0], SRCINC, 0x01); // Увеличиваем адресс источника
   \   00002C   90....       MOV       DPTR,#DMA_CH + 7
   \   00002F   E0           MOVX      A,@DPTR
   \   000030   543F         ANL       A,#0x3f
   \   000032   4440         ORL       A,#0x40
   \   000034   90....       MOV       DPTR,#DMA_CH + 7
   \   000037   F0           MOVX      @DPTR,A
     93            ST_DEF(DMA_CH[0], TRIG, ENC_DW); // Тригер по загрузке
   \   000038   90....       MOV       DPTR,#DMA_CH + 6
   \   00003B   E0           MOVX      A,@DPTR
   \   00003C   54E0         ANL       A,#0xe0
   \   00003E   441D         ORL       A,#0x1d
   \   000040   90....       MOV       DPTR,#DMA_CH + 6
   \   000043   F0           MOVX      @DPTR,A
     94            ST_DEF(DMA_CH[0], WORDSIZE, 0x00); // Копируем по 1 байту
   \   000044   90....       MOV       DPTR,#DMA_CH + 6
   \   000047   E0           MOVX      A,@DPTR
   \   000048   C2E7         CLR       0xE0 /* A   */.7
   \   00004A   F0           MOVX      @DPTR,A
     95            ST_DEF(DMA_CH[0], TMODE, 0x01); //  Блочное копирование по тригеру
   \   00004B   90....       MOV       DPTR,#DMA_CH + 6
   \   00004E   E0           MOVX      A,@DPTR
   \   00004F   549F         ANL       A,#0x9f
   \   000051   4420         ORL       A,#0x20
   \   000053   90....       MOV       DPTR,#DMA_CH + 6
   \   000056   F0           MOVX      @DPTR,A
     96            ST_DEF(DMA_CH[0], VLEN, 0x00); //  Количество байт определяет поле LEN  
   \   000057   90....       MOV       DPTR,#DMA_CH + 4
   \   00005A   E0           MOVX      A,@DPTR
   \   00005B   541F         ANL       A,#0x1f
   \   00005D   F0           MOVX      @DPTR,A
     97            ST_DEF(DMA_CH[0], LENH, 0x00); 
   \   00005E   90....       MOV       DPTR,#DMA_CH + 4
   \   000061   E0           MOVX      A,@DPTR
   \   000062   54E0         ANL       A,#0xe0
   \   000064   F0           MOVX      @DPTR,A
     98            
     99            ST_DEF(DMA_CH[1], SRCADDRH, 0x70); // Читаем данные из X_ENCDO  
   \   000065   90....       MOV       DPTR,#DMA_CH + 8
   \   000068   7470         MOV       A,#0x70
   \   00006A   F0           MOVX      @DPTR,A
    100            ST_DEF(DMA_CH[1], SRCADDRL, 0xB2);  
   \   00006B   90....       MOV       DPTR,#DMA_CH + 9
   \   00006E   74B2         MOV       A,#-0x4e
   \   000070   F0           MOVX      @DPTR,A
    101            ST_DEF(DMA_CH[1], PRIORITY, 0x00); // Низкий приоритет
   \   000071   90....       MOV       DPTR,#DMA_CH + 15
   \   000074   E0           MOVX      A,@DPTR
   \   000075   54FC         ANL       A,#0xfc
   \   000077   F0           MOVX      @DPTR,A
    102            ST_DEF(DMA_CH[1], M8, 0x00); // Используем 8 бит для счетика длинны
   \   000078   90....       MOV       DPTR,#DMA_CH + 15
   \   00007B   E0           MOVX      A,@DPTR
   \   00007C   C2E2         CLR       0xE0 /* A   */.2
   \   00007E   F0           MOVX      @DPTR,A
    103            ST_DEF(DMA_CH[1], IRQMASK, 0x00); // Запрещаем генерировать перывания
   \   00007F   90....       MOV       DPTR,#DMA_CH + 15
   \   000082   E0           MOVX      A,@DPTR
   \   000083   C2E3         CLR       0xE0 /* A   */.3
   \   000085   F0           MOVX      @DPTR,A
    104            ST_DEF(DMA_CH[1], DESTINC, 0x01); // Увеличиваем адресс назначения
   \   000086   90....       MOV       DPTR,#DMA_CH + 15
   \   000089   E0           MOVX      A,@DPTR
   \   00008A   54CF         ANL       A,#0xcf
   \   00008C   4410         ORL       A,#0x10
   \   00008E   90....       MOV       DPTR,#DMA_CH + 15
   \   000091   F0           MOVX      @DPTR,A
    105            ST_DEF(DMA_CH[1], SRCINC, 0x00); // Не увеличиваем адресс источника
   \   000092   90....       MOV       DPTR,#DMA_CH + 15
   \   000095   E0           MOVX      A,@DPTR
   \   000096   543F         ANL       A,#0x3f
   \   000098   F0           MOVX      @DPTR,A
    106            ST_DEF(DMA_CH[1], TRIG, ENC_UP); // Тригер по выгрузке
   \   000099   90....       MOV       DPTR,#DMA_CH + 14
   \   00009C   E0           MOVX      A,@DPTR
   \   00009D   54E0         ANL       A,#0xe0
   \   00009F   441E         ORL       A,#0x1e
   \   0000A1   90....       MOV       DPTR,#DMA_CH + 14
   \   0000A4   F0           MOVX      @DPTR,A
    107            ST_DEF(DMA_CH[1], WORDSIZE, 0x00); // Копируем по 1 байту
   \   0000A5   90....       MOV       DPTR,#DMA_CH + 14
   \   0000A8   E0           MOVX      A,@DPTR
   \   0000A9   C2E7         CLR       0xE0 /* A   */.7
   \   0000AB   F0           MOVX      @DPTR,A
    108            ST_DEF(DMA_CH[1], TMODE, 0x01); //  Блочное копирование по тригеру
   \   0000AC   90....       MOV       DPTR,#DMA_CH + 14
   \   0000AF   E0           MOVX      A,@DPTR
   \   0000B0   549F         ANL       A,#0x9f
   \   0000B2   4420         ORL       A,#0x20
   \   0000B4   90....       MOV       DPTR,#DMA_CH + 14
   \   0000B7   F0           MOVX      @DPTR,A
    109            ST_DEF(DMA_CH[1], VLEN, 0x00); //  Количество байт определяет поле LEN  
   \   0000B8   90....       MOV       DPTR,#DMA_CH + 12
   \   0000BB   E0           MOVX      A,@DPTR
   \   0000BC   541F         ANL       A,#0x1f
   \   0000BE   F0           MOVX      @DPTR,A
    110            ST_DEF(DMA_CH[1], LENH, 0x00); 
   \   0000BF   90....       MOV       DPTR,#DMA_CH + 12
   \   0000C2   E0           MOVX      A,@DPTR
   \   0000C3   54E0         ANL       A,#0xe0
   \   0000C5   F0           MOVX      @DPTR,A
    111          }
   \   0000C6   D083         POP       DPH
   \   0000C8   D082         POP       DPL
   \   0000CA   02....       LJMP      ?BRET
    112          
    113          /**
    114          @brief Шифрует/дешифрует поток данных во время радиопередачи. Без проверки MIC
    115          @param[in] enc_mode Режим работы процедуры. true - шифрование.
    116          @param[in] src Указатель на данные подлежащии шифрованию
    117          @param[in] dst Указтель куда будут помещены зашифрованные данные
    118          @param[in] key Указатье на ключ. 16 байт
    119          @param[in] iv  Указатель на вектор иницилизации. 16 байт 
    120          @param[in] len Длинна данных
    121          */

   \                                 In  segment BANKED_CODE, align 1, keep-with-next
    122          void AES_StreamCoder(bool enc_mode, uint8_t *src, uint8_t *dst, uint8_t len)
   \                     AES_StreamCoder:
    123          {
   \   000000                REQUIRE ?V0
   \   000000                REQUIRE ?V1
   \   000000                REQUIRE ?V2
   \   000000                REQUIRE ?V3
   \   000000                REQUIRE ?V4
   \   000000                REQUIRE ?V5
   \   000000                REQUIRE ?V6
   \   000000   74F1         MOV       A,#-0xf
   \   000002   12....       LCALL     ?BANKED_ENTER_XDATA
   \   000005                ; Saved register size: 15
   \   000005                ; Auto size: 26
   \   000005   74E6         MOV       A,#-0x1a
   \   000007   12....       LCALL     ?ALLOC_XSTACK8
   \   00000A   7408         MOV       A,#0x8
   \   00000C   12....       LCALL     ?XSTACK_DISP0_8
   \   00000F   EA           MOV       A,R2
   \   000010   F0           MOVX      @DPTR,A
   \   000011   A3           INC       DPTR
   \   000012   EB           MOV       A,R3
   \   000013   F0           MOVX      @DPTR,A
   \   000014   7406         MOV       A,#0x6
   \   000016   12....       LCALL     ?XSTACK_DISP0_8
   \   000019   EC           MOV       A,R4
   \   00001A   F0           MOVX      @DPTR,A
   \   00001B   A3           INC       DPTR
   \   00001C   ED           MOV       A,R5
   \   00001D   F0           MOVX      @DPTR,A
   \   00001E   A2F0         MOV       C,B.0
   \   000020   92..         MOV       ?VB.0,C
   \   000022   89..         MOV       ?V6,R1
    124            // Установим метод кодироваения
    125            AES_SET_MODE(STREAM_ENC_MODE);
   \   000024   53B38F       ANL       0xb3,#0x8f
   \   000027   43B320       ORL       0xb3,#0x20
    126            uint8_t *key = (uint8_t*)MODEL.AES.STREAM_KEY;  
   \   00002A   7404         MOV       A,#0x4
   \   00002C   12....       LCALL     ?XSTACK_DISP0_8
   \   00002F   74..         MOV       A,#(MODEL + 12) & 0xff
   \   000031   F0           MOVX      @DPTR,A
   \   000032   A3           INC       DPTR
   \   000033   74..         MOV       A,#((MODEL + 12) >> 8) & 0xff
   \   000035   F0           MOVX      @DPTR,A
    127            uint8_t *iv = (uint8_t*)MODEL.AES.STREAM_IV; 
   \   000036   7402         MOV       A,#0x2
   \   000038   12....       LCALL     ?XSTACK_DISP0_8
   \   00003B   74..         MOV       A,#(MODEL + 28) & 0xff
   \   00003D   F0           MOVX      @DPTR,A
   \   00003E   A3           INC       DPTR
   \   00003F   74..         MOV       A,#((MODEL + 28) >> 8) & 0xff
   \   000041   F0           MOVX      @DPTR,A
    128            // Загружаем ключ
    129            AES_SET_OPERATION(AES_LOAD_KEY);
   \   000042   E5B3         MOV       A,0xb3
   \   000044   54F8         ANL       A,#0xf8
   \   000046   4404         ORL       A,#0x4
   \   000048   F5B3         MOV       0xb3,A
    130            ST_DEF(DMA_CH[0], SRCADDRL, LADDR(key));
   \   00004A   7404         MOV       A,#0x4
   \   00004C   12....       LCALL     ?XSTACK_DISP0_8
   \   00004F   E0           MOVX      A,@DPTR
   \   000050   F8           MOV       R0,A
   \   000051   A3           INC       DPTR
   \   000052   E0           MOVX      A,@DPTR
   \   000053   F9           MOV       R1,A
   \   000054   E8           MOV       A,R0
   \   000055   90....       MOV       DPTR,#DMA_CH + 1
   \   000058   F0           MOVX      @DPTR,A
    131            ST_DEF(DMA_CH[0], SRCADDRH, HADDR(key));
   \   000059   7404         MOV       A,#0x4
   \   00005B   12....       LCALL     ?XSTACK_DISP0_8
   \   00005E   E0           MOVX      A,@DPTR
   \   00005F   F8           MOV       R0,A
   \   000060   A3           INC       DPTR
   \   000061   E0           MOVX      A,@DPTR
   \   000062   F9           MOV       R1,A
   \   000063   E4           CLR       A
   \   000064   C9           XCH       A,R1
   \   000065   F8           MOV       R0,A
   \   000066   E8           MOV       A,R0
   \   000067   90....       MOV       DPTR,#DMA_CH
   \   00006A   F0           MOVX      @DPTR,A
    132            ST_DEF(DMA_CH[0], LENL, 16);
   \   00006B   90....       MOV       DPTR,#DMA_CH + 5
   \   00006E   7410         MOV       A,#0x10
   \   000070   F0           MOVX      @DPTR,A
    133            DMAARM |= 0x01;
   \   000071   43D601       ORL       0xd6,#0x1
    134            while(!AES_RDY());
   \                     ??AES_StreamCoder_0:
   \   000074   E5B3         MOV       A,0xb3
   \   000076   A2E3         MOV       C,0xE0 /* A   */.3
   \   000078   50FA         JNC       ??AES_StreamCoder_0
    135            AES_START();
   \   00007A   43B301       ORL       0xb3,#0x1
    136            while (DMAARM&0x01);
   \                     ??AES_StreamCoder_1:
   \   00007D   E5D6         MOV       A,0xd6
   \   00007F   A2E0         MOV       C,0xE0 /* A   */.0
   \   000081   40FA         JC        ??AES_StreamCoder_1
    137          
    138            // Загружаем IV
    139            AES_SET_OPERATION(AES_LOAD_IV);
   \   000083   E5B3         MOV       A,0xb3
   \   000085   54F8         ANL       A,#0xf8
   \   000087   4406         ORL       A,#0x6
   \   000089   F5B3         MOV       0xb3,A
    140            ST_DEF(DMA_CH[0], SRCADDRL, LADDR(iv));
   \   00008B   7402         MOV       A,#0x2
   \   00008D   12....       LCALL     ?XSTACK_DISP0_8
   \   000090   E0           MOVX      A,@DPTR
   \   000091   F8           MOV       R0,A
   \   000092   A3           INC       DPTR
   \   000093   E0           MOVX      A,@DPTR
   \   000094   F9           MOV       R1,A
   \   000095   E8           MOV       A,R0
   \   000096   90....       MOV       DPTR,#DMA_CH + 1
   \   000099   F0           MOVX      @DPTR,A
    141            ST_DEF(DMA_CH[0], SRCADDRH, HADDR(iv));
   \   00009A   7402         MOV       A,#0x2
   \   00009C   12....       LCALL     ?XSTACK_DISP0_8
   \   00009F   E0           MOVX      A,@DPTR
   \   0000A0   F8           MOV       R0,A
   \   0000A1   A3           INC       DPTR
   \   0000A2   E0           MOVX      A,@DPTR
   \   0000A3   F9           MOV       R1,A
   \   0000A4   E4           CLR       A
   \   0000A5   C9           XCH       A,R1
   \   0000A6   F8           MOV       R0,A
   \   0000A7   E8           MOV       A,R0
   \   0000A8   90....       MOV       DPTR,#DMA_CH
   \   0000AB   F0           MOVX      @DPTR,A
    142            ST_DEF(DMA_CH[0], LENL, 16);
   \   0000AC   90....       MOV       DPTR,#DMA_CH + 5
   \   0000AF   7410         MOV       A,#0x10
   \   0000B1   F0           MOVX      @DPTR,A
    143            DMAARM |= 0x01;
   \   0000B2   43D601       ORL       0xd6,#0x1
    144            while(!AES_RDY());
   \                     ??AES_StreamCoder_2:
   \   0000B5   E5B3         MOV       A,0xb3
   \   0000B7   A2E3         MOV       C,0xE0 /* A   */.3
   \   0000B9   50FA         JNC       ??AES_StreamCoder_2
    145            AES_START();
   \   0000BB   43B301       ORL       0xb3,#0x1
    146            while (DMAARM&0x01);
   \                     ??AES_StreamCoder_3:
   \   0000BE   E5D6         MOV       A,0xd6
   \   0000C0   A2E0         MOV       C,0xE0 /* A   */.0
   \   0000C2   40FA         JC        ??AES_StreamCoder_3
    147          
    148            // Установим необходимую операцию AES
    149            if (enc_mode) 
   \   0000C4   A2..         MOV       C,?VB.0
   \   0000C6   5005         JNC       ??AES_StreamCoder_4
    150              AES_SET_OPERATION(AES_ENCRYPT)
   \   0000C8   53B3F8       ANL       0xb3,#0xf8
   \   0000CB   8008         SJMP      ??AES_StreamCoder_5
    151            else 
    152              AES_SET_OPERATION(AES_DECRYPT)
   \                     ??AES_StreamCoder_4:
   \   0000CD   E5B3         MOV       A,0xb3
   \   0000CF   54F8         ANL       A,#0xf8
   \   0000D1   4402         ORL       A,#0x2
   \   0000D3   F5B3         MOV       0xb3,A
    153            
    154            switch(STREAM_ENC_MODE) 
    155            {
    156            case AES_MODE_ECB: // ECB, CBC не реализованы
    157            case AES_MODE_CBC:
    158              break;
    159            case AES_MODE_CFB:
    160            case AES_MODE_OFB:
    161            case AES_MODE_CTR:
    162              {
    163                // Загрузка блоками по 128 бит с разделением на под-блоки по 32 бита
    164                uint8_t nbrBlocks = len / 16; // Количество целых блоков по 128 бит
   \                     ??AES_StreamCoder_5:
   \   0000D5   75F010       MOV       B,#0x10
   \   0000D8   E5..         MOV       A,?V6
   \   0000DA   84           DIV       AB
   \   0000DB   F5..         MOV       ?V5,A
    165                uint8_t ptr, sub_ptr; // Смещение
    166                uint8_t *download, *upload;
    167                
    168                // Для этих типов шифрования длина блоков по 4 байта
    169                ST_DEF(DMA_CH[0], LENL, 4);
   \   0000DD   90....       MOV       DPTR,#DMA_CH + 5
   \   0000E0   7404         MOV       A,#0x4
   \   0000E2   F0           MOVX      @DPTR,A
    170                ST_DEF(DMA_CH[1], LENL, 4);
   \   0000E3   90....       MOV       DPTR,#DMA_CH + 13
   \   0000E6   7404         MOV       A,#0x4
   \   0000E8   F0           MOVX      @DPTR,A
    171                
    172                // Шифруем все целые блоки
    173                for (uint8_t block = 0; block < nbrBlocks; block ++)
   \   0000E9   7A00         MOV       R2,#0x0
   \                     ??AES_StreamCoder_6:
   \   0000EB   EA           MOV       A,R2
   \   0000EC   C3           CLR       C
   \   0000ED   95..         SUBB      A,?V5
   \   0000EF   4003         JC        $+5
   \   0000F1   02....       LJMP      ??AES_StreamCoder_7 & 0xFFFF
    174                {
    175                  ptr = 16 * block;
   \   0000F4   75F010       MOV       B,#0x10
   \   0000F7   EA           MOV       A,R2
   \   0000F8   A4           MUL       AB
   \   0000F9   FE           MOV       R6,A
    176                  while(!AES_RDY());
   \                     ??AES_StreamCoder_8:
   \   0000FA   E5B3         MOV       A,0xb3
   \   0000FC   A2E3         MOV       C,0xE0 /* A   */.3
   \   0000FE   50FA         JNC       ??AES_StreamCoder_8
    177                  AES_START();
   \   000100   43B301       ORL       0xb3,#0x1
    178                  for (uint8_t j = 0; j < 4; j++)
   \   000103   7B00         MOV       R3,#0x0
   \                     ??AES_StreamCoder_9:
   \   000105   EB           MOV       A,R3
   \   000106   C3           CLR       C
   \   000107   9404         SUBB      A,#0x4
   \   000109   507A         JNC       ??AES_StreamCoder_10
    179                  {
    180                    sub_ptr = ptr + 4*j;
   \   00010B   75F004       MOV       B,#0x4
   \   00010E   EB           MOV       A,R3
   \   00010F   A4           MUL       AB
   \   000110   2E           ADD       A,R6
   \   000111   FF           MOV       R7,A
    181                    download = &src[sub_ptr];
   \   000112   EF           MOV       A,R7
   \   000113   F8           MOV       R0,A
   \   000114   7900         MOV       R1,#0x0
   \   000116   7408         MOV       A,#0x8
   \   000118   12....       LCALL     ?XSTACK_DISP0_8
   \   00011B   E0           MOVX      A,@DPTR
   \   00011C   28           ADD       A,R0
   \   00011D   F8           MOV       R0,A
   \   00011E   A3           INC       DPTR
   \   00011F   E0           MOVX      A,@DPTR
   \   000120   39           ADDC      A,R1
   \   000121   F9           MOV       R1,A
   \   000122   88..         MOV       ?V0,R0
   \   000124   89..         MOV       ?V1,R1
    182                    upload = &dst[sub_ptr];
   \   000126   EF           MOV       A,R7
   \   000127   F8           MOV       R0,A
   \   000128   7900         MOV       R1,#0x0
   \   00012A   7406         MOV       A,#0x6
   \   00012C   12....       LCALL     ?XSTACK_DISP0_8
   \   00012F   E0           MOVX      A,@DPTR
   \   000130   28           ADD       A,R0
   \   000131   F8           MOV       R0,A
   \   000132   A3           INC       DPTR
   \   000133   E0           MOVX      A,@DPTR
   \   000134   39           ADDC      A,R1
   \   000135   F9           MOV       R1,A
   \   000136   85..82       MOV       DPL,?XSP + 0
   \   000139   85..83       MOV       DPH,?XSP + 1
   \   00013C   E8           MOV       A,R0
   \   00013D   F0           MOVX      @DPTR,A
   \   00013E   A3           INC       DPTR
   \   00013F   E9           MOV       A,R1
   \   000140   F0           MOVX      @DPTR,A
    183                    // Указываем адресс DMA откуда читать данные
    184                    ST_DEF(DMA_CH[0], SRCADDRL, LADDR(download));
   \   000141   E5..         MOV       A,?V0
   \   000143   90....       MOV       DPTR,#DMA_CH + 1
   \   000146   F0           MOVX      @DPTR,A
    185                    ST_DEF(DMA_CH[0], SRCADDRH, HADDR(download));
   \   000147   A8..         MOV       R0,?V0
   \   000149   A9..         MOV       R1,?V1
   \   00014B   E4           CLR       A
   \   00014C   C9           XCH       A,R1
   \   00014D   F8           MOV       R0,A
   \   00014E   E8           MOV       A,R0
   \   00014F   90....       MOV       DPTR,#DMA_CH
   \   000152   F0           MOVX      @DPTR,A
    186                    // Указываем адрес DMA куда записывать данные          
    187                    ST_DEF(DMA_CH[1], DSTADDRL, LADDR(upload));
   \   000153   85..82       MOV       DPL,?XSP + 0
   \   000156   85..83       MOV       DPH,?XSP + 1
   \   000159   E0           MOVX      A,@DPTR
   \   00015A   F8           MOV       R0,A
   \   00015B   A3           INC       DPTR
   \   00015C   E0           MOVX      A,@DPTR
   \   00015D   F9           MOV       R1,A
   \   00015E   E8           MOV       A,R0
   \   00015F   90....       MOV       DPTR,#DMA_CH + 11
   \   000162   F0           MOVX      @DPTR,A
    188                    ST_DEF(DMA_CH[1], DSTADDRH, HADDR(upload));
   \   000163   85..82       MOV       DPL,?XSP + 0
   \   000166   85..83       MOV       DPH,?XSP + 1
   \   000169   E0           MOVX      A,@DPTR
   \   00016A   F8           MOV       R0,A
   \   00016B   A3           INC       DPTR
   \   00016C   E0           MOVX      A,@DPTR
   \   00016D   F9           MOV       R1,A
   \   00016E   E4           CLR       A
   \   00016F   C9           XCH       A,R1
   \   000170   F8           MOV       R0,A
   \   000171   E8           MOV       A,R0
   \   000172   90....       MOV       DPTR,#DMA_CH + 10
   \   000175   F0           MOVX      @DPTR,A
    189                    // Активируем DMA
    190                    DMAARM |= 0x03;  
   \   000176   43D603       ORL       0xd6,#0x3
    191                    DMAREQ |= 0x01;
   \   000179   43D701       ORL       0xd7,#0x1
    192                    while (DMAARM&0x03);          
   \                     ??AES_StreamCoder_11:
   \   00017C   E5D6         MOV       A,0xd6
   \   00017E   5403         ANL       A,#0x3
   \   000180   70FA         JNZ       ??AES_StreamCoder_11
    193                  }
   \   000182   0B           INC       R3
   \   000183   8080         SJMP      ??AES_StreamCoder_9
    194                }     
   \                     ??AES_StreamCoder_10:
   \   000185   0A           INC       R2
   \   000186   02....       LJMP      ??AES_StreamCoder_6 & 0xFFFF
    195                // Шифруем последний блок
    196                uint8_t block_len = len % 16; // Размер последнего блока
   \                     ??AES_StreamCoder_7:
   \   000189   E5..         MOV       A,?V6
   \   00018B   75F010       MOV       B,#0x10
   \   00018E   84           DIV       AB
   \   00018F   E5F0         MOV       A,B
   \   000191   F5..         MOV       ?V4,A
    197                
    198                // Завершаем работу если блок пустой
    199                if (!block_len)
   \   000193   E5..         MOV       A,?V4
   \   000195   7003         JNZ       $+5
   \   000197   02....       LJMP      ??AES_StreamCoder_12 & 0xFFFF
    200                  return;
    201                
    202                uint8_t padding_block[16]; // Блок заполненый нулями
    203                ptr = 16*nbrBlocks; // Смещение на первый байт последнего блока в src
   \   00019A   75F010       MOV       B,#0x10
   \   00019D   E5..         MOV       A,?V5
   \   00019F   A4           MUL       AB
   \   0001A0   FE           MOV       R6,A
    204                memset(padding_block, 0x00, sizeof(padding_block)); // Заполняем нулями
   \   0001A1                ; Setup parameters for call to function memset
   \   0001A1   75..10       MOV       ?V2,#0x10
   \   0001A4   75..00       MOV       ?V3,#0x0
   \   0001A7   78..         MOV       R0,#?V2
   \   0001A9   12....       LCALL     ?PUSH_XSTACK_I_TWO
   \   0001AC   7C00         MOV       R4,#0x0
   \   0001AE   7D00         MOV       R5,#0x0
   \   0001B0   740C         MOV       A,#0xc
   \   0001B2   12....       LCALL     ?XSTACK_DISP101_8
   \   0001B5   12....       LCALL     `??memset::?relay`; Banked call to: memset
   \   0001B8   7402         MOV       A,#0x2
   \   0001BA   12....       LCALL     ?DEALLOC_XSTACK8
    205                memcpy(padding_block, &src[ptr], block_len); // Копируем данные
   \   0001BD                ; Setup parameters for call to function memcpy
   \   0001BD   E5..         MOV       A,?V4
   \   0001BF   F5..         MOV       ?V2,A
   \   0001C1   75..00       MOV       ?V3,#0x0
   \   0001C4   78..         MOV       R0,#?V2
   \   0001C6   12....       LCALL     ?PUSH_XSTACK_I_TWO
   \   0001C9   EE           MOV       A,R6
   \   0001CA   F8           MOV       R0,A
   \   0001CB   7900         MOV       R1,#0x0
   \   0001CD   740A         MOV       A,#0xa
   \   0001CF   12....       LCALL     ?XSTACK_DISP0_8
   \   0001D2   E0           MOVX      A,@DPTR
   \   0001D3   28           ADD       A,R0
   \   0001D4   FC           MOV       R4,A
   \   0001D5   A3           INC       DPTR
   \   0001D6   E0           MOVX      A,@DPTR
   \   0001D7   39           ADDC      A,R1
   \   0001D8   FD           MOV       R5,A
   \   0001D9   740C         MOV       A,#0xc
   \   0001DB   12....       LCALL     ?XSTACK_DISP101_8
   \   0001DE   12....       LCALL     `??memcpy::?relay`; Banked call to: memcpy
   \   0001E1   7402         MOV       A,#0x2
   \   0001E3   12....       LCALL     ?DEALLOC_XSTACK8
    206                
    207                while(!AES_RDY());
   \                     ??AES_StreamCoder_13:
   \   0001E6   E5B3         MOV       A,0xb3
   \   0001E8   A2E3         MOV       C,0xE0 /* A   */.3
   \   0001EA   50FA         JNC       ??AES_StreamCoder_13
    208                AES_START();
   \   0001EC   43B301       ORL       0xb3,#0x1
    209                for (uint8_t j = 0; j < 4; j++)
   \   0001EF   7A00         MOV       R2,#0x0
   \                     ??AES_StreamCoder_14:
   \   0001F1   EA           MOV       A,R2
   \   0001F2   C3           CLR       C
   \   0001F3   9404         SUBB      A,#0x4
   \   0001F5   504E         JNC       ??AES_StreamCoder_15
    210                  {
    211                    sub_ptr = 4*j;
   \   0001F7   75F004       MOV       B,#0x4
   \   0001FA   EA           MOV       A,R2
   \   0001FB   A4           MUL       AB
   \   0001FC   FF           MOV       R7,A
    212                    download = &padding_block[sub_ptr];
   \   0001FD   EF           MOV       A,R7
   \   0001FE   F8           MOV       R0,A
   \   0001FF   7900         MOV       R1,#0x0
   \   000201   740A         MOV       A,#0xa
   \   000203   12....       LCALL     ?XSTACK_DISP0_8
   \   000206   E582         MOV       A,DPL
   \   000208   28           ADD       A,R0
   \   000209   F8           MOV       R0,A
   \   00020A   E583         MOV       A,DPH
   \   00020C   39           ADDC      A,R1
   \   00020D   F9           MOV       R1,A
   \   00020E   88..         MOV       ?V0,R0
   \   000210   89..         MOV       ?V1,R1
    213                    // Указываем адресс DMA откуда читать данные
    214                    ST_DEF(DMA_CH[0], SRCADDRL, LADDR(download));
   \   000212   E5..         MOV       A,?V0
   \   000214   90....       MOV       DPTR,#DMA_CH + 1
   \   000217   F0           MOVX      @DPTR,A
    215                    ST_DEF(DMA_CH[0], SRCADDRH, HADDR(download));
   \   000218   A8..         MOV       R0,?V0
   \   00021A   A9..         MOV       R1,?V1
   \   00021C   E4           CLR       A
   \   00021D   C9           XCH       A,R1
   \   00021E   F8           MOV       R0,A
   \   00021F   E8           MOV       A,R0
   \   000220   90....       MOV       DPTR,#DMA_CH
   \   000223   F0           MOVX      @DPTR,A
    216                    // Указываем аддрес DMA куда записывать данные          
    217                    ST_DEF(DMA_CH[1], DSTADDRL, LADDR(download));
   \   000224   E5..         MOV       A,?V0
   \   000226   90....       MOV       DPTR,#DMA_CH + 11
   \   000229   F0           MOVX      @DPTR,A
    218                    ST_DEF(DMA_CH[1], DSTADDRH, HADDR(download));
   \   00022A   A8..         MOV       R0,?V0
   \   00022C   A9..         MOV       R1,?V1
   \   00022E   E4           CLR       A
   \   00022F   C9           XCH       A,R1
   \   000230   F8           MOV       R0,A
   \   000231   E8           MOV       A,R0
   \   000232   90....       MOV       DPTR,#DMA_CH + 10
   \   000235   F0           MOVX      @DPTR,A
    219                    // Активируем DMA
    220                    DMAARM |= 0x03;  
   \   000236   43D603       ORL       0xd6,#0x3
    221                    DMAREQ |= 0x01;
   \   000239   43D701       ORL       0xd7,#0x1
    222                    while (DMAARM&0x03);
   \                     ??AES_StreamCoder_16:
   \   00023C   E5D6         MOV       A,0xd6
   \   00023E   5403         ANL       A,#0x3
   \   000240   70FA         JNZ       ??AES_StreamCoder_16
    223                  }
   \   000242   0A           INC       R2
   \   000243   80AC         SJMP      ??AES_StreamCoder_14
    224                memcpy(&dst[ptr], padding_block, block_len); // Копируем в src
   \                     ??AES_StreamCoder_15:
   \   000245                ; Setup parameters for call to function memcpy
   \   000245   E5..         MOV       A,?V4
   \   000247   F5..         MOV       ?V2,A
   \   000249   75..00       MOV       ?V3,#0x0
   \   00024C   78..         MOV       R0,#?V2
   \   00024E   12....       LCALL     ?PUSH_XSTACK_I_TWO
   \   000251   740C         MOV       A,#0xc
   \   000253   12....       LCALL     ?XSTACK_DISP102_8
   \   000256   EE           MOV       A,R6
   \   000257   F8           MOV       R0,A
   \   000258   7900         MOV       R1,#0x0
   \   00025A   7408         MOV       A,#0x8
   \   00025C   12....       LCALL     ?XSTACK_DISP0_8
   \   00025F   E0           MOVX      A,@DPTR
   \   000260   28           ADD       A,R0
   \   000261   FA           MOV       R2,A
   \   000262   A3           INC       DPTR
   \   000263   E0           MOVX      A,@DPTR
   \   000264   39           ADDC      A,R1
   \   000265   FB           MOV       R3,A
   \   000266   12....       LCALL     `??memcpy::?relay`; Banked call to: memcpy
   \   000269   7402         MOV       A,#0x2
   \   00026B   12....       LCALL     ?DEALLOC_XSTACK8
    225                
    226              } //CASE
    227              
    228              break;
    229            } 
    230          }
   \                     ??AES_StreamCoder_12:
   \   00026E   741A         MOV       A,#0x1a
   \   000270   12....       LCALL     ?DEALLOC_XSTACK8
   \   000273   7F07         MOV       R7,#0x7
   \   000275   02....       LJMP      ?BANKED_LEAVE_XDATA
   \   000278                REQUIRE ENCCS
   \   000278                REQUIRE DMAARM
   \   000278                REQUIRE DMAREQ
    231          
    232          /**
    233          @brief Шифрует/дешифрует поток данных во время радиопередачи. Без проверки MIC
    234          @param[in] enc_mode Режим работы процедуры. true - шифрование.
    235          @param[in] src Указатель на данные подлежащии шифрованию
    236          @param[in] dst Указтель куда будут помещены зашифрованные данные
    237          @param[in] key Указатье на ключ. 16 байт
    238          @param[in] iv  Указатель на вектор иницилизации. 16 байт 
    239          @param[in] len Длинна данных
    240          */

   \                                 In  segment BANKED_CODE, align 1, keep-with-next
    241          static void CTR_enc_decrypt(bool enc_mode, uint8_t *src, uint8_t *dst, uint8_t *key,
   \                     ??CTR_enc_decrypt:
    242                                   uint8_t *iv, uint8_t len)
    243          {
   \   000000                REQUIRE ?V0
   \   000000                REQUIRE ?V1
   \   000000                REQUIRE ?V2
   \   000000                REQUIRE ?V3
   \   000000                REQUIRE ?V4
   \   000000                REQUIRE ?V5
   \   000000                REQUIRE ?V6
   \   000000   74F1         MOV       A,#-0xf
   \   000002   12....       LCALL     ?BANKED_ENTER_XDATA
   \   000005                ; Saved register size: 15
   \   000005                ; Auto size: 22
   \   000005   74EA         MOV       A,#-0x16
   \   000007   12....       LCALL     ?ALLOC_XSTACK8
   \   00000A   7404         MOV       A,#0x4
   \   00000C   12....       LCALL     ?XSTACK_DISP0_8
   \   00000F   EA           MOV       A,R2
   \   000010   F0           MOVX      @DPTR,A
   \   000011   A3           INC       DPTR
   \   000012   EB           MOV       A,R3
   \   000013   F0           MOVX      @DPTR,A
   \   000014   7402         MOV       A,#0x2
   \   000016   12....       LCALL     ?XSTACK_DISP0_8
   \   000019   EC           MOV       A,R4
   \   00001A   F0           MOVX      @DPTR,A
   \   00001B   A3           INC       DPTR
   \   00001C   ED           MOV       A,R5
   \   00001D   F0           MOVX      @DPTR,A
   \   00001E   A2F0         MOV       C,B.0
   \   000020   92..         MOV       ?VB.0,C
   \   000022   89..         MOV       ?V6,R1
    244            // Установим метод кодироваения
    245            AES_SET_MODE(AES_MODE_CTR);
   \   000024   53B38F       ANL       0xb3,#0x8f
   \   000027   43B330       ORL       0xb3,#0x30
    246            
    247            // Загружаем ключ
    248            AES_SET_OPERATION(AES_LOAD_KEY);
   \   00002A   E5B3         MOV       A,0xb3
   \   00002C   54F8         ANL       A,#0xf8
   \   00002E   4404         ORL       A,#0x4
   \   000030   F5B3         MOV       0xb3,A
    249            ST_DEF(DMA_CH[0], SRCADDRL, LADDR(key));
   \   000032   7425         MOV       A,#0x25
   \   000034   12....       LCALL     ?XSTACK_DISP0_8
   \   000037   E0           MOVX      A,@DPTR
   \   000038   F8           MOV       R0,A
   \   000039   A3           INC       DPTR
   \   00003A   E0           MOVX      A,@DPTR
   \   00003B   F9           MOV       R1,A
   \   00003C   E8           MOV       A,R0
   \   00003D   90....       MOV       DPTR,#DMA_CH + 1
   \   000040   F0           MOVX      @DPTR,A
    250            ST_DEF(DMA_CH[0], SRCADDRH, HADDR(key));
   \   000041   7425         MOV       A,#0x25
   \   000043   12....       LCALL     ?XSTACK_DISP0_8
   \   000046   E0           MOVX      A,@DPTR
   \   000047   F8           MOV       R0,A
   \   000048   A3           INC       DPTR
   \   000049   E0           MOVX      A,@DPTR
   \   00004A   F9           MOV       R1,A
   \   00004B   E4           CLR       A
   \   00004C   C9           XCH       A,R1
   \   00004D   F8           MOV       R0,A
   \   00004E   E8           MOV       A,R0
   \   00004F   90....       MOV       DPTR,#DMA_CH
   \   000052   F0           MOVX      @DPTR,A
    251            ST_DEF(DMA_CH[0], LENL, 16);
   \   000053   90....       MOV       DPTR,#DMA_CH + 5
   \   000056   7410         MOV       A,#0x10
   \   000058   F0           MOVX      @DPTR,A
    252            DMAARM |= 0x01;
   \   000059   43D601       ORL       0xd6,#0x1
    253            while(!AES_RDY());
   \                     ??CTR_enc_decrypt_1:
   \   00005C   E5B3         MOV       A,0xb3
   \   00005E   A2E3         MOV       C,0xE0 /* A   */.3
   \   000060   50FA         JNC       ??CTR_enc_decrypt_1
    254            AES_START();
   \   000062   43B301       ORL       0xb3,#0x1
    255            while (DMAARM&0x01);
   \                     ??CTR_enc_decrypt_2:
   \   000065   E5D6         MOV       A,0xd6
   \   000067   A2E0         MOV       C,0xE0 /* A   */.0
   \   000069   40FA         JC        ??CTR_enc_decrypt_2
    256          
    257            // Загружаем IV
    258            AES_SET_OPERATION(AES_LOAD_IV);
   \   00006B   E5B3         MOV       A,0xb3
   \   00006D   54F8         ANL       A,#0xf8
   \   00006F   4406         ORL       A,#0x6
   \   000071   F5B3         MOV       0xb3,A
    259            ST_DEF(DMA_CH[0], SRCADDRL, LADDR(iv));
   \   000073   7427         MOV       A,#0x27
   \   000075   12....       LCALL     ?XSTACK_DISP0_8
   \   000078   E0           MOVX      A,@DPTR
   \   000079   F8           MOV       R0,A
   \   00007A   A3           INC       DPTR
   \   00007B   E0           MOVX      A,@DPTR
   \   00007C   F9           MOV       R1,A
   \   00007D   E8           MOV       A,R0
   \   00007E   90....       MOV       DPTR,#DMA_CH + 1
   \   000081   F0           MOVX      @DPTR,A
    260            ST_DEF(DMA_CH[0], SRCADDRH, HADDR(iv));
   \   000082   7427         MOV       A,#0x27
   \   000084   12....       LCALL     ?XSTACK_DISP0_8
   \   000087   E0           MOVX      A,@DPTR
   \   000088   F8           MOV       R0,A
   \   000089   A3           INC       DPTR
   \   00008A   E0           MOVX      A,@DPTR
   \   00008B   F9           MOV       R1,A
   \   00008C   E4           CLR       A
   \   00008D   C9           XCH       A,R1
   \   00008E   F8           MOV       R0,A
   \   00008F   E8           MOV       A,R0
   \   000090   90....       MOV       DPTR,#DMA_CH
   \   000093   F0           MOVX      @DPTR,A
    261            ST_DEF(DMA_CH[0], LENL, 16);
   \   000094   90....       MOV       DPTR,#DMA_CH + 5
   \   000097   7410         MOV       A,#0x10
   \   000099   F0           MOVX      @DPTR,A
    262            DMAARM |= 0x01;
   \   00009A   43D601       ORL       0xd6,#0x1
    263            while(!AES_RDY());
   \                     ??CTR_enc_decrypt_3:
   \   00009D   E5B3         MOV       A,0xb3
   \   00009F   A2E3         MOV       C,0xE0 /* A   */.3
   \   0000A1   50FA         JNC       ??CTR_enc_decrypt_3
    264            AES_START();
   \   0000A3   43B301       ORL       0xb3,#0x1
    265            while (DMAARM&0x01);
   \                     ??CTR_enc_decrypt_4:
   \   0000A6   E5D6         MOV       A,0xd6
   \   0000A8   A2E0         MOV       C,0xE0 /* A   */.0
   \   0000AA   40FA         JC        ??CTR_enc_decrypt_4
    266          
    267            // Установим необходимую операцию AES
    268            if (enc_mode) 
   \   0000AC   A2..         MOV       C,?VB.0
   \   0000AE   5005         JNC       ??CTR_enc_decrypt_5
    269              AES_SET_OPERATION(AES_ENCRYPT)
   \   0000B0   53B3F8       ANL       0xb3,#0xf8
   \   0000B3   8008         SJMP      ??CTR_enc_decrypt_6
    270            else 
    271              AES_SET_OPERATION(AES_DECRYPT)
   \                     ??CTR_enc_decrypt_5:
   \   0000B5   E5B3         MOV       A,0xb3
   \   0000B7   54F8         ANL       A,#0xf8
   \   0000B9   4402         ORL       A,#0x2
   \   0000BB   F5B3         MOV       0xb3,A
    272            
    273            // Загрузка блоками по 128 бит с разделением на под-блоки по 32 бита
    274            uint8_t nbrBlocks = len / 16; // Количество целых блоков по 128 бит
   \                     ??CTR_enc_decrypt_6:
   \   0000BD   75F010       MOV       B,#0x10
   \   0000C0   E5..         MOV       A,?V6
   \   0000C2   84           DIV       AB
   \   0000C3   F5..         MOV       ?V5,A
    275            uint8_t ptr, sub_ptr; // Смещение
    276            uint8_t *download, *upload;
    277                
    278            // Для этих типов шифрования длина блоков по 4 байта
    279            ST_DEF(DMA_CH[0], LENL, 4);
   \   0000C5   90....       MOV       DPTR,#DMA_CH + 5
   \   0000C8   7404         MOV       A,#0x4
   \   0000CA   F0           MOVX      @DPTR,A
    280            ST_DEF(DMA_CH[1], LENL, 4);
   \   0000CB   90....       MOV       DPTR,#DMA_CH + 13
   \   0000CE   7404         MOV       A,#0x4
   \   0000D0   F0           MOVX      @DPTR,A
    281                
    282            // Шифруем все целые блоки
    283            for (uint8_t block = 0; block < nbrBlocks; block ++)
   \   0000D1   7A00         MOV       R2,#0x0
   \                     ??CTR_enc_decrypt_7:
   \   0000D3   EA           MOV       A,R2
   \   0000D4   C3           CLR       C
   \   0000D5   95..         SUBB      A,?V5
   \   0000D7   4003         JC        $+5
   \   0000D9   02....       LJMP      ??CTR_enc_decrypt_8 & 0xFFFF
    284              {
    285                ptr = 16 * block;
   \   0000DC   75F010       MOV       B,#0x10
   \   0000DF   EA           MOV       A,R2
   \   0000E0   A4           MUL       AB
   \   0000E1   FE           MOV       R6,A
    286                while(!AES_RDY());
   \                     ??CTR_enc_decrypt_9:
   \   0000E2   E5B3         MOV       A,0xb3
   \   0000E4   A2E3         MOV       C,0xE0 /* A   */.3
   \   0000E6   50FA         JNC       ??CTR_enc_decrypt_9
    287                AES_START();
   \   0000E8   43B301       ORL       0xb3,#0x1
    288                for (uint8_t j = 0; j < 4; j++)
   \   0000EB   7B00         MOV       R3,#0x0
   \                     ??CTR_enc_decrypt_10:
   \   0000ED   EB           MOV       A,R3
   \   0000EE   C3           CLR       C
   \   0000EF   9404         SUBB      A,#0x4
   \   0000F1   507A         JNC       ??CTR_enc_decrypt_11
    289                  {
    290                    sub_ptr = ptr + 4*j;
   \   0000F3   75F004       MOV       B,#0x4
   \   0000F6   EB           MOV       A,R3
   \   0000F7   A4           MUL       AB
   \   0000F8   2E           ADD       A,R6
   \   0000F9   FF           MOV       R7,A
    291                    download = &src[sub_ptr];
   \   0000FA   EF           MOV       A,R7
   \   0000FB   F8           MOV       R0,A
   \   0000FC   7900         MOV       R1,#0x0
   \   0000FE   7404         MOV       A,#0x4
   \   000100   12....       LCALL     ?XSTACK_DISP0_8
   \   000103   E0           MOVX      A,@DPTR
   \   000104   28           ADD       A,R0
   \   000105   F8           MOV       R0,A
   \   000106   A3           INC       DPTR
   \   000107   E0           MOVX      A,@DPTR
   \   000108   39           ADDC      A,R1
   \   000109   F9           MOV       R1,A
   \   00010A   88..         MOV       ?V0,R0
   \   00010C   89..         MOV       ?V1,R1
    292                    upload = &dst[sub_ptr];
   \   00010E   EF           MOV       A,R7
   \   00010F   F8           MOV       R0,A
   \   000110   7900         MOV       R1,#0x0
   \   000112   7402         MOV       A,#0x2
   \   000114   12....       LCALL     ?XSTACK_DISP0_8
   \   000117   E0           MOVX      A,@DPTR
   \   000118   28           ADD       A,R0
   \   000119   F8           MOV       R0,A
   \   00011A   A3           INC       DPTR
   \   00011B   E0           MOVX      A,@DPTR
   \   00011C   39           ADDC      A,R1
   \   00011D   F9           MOV       R1,A
   \   00011E   85..82       MOV       DPL,?XSP + 0
   \   000121   85..83       MOV       DPH,?XSP + 1
   \   000124   E8           MOV       A,R0
   \   000125   F0           MOVX      @DPTR,A
   \   000126   A3           INC       DPTR
   \   000127   E9           MOV       A,R1
   \   000128   F0           MOVX      @DPTR,A
    293                    // Указываем адресс DMA откуда читать данные
    294                    ST_DEF(DMA_CH[0], SRCADDRL, LADDR(download));
   \   000129   E5..         MOV       A,?V0
   \   00012B   90....       MOV       DPTR,#DMA_CH + 1
   \   00012E   F0           MOVX      @DPTR,A
    295                    ST_DEF(DMA_CH[0], SRCADDRH, HADDR(download));
   \   00012F   A8..         MOV       R0,?V0
   \   000131   A9..         MOV       R1,?V1
   \   000133   E4           CLR       A
   \   000134   C9           XCH       A,R1
   \   000135   F8           MOV       R0,A
   \   000136   E8           MOV       A,R0
   \   000137   90....       MOV       DPTR,#DMA_CH
   \   00013A   F0           MOVX      @DPTR,A
    296                    // Указываем адрес DMA куда записывать данные          
    297                    ST_DEF(DMA_CH[1], DSTADDRL, LADDR(upload));
   \   00013B   85..82       MOV       DPL,?XSP + 0
   \   00013E   85..83       MOV       DPH,?XSP + 1
   \   000141   E0           MOVX      A,@DPTR
   \   000142   F8           MOV       R0,A
   \   000143   A3           INC       DPTR
   \   000144   E0           MOVX      A,@DPTR
   \   000145   F9           MOV       R1,A
   \   000146   E8           MOV       A,R0
   \   000147   90....       MOV       DPTR,#DMA_CH + 11
   \   00014A   F0           MOVX      @DPTR,A
    298                    ST_DEF(DMA_CH[1], DSTADDRH, HADDR(upload));
   \   00014B   85..82       MOV       DPL,?XSP + 0
   \   00014E   85..83       MOV       DPH,?XSP + 1
   \   000151   E0           MOVX      A,@DPTR
   \   000152   F8           MOV       R0,A
   \   000153   A3           INC       DPTR
   \   000154   E0           MOVX      A,@DPTR
   \   000155   F9           MOV       R1,A
   \   000156   E4           CLR       A
   \   000157   C9           XCH       A,R1
   \   000158   F8           MOV       R0,A
   \   000159   E8           MOV       A,R0
   \   00015A   90....       MOV       DPTR,#DMA_CH + 10
   \   00015D   F0           MOVX      @DPTR,A
    299                    // Активируем DMA
    300                    DMAARM |= 0x03;  
   \   00015E   43D603       ORL       0xd6,#0x3
    301                    DMAREQ |= 0x01;
   \   000161   43D701       ORL       0xd7,#0x1
    302                    while (DMAARM&0x03);          
   \                     ??CTR_enc_decrypt_12:
   \   000164   E5D6         MOV       A,0xd6
   \   000166   5403         ANL       A,#0x3
   \   000168   70FA         JNZ       ??CTR_enc_decrypt_12
    303                  }
   \   00016A   0B           INC       R3
   \   00016B   8080         SJMP      ??CTR_enc_decrypt_10
    304              }     
   \                     ??CTR_enc_decrypt_11:
   \   00016D   0A           INC       R2
   \   00016E   02....       LJMP      ??CTR_enc_decrypt_7 & 0xFFFF
    305              // Шифруем последний блок
    306              uint8_t block_len = len % 16; // Размер последнего блока
   \                     ??CTR_enc_decrypt_8:
   \   000171   E5..         MOV       A,?V6
   \   000173   75F010       MOV       B,#0x10
   \   000176   84           DIV       AB
   \   000177   E5F0         MOV       A,B
   \   000179   F5..         MOV       ?V4,A
    307                
    308              // Завершаем работу если блок пустой
    309              if (!block_len)
   \   00017B   E5..         MOV       A,?V4
   \   00017D   7003         JNZ       $+5
   \   00017F   02....       LJMP      ??CTR_enc_decrypt_13 & 0xFFFF
    310                return;
    311                
    312              uint8_t padding_block[16]; // Блок заполненый нулями
    313              ptr = 16*nbrBlocks; // Смещение на первый байт последнего блока в src
   \   000182   75F010       MOV       B,#0x10
   \   000185   E5..         MOV       A,?V5
   \   000187   A4           MUL       AB
   \   000188   FE           MOV       R6,A
    314              memset(padding_block, 0x00, sizeof(padding_block)); // Заполняем нулями
   \   000189                ; Setup parameters for call to function memset
   \   000189   75..10       MOV       ?V2,#0x10
   \   00018C   75..00       MOV       ?V3,#0x0
   \   00018F   78..         MOV       R0,#?V2
   \   000191   12....       LCALL     ?PUSH_XSTACK_I_TWO
   \   000194   7C00         MOV       R4,#0x0
   \   000196   7D00         MOV       R5,#0x0
   \   000198   7408         MOV       A,#0x8
   \   00019A   12....       LCALL     ?XSTACK_DISP101_8
   \   00019D   12....       LCALL     `??memset::?relay`; Banked call to: memset
   \   0001A0   7402         MOV       A,#0x2
   \   0001A2   12....       LCALL     ?DEALLOC_XSTACK8
    315              memcpy(padding_block, &src[ptr], block_len); // Копируем данные
   \   0001A5                ; Setup parameters for call to function memcpy
   \   0001A5   E5..         MOV       A,?V4
   \   0001A7   F5..         MOV       ?V2,A
   \   0001A9   75..00       MOV       ?V3,#0x0
   \   0001AC   78..         MOV       R0,#?V2
   \   0001AE   12....       LCALL     ?PUSH_XSTACK_I_TWO
   \   0001B1   EE           MOV       A,R6
   \   0001B2   F8           MOV       R0,A
   \   0001B3   7900         MOV       R1,#0x0
   \   0001B5   7406         MOV       A,#0x6
   \   0001B7   12....       LCALL     ?XSTACK_DISP0_8
   \   0001BA   E0           MOVX      A,@DPTR
   \   0001BB   28           ADD       A,R0
   \   0001BC   FC           MOV       R4,A
   \   0001BD   A3           INC       DPTR
   \   0001BE   E0           MOVX      A,@DPTR
   \   0001BF   39           ADDC      A,R1
   \   0001C0   FD           MOV       R5,A
   \   0001C1   7408         MOV       A,#0x8
   \   0001C3   12....       LCALL     ?XSTACK_DISP101_8
   \   0001C6   12....       LCALL     `??memcpy::?relay`; Banked call to: memcpy
   \   0001C9   7402         MOV       A,#0x2
   \   0001CB   12....       LCALL     ?DEALLOC_XSTACK8
    316              
    317              while(!AES_RDY());
   \                     ??CTR_enc_decrypt_14:
   \   0001CE   E5B3         MOV       A,0xb3
   \   0001D0   A2E3         MOV       C,0xE0 /* A   */.3
   \   0001D2   50FA         JNC       ??CTR_enc_decrypt_14
    318              AES_START();
   \   0001D4   43B301       ORL       0xb3,#0x1
    319              for (uint8_t j = 0; j < 4; j++)
   \   0001D7   7A00         MOV       R2,#0x0
   \                     ??CTR_enc_decrypt_15:
   \   0001D9   EA           MOV       A,R2
   \   0001DA   C3           CLR       C
   \   0001DB   9404         SUBB      A,#0x4
   \   0001DD   504E         JNC       ??CTR_enc_decrypt_16
    320                {
    321                  sub_ptr = 4*j;
   \   0001DF   75F004       MOV       B,#0x4
   \   0001E2   EA           MOV       A,R2
   \   0001E3   A4           MUL       AB
   \   0001E4   FF           MOV       R7,A
    322                  download = &padding_block[sub_ptr];
   \   0001E5   EF           MOV       A,R7
   \   0001E6   F8           MOV       R0,A
   \   0001E7   7900         MOV       R1,#0x0
   \   0001E9   7406         MOV       A,#0x6
   \   0001EB   12....       LCALL     ?XSTACK_DISP0_8
   \   0001EE   E582         MOV       A,DPL
   \   0001F0   28           ADD       A,R0
   \   0001F1   F8           MOV       R0,A
   \   0001F2   E583         MOV       A,DPH
   \   0001F4   39           ADDC      A,R1
   \   0001F5   F9           MOV       R1,A
   \   0001F6   88..         MOV       ?V0,R0
   \   0001F8   89..         MOV       ?V1,R1
    323                  // Указываем адресс DMA откуда читать данные
    324                  ST_DEF(DMA_CH[0], SRCADDRL, LADDR(download));
   \   0001FA   E5..         MOV       A,?V0
   \   0001FC   90....       MOV       DPTR,#DMA_CH + 1
   \   0001FF   F0           MOVX      @DPTR,A
    325                  ST_DEF(DMA_CH[0], SRCADDRH, HADDR(download));
   \   000200   A8..         MOV       R0,?V0
   \   000202   A9..         MOV       R1,?V1
   \   000204   E4           CLR       A
   \   000205   C9           XCH       A,R1
   \   000206   F8           MOV       R0,A
   \   000207   E8           MOV       A,R0
   \   000208   90....       MOV       DPTR,#DMA_CH
   \   00020B   F0           MOVX      @DPTR,A
    326                  // Указываем аддрес DMA куда записывать данные          
    327                  ST_DEF(DMA_CH[1], DSTADDRL, LADDR(download));
   \   00020C   E5..         MOV       A,?V0
   \   00020E   90....       MOV       DPTR,#DMA_CH + 11
   \   000211   F0           MOVX      @DPTR,A
    328                  ST_DEF(DMA_CH[1], DSTADDRH, HADDR(download));
   \   000212   A8..         MOV       R0,?V0
   \   000214   A9..         MOV       R1,?V1
   \   000216   E4           CLR       A
   \   000217   C9           XCH       A,R1
   \   000218   F8           MOV       R0,A
   \   000219   E8           MOV       A,R0
   \   00021A   90....       MOV       DPTR,#DMA_CH + 10
   \   00021D   F0           MOVX      @DPTR,A
    329                  // Активируем DMA
    330                  DMAARM |= 0x03;  
   \   00021E   43D603       ORL       0xd6,#0x3
    331                  DMAREQ |= 0x01;
   \   000221   43D701       ORL       0xd7,#0x1
    332                  while (DMAARM&0x03);
   \                     ??CTR_enc_decrypt_17:
   \   000224   E5D6         MOV       A,0xd6
   \   000226   5403         ANL       A,#0x3
   \   000228   70FA         JNZ       ??CTR_enc_decrypt_17
    333                }
   \   00022A   0A           INC       R2
   \   00022B   80AC         SJMP      ??CTR_enc_decrypt_15
    334              memcpy(&dst[ptr], padding_block, block_len); // Копируем в src
   \                     ??CTR_enc_decrypt_16:
   \   00022D                ; Setup parameters for call to function memcpy
   \   00022D   E5..         MOV       A,?V4
   \   00022F   F5..         MOV       ?V2,A
   \   000231   75..00       MOV       ?V3,#0x0
   \   000234   78..         MOV       R0,#?V2
   \   000236   12....       LCALL     ?PUSH_XSTACK_I_TWO
   \   000239   7408         MOV       A,#0x8
   \   00023B   12....       LCALL     ?XSTACK_DISP102_8
   \   00023E   EE           MOV       A,R6
   \   00023F   F8           MOV       R0,A
   \   000240   7900         MOV       R1,#0x0
   \   000242   7404         MOV       A,#0x4
   \   000244   12....       LCALL     ?XSTACK_DISP0_8
   \   000247   E0           MOVX      A,@DPTR
   \   000248   28           ADD       A,R0
   \   000249   FA           MOV       R2,A
   \   00024A   A3           INC       DPTR
   \   00024B   E0           MOVX      A,@DPTR
   \   00024C   39           ADDC      A,R1
   \   00024D   FB           MOV       R3,A
   \   00024E   12....       LCALL     `??memcpy::?relay`; Banked call to: memcpy
   \   000251   7402         MOV       A,#0x2
   \   000253   12....       LCALL     ?DEALLOC_XSTACK8
    335          }
   \                     ??CTR_enc_decrypt_13:
   \   000256   7416         MOV       A,#0x16
   \   000258   12....       LCALL     ?DEALLOC_XSTACK8
   \   00025B   7F07         MOV       R7,#0x7
   \   00025D   02....       LJMP      ?BANKED_LEAVE_XDATA
   \   000260                REQUIRE ENCCS
   \   000260                REQUIRE DMAARM
   \   000260                REQUIRE DMAREQ
    336          
    337          /**
    338          @brief Зашифровывает buf в режиме CBC-MAC с IV = 0
    339          @param[in] len улинна последовательности для вычисления MAC
    340          @param[out] mac указатель на память куда будет записан mac (до 16 байт)
    341          */

   \                                 In  segment BANKED_CODE, align 1, keep-with-next
    342          static void CBCMAC_buf_encrypt(uint8_t len, uint8_t *key, uint8_t *mac)
   \                     ??CBCMAC_buf_encrypt:
    343          {
   \   000000                REQUIRE ?V0
   \   000000                REQUIRE ?V1
   \   000000                REQUIRE ?V2
   \   000000                REQUIRE ?V3
   \   000000                REQUIRE ?V4
   \   000000                REQUIRE ?V5
   \   000000                REQUIRE ?V6
   \   000000                REQUIRE ?V7
   \   000000   74F0         MOV       A,#-0x10
   \   000002   12....       LCALL     ?BANKED_ENTER_XDATA
   \   000005                ; Saved register size: 16
   \   000005                ; Auto size: 32
   \   000005   74E0         MOV       A,#-0x20
   \   000007   12....       LCALL     ?ALLOC_XSTACK8
   \   00000A   89..         MOV       ?V1,R1
   \   00000C   8A..         MOV       ?V6,R2
   \   00000E   8B..         MOV       ?V7,R3
   \   000010   8C..         MOV       ?V4,R4
   \   000012   8D..         MOV       ?V5,R5
    344            uint8_t IV[16];
    345            
    346            // Заполняем вектор нулями
    347            memset(IV, 0x00, sizeof(IV));
   \   000014                ; Setup parameters for call to function memset
   \   000014   75..10       MOV       ?V2,#0x10
   \   000017   75..00       MOV       ?V3,#0x0
   \   00001A   78..         MOV       R0,#?V2
   \   00001C   12....       LCALL     ?PUSH_XSTACK_I_TWO
   \   00001F   7C00         MOV       R4,#0x0
   \   000021   7D00         MOV       R5,#0x0
   \   000023   7412         MOV       A,#0x12
   \   000025   12....       LCALL     ?XSTACK_DISP101_8
   \   000028   12....       LCALL     `??memset::?relay`; Banked call to: memset
   \   00002B   7402         MOV       A,#0x2
   \   00002D   12....       LCALL     ?DEALLOC_XSTACK8
    348            
    349            // Установим метод кодироваения
    350            AES_SET_MODE(AES_MODE_CBCMAC);  
   \   000030   53B38F       ANL       0xb3,#0x8f
   \   000033   43B350       ORL       0xb3,#0x50
    351            
    352            { // Сворачиваем код для улучшения чтения
    353            // Загружаем ключ
    354            AES_SET_OPERATION(AES_LOAD_KEY);
   \   000036   E5B3         MOV       A,0xb3
   \   000038   54F8         ANL       A,#0xf8
   \   00003A   4404         ORL       A,#0x4
   \   00003C   F5B3         MOV       0xb3,A
    355            ST_DEF(DMA_CH[0], SRCADDRL, LADDR(key));
   \   00003E   E5..         MOV       A,?V6
   \   000040   90....       MOV       DPTR,#DMA_CH + 1
   \   000043   F0           MOVX      @DPTR,A
    356            ST_DEF(DMA_CH[0], SRCADDRH, HADDR(key));
   \   000044   A8..         MOV       R0,?V6
   \   000046   A9..         MOV       R1,?V7
   \   000048   E4           CLR       A
   \   000049   C9           XCH       A,R1
   \   00004A   F8           MOV       R0,A
   \   00004B   E8           MOV       A,R0
   \   00004C   90....       MOV       DPTR,#DMA_CH
   \   00004F   F0           MOVX      @DPTR,A
    357            ST_DEF(DMA_CH[0], LENL, 16);
   \   000050   90....       MOV       DPTR,#DMA_CH + 5
   \   000053   7410         MOV       A,#0x10
   \   000055   F0           MOVX      @DPTR,A
    358            DMAARM |= 0x01;
   \   000056   43D601       ORL       0xd6,#0x1
    359            while(!AES_RDY());
   \                     ??CBCMAC_buf_encrypt_1:
   \   000059   E5B3         MOV       A,0xb3
   \   00005B   A2E3         MOV       C,0xE0 /* A   */.3
   \   00005D   50FA         JNC       ??CBCMAC_buf_encrypt_1
    360            AES_START();
   \   00005F   43B301       ORL       0xb3,#0x1
    361            while (DMAARM&0x01);
   \                     ??CBCMAC_buf_encrypt_2:
   \   000062   E5D6         MOV       A,0xd6
   \   000064   A2E0         MOV       C,0xE0 /* A   */.0
   \   000066   40FA         JC        ??CBCMAC_buf_encrypt_2
    362          
    363            // Загружаем IV
    364            AES_SET_OPERATION(AES_LOAD_IV);
   \   000068   E5B3         MOV       A,0xb3
   \   00006A   54F8         ANL       A,#0xf8
   \   00006C   4406         ORL       A,#0x6
   \   00006E   F5B3         MOV       0xb3,A
    365            ST_DEF(DMA_CH[0], SRCADDRL, LADDR(IV));
   \   000070   7410         MOV       A,#0x10
   \   000072   12....       LCALL     ?XSTACK_DISP100_8
   \   000075   E8           MOV       A,R0
   \   000076   90....       MOV       DPTR,#DMA_CH + 1
   \   000079   F0           MOVX      @DPTR,A
    366            ST_DEF(DMA_CH[0], SRCADDRH, HADDR(IV));
   \   00007A   7410         MOV       A,#0x10
   \   00007C   12....       LCALL     ?XSTACK_DISP100_8
   \   00007F   E4           CLR       A
   \   000080   C9           XCH       A,R1
   \   000081   F8           MOV       R0,A
   \   000082   E8           MOV       A,R0
   \   000083   90....       MOV       DPTR,#DMA_CH
   \   000086   F0           MOVX      @DPTR,A
    367            ST_DEF(DMA_CH[0], LENL, 16);
   \   000087   90....       MOV       DPTR,#DMA_CH + 5
   \   00008A   7410         MOV       A,#0x10
   \   00008C   F0           MOVX      @DPTR,A
    368            DMAARM |= 0x01;
   \   00008D   43D601       ORL       0xd6,#0x1
    369            while(!AES_RDY());
   \                     ??CBCMAC_buf_encrypt_3:
   \   000090   E5B3         MOV       A,0xb3
   \   000092   A2E3         MOV       C,0xE0 /* A   */.3
   \   000094   50FA         JNC       ??CBCMAC_buf_encrypt_3
    370            AES_START();
   \   000096   43B301       ORL       0xb3,#0x1
    371            while (DMAARM&0x01);
   \                     ??CBCMAC_buf_encrypt_4:
   \   000099   E5D6         MOV       A,0xd6
   \   00009B   A2E0         MOV       C,0xE0 /* A   */.0
   \   00009D   40FA         JC        ??CBCMAC_buf_encrypt_4
    372            };
    373            
    374            // Устанавливаем операцию шифрования
    375            AES_SET_OPERATION(AES_ENCRYPT);
   \   00009F   53B3F8       ANL       0xb3,#0xf8
    376            
    377            // Загрузка блоками по 128 бит
    378            uint8_t nbrBlocks = len / 16; // Количество целых блоков по 128 бит
   \   0000A2   75F010       MOV       B,#0x10
   \   0000A5   E5..         MOV       A,?V1
   \   0000A7   84           DIV       AB
   \   0000A8   F5..         MOV       ?V0,A
    379            uint8_t block_len = len % 16; // Размер последнего блока
   \   0000AA   E5..         MOV       A,?V1
   \   0000AC   75F010       MOV       B,#0x10
   \   0000AF   84           DIV       AB
   \   0000B0   E5F0         MOV       A,B
   \   0000B2   FF           MOV       R7,A
    380            uint8_t ptr; // Смещение
    381                
    382            // Для этого типа шифрования длина блоков по 16 байт
    383            ST_DEF(DMA_CH[0], LENL, 16);
   \   0000B3   90....       MOV       DPTR,#DMA_CH + 5
   \   0000B6   7410         MOV       A,#0x10
   \   0000B8   F0           MOVX      @DPTR,A
    384            // Устанавливаем куда будем выгружать вычисленный MAC
    385            ST_DEF(DMA_CH[1], DSTADDRL, LADDR(mac));
   \   0000B9   E5..         MOV       A,?V4
   \   0000BB   90....       MOV       DPTR,#DMA_CH + 11
   \   0000BE   F0           MOVX      @DPTR,A
    386            ST_DEF(DMA_CH[1], DSTADDRH, HADDR(mac));
   \   0000BF   A8..         MOV       R0,?V4
   \   0000C1   A9..         MOV       R1,?V5
   \   0000C3   E4           CLR       A
   \   0000C4   C9           XCH       A,R1
   \   0000C5   F8           MOV       R0,A
   \   0000C6   E8           MOV       A,R0
   \   0000C7   90....       MOV       DPTR,#DMA_CH + 10
   \   0000CA   F0           MOVX      @DPTR,A
    387            ST_DEF(DMA_CH[1], LENL, 16);
   \   0000CB   90....       MOV       DPTR,#DMA_CH + 13
   \   0000CE   7410         MOV       A,#0x10
   \   0000D0   F0           MOVX      @DPTR,A
    388            
    389            // Шифруем все целые блоки
    390            for (uint8_t block = 0; block < nbrBlocks; block ++)
   \   0000D1   7A00         MOV       R2,#0x0
   \                     ??CBCMAC_buf_encrypt_5:
   \   0000D3   EA           MOV       A,R2
   \   0000D4   C3           CLR       C
   \   0000D5   95..         SUBB      A,?V0
   \   0000D7   5078         JNC       ??CBCMAC_buf_encrypt_6
    391              {
    392                // Последний блок шифруем в режиме CBC при условии что нет блок не 
    393                // кратного 16 байтам.
    394                if (!block_len && (block == nbrBlocks - 1))
   \   0000D9   EF           MOV       A,R7
   \   0000DA   701F         JNZ       ??CBCMAC_buf_encrypt_7
   \   0000DC   EA           MOV       A,R2
   \   0000DD   FC           MOV       R4,A
   \   0000DE   7D00         MOV       R5,#0x0
   \   0000E0   E5..         MOV       A,?V0
   \   0000E2   F8           MOV       R0,A
   \   0000E3   7900         MOV       R1,#0x0
   \   0000E5   E8           MOV       A,R0
   \   0000E6   24FF         ADD       A,#-0x1
   \   0000E8   F8           MOV       R0,A
   \   0000E9   E9           MOV       A,R1
   \   0000EA   34FF         ADDC      A,#-0x1
   \   0000EC   F9           MOV       R1,A
   \   0000ED   E8           MOV       A,R0
   \   0000EE   6C           XRL       A,R4
   \   0000EF   7002         JNZ       ??CBCMAC_buf_encrypt_8
   \   0000F1   E9           MOV       A,R1
   \   0000F2   6D           XRL       A,R5
   \                     ??CBCMAC_buf_encrypt_8:
   \   0000F3   7006         JNZ       ??CBCMAC_buf_encrypt_7
    395                  AES_SET_MODE(AES_MODE_CBC);
   \   0000F5   53B38F       ANL       0xb3,#0x8f
   \   0000F8   85B3B3       MOV       0xb3,0xb3
    396                    
    397                ptr = 16 * block;
   \                     ??CBCMAC_buf_encrypt_7:
   \   0000FB   75F010       MOV       B,#0x10
   \   0000FE   EA           MOV       A,R2
   \   0000FF   A4           MUL       AB
   \   000100   FE           MOV       R6,A
    398                while(!AES_RDY());
   \                     ??CBCMAC_buf_encrypt_9:
   \   000101   E5B3         MOV       A,0xb3
   \   000103   A2E3         MOV       C,0xE0 /* A   */.3
   \   000105   50FA         JNC       ??CBCMAC_buf_encrypt_9
    399                AES_START();
   \   000107   43B301       ORL       0xb3,#0x1
    400                // Указываем адресс DMA откуда читать данные
    401                ST_DEF(DMA_CH[0], SRCADDRL, LADDR(buf[ptr]));
   \   00010A   EE           MOV       A,R6
   \   00010B   F8           MOV       R0,A
   \   00010C   7900         MOV       R1,#0x0
   \   00010E   74..         MOV       A,#??buf & 0xff
   \   000110   28           ADD       A,R0
   \   000111   F582         MOV       DPL,A
   \   000113   74..         MOV       A,#(??buf >> 8) & 0xff
   \   000115   39           ADDC      A,R1
   \   000116   F583         MOV       DPH,A
   \   000118   E0           MOVX      A,@DPTR
   \   000119   90....       MOV       DPTR,#DMA_CH + 1
   \   00011C   F0           MOVX      @DPTR,A
    402                ST_DEF(DMA_CH[0], SRCADDRH, HADDR(buf[ptr]));
   \   00011D   90....       MOV       DPTR,#DMA_CH
   \   000120   7400         MOV       A,#0x0
   \   000122   F0           MOVX      @DPTR,A
    403                // Активируем DMA
    404                DMAARM |= 0x01;  
   \   000123   43D601       ORL       0xd6,#0x1
    405                // Активируем выгрузку только последнего блока
    406                if (!block_len && (block == nbrBlocks - 1))
   \   000126   EF           MOV       A,R7
   \   000127   701C         JNZ       ??CBCMAC_buf_encrypt_10
   \   000129   EA           MOV       A,R2
   \   00012A   FC           MOV       R4,A
   \   00012B   7D00         MOV       R5,#0x0
   \   00012D   E5..         MOV       A,?V0
   \   00012F   F8           MOV       R0,A
   \   000130   7900         MOV       R1,#0x0
   \   000132   E8           MOV       A,R0
   \   000133   24FF         ADD       A,#-0x1
   \   000135   F8           MOV       R0,A
   \   000136   E9           MOV       A,R1
   \   000137   34FF         ADDC      A,#-0x1
   \   000139   F9           MOV       R1,A
   \   00013A   E8           MOV       A,R0
   \   00013B   6C           XRL       A,R4
   \   00013C   7002         JNZ       ??CBCMAC_buf_encrypt_11
   \   00013E   E9           MOV       A,R1
   \   00013F   6D           XRL       A,R5
   \                     ??CBCMAC_buf_encrypt_11:
   \   000140   7003         JNZ       ??CBCMAC_buf_encrypt_10
    407                  DMAARM |= 0x03;
   \   000142   43D603       ORL       0xd6,#0x3
    408                
    409                DMAREQ |= 0x01;
   \                     ??CBCMAC_buf_encrypt_10:
   \   000145   43D701       ORL       0xd7,#0x1
    410                while (DMAARM&0x03);          
   \                     ??CBCMAC_buf_encrypt_12:
   \   000148   E5D6         MOV       A,0xd6
   \   00014A   5403         ANL       A,#0x3
   \   00014C   70FA         JNZ       ??CBCMAC_buf_encrypt_12
    411               }
   \   00014E   0A           INC       R2
   \   00014F   8082         SJMP      ??CBCMAC_buf_encrypt_5
    412                 
    413            // Шифруем последний блок в режиме CBC
    414            AES_SET_MODE(AES_MODE_CBC);
   \                     ??CBCMAC_buf_encrypt_6:
   \   000151   53B38F       ANL       0xb3,#0x8f
   \   000154   85B3B3       MOV       0xb3,0xb3
    415                    
    416            // Завершаем работу если блок пустой
    417            if (!block_len)
   \   000157   EF           MOV       A,R7
   \   000158   6071         JZ        ??CBCMAC_buf_encrypt_13
    418              return;
    419                
    420            uint8_t padding_block[16]; // Блок заполненый нулями
    421            ptr = 16*nbrBlocks; // Смещение на первый байт последнего блока в src
   \   00015A   75F010       MOV       B,#0x10
   \   00015D   E5..         MOV       A,?V0
   \   00015F   A4           MUL       AB
   \   000160   FE           MOV       R6,A
    422            memset(padding_block, 0x00, sizeof(padding_block)); // Заполняем нулями
   \   000161                ; Setup parameters for call to function memset
   \   000161   75..10       MOV       ?V2,#0x10
   \   000164   75..00       MOV       ?V3,#0x0
   \   000167   78..         MOV       R0,#?V2
   \   000169   12....       LCALL     ?PUSH_XSTACK_I_TWO
   \   00016C   7C00         MOV       R4,#0x0
   \   00016E   7D00         MOV       R5,#0x0
   \   000170   7402         MOV       A,#0x2
   \   000172   12....       LCALL     ?XSTACK_DISP101_8
   \   000175   12....       LCALL     `??memset::?relay`; Banked call to: memset
   \   000178   7402         MOV       A,#0x2
   \   00017A   12....       LCALL     ?DEALLOC_XSTACK8
    423            memcpy(padding_block, &buf[ptr], block_len); // Копируем данные
   \   00017D                ; Setup parameters for call to function memcpy
   \   00017D   EF           MOV       A,R7
   \   00017E   F5..         MOV       ?V2,A
   \   000180   75..00       MOV       ?V3,#0x0
   \   000183   78..         MOV       R0,#?V2
   \   000185   12....       LCALL     ?PUSH_XSTACK_I_TWO
   \   000188   EE           MOV       A,R6
   \   000189   F8           MOV       R0,A
   \   00018A   7900         MOV       R1,#0x0
   \   00018C   74..         MOV       A,#??buf & 0xff
   \   00018E   28           ADD       A,R0
   \   00018F   FC           MOV       R4,A
   \   000190   74..         MOV       A,#(??buf >> 8) & 0xff
   \   000192   39           ADDC      A,R1
   \   000193   FD           MOV       R5,A
   \   000194   7402         MOV       A,#0x2
   \   000196   12....       LCALL     ?XSTACK_DISP101_8
   \   000199   12....       LCALL     `??memcpy::?relay`; Banked call to: memcpy
   \   00019C   7402         MOV       A,#0x2
   \   00019E   12....       LCALL     ?DEALLOC_XSTACK8
    424                
    425            while(!AES_RDY());
   \                     ??CBCMAC_buf_encrypt_14:
   \   0001A1   E5B3         MOV       A,0xb3
   \   0001A3   A2E3         MOV       C,0xE0 /* A   */.3
   \   0001A5   50FA         JNC       ??CBCMAC_buf_encrypt_14
    426            AES_START();
   \   0001A7   43B301       ORL       0xb3,#0x1
    427            // Указываем адресс DMA откуда читать данные
    428            ST_DEF(DMA_CH[0], SRCADDRL, LADDR(padding_block));
   \   0001AA   A8..         MOV       R0,?XSP + 0
   \   0001AC   A9..         MOV       R1,?XSP + 1
   \   0001AE   E8           MOV       A,R0
   \   0001AF   90....       MOV       DPTR,#DMA_CH + 1
   \   0001B2   F0           MOVX      @DPTR,A
    429            ST_DEF(DMA_CH[0], SRCADDRH, HADDR(padding_block));
   \   0001B3   A8..         MOV       R0,?XSP + 0
   \   0001B5   A9..         MOV       R1,?XSP + 1
   \   0001B7   E4           CLR       A
   \   0001B8   C9           XCH       A,R1
   \   0001B9   F8           MOV       R0,A
   \   0001BA   E8           MOV       A,R0
   \   0001BB   90....       MOV       DPTR,#DMA_CH
   \   0001BE   F0           MOVX      @DPTR,A
    430            // Активируем DMA и выгрузку MAC
    431            DMAARM |= 0x03;  
   \   0001BF   43D603       ORL       0xd6,#0x3
    432            DMAREQ |= 0x01;
   \   0001C2   43D701       ORL       0xd7,#0x1
    433            while (DMAARM&0x03);
   \                     ??CBCMAC_buf_encrypt_15:
   \   0001C5   E5D6         MOV       A,0xd6
   \   0001C7   5403         ANL       A,#0x3
   \   0001C9   70FA         JNZ       ??CBCMAC_buf_encrypt_15
    434          }
   \                     ??CBCMAC_buf_encrypt_13:
   \   0001CB   7420         MOV       A,#0x20
   \   0001CD   12....       LCALL     ?DEALLOC_XSTACK8
   \   0001D0   7F08         MOV       R7,#0x8
   \   0001D2   02....       LJMP      ?BANKED_LEAVE_XDATA
   \   0001D5                REQUIRE ENCCS
   \   0001D5                REQUIRE DMAARM
   \   0001D5                REQUIRE DMAREQ
    435          

   \                                 In  segment BANKED_CODE, align 1, keep-with-next
    436          static inline uint8_t generateAuthData(uint8_t *src, uint8_t *nonce, uint8_t c,
   \                     ??generateAuthData:
    437                                                 uint8_t f, uint8_t lm)
    438          {
   \   000000                REQUIRE ?V0
   \   000000                REQUIRE ?V1
   \   000000                REQUIRE ?V2
   \   000000                REQUIRE ?V3
   \   000000                REQUIRE ?V4
   \   000000                REQUIRE ?V5
   \   000000                REQUIRE ?V6
   \   000000                REQUIRE ?V7
   \   000000   74F0         MOV       A,#-0x10
   \   000002   12....       LCALL     ?BANKED_ENTER_XDATA
   \   000005                ; Saved register size: 16
   \   000005                ; Auto size: 0
   \   000005   8A..         MOV       ?V4,R2
   \   000007   8B..         MOV       ?V5,R3
   \   000009   8C..         MOV       ?V6,R4
   \   00000B   8D..         MOV       ?V7,R5
   \   00000D   E9           MOV       A,R1
   \   00000E   FF           MOV       R7,A
   \   00000F   7410         MOV       A,#0x10
   \   000011   12....       LCALL     ?XSTACK_DISP0_8
   \   000014   E0           MOVX      A,@DPTR
   \   000015   FE           MOV       R6,A
   \   000016   7411         MOV       A,#0x11
   \   000018   12....       LCALL     ?XSTACK_DISP0_8
   \   00001B   E0           MOVX      A,@DPTR
   \   00001C   F5..         MOV       ?V1,A
    439            memcpy(buf, nonce,16);
   \   00001E                ; Setup parameters for call to function memcpy
   \   00001E   75..10       MOV       ?V2,#0x10
   \   000021   75..00       MOV       ?V3,#0x0
   \   000024   78..         MOV       R0,#?V2
   \   000026   12....       LCALL     ?PUSH_XSTACK_I_TWO
   \   000029   AC..         MOV       R4,?V6
   \   00002B   AD..         MOV       R5,?V7
   \   00002D   7A..         MOV       R2,#??buf & 0xff
   \   00002F   7B..         MOV       R3,#(??buf >> 8) & 0xff
   \   000031   12....       LCALL     `??memcpy::?relay`; Banked call to: memcpy
   \   000034   7402         MOV       A,#0x2
   \   000036   12....       LCALL     ?DEALLOC_XSTACK8
    440            
    441            // Буфер от 0 до 15 байта специальный блок B0
    442            // Настраиваем флаг. У нас длинна 2 байта. nonce 13 байт => L_M = L-1=0x01
    443            buf[0]=  0x01;  
   \   000039   90....       MOV       DPTR,#??buf
   \   00003C   7401         MOV       A,#0x1
   \   00003E   F0           MOVX      @DPTR,A
    444            // Если есть данные для авторизации установим A_Data 
    445            if (f > 0)
   \   00003F   EE           MOV       A,R6
   \   000040   6007         JZ        ??generateAuthData_1
    446              buf[0] |= 0x40;
   \   000042   90....       MOV       DPTR,#??buf
   \   000045   E0           MOVX      A,@DPTR
   \   000046   D2E6         SETB      0xE0 /* A   */.6
   \   000048   F0           MOVX      @DPTR,A
    447            
    448            buf[0] |= ((lm - 2) / 2 ) << 3;   // см. документацию M'= (lm-2) / 2;
   \                     ??generateAuthData_1:
   \   000049   E5..         MOV       A,?V1
   \   00004B   F8           MOV       R0,A
   \   00004C   7900         MOV       R1,#0x0
   \   00004E   E8           MOV       A,R0
   \   00004F   24FE         ADD       A,#-0x2
   \   000051   F8           MOV       R0,A
   \   000052   E9           MOV       A,R1
   \   000053   34FF         ADDC      A,#-0x1
   \   000055   F9           MOV       R1,A
   \   000056   7A02         MOV       R2,#0x2
   \   000058   7B00         MOV       R3,#0x0
   \   00005A   12....       LCALL     ?S_DIV_MOD
   \   00005D   E8           MOV       A,R0
   \   00005E   33           RLC       A
   \   00005F   33           RLC       A
   \   000060   33           RLC       A
   \   000061   54F8         ANL       A,#0xf8
   \   000063   F8           MOV       R0,A
   \   000064   90....       MOV       DPTR,#??buf
   \   000067   E0           MOVX      A,@DPTR
   \   000068   48           ORL       A,R0
   \   000069   F0           MOVX      @DPTR,A
    449            
    450            // Устанавливаем длинну сообщения
    451            buf[14] = 0x00;
   \   00006A   90....       MOV       DPTR,#??buf + 14
   \   00006D   7400         MOV       A,#0x0
   \   00006F   F0           MOVX      @DPTR,A
    452            buf[15] = c;
   \   000070   EF           MOV       A,R7
   \   000071   90....       MOV       DPTR,#??buf + 15
   \   000074   F0           MOVX      @DPTR,A
    453            
    454            // Добавляем строку авторизации L(a). если данных нет, то она пустая. f=0
    455            buf[16]= 0;
   \   000075   90....       MOV       DPTR,#??buf + 16
   \   000078   7400         MOV       A,#0x0
   \   00007A   F0           MOVX      @DPTR,A
    456            buf[17]= f;
   \   00007B   EE           MOV       A,R6
   \   00007C   90....       MOV       DPTR,#??buf + 17
   \   00007F   F0           MOVX      @DPTR,A
    457            
    458            // Копируем данные авторизации в буфер
    459            memcpy(&buf[18], src, f);
   \   000080                ; Setup parameters for call to function memcpy
   \   000080   EE           MOV       A,R6
   \   000081   F5..         MOV       ?V2,A
   \   000083   75..00       MOV       ?V3,#0x0
   \   000086   78..         MOV       R0,#?V2
   \   000088   12....       LCALL     ?PUSH_XSTACK_I_TWO
   \   00008B   AC..         MOV       R4,?V4
   \   00008D   AD..         MOV       R5,?V5
   \   00008F   7A..         MOV       R2,#(??buf + 18) & 0xff
   \   000091   7B..         MOV       R3,#((??buf + 18) >> 8) & 0xff
   \   000093   12....       LCALL     `??memcpy::?relay`; Banked call to: memcpy
   \   000096   7402         MOV       A,#0x2
   \   000098   12....       LCALL     ?DEALLOC_XSTACK8
    460            
    461            // Смещение на следующий байт после данных авторизации.
    462            // Данные авторизации занимают положение в буфере [18, 18+f]
    463            uint8_t ptr_end= 18 + f;
   \   00009B   7412         MOV       A,#0x12
   \   00009D   2E           ADD       A,R6
   \   00009E   F5..         MOV       ?V0,A
    464            // Заполняем нулями до границы 16 байт  
    465            while (ptr_end & 0x0f)
   \                     ??generateAuthData_2:
   \   0000A0   740F         MOV       A,#0xf
   \   0000A2   55..         ANL       A,?V0
   \   0000A4   6016         JZ        ??generateAuthData_3
    466              buf[ptr_end++] = 0x00;
   \   0000A6   E5..         MOV       A,?V0
   \   0000A8   F8           MOV       R0,A
   \   0000A9   7900         MOV       R1,#0x0
   \   0000AB   74..         MOV       A,#??buf & 0xff
   \   0000AD   28           ADD       A,R0
   \   0000AE   F582         MOV       DPL,A
   \   0000B0   74..         MOV       A,#(??buf >> 8) & 0xff
   \   0000B2   39           ADDC      A,R1
   \   0000B3   F583         MOV       DPH,A
   \   0000B5   7400         MOV       A,#0x0
   \   0000B7   F0           MOVX      @DPTR,A
   \   0000B8   05..         INC       ?V0
   \   0000BA   80E4         SJMP      ??generateAuthData_2
    467            
    468            // Копируем данные для шифрования в буфер после нулей
    469            memcpy(&buf[ptr_end], &src[f], c);
   \                     ??generateAuthData_3:
   \   0000BC                ; Setup parameters for call to function memcpy
   \   0000BC   EF           MOV       A,R7
   \   0000BD   F5..         MOV       ?V2,A
   \   0000BF   75..00       MOV       ?V3,#0x0
   \   0000C2   78..         MOV       R0,#?V2
   \   0000C4   12....       LCALL     ?PUSH_XSTACK_I_TWO
   \   0000C7   EE           MOV       A,R6
   \   0000C8   F8           MOV       R0,A
   \   0000C9   7900         MOV       R1,#0x0
   \   0000CB   E5..         MOV       A,?V4
   \   0000CD   28           ADD       A,R0
   \   0000CE   FC           MOV       R4,A
   \   0000CF   E5..         MOV       A,?V5
   \   0000D1   39           ADDC      A,R1
   \   0000D2   FD           MOV       R5,A
   \   0000D3   E5..         MOV       A,?V0
   \   0000D5   F8           MOV       R0,A
   \   0000D6   7900         MOV       R1,#0x0
   \   0000D8   74..         MOV       A,#??buf & 0xff
   \   0000DA   28           ADD       A,R0
   \   0000DB   FA           MOV       R2,A
   \   0000DC   74..         MOV       A,#(??buf >> 8) & 0xff
   \   0000DE   39           ADDC      A,R1
   \   0000DF   FB           MOV       R3,A
   \   0000E0   12....       LCALL     `??memcpy::?relay`; Banked call to: memcpy
   \   0000E3   7402         MOV       A,#0x2
   \   0000E5   12....       LCALL     ?DEALLOC_XSTACK8
    470            
    471            // Возвращаем размер данных в буфере
    472            return ptr_end+c;
   \   0000E8   E5..         MOV       A,?V0
   \   0000EA   2F           ADD       A,R7
   \   0000EB   F9           MOV       R1,A
   \   0000EC   7F08         MOV       R7,#0x8
   \   0000EE   02....       LJMP      ?BANKED_LEAVE_XDATA
    473          };
    474          
    475          /**
    476          @brief Шифрует/дешифрует данные с проверкой MIC
    477          @param[in] src Указатель на данные подлежащии шифрованию
    478          @param[in] len Размер данных
    479          @param[in] с Количество байт для шифрования
    480          @param[in] f Количество байт для авторизации
    481          @param[in] m Размер MIC (m=1,2,3 l(m) = 4,8,16 байт)
    482          @param[in] iv  Указатель на вектор иницилизации. 16 байт 
    483          @param[in] len Длинна данных
    484          @param[in,out] MIC Указатель на массив соответсвующий длинне (4,8,16 байт)
    485          */

   \                                 In  segment BANKED_CODE, align 1, keep-with-next
    486          void AES_CCMEncrypt( uint8_t *src, uint8_t c, uint8_t f, uint8_t m, uint8_t *MIC)
   \                     AES_CCMEncrypt:
    487          {
   \   000000                REQUIRE ?V0
   \   000000                REQUIRE ?V1
   \   000000                REQUIRE ?V2
   \   000000                REQUIRE ?V3
   \   000000                REQUIRE ?V4
   \   000000                REQUIRE ?V5
   \   000000                REQUIRE ?V6
   \   000000                REQUIRE ?V7
   \   000000   74F0         MOV       A,#-0x10
   \   000002   12....       LCALL     ?BANKED_ENTER_XDATA
   \   000005                ; Saved register size: 16
   \   000005                ; Auto size: 36
   \   000005   74DC         MOV       A,#-0x24
   \   000007   12....       LCALL     ?ALLOC_XSTACK8
   \   00000A   7402         MOV       A,#0x2
   \   00000C   12....       LCALL     ?XSTACK_DISP0_8
   \   00000F   EA           MOV       A,R2
   \   000010   F0           MOVX      @DPTR,A
   \   000011   A3           INC       DPTR
   \   000012   EB           MOV       A,R3
   \   000013   F0           MOVX      @DPTR,A
   \   000014   89..         MOV       ?V0,R1
   \   000016   8C..         MOV       ?V4,R4
   \   000018   8D..         MOV       ?V5,R5
    488            uint8_t *key = (uint8_t*)MODEL.AES.CCM_KEY;  
   \   00001A   75....       MOV       ?V6,#(MODEL + 44) & 0xff
   \   00001D   75....       MOV       ?V7,#((MODEL + 44) >> 8) & 0xff
    489            uint8_t *nonce = (uint8_t*)MODEL.AES.CCM_IV; 
   \   000020   85..82       MOV       DPL,?XSP + 0
   \   000023   85..83       MOV       DPH,?XSP + 1
   \   000026   74..         MOV       A,#(MODEL + 60) & 0xff
   \   000028   F0           MOVX      @DPTR,A
   \   000029   A3           INC       DPTR
   \   00002A   74..         MOV       A,#((MODEL + 60) >> 8) & 0xff
   \   00002C   F0           MOVX      @DPTR,A
    490            uint8_t lm = MIC_2_MICLEN(m);
   \   00002D   7401         MOV       A,#0x1
   \   00002F   C0E0         PUSH      A
   \   000031   7403         MOV       A,#0x3
   \   000033   55..         ANL       A,?V5
   \   000035   2401         ADD       A,#0x1
   \   000037   F8           MOV       R0,A
   \   000038   D0E0         POP       A
   \   00003A   B80002       CJNE      R0,#0x0,??AES_CCMEncrypt_0
   \   00003D   8004         SJMP      ??AES_CCMEncrypt_1
   \                     ??AES_CCMEncrypt_0:
   \   00003F   C3           CLR       C
   \   000040   33           RLC       A
   \   000041   D8FC         DJNZ      R0,??AES_CCMEncrypt_0
   \                     ??AES_CCMEncrypt_1:
   \   000043   54FC         ANL       A,#0xfc
   \   000045   F5..         MOV       ?V1,A
    491            
    492            // Генерируем данные для авторизации
    493            uint8_t dlen = generateAuthData(src, nonce, c, f, lm);
   \   000047                ; Setup parameters for call to function generateAuthData
   \   000047   E5..         MOV       A,?V1
   \   000049   F5..         MOV       ?V2,A
   \   00004B   78..         MOV       R0,#?V2
   \   00004D   12....       LCALL     ?PUSH_XSTACK_I_ONE
   \   000050   E5..         MOV       A,?V4
   \   000052   F5..         MOV       ?V2,A
   \   000054   78..         MOV       R0,#?V2
   \   000056   12....       LCALL     ?PUSH_XSTACK_I_ONE
   \   000059   A9..         MOV       R1,?V0
   \   00005B   7402         MOV       A,#0x2
   \   00005D   12....       LCALL     ?XSTACK_DISP0_8
   \   000060   E0           MOVX      A,@DPTR
   \   000061   FC           MOV       R4,A
   \   000062   A3           INC       DPTR
   \   000063   E0           MOVX      A,@DPTR
   \   000064   FD           MOV       R5,A
   \   000065   7404         MOV       A,#0x4
   \   000067   12....       LCALL     ?XSTACK_DISP0_8
   \   00006A   E0           MOVX      A,@DPTR
   \   00006B   FA           MOV       R2,A
   \   00006C   A3           INC       DPTR
   \   00006D   E0           MOVX      A,@DPTR
   \   00006E   FB           MOV       R3,A
   \   00006F   12....       LCALL     `??generateAuthData::?relay`; Banked call to: generateAuthData
   \   000072   7402         MOV       A,#0x2
   \   000074   12....       LCALL     ?DEALLOC_XSTACK8
   \   000077   E9           MOV       A,R1
   \   000078   FE           MOV       R6,A
    494            
    495            uint8_t mac[16]; // Сюда пишем мак
    496            CBCMAC_buf_encrypt(dlen, key, mac);
   \   000079                ; Setup parameters for call to function CBCMAC_buf_encrypt
   \   000079   7414         MOV       A,#0x14
   \   00007B   12....       LCALL     ?XSTACK_DISP102_8
   \   00007E   AA..         MOV       R2,?V6
   \   000080   AB..         MOV       R3,?V7
   \   000082   EE           MOV       A,R6
   \   000083   F9           MOV       R1,A
   \   000084   12....       LCALL     `??CBCMAC_buf_encrypt::?relay`; Banked call to: CBCMAC_buf_encrypt
    497            
    498            // Шифруем MAC
    499            uint8_t CTR_IV[16];
    500            memcpy(CTR_IV, nonce, 16);
   \   000087                ; Setup parameters for call to function memcpy
   \   000087   75..10       MOV       ?V2,#0x10
   \   00008A   75..00       MOV       ?V3,#0x0
   \   00008D   78..         MOV       R0,#?V2
   \   00008F   12....       LCALL     ?PUSH_XSTACK_I_TWO
   \   000092   7402         MOV       A,#0x2
   \   000094   12....       LCALL     ?XSTACK_DISP0_8
   \   000097   E0           MOVX      A,@DPTR
   \   000098   FC           MOV       R4,A
   \   000099   A3           INC       DPTR
   \   00009A   E0           MOVX      A,@DPTR
   \   00009B   FD           MOV       R5,A
   \   00009C   7406         MOV       A,#0x6
   \   00009E   12....       LCALL     ?XSTACK_DISP101_8
   \   0000A1   12....       LCALL     `??memcpy::?relay`; Banked call to: memcpy
   \   0000A4   7402         MOV       A,#0x2
   \   0000A6   12....       LCALL     ?DEALLOC_XSTACK8
    501            CTR_IV[0] = 0x01; // Флаг режима CTR
   \   0000A9   7404         MOV       A,#0x4
   \   0000AB   12....       LCALL     ?XSTACK_DISP0_8
   \   0000AE   7401         MOV       A,#0x1
   \   0000B0   F0           MOVX      @DPTR,A
    502            CTR_IV[15] = 0;   // Значение счетчика
   \   0000B1   7413         MOV       A,#0x13
   \   0000B3   12....       LCALL     ?XSTACK_DISP0_8
   \   0000B6   7400         MOV       A,#0x0
   \   0000B8   F0           MOVX      @DPTR,A
    503            CTR_enc_decrypt(true, mac, mac, key, CTR_IV, 16);
   \   0000B9                ; Setup parameters for call to function CTR_enc_decrypt
   \   0000B9   7404         MOV       A,#0x4
   \   0000BB   12....       LCALL     ?XSTACK_DISP100_8
   \   0000BE   88..         MOV       ?V2,R0
   \   0000C0   89..         MOV       ?V3,R1
   \   0000C2   78..         MOV       R0,#?V2
   \   0000C4   12....       LCALL     ?PUSH_XSTACK_I_TWO
   \   0000C7   85....       MOV       ?V2,?V6
   \   0000CA   85....       MOV       ?V3,?V7
   \   0000CD   78..         MOV       R0,#?V2
   \   0000CF   12....       LCALL     ?PUSH_XSTACK_I_TWO
   \   0000D2   7910         MOV       R1,#0x10
   \   0000D4   7418         MOV       A,#0x18
   \   0000D6   12....       LCALL     ?XSTACK_DISP102_8
   \   0000D9   7418         MOV       A,#0x18
   \   0000DB   12....       LCALL     ?XSTACK_DISP101_8
   \   0000DE   D2F0         SETB      B.0
   \   0000E0   12....       LCALL     `??CTR_enc_decrypt::?relay`; Banked call to: CTR_enc_decrypt
   \   0000E3   7404         MOV       A,#0x4
   \   0000E5   12....       LCALL     ?DEALLOC_XSTACK8
    504            
    505            // Шифруем текст. он имеет размер 'c' и находится в буфере начиная с
    506            // dlen-c, dlen
    507            uint8_t ds = dlen - c; // Начало данных для шифрования
   \   0000E8   EE           MOV       A,R6
   \   0000E9   C3           CLR       C
   \   0000EA   95..         SUBB      A,?V0
   \   0000EC   FF           MOV       R7,A
    508            
    509            // 0x0F & (16 - (dlen & 0x0f)) оставляет числа от 0 до 15  
    510            memset(buf+dlen, 0x00, 0x0F & (16 - (dlen & 0x0f)) ); // Дополняем нулями
   \   0000ED                ; Setup parameters for call to function memset
   \   0000ED   EE           MOV       A,R6
   \   0000EE   F8           MOV       R0,A
   \   0000EF   7900         MOV       R1,#0x0
   \   0000F1   7410         MOV       A,#0x10
   \   0000F3   C3           CLR       C
   \   0000F4   98           SUBB      A,R0
   \   0000F5   F8           MOV       R0,A
   \   0000F6   7400         MOV       A,#0x0
   \   0000F8   99           SUBB      A,R1
   \   0000F9   F9           MOV       R1,A
   \   0000FA   E8           MOV       A,R0
   \   0000FB   540F         ANL       A,#0xf
   \   0000FD   F5..         MOV       ?V2,A
   \   0000FF   E9           MOV       A,R1
   \   000100   5400         ANL       A,#0x0
   \   000102   F5..         MOV       ?V3,A
   \   000104   78..         MOV       R0,#?V2
   \   000106   12....       LCALL     ?PUSH_XSTACK_I_TWO
   \   000109   7C00         MOV       R4,#0x0
   \   00010B   7D00         MOV       R5,#0x0
   \   00010D   EE           MOV       A,R6
   \   00010E   F8           MOV       R0,A
   \   00010F   7900         MOV       R1,#0x0
   \   000111   74..         MOV       A,#??buf & 0xff
   \   000113   28           ADD       A,R0
   \   000114   FA           MOV       R2,A
   \   000115   74..         MOV       A,#(??buf >> 8) & 0xff
   \   000117   39           ADDC      A,R1
   \   000118   FB           MOV       R3,A
   \   000119   12....       LCALL     `??memset::?relay`; Banked call to: memset
   \   00011C   7402         MOV       A,#0x2
   \   00011E   12....       LCALL     ?DEALLOC_XSTACK8
    511            CTR_IV[15] = 1; // Счетчик CTR
   \   000121   7413         MOV       A,#0x13
   \   000123   12....       LCALL     ?XSTACK_DISP0_8
   \   000126   7401         MOV       A,#0x1
   \   000128   F0           MOVX      @DPTR,A
    512            CTR_enc_decrypt(true, &buf[ds], &buf[ds], key, CTR_IV, c); // Шифруем
   \   000129                ; Setup parameters for call to function CTR_enc_decrypt
   \   000129   7404         MOV       A,#0x4
   \   00012B   12....       LCALL     ?XSTACK_DISP100_8
   \   00012E   88..         MOV       ?V2,R0
   \   000130   89..         MOV       ?V3,R1
   \   000132   78..         MOV       R0,#?V2
   \   000134   12....       LCALL     ?PUSH_XSTACK_I_TWO
   \   000137   85....       MOV       ?V2,?V6
   \   00013A   85....       MOV       ?V3,?V7
   \   00013D   78..         MOV       R0,#?V2
   \   00013F   12....       LCALL     ?PUSH_XSTACK_I_TWO
   \   000142   A9..         MOV       R1,?V0
   \   000144   EF           MOV       A,R7
   \   000145   FA           MOV       R2,A
   \   000146   7B00         MOV       R3,#0x0
   \   000148   74..         MOV       A,#??buf & 0xff
   \   00014A   2A           ADD       A,R2
   \   00014B   FC           MOV       R4,A
   \   00014C   74..         MOV       A,#(??buf >> 8) & 0xff
   \   00014E   3B           ADDC      A,R3
   \   00014F   FD           MOV       R5,A
   \   000150   EF           MOV       A,R7
   \   000151   FA           MOV       R2,A
   \   000152   7B00         MOV       R3,#0x0
   \   000154   74..         MOV       A,#??buf & 0xff
   \   000156   2A           ADD       A,R2
   \   000157   FA           MOV       R2,A
   \   000158   74..         MOV       A,#(??buf >> 8) & 0xff
   \   00015A   3B           ADDC      A,R3
   \   00015B   FB           MOV       R3,A
   \   00015C   D2F0         SETB      B.0
   \   00015E   12....       LCALL     `??CTR_enc_decrypt::?relay`; Banked call to: CTR_enc_decrypt
   \   000161   7404         MOV       A,#0x4
   \   000163   12....       LCALL     ?DEALLOC_XSTACK8
    513            
    514            // Заполняем буфер буфер src. src[0,f] это данные авторизации. 
    515            // src[f, f+c] это шифрованные данные.
    516            memcpy(&src[f], &buf[ds], c); 
   \   000166                ; Setup parameters for call to function memcpy
   \   000166   E5..         MOV       A,?V0
   \   000168   F5..         MOV       ?V2,A
   \   00016A   75..00       MOV       ?V3,#0x0
   \   00016D   78..         MOV       R0,#?V2
   \   00016F   12....       LCALL     ?PUSH_XSTACK_I_TWO
   \   000172   EF           MOV       A,R7
   \   000173   F8           MOV       R0,A
   \   000174   7900         MOV       R1,#0x0
   \   000176   74..         MOV       A,#??buf & 0xff
   \   000178   28           ADD       A,R0
   \   000179   FC           MOV       R4,A
   \   00017A   74..         MOV       A,#(??buf >> 8) & 0xff
   \   00017C   39           ADDC      A,R1
   \   00017D   FD           MOV       R5,A
   \   00017E   E5..         MOV       A,?V4
   \   000180   F8           MOV       R0,A
   \   000181   7900         MOV       R1,#0x0
   \   000183   7404         MOV       A,#0x4
   \   000185   12....       LCALL     ?XSTACK_DISP0_8
   \   000188   E0           MOVX      A,@DPTR
   \   000189   28           ADD       A,R0
   \   00018A   FA           MOV       R2,A
   \   00018B   A3           INC       DPTR
   \   00018C   E0           MOVX      A,@DPTR
   \   00018D   39           ADDC      A,R1
   \   00018E   FB           MOV       R3,A
   \   00018F   12....       LCALL     `??memcpy::?relay`; Banked call to: memcpy
   \   000192   7402         MOV       A,#0x2
   \   000194   12....       LCALL     ?DEALLOC_XSTACK8
    517            memcpy(MIC, mac, lm);
   \   000197                ; Setup parameters for call to function memcpy
   \   000197   E5..         MOV       A,?V1
   \   000199   F5..         MOV       ?V2,A
   \   00019B   75..00       MOV       ?V3,#0x0
   \   00019E   78..         MOV       R0,#?V2
   \   0001A0   12....       LCALL     ?PUSH_XSTACK_I_TWO
   \   0001A3   7416         MOV       A,#0x16
   \   0001A5   12....       LCALL     ?XSTACK_DISP102_8
   \   0001A8   7436         MOV       A,#0x36
   \   0001AA   12....       LCALL     ?XSTACK_DISP0_8
   \   0001AD   E0           MOVX      A,@DPTR
   \   0001AE   FA           MOV       R2,A
   \   0001AF   A3           INC       DPTR
   \   0001B0   E0           MOVX      A,@DPTR
   \   0001B1   FB           MOV       R3,A
   \   0001B2   12....       LCALL     `??memcpy::?relay`; Banked call to: memcpy
   \   0001B5   7402         MOV       A,#0x2
   \   0001B7   12....       LCALL     ?DEALLOC_XSTACK8
    518            
    519            //https://github.com/zhaohengyi/CC2530Example/blob/
    520            //master/source/components/radios/cc2530/hal_rf_security.c
    521          }
   \   0001BA   7424         MOV       A,#0x24
   \   0001BC   12....       LCALL     ?DEALLOC_XSTACK8
   \   0001BF   7F08         MOV       R7,#0x8
   \   0001C1   02....       LJMP      ?BANKED_LEAVE_XDATA
    522          
    523          /**
    524          @brief Дешифрует данные с проверкой MIC
    525          @param[in] src Указатель на данные подлежащии шифрованию
    526          @param[in] len Размер данных
    527          @param[in] с Количество байт для шифрования
    528          @param[in] f Количество байт для авторизации
    529          @param[in] m Размер MIC (m=1,2,3 l(m) = 4,8,16 байт)
    530          @param[in] iv  Указатель на вектор иницилизации. 16 байт 
    531          @param[in] len Длинна данных
    532          @param[in,out] MIC Указатель на массив соответсвующий длинне (4,8,16 байт)
    533          */

   \                                 In  segment BANKED_CODE, align 1, keep-with-next
    534          bool AES_CCMDecrypt( uint8_t *src, uint8_t c, uint8_t f, uint8_t m, uint8_t *MIC)
   \                     AES_CCMDecrypt:
    535          {
   \   000000                REQUIRE ?V0
   \   000000                REQUIRE ?V1
   \   000000                REQUIRE ?V2
   \   000000                REQUIRE ?V3
   \   000000                REQUIRE ?V4
   \   000000                REQUIRE ?V5
   \   000000                REQUIRE ?V6
   \   000000                REQUIRE ?V7
   \   000000   74F0         MOV       A,#-0x10
   \   000002   12....       LCALL     ?BANKED_ENTER_XDATA
   \   000005                ; Saved register size: 16
   \   000005                ; Auto size: 52
   \   000005   74CC         MOV       A,#-0x34
   \   000007   12....       LCALL     ?ALLOC_XSTACK8
   \   00000A   7402         MOV       A,#0x2
   \   00000C   12....       LCALL     ?XSTACK_DISP0_8
   \   00000F   EA           MOV       A,R2
   \   000010   F0           MOVX      @DPTR,A
   \   000011   A3           INC       DPTR
   \   000012   EB           MOV       A,R3
   \   000013   F0           MOVX      @DPTR,A
   \   000014   E9           MOV       A,R1
   \   000015   FF           MOV       R7,A
   \   000016   8C..         MOV       ?V4,R4
   \   000018   8D..         MOV       ?V5,R5
    536            uint8_t *key = (uint8_t*)MODEL.AES.CCM_KEY;  
   \   00001A   75....       MOV       ?V6,#(MODEL + 44) & 0xff
   \   00001D   75....       MOV       ?V7,#((MODEL + 44) >> 8) & 0xff
    537            uint8_t *nonce = (uint8_t*)MODEL.AES.CCM_IV;  
   \   000020   85..82       MOV       DPL,?XSP + 0
   \   000023   85..83       MOV       DPH,?XSP + 1
   \   000026   74..         MOV       A,#(MODEL + 60) & 0xff
   \   000028   F0           MOVX      @DPTR,A
   \   000029   A3           INC       DPTR
   \   00002A   74..         MOV       A,#((MODEL + 60) >> 8) & 0xff
   \   00002C   F0           MOVX      @DPTR,A
    538            uint8_t lm = MIC_2_MICLEN(m);
   \   00002D   7401         MOV       A,#0x1
   \   00002F   C0E0         PUSH      A
   \   000031   7403         MOV       A,#0x3
   \   000033   55..         ANL       A,?V5
   \   000035   2401         ADD       A,#0x1
   \   000037   F8           MOV       R0,A
   \   000038   D0E0         POP       A
   \   00003A   B80002       CJNE      R0,#0x0,??AES_CCMDecrypt_0
   \   00003D   8004         SJMP      ??AES_CCMDecrypt_1
   \                     ??AES_CCMDecrypt_0:
   \   00003F   C3           CLR       C
   \   000040   33           RLC       A
   \   000041   D8FC         DJNZ      R0,??AES_CCMDecrypt_0
   \                     ??AES_CCMDecrypt_1:
   \   000043   54FC         ANL       A,#0xfc
   \   000045   F5..         MOV       ?V1,A
    539            
    540            // Расшифровываем MAC
    541            uint8_t mac[16]; // Расшифрованый мак
    542            uint8_t CTR_IV[16];
    543            memcpy(CTR_IV, nonce, 16);
   \   000047                ; Setup parameters for call to function memcpy
   \   000047   75..10       MOV       ?V2,#0x10
   \   00004A   75..00       MOV       ?V3,#0x0
   \   00004D   78..         MOV       R0,#?V2
   \   00004F   12....       LCALL     ?PUSH_XSTACK_I_TWO
   \   000052   7402         MOV       A,#0x2
   \   000054   12....       LCALL     ?XSTACK_DISP0_8
   \   000057   E0           MOVX      A,@DPTR
   \   000058   FC           MOV       R4,A
   \   000059   A3           INC       DPTR
   \   00005A   E0           MOVX      A,@DPTR
   \   00005B   FD           MOV       R5,A
   \   00005C   7406         MOV       A,#0x6
   \   00005E   12....       LCALL     ?XSTACK_DISP101_8
   \   000061   12....       LCALL     `??memcpy::?relay`; Banked call to: memcpy
   \   000064   7402         MOV       A,#0x2
   \   000066   12....       LCALL     ?DEALLOC_XSTACK8
    544            CTR_IV[0] = 0x01; // Флаг режима CTR
   \   000069   7404         MOV       A,#0x4
   \   00006B   12....       LCALL     ?XSTACK_DISP0_8
   \   00006E   7401         MOV       A,#0x1
   \   000070   F0           MOVX      @DPTR,A
    545            CTR_IV[15] = 0;   // Значение счетчика
   \   000071   7413         MOV       A,#0x13
   \   000073   12....       LCALL     ?XSTACK_DISP0_8
   \   000076   7400         MOV       A,#0x0
   \   000078   F0           MOVX      @DPTR,A
    546            CTR_enc_decrypt(false, MIC, mac, key, CTR_IV, lm);  
   \   000079                ; Setup parameters for call to function CTR_enc_decrypt
   \   000079   7404         MOV       A,#0x4
   \   00007B   12....       LCALL     ?XSTACK_DISP100_8
   \   00007E   88..         MOV       ?V2,R0
   \   000080   89..         MOV       ?V3,R1
   \   000082   78..         MOV       R0,#?V2
   \   000084   12....       LCALL     ?PUSH_XSTACK_I_TWO
   \   000087   78..         MOV       R0,#?V6
   \   000089   12....       LCALL     ?PUSH_XSTACK_I_TWO
   \   00008C   A9..         MOV       R1,?V1
   \   00008E   7428         MOV       A,#0x28
   \   000090   12....       LCALL     ?XSTACK_DISP102_8
   \   000093   7448         MOV       A,#0x48
   \   000095   12....       LCALL     ?XSTACK_DISP0_8
   \   000098   E0           MOVX      A,@DPTR
   \   000099   FA           MOV       R2,A
   \   00009A   A3           INC       DPTR
   \   00009B   E0           MOVX      A,@DPTR
   \   00009C   FB           MOV       R3,A
   \   00009D   C2F0         CLR       B.0
   \   00009F   12....       LCALL     `??CTR_enc_decrypt::?relay`; Banked call to: CTR_enc_decrypt
   \   0000A2   7404         MOV       A,#0x4
   \   0000A4   12....       LCALL     ?DEALLOC_XSTACK8
    547            
    548            // Генерируем данные для авторизации
    549            uint8_t dlen = generateAuthData(src, nonce, c, f, lm);
   \   0000A7                ; Setup parameters for call to function generateAuthData
   \   0000A7   E5..         MOV       A,?V1
   \   0000A9   F5..         MOV       ?V0,A
   \   0000AB   78..         MOV       R0,#?V0
   \   0000AD   12....       LCALL     ?PUSH_XSTACK_I_ONE
   \   0000B0   E5..         MOV       A,?V4
   \   0000B2   F5..         MOV       ?V0,A
   \   0000B4   78..         MOV       R0,#?V0
   \   0000B6   12....       LCALL     ?PUSH_XSTACK_I_ONE
   \   0000B9   EF           MOV       A,R7
   \   0000BA   F9           MOV       R1,A
   \   0000BB   7402         MOV       A,#0x2
   \   0000BD   12....       LCALL     ?XSTACK_DISP0_8
   \   0000C0   E0           MOVX      A,@DPTR
   \   0000C1   FC           MOV       R4,A
   \   0000C2   A3           INC       DPTR
   \   0000C3   E0           MOVX      A,@DPTR
   \   0000C4   FD           MOV       R5,A
   \   0000C5   7404         MOV       A,#0x4
   \   0000C7   12....       LCALL     ?XSTACK_DISP0_8
   \   0000CA   E0           MOVX      A,@DPTR
   \   0000CB   FA           MOV       R2,A
   \   0000CC   A3           INC       DPTR
   \   0000CD   E0           MOVX      A,@DPTR
   \   0000CE   FB           MOV       R3,A
   \   0000CF   12....       LCALL     `??generateAuthData::?relay`; Banked call to: generateAuthData
   \   0000D2   7402         MOV       A,#0x2
   \   0000D4   12....       LCALL     ?DEALLOC_XSTACK8
   \   0000D7   E9           MOV       A,R1
   \   0000D8   FE           MOV       R6,A
    550            
    551            // Дешифруем текст. он имеет размер 'c' и находится в буфере начиная с
    552            // dlen-c, dlen
    553            uint8_t ds = dlen - c; // Начало данных для дешифрования
   \   0000D9   EE           MOV       A,R6
   \   0000DA   C3           CLR       C
   \   0000DB   9F           SUBB      A,R7
   \   0000DC   F5..         MOV       ?V0,A
    554            
    555            // 0x0F & (16 - (dlen & 0x0f)) оставляет числа от 0 до 15  
    556            memset(buf+dlen, 0x00, 0x0F & (16 - (dlen & 0x0f)) ); // Дополняем нулями
   \   0000DE                ; Setup parameters for call to function memset
   \   0000DE   EE           MOV       A,R6
   \   0000DF   F8           MOV       R0,A
   \   0000E0   7900         MOV       R1,#0x0
   \   0000E2   7410         MOV       A,#0x10
   \   0000E4   C3           CLR       C
   \   0000E5   98           SUBB      A,R0
   \   0000E6   F8           MOV       R0,A
   \   0000E7   7400         MOV       A,#0x0
   \   0000E9   99           SUBB      A,R1
   \   0000EA   F9           MOV       R1,A
   \   0000EB   E8           MOV       A,R0
   \   0000EC   540F         ANL       A,#0xf
   \   0000EE   F5..         MOV       ?V2,A
   \   0000F0   E9           MOV       A,R1
   \   0000F1   5400         ANL       A,#0x0
   \   0000F3   F5..         MOV       ?V3,A
   \   0000F5   78..         MOV       R0,#?V2
   \   0000F7   12....       LCALL     ?PUSH_XSTACK_I_TWO
   \   0000FA   7C00         MOV       R4,#0x0
   \   0000FC   7D00         MOV       R5,#0x0
   \   0000FE   EE           MOV       A,R6
   \   0000FF   F8           MOV       R0,A
   \   000100   7900         MOV       R1,#0x0
   \   000102   74..         MOV       A,#??buf & 0xff
   \   000104   28           ADD       A,R0
   \   000105   FA           MOV       R2,A
   \   000106   74..         MOV       A,#(??buf >> 8) & 0xff
   \   000108   39           ADDC      A,R1
   \   000109   FB           MOV       R3,A
   \   00010A   12....       LCALL     `??memset::?relay`; Banked call to: memset
   \   00010D   7402         MOV       A,#0x2
   \   00010F   12....       LCALL     ?DEALLOC_XSTACK8
    557            CTR_IV[15] = 1; // Счетчик CTR
   \   000112   7413         MOV       A,#0x13
   \   000114   12....       LCALL     ?XSTACK_DISP0_8
   \   000117   7401         MOV       A,#0x1
   \   000119   F0           MOVX      @DPTR,A
    558            CTR_enc_decrypt(false, &buf[ds], &buf[ds], key, CTR_IV, c); // Дешифруем
   \   00011A                ; Setup parameters for call to function CTR_enc_decrypt
   \   00011A   7404         MOV       A,#0x4
   \   00011C   12....       LCALL     ?XSTACK_DISP100_8
   \   00011F   88..         MOV       ?V2,R0
   \   000121   89..         MOV       ?V3,R1
   \   000123   78..         MOV       R0,#?V2
   \   000125   12....       LCALL     ?PUSH_XSTACK_I_TWO
   \   000128   85....       MOV       ?V2,?V6
   \   00012B   85....       MOV       ?V3,?V7
   \   00012E   78..         MOV       R0,#?V2
   \   000130   12....       LCALL     ?PUSH_XSTACK_I_TWO
   \   000133   EF           MOV       A,R7
   \   000134   F9           MOV       R1,A
   \   000135   E5..         MOV       A,?V0
   \   000137   FA           MOV       R2,A
   \   000138   7B00         MOV       R3,#0x0
   \   00013A   74..         MOV       A,#??buf & 0xff
   \   00013C   2A           ADD       A,R2
   \   00013D   FC           MOV       R4,A
   \   00013E   74..         MOV       A,#(??buf >> 8) & 0xff
   \   000140   3B           ADDC      A,R3
   \   000141   FD           MOV       R5,A
   \   000142   E5..         MOV       A,?V0
   \   000144   FA           MOV       R2,A
   \   000145   7B00         MOV       R3,#0x0
   \   000147   74..         MOV       A,#??buf & 0xff
   \   000149   2A           ADD       A,R2
   \   00014A   FA           MOV       R2,A
   \   00014B   74..         MOV       A,#(??buf >> 8) & 0xff
   \   00014D   3B           ADDC      A,R3
   \   00014E   FB           MOV       R3,A
   \   00014F   C2F0         CLR       B.0
   \   000151   12....       LCALL     `??CTR_enc_decrypt::?relay`; Banked call to: CTR_enc_decrypt
   \   000154   7404         MOV       A,#0x4
   \   000156   12....       LCALL     ?DEALLOC_XSTACK8
    559            
    560            uint8_t new_mac[16]; // мак полученный в ходе рашифровки сообщения
    561            CBCMAC_buf_encrypt(dlen, key, new_mac);
   \   000159                ; Setup parameters for call to function CBCMAC_buf_encrypt
   \   000159   7414         MOV       A,#0x14
   \   00015B   12....       LCALL     ?XSTACK_DISP102_8
   \   00015E   AA..         MOV       R2,?V6
   \   000160   AB..         MOV       R3,?V7
   \   000162   EE           MOV       A,R6
   \   000163   F9           MOV       R1,A
   \   000164   12....       LCALL     `??CBCMAC_buf_encrypt::?relay`; Banked call to: CBCMAC_buf_encrypt
    562            
    563            // Проверяем что маки совпадают, значит дешифровано верно
    564            bool mac_equal = true;
   \   000167   D2..         SETB      ?VB.0
    565            for (uint8_t i = 0 ; i < lm ; i++)
   \   000169   7A00         MOV       R2,#0x0
   \   00016B   EA           MOV       A,R2
   \   00016C   C3           CLR       C
   \   00016D   95..         SUBB      A,?V1
   \   00016F   502E         JNC       ??AES_CCMDecrypt_2
    566            {
    567              if (mac[i] != new_mac[i])
   \   000171   EA           MOV       A,R2
   \   000172   F8           MOV       R0,A
   \   000173   7900         MOV       R1,#0x0
   \   000175   7424         MOV       A,#0x24
   \   000177   12....       LCALL     ?XSTACK_DISP0_8
   \   00017A   E582         MOV       A,DPL
   \   00017C   28           ADD       A,R0
   \   00017D   F582         MOV       DPL,A
   \   00017F   E583         MOV       A,DPH
   \   000181   39           ADDC      A,R1
   \   000182   F583         MOV       DPH,A
   \   000184   E0           MOVX      A,@DPTR
   \   000185   FB           MOV       R3,A
   \   000186   EA           MOV       A,R2
   \   000187   F8           MOV       R0,A
   \   000188   7900         MOV       R1,#0x0
   \   00018A   7414         MOV       A,#0x14
   \   00018C   12....       LCALL     ?XSTACK_DISP0_8
   \   00018F   E582         MOV       A,DPL
   \   000191   28           ADD       A,R0
   \   000192   F582         MOV       DPL,A
   \   000194   E583         MOV       A,DPH
   \   000196   39           ADDC      A,R1
   \   000197   F583         MOV       DPH,A
   \   000199   E0           MOVX      A,@DPTR
   \   00019A   6B           XRL       A,R3
   \   00019B   6002         JZ        ??AES_CCMDecrypt_2
    568              mac_equal = false;
   \   00019D   C2..         CLR       ?VB.0
    569              break;
    570            }
    571            
    572            // Выходим если MACи не совпали  
    573            if (!mac_equal)
   \                     ??AES_CCMDecrypt_2:
   \   00019F   A2..         MOV       C,?VB.0
   \   0001A1   4003         JC        ??AES_CCMDecrypt_3
    574              return false;
   \   0001A3   C3           CLR       C
   \   0001A4   8032         SJMP      ??AES_CCMDecrypt_4
    575            
    576            // Копируем  расшифрованные данные
    577            memcpy(&src[f], &buf[ds], c); 
   \                     ??AES_CCMDecrypt_3:
   \   0001A6                ; Setup parameters for call to function memcpy
   \   0001A6   EF           MOV       A,R7
   \   0001A7   F5..         MOV       ?V2,A
   \   0001A9   75..00       MOV       ?V3,#0x0
   \   0001AC   78..         MOV       R0,#?V2
   \   0001AE   12....       LCALL     ?PUSH_XSTACK_I_TWO
   \   0001B1   E5..         MOV       A,?V0
   \   0001B3   F8           MOV       R0,A
   \   0001B4   7900         MOV       R1,#0x0
   \   0001B6   74..         MOV       A,#??buf & 0xff
   \   0001B8   28           ADD       A,R0
   \   0001B9   FC           MOV       R4,A
   \   0001BA   74..         MOV       A,#(??buf >> 8) & 0xff
   \   0001BC   39           ADDC      A,R1
   \   0001BD   FD           MOV       R5,A
   \   0001BE   E5..         MOV       A,?V4
   \   0001C0   F8           MOV       R0,A
   \   0001C1   7900         MOV       R1,#0x0
   \   0001C3   7404         MOV       A,#0x4
   \   0001C5   12....       LCALL     ?XSTACK_DISP0_8
   \   0001C8   E0           MOVX      A,@DPTR
   \   0001C9   28           ADD       A,R0
   \   0001CA   FA           MOV       R2,A
   \   0001CB   A3           INC       DPTR
   \   0001CC   E0           MOVX      A,@DPTR
   \   0001CD   39           ADDC      A,R1
   \   0001CE   FB           MOV       R3,A
   \   0001CF   12....       LCALL     `??memcpy::?relay`; Banked call to: memcpy
   \   0001D2   7402         MOV       A,#0x2
   \   0001D4   12....       LCALL     ?DEALLOC_XSTACK8
    578            return true;
   \   0001D7   D3           SETB      C
   \                     ??AES_CCMDecrypt_4:
   \   0001D8   7434         MOV       A,#0x34
   \   0001DA   12....       LCALL     ?DEALLOC_XSTACK8
   \   0001DD   7F08         MOV       R7,#0x8
   \   0001DF   02....       LJMP      ?BANKED_LEAVE_XDATA
    579          }
E:\WMNU\IAR_new_arch\STACK_CORE_SRC\cpu.c
      1          #include "action_manager.h"
      2          #include "ioCC2530.h"
      3          
      4          /**
      5          @file
      6          */
      7          
      8          static void HW_Init(void);   
      9           

   \                                 In  segment XDATA_I, align 1, keep-with-next
     10          module_s CPU_MODULE = {ALIAS(HW_Init)};
   \                     CPU_MODULE:
   \   000000                DS 12
   \   00000C                REQUIRE `?<Initializer for CPU_MODULE>`
   \   00000C                REQUIRE __INIT_XDATA_I
     11          

   \                                 In  segment BANKED_CODE, align 1, keep-with-next
     12          static void HW_Init(void){
   \                     ??HW_Init_2:
   \   000000                ; Saved register size: 0
   \   000000                ; Auto size: 0
     13            /* Сбрасываем бит OSC32K, будет выбран 32.768 кварц */
     14            CLKCONCMD &= ~(1<<7); 
   \   000000   53C67F       ANL       0xc6,#0x7f
     15            /* Ждем пока бит не станет 0 */
     16            while (CLKCONSTA & (1<<7)); 
   \                     ??HW_Init_8:
   \   000003   E59E         MOV       A,0x9e
   \   000005   A2E7         MOV       C,0xE0 /* A   */.7
   \   000007   40FA         JC        ??HW_Init_8
     17            /* Переходим на 32 Мгц */
     18            CLKCONCMD = 0;// (1<<3);
   \   000009   75C600       MOV       0xc6,#0x0
     19            while (CLKCONSTA&(1<<6));
   \                     ??HW_Init_9:
   \   00000C   E59E         MOV       A,0x9e
   \   00000E   A2E6         MOV       C,0xE0 /* A   */.6
   \   000010   40FA         JC        ??HW_Init_9
     20          };  
   \   000012   02....       LJMP      ?BRET
   \   000015                REQUIRE CLKCONCMD
   \   000015                REQUIRE CLKCONSTA
E:\WMNU\IAR_new_arch\STACK_CORE_SRC\debug.c
      1          #include "debug.h"
      2          #include "action_manager.h"
      3          
      4          /**
      5          @file
      6          */
      7          
      8          static void HW_Init(void);  
      9          static void uart_init(void);
     10           

   \                                 In  segment XDATA_I, align 1, keep-with-next
     11          module_s DBG_MODULE = {ALIAS(HW_Init)};
   \                     DBG_MODULE:
   \   000000                DS 12
   \   00000C                REQUIRE `?<Initializer for DBG_MODULE>`
   \   00000C                REQUIRE __INIT_XDATA_I
     12          

   \                                 In  segment BANKED_CODE, align 1, keep-with-next
     13          static void HW_Init(void){
   \                     ??HW_Init_3:
   \   000000                ; Saved register size: 0
   \   000000                ; Auto size: 0
     14          #ifndef DEBUG
     15            return;
     16          #endif
     17          #ifndef PRINT_TO_TERMINAL  
     18            uart_init();
     19          #endif
     20          };  
   \   000000   02....       LJMP      ?BRET
     21          
     22          

   \                                 In  segment BANKED_CODE, align 1, keep-with-next
     23          void DBG_CORE_HALT(void){
   \                     DBG_CORE_HALT:
   \   000000                ; Saved register size: 0
   \   000000                ; Auto size: 0
     24            while(1);
   \                     ??DBG_CORE_HALT_0:
   \   000000   80FE         SJMP      ??DBG_CORE_HALT_0
     25          }
     26          

   \                                 In  segment BANKED_CODE, align 1, keep-with-next
     27          void DBG_CORE_FAULT(void){
   \                     DBG_CORE_FAULT:
   \   000000                ; Saved register size: 0
   \   000000                ; Auto size: 0
     28            while(1);
   \                     ??DBG_CORE_FAULT_0:
   \   000000   80FE         SJMP      ??DBG_CORE_FAULT_0
     29          }
     30          
     31          // Настройка порта uart для отладки
     32          static void uart_init(void){
     33            // Выбор расположения UART на выводах
     34            char U0CFG = 0; // 0={TX=P0_3, RX=P0_2
     35            PERCFG |= (U0CFG<<0); 
     36            // U0UCR регистр настройки режима uart. меня устраивает по умолчанию
     37            U0CSR = (1<<7); // Выбираем режим uart  
     38            // Настройка скорости передачи данных на 2М  
     39            U0BAUD = 0;  // табличные значения из pdf
     40            U0GCR =  16;
     41            // Включаем альтернативные функции выводов
     42            P0SEL = (1<<2)|(1<<3);
     43            U0CSR |= (1<<6);
     44          }
     45          
     46          #ifndef PRINT_TO_TERMINAL 
     47          #include <yfuns.h>
     48          _STD_BEGIN
     49          #pragma module_name = "?__write"
     50          
     51          int MyLowLevelPutchar(int x){
     52            while( U0CSR&(1<<0));
     53            U0DBUF = x;
     54            return x;
     55          }
     56          
     57          size_t __write(int handle, const unsigned char * buffer, size_t size){
     58            /* Remove the #if #endif pair to enable the implementation */
     59            size_t nChars = 0;
     60            if (buffer == 0)  {
     61              return 0;
     62            }
     63            /* This template only writes to "standard out" and "standard err",
     64             * for all other file handles it returns failure. */
     65            if (handle != _LLIO_STDOUT && handle != _LLIO_STDERR)  {
     66              return _LLIO_ERROR;
     67            }
     68          
     69            for (/* Empty */; size != 0; --size){
     70              if (MyLowLevelPutchar(*buffer++) < 0){
     71                return _LLIO_ERROR;
     72              }
     73              ++nChars;
     74            }
     75            return nChars;
     76          }
     77          _STD_END
     78          
     79          #endif
     80          
E:\WMNU\IAR_NEW_ARCH\STACK_CORE_SRC\dma.c
      1          #include "dma.h"
      2          #include "ioCC2530.h"
      3          #include "action_manager.h"
      4          
      5          static void HW_Init(void);

   \                                 In  segment XDATA_I, align 1, keep-with-next
      6          module_s DMA_MODULE = {ALIAS(HW_Init)};
   \                     DMA_MODULE:
   \   000000                DS 12
   \   00000C                REQUIRE `?<Initializer for DMA_MODULE>`
   \   00000C                REQUIRE __INIT_XDATA_I
      7          
      8            

   \                                 In  segment XDATA_Z, align 1, keep-with-next
      9          DMA_s DMA_CH[5];
   \                     DMA_CH:
   \   000000                DS 40
   \   000028                REQUIRE __INIT_XDATA_Z
     10          
     11          /**
     12          @brief Настройка DMA каналов.
     13          @detail Согласно документации каналы 1-4 идут последовательно
     14          */

   \                                 In  segment BANKED_CODE, align 1, keep-with-next
     15          static void HW_Init(void){
   \                     ??HW_Init_4:
   \   000000                ; Saved register size: 0
   \   000000                ; Auto size: 0
     16              // Настроим канал 0 DMA для загрузки данных в AES
     17            uint16_t CONF_ADDR = (uint16_t)&DMA_CH[0];
   \   000000   78..         MOV       R0,#DMA_CH & 0xff
   \   000002   79..         MOV       R1,#(DMA_CH >> 8) & 0xff
     18            DMA0CFGH = CONF_ADDR >> 8;
   \   000004   E8           MOV       A,R0
   \   000005   FA           MOV       R2,A
   \   000006   E9           MOV       A,R1
   \   000007   FB           MOV       R3,A
   \   000008   E4           CLR       A
   \   000009   CB           XCH       A,R3
   \   00000A   FA           MOV       R2,A
   \   00000B   EA           MOV       A,R2
   \   00000C   F5D5         MOV       0xd5,A
     19            DMA0CFGL = CONF_ADDR & 0xFF;
   \   00000E   E8           MOV       A,R0
   \   00000F   F5D4         MOV       0xd4,A
     20            
     21            // Настроим канал 1 DMA для выгрузки данных из AES
     22            CONF_ADDR = (uint16_t)&DMA_CH[1];
   \   000011   78..         MOV       R0,#(DMA_CH + 8) & 0xff
   \   000013   79..         MOV       R1,#((DMA_CH + 8) >> 8) & 0xff
     23            DMA1CFGH = CONF_ADDR >> 8;
   \   000015   E8           MOV       A,R0
   \   000016   FA           MOV       R2,A
   \   000017   E9           MOV       A,R1
   \   000018   FB           MOV       R3,A
   \   000019   E4           CLR       A
   \   00001A   CB           XCH       A,R3
   \   00001B   FA           MOV       R2,A
   \   00001C   EA           MOV       A,R2
   \   00001D   F5D3         MOV       0xd3,A
     24            DMA1CFGL = CONF_ADDR & 0xFF;
   \   00001F   E8           MOV       A,R0
   \   000020   F5D2         MOV       0xd2,A
     25          }
   \   000022   02....       LJMP      ?BRET
   \   000025                REQUIRE DMA0CFGH
   \   000025                REQUIRE DMA0CFGL
   \   000025                REQUIRE DMA1CFGH
   \   000025                REQUIRE DMA1CFGL
E:\WMNU\IAR_new_arch\STACK_CORE_SRC\frame.c
      1          #include "action_manager.h"
      2          #include "frame.h"
      3          #include "debug.h"
      4          #include "global.h"
      5          #include "mem_utils.h"
      6          #include "mem_slots.h"
      7          
      8          /**
      9          @file Статическое хранение принятых пакетов
     10          */
     11          
     12          static void SW_Init(void); 
     13          

   \                                 In  segment XDATA_I, align 1, keep-with-next
     14          module_s FR_MODULE = {ALIAS(SW_Init)};
   \                     FR_MODULE:
   \   000000                DS 12
   \   00000C                REQUIRE `?<Initializer for FR_MODULE>`
   \   00000C                REQUIRE __INIT_XDATA_I
     15          

   \                                 In  segment BANKED_CODE, align 1, keep-with-next
     16          static void SW_Init(void){ 
   \                     ??SW_Init_1:
   \   000000                ; Saved register size: 0
   \   000000                ; Auto size: 0
     17          }; 
   \   000000   02....       LJMP      ?BRET
     18          

   \                                 In  segment BANKED_CODE, align 1, keep-with-next
     19          struct frame* FR_create(){
   \                     FR_create:
   \   000000   C082         PUSH      DPL
   \   000002   C083         PUSH      DPH
   \   000004                ; Saved register size: 2
   \   000004                ; Auto size: 0
     20            return (struct frame*)SL_alloc();
   \   000004                ; Setup parameters for call to function SL_alloc
   \   000004   12....       LCALL     `??SL_alloc::?relay`; Banked call to: SL_alloc
   \   000007   D083         POP       DPH
   \   000009   D082         POP       DPL
   \   00000B   02....       LJMP      ?BRET
     21          };
     22          

   \                                 In  segment BANKED_CODE, align 1, keep-with-next
     23          bool FR_delete(struct frame *frame){
   \                     FR_delete:
   \   000000   74F7         MOV       A,#-0x9
   \   000002   12....       LCALL     ?BANKED_ENTER_XDATA
   \   000005                ; Saved register size: 9
   \   000005                ; Auto size: 0
   \   000005   EA           MOV       A,R2
   \   000006   FE           MOV       R6,A
   \   000007   EB           MOV       A,R3
   \   000008   FF           MOV       R7,A
     24            return SL_free((char*)frame);
   \   000009                ; Setup parameters for call to function SL_free
   \   000009   EE           MOV       A,R6
   \   00000A   FA           MOV       R2,A
   \   00000B   EF           MOV       A,R7
   \   00000C   FB           MOV       R3,A
   \   00000D   12....       LCALL     `??SL_free::?relay`; Banked call to: SL_free
   \   000010   7F01         MOV       R7,#0x1
   \   000012   02....       LJMP      ?BANKED_LEAVE_XDATA
     25          }
     26          

   \                                 In  segment BANKED_CODE, align 1, keep-with-next
     27          bool FR_add_header(struct frame* frame ,void *head, char len){
   \                     FR_add_header:
   \   000000                REQUIRE ?V0
   \   000000                REQUIRE ?V1
   \   000000                REQUIRE ?V2
   \   000000                REQUIRE ?V3
   \   000000                REQUIRE ?V4
   \   000000   74F3         MOV       A,#-0xd
   \   000002   12....       LCALL     ?BANKED_ENTER_XDATA
   \   000005                ; Saved register size: 13
   \   000005                ; Auto size: 10
   \   000005   74F6         MOV       A,#-0xa
   \   000007   12....       LCALL     ?ALLOC_XSTACK8
   \   00000A   8A..         MOV       ?V0,R2
   \   00000C   8B..         MOV       ?V1,R3
   \   00000E   8C..         MOV       ?V2,R4
   \   000010   8D..         MOV       ?V3,R5
   \   000012   89..         MOV       ?V4,R1
     28            int new_len = frame->len + len;
   \   000014   85..82       MOV       DPL,?V0
   \   000017   85..83       MOV       DPH,?V1
   \   00001A   E0           MOVX      A,@DPTR
   \   00001B   FA           MOV       R2,A
   \   00001C   7B00         MOV       R3,#0x0
   \   00001E   E5..         MOV       A,?V4
   \   000020   F8           MOV       R0,A
   \   000021   7900         MOV       R1,#0x0
   \   000023   EA           MOV       A,R2
   \   000024   28           ADD       A,R0
   \   000025   FE           MOV       R6,A
   \   000026   EB           MOV       A,R3
   \   000027   39           ADDC      A,R1
   \   000028   FF           MOV       R7,A
     29            if (!(new_len < MAX_PAYLOAD_SIZE))
   \   000029   C3           CLR       C
   \   00002A   EE           MOV       A,R6
   \   00002B   947F         SUBB      A,#0x7f
   \   00002D   EF           MOV       A,R7
   \   00002E   9400         SUBB      A,#0x0
   \   000030   A2D2         MOV       C,0xD0 /* PSW */.2
   \   000032   65D0         XRL       A,PSW
   \   000034   33           RLC       A
   \   000035   4004         JC        ??FR_add_header_0
     30              return false;
   \   000037   C3           CLR       C
   \   000038   02....       LJMP      ??FR_add_header_1 & 0xFFFF
     31            
     32            // Сдвинем данные на размер вставки при необходимости
     33            if (frame->len != 0)
   \                     ??FR_add_header_0:
   \   00003B   85..82       MOV       DPL,?V0
   \   00003E   85..83       MOV       DPH,?V1
   \   000041   E0           MOVX      A,@DPTR
   \   000042   6045         JZ        ??FR_add_header_2
     34              MEMCPY(&frame->payload[len], frame->payload, len);
   \   000044   E5..         MOV       A,?V4
   \   000046   F8           MOV       R0,A
   \   000047   7900         MOV       R1,#0x0
   \   000049   E5..         MOV       A,?V0
   \   00004B   28           ADD       A,R0
   \   00004C   F8           MOV       R0,A
   \   00004D   E5..         MOV       A,?V1
   \   00004F   39           ADDC      A,R1
   \   000050   F9           MOV       R1,A
   \   000051   E8           MOV       A,R0
   \   000052   2415         ADD       A,#0x15
   \   000054   F8           MOV       R0,A
   \   000055   5001         JNC       ??FR_add_header_3
   \   000057   09           INC       R1
   \                     ??FR_add_header_3:
   \   000058   7405         MOV       A,#0x5
   \   00005A   12....       LCALL     ?XSTACK_DISP0_8
   \   00005D   E8           MOV       A,R0
   \   00005E   F0           MOVX      @DPTR,A
   \   00005F   A3           INC       DPTR
   \   000060   E9           MOV       A,R1
   \   000061   F0           MOVX      @DPTR,A
   \   000062   E5..         MOV       A,?V0
   \   000064   2415         ADD       A,#0x15
   \   000066   F8           MOV       R0,A
   \   000067   E4           CLR       A
   \   000068   35..         ADDC      A,?V1
   \   00006A   F9           MOV       R1,A
   \   00006B   7407         MOV       A,#0x7
   \   00006D   12....       LCALL     ?XSTACK_DISP0_8
   \   000070   E8           MOV       A,R0
   \   000071   F0           MOVX      @DPTR,A
   \   000072   A3           INC       DPTR
   \   000073   E9           MOV       A,R1
   \   000074   F0           MOVX      @DPTR,A
   \   000075   E5..         MOV       A,?V4
   \   000077   C0E0         PUSH      A
   \   000079   7409         MOV       A,#0x9
   \   00007B   12....       LCALL     ?XSTACK_DISP0_8
   \   00007E   D0E0         POP       A
   \   000080   F0           MOVX      @DPTR,A
   \   000081                ; Setup parameters for call to function MEM_memcpy
   \   000081   7405         MOV       A,#0x5
   \   000083   12....       LCALL     ?XSTACK_DISP101_8
   \   000086   12....       LCALL     `??MEM_memcpy::?relay`; Banked call to: MEM_memcpy
     35            
     36            // Скопируем новые данные
     37            MEMCPY(frame->payload, head, len);
   \                     ??FR_add_header_2:
   \   000089   E5..         MOV       A,?V0
   \   00008B   2415         ADD       A,#0x15
   \   00008D   F8           MOV       R0,A
   \   00008E   E4           CLR       A
   \   00008F   35..         ADDC      A,?V1
   \   000091   F9           MOV       R1,A
   \   000092   85..82       MOV       DPL,?XSP + 0
   \   000095   85..83       MOV       DPH,?XSP + 1
   \   000098   E8           MOV       A,R0
   \   000099   F0           MOVX      @DPTR,A
   \   00009A   A3           INC       DPTR
   \   00009B   E9           MOV       A,R1
   \   00009C   F0           MOVX      @DPTR,A
   \   00009D   7402         MOV       A,#0x2
   \   00009F   12....       LCALL     ?XSTACK_DISP0_8
   \   0000A2   E5..         MOV       A,?V2
   \   0000A4   F0           MOVX      @DPTR,A
   \   0000A5   A3           INC       DPTR
   \   0000A6   E5..         MOV       A,?V3
   \   0000A8   F0           MOVX      @DPTR,A
   \   0000A9   E5..         MOV       A,?V4
   \   0000AB   C0E0         PUSH      A
   \   0000AD   7404         MOV       A,#0x4
   \   0000AF   12....       LCALL     ?XSTACK_DISP0_8
   \   0000B2   D0E0         POP       A
   \   0000B4   F0           MOVX      @DPTR,A
   \   0000B5                ; Setup parameters for call to function MEM_memcpy
   \   0000B5   AA..         MOV       R2,?XSP + 0
   \   0000B7   AB..         MOV       R3,?XSP + 1
   \   0000B9   12....       LCALL     `??MEM_memcpy::?relay`; Banked call to: MEM_memcpy
     38            frame->len = new_len;
   \   0000BC   EE           MOV       A,R6
   \   0000BD   C0E0         PUSH      A
   \   0000BF   85..82       MOV       DPL,?V0
   \   0000C2   85..83       MOV       DPH,?V1
   \   0000C5   D0E0         POP       A
   \   0000C7   F0           MOVX      @DPTR,A
     39            return true;
   \   0000C8   D3           SETB      C
   \                     ??FR_add_header_1:
   \   0000C9   740A         MOV       A,#0xa
   \   0000CB   12....       LCALL     ?DEALLOC_XSTACK8
   \   0000CE   7F05         MOV       R7,#0x5
   \   0000D0   02....       LJMP      ?BANKED_LEAVE_XDATA
     40          };
     41          

   \                                 In  segment BANKED_CODE, align 1, keep-with-next
     42          bool FR_del_header(struct frame* frame, char len){
   \                     FR_del_header:
   \   000000                REQUIRE ?V0
   \   000000   74F7         MOV       A,#-0x9
   \   000002   12....       LCALL     ?BANKED_ENTER_XDATA
   \   000005                ; Saved register size: 9
   \   000005                ; Auto size: 9
   \   000005   74F7         MOV       A,#-0x9
   \   000007   12....       LCALL     ?ALLOC_XSTACK8
   \   00000A   EA           MOV       A,R2
   \   00000B   FE           MOV       R6,A
   \   00000C   EB           MOV       A,R3
   \   00000D   FF           MOV       R7,A
   \   00000E   89..         MOV       ?V0,R1
     43            if (len == 0 || len > frame->len )
   \   000010   E5..         MOV       A,?V0
   \   000012   600A         JZ        ??FR_del_header_0
   \   000014   8E82         MOV       DPL,R6
   \   000016   8F83         MOV       DPH,R7
   \   000018   E0           MOVX      A,@DPTR
   \   000019   C3           CLR       C
   \   00001A   95..         SUBB      A,?V0
   \   00001C   5004         JNC       ??FR_del_header_1
     44              return false;
   \                     ??FR_del_header_0:
   \   00001E   C3           CLR       C
   \   00001F   02....       LJMP      ??FR_del_header_2 & 0xFFFF
     45            MEMCPY(frame->payload, &frame->payload[len], len);
   \                     ??FR_del_header_1:
   \   000022   EE           MOV       A,R6
   \   000023   2415         ADD       A,#0x15
   \   000025   F8           MOV       R0,A
   \   000026   E4           CLR       A
   \   000027   3F           ADDC      A,R7
   \   000028   F9           MOV       R1,A
   \   000029   7404         MOV       A,#0x4
   \   00002B   12....       LCALL     ?XSTACK_DISP0_8
   \   00002E   E8           MOV       A,R0
   \   00002F   F0           MOVX      @DPTR,A
   \   000030   A3           INC       DPTR
   \   000031   E9           MOV       A,R1
   \   000032   F0           MOVX      @DPTR,A
   \   000033   E5..         MOV       A,?V0
   \   000035   F8           MOV       R0,A
   \   000036   7900         MOV       R1,#0x0
   \   000038   EE           MOV       A,R6
   \   000039   28           ADD       A,R0
   \   00003A   F8           MOV       R0,A
   \   00003B   EF           MOV       A,R7
   \   00003C   39           ADDC      A,R1
   \   00003D   F9           MOV       R1,A
   \   00003E   E8           MOV       A,R0
   \   00003F   2415         ADD       A,#0x15
   \   000041   F8           MOV       R0,A
   \   000042   5001         JNC       ??FR_del_header_3
   \   000044   09           INC       R1
   \                     ??FR_del_header_3:
   \   000045   7406         MOV       A,#0x6
   \   000047   12....       LCALL     ?XSTACK_DISP0_8
   \   00004A   E8           MOV       A,R0
   \   00004B   F0           MOVX      @DPTR,A
   \   00004C   A3           INC       DPTR
   \   00004D   E9           MOV       A,R1
   \   00004E   F0           MOVX      @DPTR,A
   \   00004F   E5..         MOV       A,?V0
   \   000051   C0E0         PUSH      A
   \   000053   7408         MOV       A,#0x8
   \   000055   12....       LCALL     ?XSTACK_DISP0_8
   \   000058   D0E0         POP       A
   \   00005A   F0           MOVX      @DPTR,A
   \   00005B                ; Setup parameters for call to function MEM_memcpy
   \   00005B   7404         MOV       A,#0x4
   \   00005D   12....       LCALL     ?XSTACK_DISP101_8
   \   000060   12....       LCALL     `??MEM_memcpy::?relay`; Banked call to: MEM_memcpy
     46            
     47            #ifdef FRAME_FOOTER_DEL
     48            MEMSET(&frame->payload[len], 0, len);
   \   000063   90....       MOV       DPTR,#`?<Constant {(char *)0, 0, 0}>`
   \   000066   AC..         MOV       R4,?XSP + 0
   \   000068   AD..         MOV       R5,?XSP + 1
   \   00006A   7404         MOV       A,#0x4
   \   00006C   12....       LCALL     ?MOVE_LONG8_XDATA_XDATA
   \   00006F   E5..         MOV       A,?V0
   \   000071   F8           MOV       R0,A
   \   000072   7900         MOV       R1,#0x0
   \   000074   EE           MOV       A,R6
   \   000075   28           ADD       A,R0
   \   000076   F8           MOV       R0,A
   \   000077   EF           MOV       A,R7
   \   000078   39           ADDC      A,R1
   \   000079   F9           MOV       R1,A
   \   00007A   E8           MOV       A,R0
   \   00007B   2415         ADD       A,#0x15
   \   00007D   F8           MOV       R0,A
   \   00007E   5001         JNC       ??FR_del_header_4
   \   000080   09           INC       R1
   \                     ??FR_del_header_4:
   \   000081   85..82       MOV       DPL,?XSP + 0
   \   000084   85..83       MOV       DPH,?XSP + 1
   \   000087   E8           MOV       A,R0
   \   000088   F0           MOVX      @DPTR,A
   \   000089   A3           INC       DPTR
   \   00008A   E9           MOV       A,R1
   \   00008B   F0           MOVX      @DPTR,A
   \   00008C   E5..         MOV       A,?V0
   \   00008E   C0E0         PUSH      A
   \   000090   7402         MOV       A,#0x2
   \   000092   12....       LCALL     ?XSTACK_DISP0_8
   \   000095   D0E0         POP       A
   \   000097   F0           MOVX      @DPTR,A
   \   000098                ; Setup parameters for call to function MEM_memset
   \   000098   AA..         MOV       R2,?XSP + 0
   \   00009A   AB..         MOV       R3,?XSP + 1
   \   00009C   12....       LCALL     `??MEM_memset::?relay`; Banked call to: MEM_memset
     49            #endif
     50            
     51            frame->len = frame->len - len;;
   \   00009F   8E82         MOV       DPL,R6
   \   0000A1   8F83         MOV       DPH,R7
   \   0000A3   E0           MOVX      A,@DPTR
   \   0000A4   C3           CLR       C
   \   0000A5   95..         SUBB      A,?V0
   \   0000A7   F0           MOVX      @DPTR,A
     52            return true;
   \   0000A8   D3           SETB      C
   \                     ??FR_del_header_2:
   \   0000A9   7409         MOV       A,#0x9
   \   0000AB   12....       LCALL     ?DEALLOC_XSTACK8
   \   0000AE   7F01         MOV       R7,#0x1
   \   0000B0   02....       LJMP      ?BANKED_LEAVE_XDATA
     53          }

   \                                 In  segment XDATA_ROM_C, align 1
   \                     `?<Constant {(char *)0, 0, 0}>`:
   \   000000   0000         DW 0H
   \   000002   00           DB 0
   \   000003   00           DB 0
     54          

   \                                 In  segment BANKED_CODE, align 1, keep-with-next
     55          int FR_busy(){
   \                     FR_busy:
   \   000000   C082         PUSH      DPL
   \   000002   C083         PUSH      DPH
   \   000004                ; Saved register size: 2
   \   000004                ; Auto size: 0
     56            return SL_busy();
   \   000004                ; Setup parameters for call to function SL_busy
   \   000004   12....       LCALL     `??SL_busy::?relay`; Banked call to: SL_busy
   \   000007   D083         POP       DPH
   \   000009   D082         POP       DPL
   \   00000B   02....       LJMP      ?BRET
     57          }
     58          

   \                                 In  segment BANKED_CODE, align 1, keep-with-next
     59          int FR_available(){
   \                     FR_available:
   \   000000   C082         PUSH      DPL
   \   000002   C083         PUSH      DPH
   \   000004                ; Saved register size: 2
   \   000004                ; Auto size: 0
     60            return SL_available();
   \   000004                ; Setup parameters for call to function SL_available
   \   000004   12....       LCALL     `??SL_available::?relay`; Banked call to: SL_available
   \   000007   D083         POP       DPH
   \   000009   D082         POP       DPL
   \   00000B   02....       LJMP      ?BRET
     61          };
E:\WMNU\IAR_NEW_ARCH\PRJ Test\main.c
      1          #include "utest.h"
      2          #include "stdint.h"

   \                                 In  segment BANKED_CODE, align 1, keep-with-next
      3          void main(){
   \                     main:
   \   000000                ; Auto size: 0
      4            run_tests();
   \   000000                ; Setup parameters for call to function run_tests
   \   000000   12....       LCALL     `??run_tests::?relay`; Banked call to: run_tests
      5            while(1);
   \                     ??main_0:
   \   000003   80FE         SJMP      ??main_0
      6          }
E:\WMNU\IAR_new_arch\STACK_CORE_SRC\mem_slots.c
      1          #include "debug.h"
      2          #include "global.h"
      3          #include "macros.h"

   \                                 In  segment BANKED_CODE, align 1, keep-with-next
   \   static __banked_func __xdata_reentrant bool is_array_ptr(void *, void *, size_t)
   \                     ??is_array_ptr:
   \   000000                REQUIRE ?V0
   \   000000                REQUIRE ?V1
   \   000000                REQUIRE ?V2
   \   000000                REQUIRE ?V3
   \   000000   74F4         MOV       A,#-0xc
   \   000002   12....       LCALL     ?BANKED_ENTER_XDATA
   \   000005                ; Saved register size: 12
   \   000005                ; Auto size: 0
   \   000005   EA           MOV       A,R2
   \   000006   FE           MOV       R6,A
   \   000007   EB           MOV       A,R3
   \   000008   FF           MOV       R7,A
   \   000009   740C         MOV       A,#0xc
   \   00000B   12....       LCALL     ?XSTACK_DISP0_8
   \   00000E   E0           MOVX      A,@DPTR
   \   00000F   F5..         MOV       ?V0,A
   \   000011   A3           INC       DPTR
   \   000012   E0           MOVX      A,@DPTR
   \   000013   F5..         MOV       ?V1,A
   \   000015   EC           MOV       A,R4
   \   000016   C3           CLR       C
   \   000017   9E           SUBB      A,R6
   \   000018   F8           MOV       R0,A
   \   000019   ED           MOV       A,R5
   \   00001A   9F           SUBB      A,R7
   \   00001B   F9           MOV       R1,A
   \   00001C   AA..         MOV       R2,?V0
   \   00001E   AB..         MOV       R3,?V1
   \   000020   12....       LCALL     ?US_DIV_MOD
   \   000023   8A..         MOV       ?V2,R2
   \   000025   8B..         MOV       ?V3,R3
   \   000027   A8..         MOV       R0,?V2
   \   000029   A9..         MOV       R1,?V3
   \   00002B   E8           MOV       A,R0
   \   00002C   49           ORL       A,R1
   \   00002D   7004         JNZ       ??is_array_ptr_1
   \   00002F   D2F0         SETB      B.0
   \   000031   8002         SJMP      ??is_array_ptr_2
   \                     ??is_array_ptr_1:
   \   000033   C2F0         CLR       B.0
   \                     ??is_array_ptr_2:
   \   000035   A2F0         MOV       C,B.0
   \   000037   7F04         MOV       R7,#0x4
   \   000039   02....       LJMP      ?BANKED_LEAVE_XDATA

   \                                 In  segment BANKED_CODE, align 1, keep-with-next
   \   static __banked_func __xdata_reentrant size_t array_index(void *, void *, size_t)
   \                     ??array_index:
   \   000000                REQUIRE ?V0
   \   000000                REQUIRE ?V1
   \   000000                REQUIRE ?V2
   \   000000                REQUIRE ?V3
   \   000000   74F4         MOV       A,#-0xc
   \   000002   12....       LCALL     ?BANKED_ENTER_XDATA
   \   000005                ; Saved register size: 12
   \   000005                ; Auto size: 0
   \   000005   EA           MOV       A,R2
   \   000006   FE           MOV       R6,A
   \   000007   EB           MOV       A,R3
   \   000008   FF           MOV       R7,A
   \   000009   740C         MOV       A,#0xc
   \   00000B   12....       LCALL     ?XSTACK_DISP0_8
   \   00000E   E0           MOVX      A,@DPTR
   \   00000F   F5..         MOV       ?V0,A
   \   000011   A3           INC       DPTR
   \   000012   E0           MOVX      A,@DPTR
   \   000013   F5..         MOV       ?V1,A
   \   000015   EC           MOV       A,R4
   \   000016   C3           CLR       C
   \   000017   9E           SUBB      A,R6
   \   000018   F8           MOV       R0,A
   \   000019   ED           MOV       A,R5
   \   00001A   9F           SUBB      A,R7
   \   00001B   F9           MOV       R1,A
   \   00001C   AA..         MOV       R2,?V0
   \   00001E   AB..         MOV       R3,?V1
   \   000020   12....       LCALL     ?US_DIV_MOD
   \   000023   88..         MOV       ?V2,R0
   \   000025   89..         MOV       ?V3,R1
   \   000027   AA..         MOV       R2,?V2
   \   000029   AB..         MOV       R3,?V3
   \   00002B   7F04         MOV       R7,#0x4
   \   00002D   02....       LJMP      ?BANKED_LEAVE_XDATA
      4          #include "stdbool.h"
      5          #include "action_manager.h"
      6          #include "mem_utils.h"  
      7          #include "cpu.h"

   \                                 In  segment BANKED_CODE, align 1, keep-with-next
   \   static __banked_func __xdata_reentrant char __cli(void)
   \                     ??__cli_2:
   \   000000                ; Saved register size: 0
   \   000000                ; Auto size: 0
   \   000000   C2AF         CLR       0xa8.7
   \   000002   7901         MOV       R1,#0x1
   \   000004   02....       LJMP      ?BRET
   \   000007                REQUIRE _A_IEN0
      8          
      9          //!< Максимальный размер данных в одном слоте
     10          #define SLOT_BUFFER_SIZE 150
     11          #define RED_ZONE_CODE 0x73
     12          
     13          typedef char red_zone_t;
     14          
     15          static void SW_Init(void);

   \                                 In  segment XDATA_I, align 1, keep-with-next
     16          module_s MS_MODULE = {ALIAS(SW_Init)};
   \                     MS_MODULE:
   \   000000                DS 12
   \   00000C                REQUIRE `?<Initializer for MS_MODULE>`
   \   00000C                REQUIRE __INIT_XDATA_I
     17          
     18          struct property{
     19            char taken: 1;
     20          };
     21          
     22          struct slot{
     23            struct property property;
     24            red_zone_t red_zone_1;
     25            char buffer[SLOT_BUFFER_SIZE];
     26            red_zone_t red_zone_2;
     27          };
     28          
     29          //!< Хранилище слотов

   \                                 In  segment XDATA_Z, align 1, keep-with-next
     30          static struct slot SLOT_POOL[SLOT_POOL_ITEMS];
   \                     ??SLOT_POOL:
   \   000000                DS 3060
   \   000BF4                REQUIRE __INIT_XDATA_Z
     31          //!< Количество занятых слотов

   \                                 In  segment XDATA_Z, align 1, keep-with-next
     32          static int slot_busy;
   \                     ??slot_busy:
   \   000000                DS 2
   \   000002                REQUIRE __INIT_XDATA_Z
     33          

   \                                 In  segment BANKED_CODE, align 1, keep-with-next
     34          void SW_Init(void){
   \                     ??SW_Init_2:
   \   000000   74F7         MOV       A,#-0x9
   \   000002   12....       LCALL     ?BANKED_ENTER_XDATA
   \   000005                ; Saved register size: 9
   \   000005                ; Auto size: 4
   \   000005   74FC         MOV       A,#-0x4
   \   000007   12....       LCALL     ?ALLOC_XSTACK8
     35            slot_busy = 0;
   \   00000A   90....       MOV       DPTR,#??slot_busy
   \   00000D   7400         MOV       A,#0x0
   \   00000F   F0           MOVX      @DPTR,A
   \   000010   A3           INC       DPTR
   \   000011   7400         MOV       A,#0x0
   \   000013   F0           MOVX      @DPTR,A
     36            for_each_type(struct slot, SLOT_POOL, slot){
   \   000014   7E..         MOV       R6,#??SLOT_POOL & 0xff
   \   000016   7F..         MOV       R7,#(??SLOT_POOL >> 8) & 0xff
   \                     ??SW_Init_8:
   \   000018   C3           CLR       C
   \   000019   EE           MOV       A,R6
   \   00001A   94..         SUBB      A,#(??SLOT_POOL + 244) & 0xff
   \   00001C   EF           MOV       A,R7
   \   00001D   94..         SUBB      A,#((??SLOT_POOL + 3060) >> 8) & 0xff
   \   00001F   504A         JNC       ??SW_Init_9
     37              slot->property.taken = false;
   \   000021   8E82         MOV       DPL,R6
   \   000023   8F83         MOV       DPH,R7
   \   000025   E0           MOVX      A,@DPTR
   \   000026   C2E0         CLR       0xE0 /* A   */.0
   \   000028   F0           MOVX      @DPTR,A
     38              #ifdef FILL_SLOT_ZERO
     39                MEMSET(slot->buffer, 0, SLOT_BUFFER_SIZE);
   \   000029   90....       MOV       DPTR,#`?<Constant {(char *)0, 150, 0}>`
   \   00002C   AC..         MOV       R4,?XSP + 0
   \   00002E   AD..         MOV       R5,?XSP + 1
   \   000030   7404         MOV       A,#0x4
   \   000032   12....       LCALL     ?MOVE_LONG8_XDATA_XDATA
   \   000035   EE           MOV       A,R6
   \   000036   2402         ADD       A,#0x2
   \   000038   F8           MOV       R0,A
   \   000039   E4           CLR       A
   \   00003A   3F           ADDC      A,R7
   \   00003B   F9           MOV       R1,A
   \   00003C   85..82       MOV       DPL,?XSP + 0
   \   00003F   85..83       MOV       DPH,?XSP + 1
   \   000042   E8           MOV       A,R0
   \   000043   F0           MOVX      @DPTR,A
   \   000044   A3           INC       DPTR
   \   000045   E9           MOV       A,R1
   \   000046   F0           MOVX      @DPTR,A
   \   000047                ; Setup parameters for call to function MEM_memset
   \   000047   AA..         MOV       R2,?XSP + 0
   \   000049   AB..         MOV       R3,?XSP + 1
   \   00004B   12....       LCALL     `??MEM_memset::?relay`; Banked call to: MEM_memset
     40              #endif    
     41              slot->red_zone_1 = RED_ZONE_CODE;
   \   00004E   8E82         MOV       DPL,R6
   \   000050   8F83         MOV       DPH,R7
   \   000052   A3           INC       DPTR
   \   000053   7473         MOV       A,#0x73
   \   000055   F0           MOVX      @DPTR,A
     42              slot->red_zone_2 = RED_ZONE_CODE;
   \   000056   EE           MOV       A,R6
   \   000057   2498         ADD       A,#-0x68
   \   000059   F582         MOV       DPL,A
   \   00005B   E4           CLR       A
   \   00005C   3F           ADDC      A,R7
   \   00005D   F583         MOV       DPH,A
   \   00005F   7473         MOV       A,#0x73
   \   000061   F0           MOVX      @DPTR,A
     43            }
   \   000062   EE           MOV       A,R6
   \   000063   2499         ADD       A,#-0x67
   \   000065   FE           MOV       R6,A
   \   000066   50B0         JNC       ??SW_Init_8
   \   000068   0F           INC       R7
   \   000069   80AD         SJMP      ??SW_Init_8
     44          };
   \                     ??SW_Init_9:
   \   00006B   7404         MOV       A,#0x4
   \   00006D   12....       LCALL     ?DEALLOC_XSTACK8
   \   000070   7F01         MOV       R7,#0x1
   \   000072   02....       LJMP      ?BANKED_LEAVE_XDATA

   \                                 In  segment XDATA_ROM_C, align 1
   \                     `?<Constant {(char *)0, 150, 0}>`:
   \   000000   0000         DW 0H
   \   000002   96           DB 150
   \   000003   00           DB 0
     45          
     46          /**
     47          @brief Возвращает указатель на буфер или NULL. Буфер заполнен 0
     48          @detail 
     49          */

   \                                 In  segment BANKED_CODE, align 1, keep-with-next
     50          char* SL_alloc(void){  
   \                     SL_alloc:
   \   000000                REQUIRE ?V0
   \   000000   74F7         MOV       A,#-0x9
   \   000002   12....       LCALL     ?BANKED_ENTER_XDATA
   \   000005                ; Saved register size: 9
   \   000005                ; Auto size: 4
   \   000005   74FC         MOV       A,#-0x4
   \   000007   12....       LCALL     ?ALLOC_XSTACK8
     51            ATOMIC_BLOCK_RESTORE{
   \   00000A   A2AF         MOV       C,0xa8.7
   \   00000C   E4           CLR       A
   \   00000D   33           RLC       A
   \   00000E   F5..         MOV       ?V0,A
   \   000010                ; Setup parameters for call to function __cli
   \   000010   12....       LCALL     `??__cli::?relay_2`; Banked call to: __cli
   \   000013   E9           MOV       A,R1
   \   000014   F8           MOV       R0,A
   \                     ??SL_alloc_0:
   \   000015   E8           MOV       A,R0
   \   000016   606B         JZ        ??SL_alloc_1
     52              for_each_type(struct slot, SLOT_POOL, slot){
   \   000018   7E..         MOV       R6,#??SLOT_POOL & 0xff
   \   00001A   7F..         MOV       R7,#(??SLOT_POOL >> 8) & 0xff
   \                     ??SL_alloc_2:
   \   00001C   C3           CLR       C
   \   00001D   EE           MOV       A,R6
   \   00001E   94..         SUBB      A,#(??SLOT_POOL + 244) & 0xff
   \   000020   EF           MOV       A,R7
   \   000021   94..         SUBB      A,#((??SLOT_POOL + 3060) >> 8) & 0xff
   \   000023   5054         JNC       ??SL_alloc_3
     53                if (!slot->property.taken){
   \   000025   8E82         MOV       DPL,R6
   \   000027   8F83         MOV       DPH,R7
   \   000029   E0           MOVX      A,@DPTR
   \   00002A   A2E0         MOV       C,0xE0 /* A   */.0
   \   00002C   4042         JC        ??SL_alloc_4
     54                  slot->property.taken = true;
   \   00002E   8E82         MOV       DPL,R6
   \   000030   8F83         MOV       DPH,R7
   \   000032   E0           MOVX      A,@DPTR
   \   000033   D2E0         SETB      0xE0 /* A   */.0
   \   000035   F0           MOVX      @DPTR,A
     55                  slot_busy++;
   \   000036   90....       MOV       DPTR,#??slot_busy
   \   000039   E0           MOVX      A,@DPTR
   \   00003A   2401         ADD       A,#0x1
   \   00003C   F0           MOVX      @DPTR,A
   \   00003D   A3           INC       DPTR
   \   00003E   E0           MOVX      A,@DPTR
   \   00003F   3400         ADDC      A,#0x0
   \   000041   F0           MOVX      @DPTR,A
     56                  #ifdef FILL_SLOT_ZERO
     57                    MEMSET(slot->buffer, 0, SLOT_BUFFER_SIZE);
   \   000042   90....       MOV       DPTR,#`?<Constant {(char *)0, 150, 0}>_1`
   \   000045   AC..         MOV       R4,?XSP + 0
   \   000047   AD..         MOV       R5,?XSP + 1
   \   000049   7404         MOV       A,#0x4
   \   00004B   12....       LCALL     ?MOVE_LONG8_XDATA_XDATA
   \   00004E   EE           MOV       A,R6
   \   00004F   2402         ADD       A,#0x2
   \   000051   F8           MOV       R0,A
   \   000052   E4           CLR       A
   \   000053   3F           ADDC      A,R7
   \   000054   F9           MOV       R1,A
   \   000055   85..82       MOV       DPL,?XSP + 0
   \   000058   85..83       MOV       DPH,?XSP + 1
   \   00005B   E8           MOV       A,R0
   \   00005C   F0           MOVX      @DPTR,A
   \   00005D   A3           INC       DPTR
   \   00005E   E9           MOV       A,R1
   \   00005F   F0           MOVX      @DPTR,A
   \   000060                ; Setup parameters for call to function MEM_memset
   \   000060   AA..         MOV       R2,?XSP + 0
   \   000062   AB..         MOV       R3,?XSP + 1
   \   000064   12....       LCALL     `??MEM_memset::?relay`; Banked call to: MEM_memset
     58                  #endif
     59                  return slot->buffer;
   \   000067   EE           MOV       A,R6
   \   000068   2402         ADD       A,#0x2
   \   00006A   FA           MOV       R2,A
   \   00006B   E4           CLR       A
   \   00006C   3F           ADDC      A,R7
   \   00006D   FB           MOV       R3,A
   \   00006E   8017         SJMP      ??SL_alloc_5
     60                };
     61              };  
   \                     ??SL_alloc_4:
   \   000070   EE           MOV       A,R6
   \   000071   2499         ADD       A,#-0x67
   \   000073   FE           MOV       R6,A
   \   000074   50A6         JNC       ??SL_alloc_2
   \   000076   0F           INC       R7
   \   000077   80A3         SJMP      ??SL_alloc_2
     62            };
   \                     ??SL_alloc_3:
   \   000079   7800         MOV       R0,#0x0
   \   00007B   E5..         MOV       A,?V0
   \   00007D   A2E0         MOV       C,0xE0 /* A   */.0
   \   00007F   92AF         MOV       0xa8.7,C
   \   000081   8092         SJMP      ??SL_alloc_0
     63            return NULL;
   \                     ??SL_alloc_1:
   \   000083   7A00         MOV       R2,#0x0
   \   000085   7B00         MOV       R3,#0x0
   \                     ??SL_alloc_5:
   \   000087   7404         MOV       A,#0x4
   \   000089   12....       LCALL     ?DEALLOC_XSTACK8
   \   00008C   7F01         MOV       R7,#0x1
   \   00008E   02....       LJMP      ?BANKED_LEAVE_XDATA
   \   000091                REQUIRE _A_IEN0
     64          };

   \                                 In  segment XDATA_ROM_C, align 1
   \                     `?<Constant {(char *)0, 150, 0}>_1`:
   \   000000   0000         DW 0H
   \   000002   96           DB 150
   \   000003   00           DB 0
     65          

   \                                 In  segment BANKED_CODE, align 1, keep-with-next
     66          static bool _free(char *buff){
   \                     ??_free:
   \   000000                REQUIRE ?V0
   \   000000                REQUIRE ?V1
   \   000000                REQUIRE ?V2
   \   000000                REQUIRE ?V3
   \   000000   74F4         MOV       A,#-0xc
   \   000002   12....       LCALL     ?BANKED_ENTER_XDATA
   \   000005                ; Saved register size: 12
   \   000005                ; Auto size: 0
   \   000005   8A..         MOV       ?V0,R2
   \   000007   8B..         MOV       ?V1,R3
     67            struct slot *slot = container_of(buff, struct slot, buffer);
   \   000009   E5..         MOV       A,?V0
   \   00000B   24FE         ADD       A,#-0x2
   \   00000D   FE           MOV       R6,A
   \   00000E   E5..         MOV       A,?V1
   \   000010   34FF         ADDC      A,#-0x1
   \   000012   FF           MOV       R7,A
     68            
     69            if (!is_array_ptr(SLOT_POOL, slot, sizeof(struct slot)))
   \   000013                ; Setup parameters for call to function is_array_ptr
   \   000013   75..99       MOV       ?V2,#-0x67
   \   000016   75..00       MOV       ?V3,#0x0
   \   000019   78..         MOV       R0,#?V2
   \   00001B   12....       LCALL     ?PUSH_XSTACK_I_TWO
   \   00001E   EE           MOV       A,R6
   \   00001F   FC           MOV       R4,A
   \   000020   EF           MOV       A,R7
   \   000021   FD           MOV       R5,A
   \   000022   7A..         MOV       R2,#??SLOT_POOL & 0xff
   \   000024   7B..         MOV       R3,#(??SLOT_POOL >> 8) & 0xff
   \   000026   12....       LCALL     `??is_array_ptr::?relay`; Banked call to: is_array_ptr
   \   000029   7402         MOV       A,#0x2
   \   00002B   12....       LCALL     ?DEALLOC_XSTACK8
   \   00002E   4003         JC        ??_free_1
     70              return false;
   \   000030   C3           CLR       C
   \   000031   8050         SJMP      ??_free_2
     71            
     72            size_t index = array_index(SLOT_POOL, slot, sizeof(struct slot));
   \                     ??_free_1:
   \   000033                ; Setup parameters for call to function array_index
   \   000033   75..99       MOV       ?V2,#-0x67
   \   000036   75..00       MOV       ?V3,#0x0
   \   000039   78..         MOV       R0,#?V2
   \   00003B   12....       LCALL     ?PUSH_XSTACK_I_TWO
   \   00003E   EE           MOV       A,R6
   \   00003F   FC           MOV       R4,A
   \   000040   EF           MOV       A,R7
   \   000041   FD           MOV       R5,A
   \   000042   7A..         MOV       R2,#??SLOT_POOL & 0xff
   \   000044   7B..         MOV       R3,#(??SLOT_POOL >> 8) & 0xff
   \   000046   12....       LCALL     `??array_index::?relay`; Banked call to: array_index
   \   000049   7402         MOV       A,#0x2
   \   00004B   12....       LCALL     ?DEALLOC_XSTACK8
   \   00004E   8A..         MOV       ?V2,R2
   \   000050   8B..         MOV       ?V3,R3
   \   000052   A8..         MOV       R0,?V2
   \   000054   A9..         MOV       R1,?V3
     73            if (!(index < SLOT_BUFFER_SIZE))
   \   000056   C3           CLR       C
   \   000057   E8           MOV       A,R0
   \   000058   9496         SUBB      A,#-0x6a
   \   00005A   E9           MOV       A,R1
   \   00005B   9400         SUBB      A,#0x0
   \   00005D   4003         JC        ??_free_3
     74              return false;
   \   00005F   C3           CLR       C
   \   000060   8021         SJMP      ??_free_2
     75            
     76            if (slot->property.taken != true)
   \                     ??_free_3:
   \   000062   8E82         MOV       DPL,R6
   \   000064   8F83         MOV       DPH,R7
   \   000066   E0           MOVX      A,@DPTR
   \   000067   A2E0         MOV       C,0xE0 /* A   */.0
   \   000069   4003         JC        ??_free_4
     77              return false;
   \   00006B   C3           CLR       C
   \   00006C   8015         SJMP      ??_free_2
     78              
     79            slot->property.taken = false;
   \                     ??_free_4:
   \   00006E   8E82         MOV       DPL,R6
   \   000070   8F83         MOV       DPH,R7
   \   000072   E0           MOVX      A,@DPTR
   \   000073   C2E0         CLR       0xE0 /* A   */.0
   \   000075   F0           MOVX      @DPTR,A
     80            slot_busy--;
   \   000076   90....       MOV       DPTR,#??slot_busy
   \   000079   E0           MOVX      A,@DPTR
   \   00007A   24FF         ADD       A,#-0x1
   \   00007C   F0           MOVX      @DPTR,A
   \   00007D   A3           INC       DPTR
   \   00007E   E0           MOVX      A,@DPTR
   \   00007F   34FF         ADDC      A,#-0x1
   \   000081   F0           MOVX      @DPTR,A
     81            return true;
   \   000082   D3           SETB      C
   \                     ??_free_2:
   \   000083   7F04         MOV       R7,#0x4
   \   000085   02....       LJMP      ?BANKED_LEAVE_XDATA
     82          }
     83          

   \                                 In  segment BANKED_CODE, align 1, keep-with-next
     84          bool SL_free(char *buff){
   \                     SL_free:
   \   000000                REQUIRE ?V0
   \   000000   74F7         MOV       A,#-0x9
   \   000002   12....       LCALL     ?BANKED_ENTER_XDATA
   \   000005                ; Saved register size: 9
   \   000005                ; Auto size: 0
   \   000005   EA           MOV       A,R2
   \   000006   FE           MOV       R6,A
   \   000007   EB           MOV       A,R3
   \   000008   FF           MOV       R7,A
     85            bool res;
     86            ATOMIC_BLOCK_RESTORE{
   \   000009   A2AF         MOV       C,0xa8.7
   \   00000B   E4           CLR       A
   \   00000C   33           RLC       A
   \   00000D   F5..         MOV       ?V0,A
   \   00000F                ; Setup parameters for call to function __cli
   \   00000F   12....       LCALL     `??__cli::?relay_2`; Banked call to: __cli
   \   000012   E9           MOV       A,R1
   \   000013   F8           MOV       R0,A
   \                     ??SL_free_0:
   \   000014   E8           MOV       A,R0
   \   000015   6013         JZ        ??SL_free_1
     87              res = _free(buff);
   \   000017                ; Setup parameters for call to function _free
   \   000017   EE           MOV       A,R6
   \   000018   FA           MOV       R2,A
   \   000019   EF           MOV       A,R7
   \   00001A   FB           MOV       R3,A
   \   00001B   12....       LCALL     `??_free::?relay`; Banked call to: _free
   \   00001E   92..         MOV       ?VB.0,C
     88            }
   \   000020   7800         MOV       R0,#0x0
   \   000022   E5..         MOV       A,?V0
   \   000024   A2E0         MOV       C,0xE0 /* A   */.0
   \   000026   92AF         MOV       0xa8.7,C
   \   000028   80EA         SJMP      ??SL_free_0
     89            return res;
   \                     ??SL_free_1:
   \   00002A   A2..         MOV       C,?VB.0
   \   00002C   7F01         MOV       R7,#0x1
   \   00002E   02....       LJMP      ?BANKED_LEAVE_XDATA
   \   000031                REQUIRE _A_IEN0
     90          };
     91          
     92          

   \                                 In  segment BANKED_CODE, align 1, keep-with-next
     93          int SL_busy(){
   \                     SL_busy:
   \   000000                REQUIRE ?V0
   \   000000                REQUIRE ?V1
   \   000000   74F6         MOV       A,#-0xa
   \   000002   12....       LCALL     ?BANKED_ENTER_XDATA
   \   000005                ; Saved register size: 10
   \   000005                ; Auto size: 0
     94            ASSERT(slot_busy <= SLOT_POOL_ITEMS);
   \   000005   90....       MOV       DPTR,#??slot_busy
   \   000008   C3           CLR       C
   \   000009   E0           MOVX      A,@DPTR
   \   00000A   9415         SUBB      A,#0x15
   \   00000C   A3           INC       DPTR
   \   00000D   E0           MOVX      A,@DPTR
   \   00000E   9400         SUBB      A,#0x0
   \   000010   A2D2         MOV       C,0xD0 /* PSW */.2
   \   000012   65D0         XRL       A,PSW
   \   000014   33           RLC       A
   \   000015   4037         JC        ??SL_busy_0
   \   000017                ; Setup parameters for call to function printf
   \   000017   75....       MOV       ?V0,#??__FUNCTION___11 & 0xff
   \   00001A   75....       MOV       ?V1,#(??__FUNCTION___11 >> 8) & 0xff
   \   00001D   78..         MOV       R0,#?V0
   \   00001F   12....       LCALL     ?PUSH_XSTACK_I_TWO
   \   000022   75..5E       MOV       ?V0,#0x5e
   \   000025   75..00       MOV       ?V1,#0x0
   \   000028   78..         MOV       R0,#?V0
   \   00002A   12....       LCALL     ?PUSH_XSTACK_I_TWO
   \   00002D   75....       MOV       ?V0,#`?<Constant "mem_slots.c">` & 0xff
   \   000030   75....       MOV       ?V1,#(`?<Constant "mem_slots.c">` >> 8) & 0xff
   \   000033   78..         MOV       R0,#?V0
   \   000035   12....       LCALL     ?PUSH_XSTACK_I_TWO
   \   000038   7A..         MOV       R2,#`?<Constant "%s:%d:%s -> ">_3` & 0xff
   \   00003A   7B..         MOV       R3,#(`?<Constant "%s:%d:%s -> ">_3` >> 8) & 0xff
   \   00003C   12....       LCALL     `??printf::?relay`; Banked call to: printf
   \   00003F   7406         MOV       A,#0x6
   \   000041   12....       LCALL     ?DEALLOC_XSTACK8
   \   000044                ; Setup parameters for call to function printf
   \   000044   7A..         MOV       R2,#`?<Constant "\\"slot_busy <= SLOT_PO...">` & 0xff
   \   000046   7B..         MOV       R3,#(`?<Constant "\\"slot_busy <= SLOT_PO...">` >> 8) & 0xff
   \   000048   12....       LCALL     `??printf::?relay`; Banked call to: printf
   \   00004B                ; Setup parameters for call to function DBG_CORE_HALT
   \   00004B   12....       LCALL     `??DBG_CORE_HALT::?relay`; Banked call to: DBG_CORE_HALT
     95            return slot_busy;
   \                     ??SL_busy_0:
   \   00004E   90....       MOV       DPTR,#??slot_busy
   \   000051   E0           MOVX      A,@DPTR
   \   000052   FA           MOV       R2,A
   \   000053   A3           INC       DPTR
   \   000054   E0           MOVX      A,@DPTR
   \   000055   FB           MOV       R3,A
   \   000056   7F02         MOV       R7,#0x2
   \   000058   02....       LJMP      ?BANKED_LEAVE_XDATA
     96          };
     97          

   \                                 In  segment BANKED_CODE, align 1, keep-with-next
     98          int SL_available(){
   \                     SL_available:
   \   000000                REQUIRE ?V0
   \   000000                REQUIRE ?V1
   \   000000   74F6         MOV       A,#-0xa
   \   000002   12....       LCALL     ?BANKED_ENTER_XDATA
   \   000005                ; Saved register size: 10
   \   000005                ; Auto size: 0
     99            ASSERT(slot_busy <= SLOT_POOL_ITEMS);  
   \   000005   90....       MOV       DPTR,#??slot_busy
   \   000008   C3           CLR       C
   \   000009   E0           MOVX      A,@DPTR
   \   00000A   9415         SUBB      A,#0x15
   \   00000C   A3           INC       DPTR
   \   00000D   E0           MOVX      A,@DPTR
   \   00000E   9400         SUBB      A,#0x0
   \   000010   A2D2         MOV       C,0xD0 /* PSW */.2
   \   000012   65D0         XRL       A,PSW
   \   000014   33           RLC       A
   \   000015   4037         JC        ??SL_available_0
   \   000017                ; Setup parameters for call to function printf
   \   000017   75....       MOV       ?V0,#??__FUNCTION___12 & 0xff
   \   00001A   75....       MOV       ?V1,#(??__FUNCTION___12 >> 8) & 0xff
   \   00001D   78..         MOV       R0,#?V0
   \   00001F   12....       LCALL     ?PUSH_XSTACK_I_TWO
   \   000022   75..63       MOV       ?V0,#0x63
   \   000025   75..00       MOV       ?V1,#0x0
   \   000028   78..         MOV       R0,#?V0
   \   00002A   12....       LCALL     ?PUSH_XSTACK_I_TWO
   \   00002D   75....       MOV       ?V0,#`?<Constant "mem_slots.c">` & 0xff
   \   000030   75....       MOV       ?V1,#(`?<Constant "mem_slots.c">` >> 8) & 0xff
   \   000033   78..         MOV       R0,#?V0
   \   000035   12....       LCALL     ?PUSH_XSTACK_I_TWO
   \   000038   7A..         MOV       R2,#`?<Constant "%s:%d:%s -> ">_3` & 0xff
   \   00003A   7B..         MOV       R3,#(`?<Constant "%s:%d:%s -> ">_3` >> 8) & 0xff
   \   00003C   12....       LCALL     `??printf::?relay`; Banked call to: printf
   \   00003F   7406         MOV       A,#0x6
   \   000041   12....       LCALL     ?DEALLOC_XSTACK8
   \   000044                ; Setup parameters for call to function printf
   \   000044   7A..         MOV       R2,#`?<Constant "\\"slot_busy <= SLOT_PO...">` & 0xff
   \   000046   7B..         MOV       R3,#(`?<Constant "\\"slot_busy <= SLOT_PO...">` >> 8) & 0xff
   \   000048   12....       LCALL     `??printf::?relay`; Banked call to: printf
   \   00004B                ; Setup parameters for call to function DBG_CORE_HALT
   \   00004B   12....       LCALL     `??DBG_CORE_HALT::?relay`; Banked call to: DBG_CORE_HALT
    100            return SLOT_POOL_ITEMS - slot_busy;
   \                     ??SL_available_0:
   \   00004E   90....       MOV       DPTR,#??slot_busy
   \   000051   E0           MOVX      A,@DPTR
   \   000052   F8           MOV       R0,A
   \   000053   A3           INC       DPTR
   \   000054   E0           MOVX      A,@DPTR
   \   000055   F9           MOV       R1,A
   \   000056   7414         MOV       A,#0x14
   \   000058   C3           CLR       C
   \   000059   98           SUBB      A,R0
   \   00005A   FA           MOV       R2,A
   \   00005B   7400         MOV       A,#0x0
   \   00005D   99           SUBB      A,R1
   \   00005E   FB           MOV       R3,A
   \   00005F   7F02         MOV       R7,#0x2
   \   000061   02....       LJMP      ?BANKED_LEAVE_XDATA
    101          };
    102          

   \                                 In  segment BANKED_CODE, align 1, keep-with-next
    103          int SL_zone_check(){
   \                     SL_zone_check:
   \   000000   C082         PUSH      DPL
   \   000002   C083         PUSH      DPH
   \   000004                ; Saved register size: 2
   \   000004                ; Auto size: 0
    104            int index = 0;
   \   000004   7C00         MOV       R4,#0x0
   \   000006   7D00         MOV       R5,#0x0
    105            for_each_type(struct slot, SLOT_POOL, slot){
   \   000008   78..         MOV       R0,#??SLOT_POOL & 0xff
   \   00000A   79..         MOV       R1,#(??SLOT_POOL >> 8) & 0xff
   \                     ??SL_zone_check_0:
   \   00000C   C3           CLR       C
   \   00000D   E8           MOV       A,R0
   \   00000E   94..         SUBB      A,#(??SLOT_POOL + 244) & 0xff
   \   000010   E9           MOV       A,R1
   \   000011   94..         SUBB      A,#((??SLOT_POOL + 3060) >> 8) & 0xff
   \   000013   502C         JNC       ??SL_zone_check_1
    106              if (!(slot->red_zone_1 == RED_ZONE_CODE &&
    107                    slot->red_zone_2 == RED_ZONE_CODE))
   \   000015   8882         MOV       DPL,R0
   \   000017   8983         MOV       DPH,R1
   \   000019   A3           INC       DPTR
   \   00001A   E0           MOVX      A,@DPTR
   \   00001B   6473         XRL       A,#0x73
   \   00001D   700E         JNZ       ??SL_zone_check_2
   \   00001F   E8           MOV       A,R0
   \   000020   2498         ADD       A,#-0x68
   \   000022   F582         MOV       DPL,A
   \   000024   E4           CLR       A
   \   000025   39           ADDC      A,R1
   \   000026   F583         MOV       DPH,A
   \   000028   E0           MOVX      A,@DPTR
   \   000029   6473         XRL       A,#0x73
   \   00002B   6006         JZ        ??SL_zone_check_3
    108                return index;
   \                     ??SL_zone_check_2:
   \   00002D   EC           MOV       A,R4
   \   00002E   FA           MOV       R2,A
   \   00002F   ED           MOV       A,R5
   \   000030   FB           MOV       R3,A
   \   000031   8012         SJMP      ??SL_zone_check_4
    109              index++;
   \                     ??SL_zone_check_3:
   \   000033   0C           INC       R4
   \   000034   EC           MOV       A,R4
   \   000035   7001         JNZ       ??SL_zone_check_5
   \   000037   0D           INC       R5
    110            }
   \                     ??SL_zone_check_5:
   \   000038   E8           MOV       A,R0
   \   000039   2499         ADD       A,#-0x67
   \   00003B   F8           MOV       R0,A
   \   00003C   50CE         JNC       ??SL_zone_check_0
   \   00003E   09           INC       R1
   \   00003F   80CB         SJMP      ??SL_zone_check_0
    111            return -1;
   \                     ??SL_zone_check_1:
   \   000041   7AFF         MOV       R2,#-0x1
   \   000043   7BFF         MOV       R3,#-0x1
   \                     ??SL_zone_check_4:
   \   000045   D083         POP       DPH
   \   000047   D082         POP       DPL
   \   000049   02....       LJMP      ?BRET
    112          };
    113          
E:\WMNU\IAR_new_arch\STACK_CORE_SRC\mem_utils.c
      1          #include "mem_utils.h"
      2          #include "debug.h"
      3          
      4          /**
      5          @file Реентерабельное копирование
      6          */
      7          

   \                                 In  segment BANKED_CODE, align 1, keep-with-next
      8          void MEM_memcpy(struct memcpy *memcpy){
   \                     MEM_memcpy:
   \   000000   C082         PUSH      DPL
   \   000002   C083         PUSH      DPH
   \   000004                ; Saved register size: 2
   \   000004                ; Auto size: 0
      9            while (memcpy->len > 0){
   \                     ??MEM_memcpy_0:
   \   000004   8A82         MOV       DPL,R2
   \   000006   8B83         MOV       DPH,R3
   \   000008   A3           INC       DPTR
   \   000009   A3           INC       DPTR
   \   00000A   A3           INC       DPTR
   \   00000B   A3           INC       DPTR
   \   00000C   E0           MOVX      A,@DPTR
   \   00000D   605E         JZ        ??MEM_memcpy_1
     10              *memcpy->dst = *memcpy->src;
   \   00000F   8A82         MOV       DPL,R2
   \   000011   8B83         MOV       DPH,R3
   \   000013   A3           INC       DPTR
   \   000014   A3           INC       DPTR
   \   000015   E0           MOVX      A,@DPTR
   \   000016   F8           MOV       R0,A
   \   000017   A3           INC       DPTR
   \   000018   E0           MOVX      A,@DPTR
   \   000019   F583         MOV       DPH,A
   \   00001B   8882         MOV       DPL,R0
   \   00001D   E0           MOVX      A,@DPTR
   \   00001E   C0E0         PUSH      A
   \   000020   8A82         MOV       DPL,R2
   \   000022   8B83         MOV       DPH,R3
   \   000024   E0           MOVX      A,@DPTR
   \   000025   F8           MOV       R0,A
   \   000026   A3           INC       DPTR
   \   000027   E0           MOVX      A,@DPTR
   \   000028   F583         MOV       DPH,A
   \   00002A   8882         MOV       DPL,R0
   \   00002C   D0E0         POP       A
   \   00002E   F0           MOVX      @DPTR,A
     11              memcpy->dst++;
   \   00002F   8A82         MOV       DPL,R2
   \   000031   8B83         MOV       DPH,R3
   \   000033   E0           MOVX      A,@DPTR
   \   000034   2401         ADD       A,#0x1
   \   000036   F8           MOV       R0,A
   \   000037   A3           INC       DPTR
   \   000038   E0           MOVX      A,@DPTR
   \   000039   3400         ADDC      A,#0x0
   \   00003B   F9           MOV       R1,A
   \   00003C   8A82         MOV       DPL,R2
   \   00003E   8B83         MOV       DPH,R3
   \   000040   E8           MOV       A,R0
   \   000041   F0           MOVX      @DPTR,A
   \   000042   A3           INC       DPTR
   \   000043   E9           MOV       A,R1
   \   000044   F0           MOVX      @DPTR,A
     12              memcpy->src++;
   \   000045   8A82         MOV       DPL,R2
   \   000047   8B83         MOV       DPH,R3
   \   000049   A3           INC       DPTR
   \   00004A   A3           INC       DPTR
   \   00004B   E0           MOVX      A,@DPTR
   \   00004C   2401         ADD       A,#0x1
   \   00004E   F8           MOV       R0,A
   \   00004F   A3           INC       DPTR
   \   000050   E0           MOVX      A,@DPTR
   \   000051   3400         ADDC      A,#0x0
   \   000053   F9           MOV       R1,A
   \   000054   8A82         MOV       DPL,R2
   \   000056   8B83         MOV       DPH,R3
   \   000058   A3           INC       DPTR
   \   000059   A3           INC       DPTR
   \   00005A   E8           MOV       A,R0
   \   00005B   F0           MOVX      @DPTR,A
   \   00005C   A3           INC       DPTR
   \   00005D   E9           MOV       A,R1
   \   00005E   F0           MOVX      @DPTR,A
     13              memcpy->len--;
   \   00005F   8A82         MOV       DPL,R2
   \   000061   8B83         MOV       DPH,R3
   \   000063   A3           INC       DPTR
   \   000064   A3           INC       DPTR
   \   000065   A3           INC       DPTR
   \   000066   A3           INC       DPTR
   \   000067   E0           MOVX      A,@DPTR
   \   000068   24FF         ADD       A,#-0x1
   \   00006A   F0           MOVX      @DPTR,A
   \   00006B   8097         SJMP      ??MEM_memcpy_0
     14            }
     15          };
   \                     ??MEM_memcpy_1:
   \   00006D   D083         POP       DPH
   \   00006F   D082         POP       DPL
   \   000071   02....       LJMP      ?BRET
     16          

   \                                 In  segment BANKED_CODE, align 1, keep-with-next
     17          void MEM_memset(struct memset *memset){
   \                     MEM_memset:
   \   000000   C082         PUSH      DPL
   \   000002   C083         PUSH      DPH
   \   000004                ; Saved register size: 2
   \   000004                ; Auto size: 0
     18            while (memset->len > 0){
   \                     ??MEM_memset_0:
   \   000004   8A82         MOV       DPL,R2
   \   000006   8B83         MOV       DPH,R3
   \   000008   A3           INC       DPTR
   \   000009   A3           INC       DPTR
   \   00000A   E0           MOVX      A,@DPTR
   \   00000B   603B         JZ        ??MEM_memset_1
     19              *memset->dst = memset->val;
   \   00000D   8A82         MOV       DPL,R2
   \   00000F   8B83         MOV       DPH,R3
   \   000011   A3           INC       DPTR
   \   000012   A3           INC       DPTR
   \   000013   A3           INC       DPTR
   \   000014   E0           MOVX      A,@DPTR
   \   000015   C0E0         PUSH      A
   \   000017   8A82         MOV       DPL,R2
   \   000019   8B83         MOV       DPH,R3
   \   00001B   E0           MOVX      A,@DPTR
   \   00001C   F8           MOV       R0,A
   \   00001D   A3           INC       DPTR
   \   00001E   E0           MOVX      A,@DPTR
   \   00001F   F583         MOV       DPH,A
   \   000021   8882         MOV       DPL,R0
   \   000023   D0E0         POP       A
   \   000025   F0           MOVX      @DPTR,A
     20              memset->dst++;
   \   000026   8A82         MOV       DPL,R2
   \   000028   8B83         MOV       DPH,R3
   \   00002A   E0           MOVX      A,@DPTR
   \   00002B   2401         ADD       A,#0x1
   \   00002D   F8           MOV       R0,A
   \   00002E   A3           INC       DPTR
   \   00002F   E0           MOVX      A,@DPTR
   \   000030   3400         ADDC      A,#0x0
   \   000032   F9           MOV       R1,A
   \   000033   8A82         MOV       DPL,R2
   \   000035   8B83         MOV       DPH,R3
   \   000037   E8           MOV       A,R0
   \   000038   F0           MOVX      @DPTR,A
   \   000039   A3           INC       DPTR
   \   00003A   E9           MOV       A,R1
   \   00003B   F0           MOVX      @DPTR,A
     21              memset->len--;
   \   00003C   8A82         MOV       DPL,R2
   \   00003E   8B83         MOV       DPH,R3
   \   000040   A3           INC       DPTR
   \   000041   A3           INC       DPTR
   \   000042   E0           MOVX      A,@DPTR
   \   000043   24FF         ADD       A,#-0x1
   \   000045   F0           MOVX      @DPTR,A
   \   000046   80BC         SJMP      ??MEM_memset_0
     22            }  
     23          };
   \                     ??MEM_memset_1:
   \   000048   D083         POP       DPH
   \   00004A   D082         POP       DPL
   \   00004C   02....       LJMP      ?BRET
     24          
     25          
E:\WMNU\IAR_new_arch\STACK_CORE_SRC\model.c
      1          #include "model.h"
      2          #include "action_manager.h"
      3          
      4          /**
      5          @file
      6          */
      7          

   \                                 In  segment XDATA_Z, align 1, keep-with-next
      8          MODEL_s MODEL;
   \                     MODEL:
   \   000000                DS 124
   \   00007C                REQUIRE __INIT_XDATA_Z
      9          
     10          static void HW_Init(void);  
     11          static void SW_Init(void); 
     12          static void Sleep(void); 
     13          static void Wakeup(void); 
     14          static void Cold_Start(void); 
     15          static void Hot_Start(void); 
     16          

   \                                 In  segment XDATA_I, align 1, keep-with-next
     17          module_s MD_MODULE = {ALIAS(HW_Init),ALIAS(SW_Init),ALIAS(Sleep),
   \                     MD_MODULE:
   \   000000                DS 12
   \   00000C                REQUIRE `?<Initializer for MD_MODULE>`
   \   00000C                REQUIRE __INIT_XDATA_I
     18            ALIAS(Wakeup),ALIAS(Cold_Start), ALIAS(Hot_Start)};
     19          

   \                                 In  segment BANKED_CODE, align 1, keep-with-next
     20          static void HW_Init(void){};  
   \                     ??HW_Init_5:
   \   000000                ; Saved register size: 0
   \   000000                ; Auto size: 0
   \   000000   02....       LJMP      ?BRET

   \                                 In  segment BANKED_CODE, align 1, keep-with-next
     21          static void SW_Init(void){}; 
   \                     ??SW_Init_3:
   \   000000                ; Saved register size: 0
   \   000000                ; Auto size: 0
   \   000000   02....       LJMP      ?BRET

   \                                 In  segment BANKED_CODE, align 1, keep-with-next
     22          static void Sleep(void){}; 
   \                     ??Sleep:
   \   000000                ; Saved register size: 0
   \   000000                ; Auto size: 0
   \   000000   02....       LJMP      ?BRET

   \                                 In  segment BANKED_CODE, align 1, keep-with-next
     23          static void Wakeup(void){}; 
   \                     ??Wakeup:
   \   000000                ; Saved register size: 0
   \   000000                ; Auto size: 0
   \   000000   02....       LJMP      ?BRET

   \                                 In  segment BANKED_CODE, align 1, keep-with-next
     24          static void Cold_Start(void){}; 
   \                     ??Cold_Start:
   \   000000                ; Saved register size: 0
   \   000000                ; Auto size: 0
   \   000000   02....       LJMP      ?BRET

   \                                 In  segment BANKED_CODE, align 1, keep-with-next
     25          static void Hot_Start(void){};
   \                     ??Hot_Start:
   \   000000                ; Saved register size: 0
   \   000000                ; Auto size: 0
   \   000000   02....       LJMP      ?BRET
     26          
E:\WMNU\IAR_NEW_ARCH\STACK_CORE_SRC\radio.c
      1          #include "radio.h"
      2          #include "mem_utils.h"
      3          #include "debug.h"
      4          #include "radio_defs.h"
      5          #include "ustimer.h"
      6          #include "frame.h"
      7          #include "string.h"
      8          #include "alarm_timer.h"
      9          #include "model.h"
     10          #include "action_manager.h"
     11          #include "frame.h"
     12          #include "macros.h"
     13          #include "stdlib.h"
     14          
     15          static void HW_Init(void);
     16          static void SW_Init(void);

   \                                 In  segment XDATA_I, align 1, keep-with-next
     17          module_s RADIO_MODULE = {ALIAS(SW_Init), ALIAS(HW_Init)};
   \                     RADIO_MODULE:
   \   000000                DS 12
   \   00000C                REQUIRE `?<Initializer for RADIO_MODULE>`
   \   00000C                REQUIRE __INIT_XDATA_I
     18          
     19          static void random_core_init(void);

   \                                 In  segment XDATA_Z, align 1, keep-with-next
     20          static char RXBUFF[128];
   \                     ??RXBUFF:
   \   000000                DS 128
   \   000080                REQUIRE __INIT_XDATA_Z
     21          
     22          #define IEEE_MODE 0     //!< Режимы фазы сигнала
     23          #define NOT_IEEE_MODE 1 //!< Режимы фазы сигнала
     24          #define RSSI_OFFSET -76 //!< Константа для вычисления реальной мощности
     25          #define MAX_CH  CH28
     26          #define MIN_CH  CH11
     27          /*!
     28          \details 
     29           Расчет качества связи. Коэффициенты получаются эксперементально.
     30           Есть предположение, что количество ошибок будет пропорционально квадрату
     31           коеффициента корреляции сигнала.
     32           LIQ = 255 передача 1000 пакетов без ошибок CRC
     33           LIQ = 127 передача 1000 пакетов с 50% ошибок CRC
     34           LIQ = 0   передача 1000 пакетов с 100% ошибок CRC
     35          */ 
     36          
     37          #define CONST_A (int8_t)0 //!< Коэффициент A
     38          #define CONST_B (int8_t)1 //!< Коэффициент B
     39          #define LIQ_CALC(corr) ((corr-CONST_A)*CONST_B) //!< Формула вычисление LIQ 
     40          #define FRQ_CALC(x) (11+5*(x-11)) //!< Формул вычисления частоты сигнала
     41          
     42          #ifdef RADIO_DEBUG
     43            #define WRITE_TIME_DBG(where) (where) = AT_time()
     44            #define WRITE_PARA_DBG(where,val) (where) = (val) 
     45          #else
     46            #define WRITE_TIME_DBG(where) {}
     47            #define WRITE_PARA_DBG(where,val)
     48          #endif
     49          

   \                                 In  segment BANKED_CODE, align 1, keep-with-next
     50          static void SW_Init(void){
   \                     ??SW_Init_4:
   \   000000   C082         PUSH      DPL
   \   000002   C083         PUSH      DPH
   \   000004                ; Saved register size: 2
   \   000004                ; Auto size: 0
     51            // Настройки поумолчанию
     52            MODEL.RADIO.CRCError = 0;
   \   000004   90....       MOV       DPTR,#MODEL + 80
   \   000007   7400         MOV       A,#0x0
   \   000009   F0           MOVX      @DPTR,A
   \   00000A   A3           INC       DPTR
   \   00000B   7400         MOV       A,#0x0
   \   00000D   F0           MOVX      @DPTR,A
   \   00000E   A3           INC       DPTR
   \   00000F   7400         MOV       A,#0x0
   \   000011   F0           MOVX      @DPTR,A
   \   000012   A3           INC       DPTR
   \   000013   7400         MOV       A,#0x0
   \   000015   F0           MOVX      @DPTR,A
     53            MODEL.RADIO.CCAReject = 0;
   \   000016   90....       MOV       DPTR,#MODEL + 84
   \   000019   7400         MOV       A,#0x0
   \   00001B   F0           MOVX      @DPTR,A
   \   00001C   A3           INC       DPTR
   \   00001D   7400         MOV       A,#0x0
   \   00001F   F0           MOVX      @DPTR,A
   \   000020   A3           INC       DPTR
   \   000021   7400         MOV       A,#0x0
   \   000023   F0           MOVX      @DPTR,A
   \   000024   A3           INC       DPTR
   \   000025   7400         MOV       A,#0x0
   \   000027   F0           MOVX      @DPTR,A
     54            MODEL.RADIO.channel = CH11;
   \   000028   90....       MOV       DPTR,#MODEL + 89
   \   00002B   740B         MOV       A,#0xb
   \   00002D   F0           MOVX      @DPTR,A
     55            MODEL.RADIO.power_tx = m0x5;
   \   00002E   90....       MOV       DPTR,#MODEL + 88
   \   000031   74C5         MOV       A,#-0x3b
   \   000033   F0           MOVX      @DPTR,A
     56            // Пост действия с радио
     57            random_core_init();
   \   000034                ; Setup parameters for call to function random_core_init
   \   000034   12....       LCALL     `??random_core_init::?relay`; Banked call to: random_core_init
     58          }
   \   000037   D083         POP       DPH
   \   000039   D082         POP       DPL
   \   00003B   02....       LJMP      ?BRET
     59          

   \                                 In  segment BANKED_CODE, align 1, keep-with-next
     60          static void HW_Init(void){
   \                     ??HW_Init_6:
   \   000000   C082         PUSH      DPL
   \   000002   C083         PUSH      DPH
   \   000004                ; Saved register size: 2
   \   000004                ; Auto size: 1
   \   000004   74FF         MOV       A,#-0x1
   \   000006   12....       LCALL     ?ALLOC_XSTACK8
     61            FRMFILT0 = 0x00; // Отключаем фильтрацию пакетов
   \   000009   906180       MOV       DPTR,#0x6180
   \   00000C   7400         MOV       A,#0x0
   \   00000E   F0           MOVX      @DPTR,A
     62            MDMTEST1_u MDM1; // Устанавливаем режим модуляции
     63            MDM1.value = MDMTEST1;
   \   00000F   9061B9       MOV       DPTR,#0x61b9
   \   000012   E0           MOVX      A,@DPTR
   \   000013   C0E0         PUSH      A
   \   000015   85..82       MOV       DPL,?XSP + 0
   \   000018   85..83       MOV       DPH,?XSP + 1
   \   00001B   D0E0         POP       A
   \   00001D   F0           MOVX      @DPTR,A
     64            MDM1.bits.MODULATION_MODE = IEEE_MODE;
   \   00001E   85..82       MOV       DPL,?XSP + 0
   \   000021   85..83       MOV       DPH,?XSP + 1
   \   000024   E0           MOVX      A,@DPTR
   \   000025   C2E1         CLR       0xE0 /* A   */.1
   \   000027   F0           MOVX      @DPTR,A
     65            MDMTEST1 = MDM1.value;   
   \   000028   85..82       MOV       DPL,?XSP + 0
   \   00002B   85..83       MOV       DPH,?XSP + 1
   \   00002E   E0           MOVX      A,@DPTR
   \   00002F   9061B9       MOV       DPTR,#0x61b9
   \   000032   F0           MOVX      @DPTR,A
     66          }
   \   000033   7401         MOV       A,#0x1
   \   000035   12....       LCALL     ?DEALLOC_XSTACK8
   \   000038   D083         POP       DPH
   \   00003A   D082         POP       DPL
   \   00003C   02....       LJMP      ?BRET
     67          

   \                                 In  segment BANKED_CODE, align 1, keep-with-next
     68          static inline void setFreq(channel_t ch)
   \                     ??setFreq:
     69          {
   \   000000                REQUIRE ?V0
   \   000000                REQUIRE ?V1
   \   000000   74F6         MOV       A,#-0xa
   \   000002   12....       LCALL     ?BANKED_ENTER_XDATA
   \   000005                ; Saved register size: 10
   \   000005                ; Auto size: 1
   \   000005   74FF         MOV       A,#-0x1
   \   000007   12....       LCALL     ?ALLOC_XSTACK8
   \   00000A   E9           MOV       A,R1
   \   00000B   FE           MOV       R6,A
     70            ASSERT( (ch >= MIN_CH) && (ch <= MAX_CH));
   \   00000C   EE           MOV       A,R6
   \   00000D   C3           CLR       C
   \   00000E   940B         SUBB      A,#0xb
   \   000010   4006         JC        ??setFreq_1
   \   000012   EE           MOV       A,R6
   \   000013   C3           CLR       C
   \   000014   941D         SUBB      A,#0x1d
   \   000016   4037         JC        ??setFreq_2
   \                     ??setFreq_1:
   \   000018                ; Setup parameters for call to function printf
   \   000018   75....       MOV       ?V0,#??__FUNCTION___13 & 0xff
   \   00001B   75....       MOV       ?V1,#(??__FUNCTION___13 >> 8) & 0xff
   \   00001E   78..         MOV       R0,#?V0
   \   000020   12....       LCALL     ?PUSH_XSTACK_I_TWO
   \   000023   75..46       MOV       ?V0,#0x46
   \   000026   75..00       MOV       ?V1,#0x0
   \   000029   78..         MOV       R0,#?V0
   \   00002B   12....       LCALL     ?PUSH_XSTACK_I_TWO
   \   00002E   75....       MOV       ?V0,#`?<Constant "radio.c">` & 0xff
   \   000031   75....       MOV       ?V1,#(`?<Constant "radio.c">` >> 8) & 0xff
   \   000034   78..         MOV       R0,#?V0
   \   000036   12....       LCALL     ?PUSH_XSTACK_I_TWO
   \   000039   7A..         MOV       R2,#`?<Constant "%s:%d:%s -> ">_4` & 0xff
   \   00003B   7B..         MOV       R3,#(`?<Constant "%s:%d:%s -> ">_4` >> 8) & 0xff
   \   00003D   12....       LCALL     `??printf::?relay`; Banked call to: printf
   \   000040   7406         MOV       A,#0x6
   \   000042   12....       LCALL     ?DEALLOC_XSTACK8
   \   000045                ; Setup parameters for call to function printf
   \   000045   7A..         MOV       R2,#`?<Constant "\\"(ch >= MIN_CH) && (c...">` & 0xff
   \   000047   7B..         MOV       R3,#(`?<Constant "\\"(ch >= MIN_CH) && (c...">` >> 8) & 0xff
   \   000049   12....       LCALL     `??printf::?relay`; Banked call to: printf
   \   00004C                ; Setup parameters for call to function DBG_CORE_HALT
   \   00004C   12....       LCALL     `??DBG_CORE_HALT::?relay`; Banked call to: DBG_CORE_HALT
     71            // Устанавливаем частоту радиопередатчика
     72            FREQCTRL_u FRQ;
     73            FRQ.value = FRQ_CALC(MODEL.RADIO.channel);
   \                     ??setFreq_2:
   \   00004F   75F005       MOV       B,#0x5
   \   000052   90....       MOV       DPTR,#MODEL + 89
   \   000055   E0           MOVX      A,@DPTR
   \   000056   A4           MUL       AB
   \   000057   24D4         ADD       A,#-0x2c
   \   000059   C0E0         PUSH      A
   \   00005B   85..82       MOV       DPL,?XSP + 0
   \   00005E   85..83       MOV       DPH,?XSP + 1
   \   000061   D0E0         POP       A
   \   000063   F0           MOVX      @DPTR,A
     74            FREQCTRL = FRQ.value;  
   \   000064   85..82       MOV       DPL,?XSP + 0
   \   000067   85..83       MOV       DPH,?XSP + 1
   \   00006A   E0           MOVX      A,@DPTR
   \   00006B   90618F       MOV       DPTR,#0x618f
   \   00006E   F0           MOVX      @DPTR,A
     75          }
   \   00006F   7401         MOV       A,#0x1
   \   000071   12....       LCALL     ?DEALLOC_XSTACK8
   \   000074   7F02         MOV       R7,#0x2
   \   000076   02....       LJMP      ?BANKED_LEAVE_XDATA
     76          

   \                                 In  segment BANKED_CODE, align 1, keep-with-next
     77          static inline void pre_config(void){
   \                     ??pre_config:
   \   000000   C082         PUSH      DPL
   \   000002   C083         PUSH      DPH
   \   000004                ; Saved register size: 2
   \   000004                ; Auto size: 0
     78            setFreq(MODEL.RADIO.channel); 
   \   000004                ; Setup parameters for call to function setFreq
   \   000004   90....       MOV       DPTR,#MODEL + 89
   \   000007   E0           MOVX      A,@DPTR
   \   000008   F9           MOV       R1,A
   \   000009   12....       LCALL     `??setFreq::?relay`; Banked call to: setFreq
     79            TXPOWER = MODEL.RADIO.power_tx;
   \   00000C   90....       MOV       DPTR,#MODEL + 88
   \   00000F   E0           MOVX      A,@DPTR
   \   000010   906190       MOV       DPTR,#0x6190
   \   000013   F0           MOVX      @DPTR,A
     80          }
   \   000014   D083         POP       DPH
   \   000016   D082         POP       DPL
   \   000018   02....       LJMP      ?BRET
     81          

   \                                 In  segment BANKED_CODE, align 1, keep-with-next
     82          bool RI_SetChannel(channel_t channel){
   \                     RI_SetChannel:
   \   000000   C082         PUSH      DPL
   \   000002   C083         PUSH      DPH
   \   000004                ; Saved register size: 2
   \   000004                ; Auto size: 0
     83            if (!(channel >= MIN_CH) && (channel <= MAX_CH))
   \   000004   E9           MOV       A,R1
   \   000005   C3           CLR       C
   \   000006   940B         SUBB      A,#0xb
   \   000008   5009         JNC       ??RI_SetChannel_0
   \   00000A   E9           MOV       A,R1
   \   00000B   C3           CLR       C
   \   00000C   941D         SUBB      A,#0x1d
   \   00000E   5003         JNC       ??RI_SetChannel_0
     84              return false;
   \   000010   C3           CLR       C
   \   000011   8006         SJMP      ??RI_SetChannel_1
     85            MODEL.RADIO.channel = channel;
   \                     ??RI_SetChannel_0:
   \   000013   E9           MOV       A,R1
   \   000014   90....       MOV       DPTR,#MODEL + 89
   \   000017   F0           MOVX      @DPTR,A
     86            return false;
   \   000018   C3           CLR       C
   \                     ??RI_SetChannel_1:
   \   000019   D083         POP       DPH
   \   00001B   D082         POP       DPL
   \   00001D   02....       LJMP      ?BRET
     87            
     88          }
     89          

   \                                 In  segment BANKED_CODE, align 1, keep-with-next
     90          static void LoadTXData(char *src, size_t len){
   \                     ??LoadTXData:
   \   000000   C082         PUSH      DPL
   \   000002   C083         PUSH      DPH
   \   000004                ; Saved register size: 2
   \   000004                ; Auto size: 0
     91            ISFLUSHTX(); // Очищаем буфер передатчика
   \   000004   75E1EE       MOV       0xe1,#-0x12
     92            RFD = len + 2; // Поле LEN на два байта больше
   \   000007   EC           MOV       A,R4
   \   000008   2402         ADD       A,#0x2
   \   00000A   F5D9         MOV       0xd9,A
     93            for (size_t i = 0 ; i < len; i++)
   \   00000C   7800         MOV       R0,#0x0
   \   00000E   7900         MOV       R1,#0x0
   \                     ??LoadTXData_1:
   \   000010   C3           CLR       C
   \   000011   E8           MOV       A,R0
   \   000012   9C           SUBB      A,R4
   \   000013   E9           MOV       A,R1
   \   000014   9D           SUBB      A,R5
   \   000015   5012         JNC       ??LoadTXData_2
     94              RFD = src[i];
   \   000017   EA           MOV       A,R2
   \   000018   28           ADD       A,R0
   \   000019   F582         MOV       DPL,A
   \   00001B   EB           MOV       A,R3
   \   00001C   39           ADDC      A,R1
   \   00001D   F583         MOV       DPH,A
   \   00001F   E0           MOVX      A,@DPTR
   \   000020   F5D9         MOV       0xd9,A
   \   000022   08           INC       R0
   \   000023   E8           MOV       A,R0
   \   000024   70EA         JNZ       ??LoadTXData_1
   \   000026   09           INC       R1
   \   000027   80E7         SJMP      ??LoadTXData_1
     95            RFD = 0x00; // Добавляем CRC1,2
   \                     ??LoadTXData_2:
   \   000029   75D900       MOV       0xd9,#0x0
     96            RFD = 0x00;
   \   00002C   75D900       MOV       0xd9,#0x0
     97          };
   \   00002F   D083         POP       DPH
   \   000031   D082         POP       DPL
   \   000033   02....       LJMP      ?BRET
   \   000036                REQUIRE RFST
   \   000036                REQUIRE RFD
     98          

   \                                 In  segment BANKED_CODE, align 1, keep-with-next
     99          static bool SendData(struct frame *fr){
   \                     ??SendData:
   \   000000                REQUIRE ?V0
   \   000000                REQUIRE ?V1
   \   000000   74F6         MOV       A,#-0xa
   \   000002   12....       LCALL     ?BANKED_ENTER_XDATA
   \   000005                ; Saved register size: 10
   \   000005                ; Auto size: 49
   \   000005   74CF         MOV       A,#-0x31
   \   000007   12....       LCALL     ?ALLOC_XSTACK8
   \   00000A   EA           MOV       A,R2
   \   00000B   FE           MOV       R6,A
   \   00000C   EB           MOV       A,R3
   \   00000D   FF           MOV       R7,A
    100            LoadTXData(fr->payload, fr->len);
   \   00000E                ; Setup parameters for call to function LoadTXData
   \   00000E   8E82         MOV       DPL,R6
   \   000010   8F83         MOV       DPH,R7
   \   000012   E0           MOVX      A,@DPTR
   \   000013   FC           MOV       R4,A
   \   000014   7D00         MOV       R5,#0x0
   \   000016   EE           MOV       A,R6
   \   000017   2415         ADD       A,#0x15
   \   000019   FA           MOV       R2,A
   \   00001A   E4           CLR       A
   \   00001B   3F           ADDC      A,R7
   \   00001C   FB           MOV       R3,A
   \   00001D   12....       LCALL     `??LoadTXData::?relay`; Banked call to: LoadTXData
    101            ISRXON();
   \   000020   75E1E3       MOV       0xe1,#-0x1d
    102            WRITE_TIME_DBG(MODEL.RADIO.DEBUG_TX.isrxon);
   \   000023                ; Setup parameters for call to function AT_time
   \   000023   12....       LCALL     `??AT_time::?relay`; Banked call to: AT_time
   \   000026   90....       MOV       DPTR,#MODEL + 98
   \   000029   EA           MOV       A,R2
   \   00002A   F0           MOVX      @DPTR,A
   \   00002B   A3           INC       DPTR
   \   00002C   EB           MOV       A,R3
   \   00002D   F0           MOVX      @DPTR,A
    103            RFIRQF1 &= ~RFIRQF1_TXDONE;
   \   00002E   5391FD       ANL       0x91,#0xfd
    104            RFIRQF0 &= ~RFIRQF0_SFD; 
   \   000031   53E9FD       ANL       0xe9,#0xfd
    105            bool result = true;
   \   000034   D2..         SETB      ?VB.0
    106            while(!RSSISTAT);
   \                     ??SendData_1:
   \   000036   906199       MOV       DPTR,#0x6199
   \   000039   E0           MOVX      A,@DPTR
   \   00003A   60FA         JZ        ??SendData_1
    107            WRITE_TIME_DBG(MODEL.RADIO.DEBUG_TX.rssistat);
   \   00003C                ; Setup parameters for call to function AT_time
   \   00003C   12....       LCALL     `??AT_time::?relay`; Banked call to: AT_time
   \   00003F   90....       MOV       DPTR,#MODEL + 100
   \   000042   EA           MOV       A,R2
   \   000043   F0           MOVX      @DPTR,A
   \   000044   A3           INC       DPTR
   \   000045   EB           MOV       A,R3
   \   000046   F0           MOVX      @DPTR,A
    108            TRY{
   \   000047   85..82       MOV       DPL,?XSP + 0
   \   00004A   85..83       MOV       DPH,?XSP + 1
   \   00004D   7408         MOV       A,#0x8
   \   00004F                REQUIRE ?V7
   \   00004F   12....       LCALL     ?SETJMP_XDATA
   \   000052   8A..         MOV       ?V0,R2
   \   000054   8B..         MOV       ?V1,R3
   \   000056   78..         MOV       R0,#?V0
   \   000058   12....       LCALL     ?US_SWITCH_DENSE
   \                     `?<Jumptable for SendData>_0`:
   \   00005B   0000         DW        0
   \   00005D   01           DB        1
   \   00005E   ....         DW        ??SendData_2
   \   000060   ....         DW        ??SendData_3
   \   000062   ....         DW        ??SendData_4
    109              if (fr->meta.SEND_TIME != 0) // Отправка в определеное время
   \                     ??SendData_3:
   \   000064   EE           MOV       A,R6
   \   000065   2413         ADD       A,#0x13
   \   000067   F582         MOV       DPL,A
   \   000069   E4           CLR       A
   \   00006A   3F           ADDC      A,R7
   \   00006B   F583         MOV       DPH,A
   \   00006D   E0           MOVX      A,@DPTR
   \   00006E   F8           MOV       R0,A
   \   00006F   A3           INC       DPTR
   \   000070   E0           MOVX      A,@DPTR
   \   000071   F9           MOV       R1,A
   \   000072   E8           MOV       A,R0
   \   000073   49           ORL       A,R1
   \   000074   6015         JZ        ??SendData_5
    110                AT_wait(fr->meta.SEND_TIME - 13); 
   \   000076                ; Setup parameters for call to function AT_wait
   \   000076   EE           MOV       A,R6
   \   000077   2413         ADD       A,#0x13
   \   000079   F582         MOV       DPL,A
   \   00007B   E4           CLR       A
   \   00007C   3F           ADDC      A,R7
   \   00007D   F583         MOV       DPH,A
   \   00007F   E0           MOVX      A,@DPTR
   \   000080   24F3         ADD       A,#-0xd
   \   000082   FA           MOV       R2,A
   \   000083   A3           INC       DPTR
   \   000084   E0           MOVX      A,@DPTR
   \   000085   34FF         ADDC      A,#-0x1
   \   000087   FB           MOV       R3,A
   \   000088   12....       LCALL     `??AT_wait::?relay`; Banked call to: AT_wait
    111              ISTXONCCA();
   \                     ??SendData_5:
   \   00008B   75E1EA       MOV       0xe1,#-0x16
    112              WRITE_TIME_DBG(MODEL.RADIO.DEBUG_TX.istxoncca);
   \   00008E                ; Setup parameters for call to function AT_time
   \   00008E   12....       LCALL     `??AT_time::?relay`; Banked call to: AT_time
   \   000091   90....       MOV       DPTR,#MODEL + 102
   \   000094   EA           MOV       A,R2
   \   000095   F0           MOVX      @DPTR,A
   \   000096   A3           INC       DPTR
   \   000097   EB           MOV       A,R3
   \   000098   F0           MOVX      @DPTR,A
    113              if (!(FSMSTAT1 & 1<<3)) //SAMPLED_CCA == 0
   \   000099   906193       MOV       DPTR,#0x6193
   \   00009C   E0           MOVX      A,@DPTR
   \   00009D   A2E3         MOV       C,0xE0 /* A   */.3
   \   00009F   400F         JC        ??SendData_6
    114                THROW(1);
   \   0000A1   7A01         MOV       R2,#0x1
   \   0000A3   7B00         MOV       R3,#0x0
   \   0000A5   85..82       MOV       DPL,?XSP + 0
   \   0000A8   85..83       MOV       DPH,?XSP + 1
   \   0000AB   7408         MOV       A,#0x8
   \   0000AD                REQUIRE ?V7
   \   0000AD   02....       LJMP      ?LONGJMP_XDATA
    115              // Ждем отправки SFD
    116              while (!(RFIRQF0 & RFIRQF0_SFD));
   \                     ??SendData_6:
   \   0000B0   E5E9         MOV       A,0xe9
   \   0000B2   A2E1         MOV       C,0xE0 /* A   */.1
   \   0000B4   50FA         JNC       ??SendData_6
    117              fr->meta.TIMESTAMP = AT_time();
   \   0000B6                ; Setup parameters for call to function AT_time
   \   0000B6   12....       LCALL     `??AT_time::?relay`; Banked call to: AT_time
   \   0000B9   8E82         MOV       DPL,R6
   \   0000BB   8F83         MOV       DPH,R7
   \   0000BD   A3           INC       DPTR
   \   0000BE   EA           MOV       A,R2
   \   0000BF   F0           MOVX      @DPTR,A
   \   0000C0   A3           INC       DPTR
   \   0000C1   EB           MOV       A,R3
   \   0000C2   F0           MOVX      @DPTR,A
    118              WRITE_TIME_DBG(MODEL.RADIO.DEBUG_TX.sfd);
   \   0000C3                ; Setup parameters for call to function AT_time
   \   0000C3   12....       LCALL     `??AT_time::?relay`; Banked call to: AT_time
   \   0000C6   90....       MOV       DPTR,#MODEL + 104
   \   0000C9   EA           MOV       A,R2
   \   0000CA   F0           MOVX      @DPTR,A
   \   0000CB   A3           INC       DPTR
   \   0000CC   EB           MOV       A,R3
   \   0000CD   F0           MOVX      @DPTR,A
    119              // Ждем завершения отправки сообщения
    120              while (!(RFIRQF1 & RFIRQF1_TXDONE));
   \                     ??SendData_7:
   \   0000CE   E591         MOV       A,0x91
   \   0000D0   A2E1         MOV       C,0xE0 /* A   */.1
   \   0000D2   50FA         JNC       ??SendData_7
    121              WRITE_TIME_DBG(MODEL.RADIO.DEBUG_TX.txdone);
   \   0000D4                ; Setup parameters for call to function AT_time
   \   0000D4   12....       LCALL     `??AT_time::?relay`; Banked call to: AT_time
   \   0000D7   90....       MOV       DPTR,#MODEL + 106
   \   0000DA   EA           MOV       A,R2
   \   0000DB   F0           MOVX      @DPTR,A
   \   0000DC   A3           INC       DPTR
   \   0000DD   EB           MOV       A,R3
   \   0000DE   F0           MOVX      @DPTR,A
    122            }
    123            CATCH(1){ //SAMPLED_CCA == 0
   \   0000DF   8002         SJMP      ??SendData_2
    124              result = false;
   \                     ??SendData_4:
   \   0000E1   C2..         CLR       ?VB.0
    125            }
    126            FINALLY{
    127              ISRFOFF();
   \                     ??SendData_2:
   \   0000E3   75E1EF       MOV       0xe1,#-0x11
    128            }
    129            ETRY;  
    130            return result;
   \   0000E6   A2..         MOV       C,?VB.0
   \   0000E8   7431         MOV       A,#0x31
   \   0000EA   12....       LCALL     ?DEALLOC_XSTACK8
   \   0000ED   7F02         MOV       R7,#0x2
   \   0000EF   02....       LJMP      ?BANKED_LEAVE_XDATA
   \   0000F2                REQUIRE RFST
   \   0000F2                REQUIRE RFIRQF1
   \   0000F2                REQUIRE RFIRQF0
    131          }
    132          
    133          /*!
    134          \brief Передает данные в эфир
    135          */

   \                                 In  segment BANKED_CODE, align 1, keep-with-next
    136          bool RI_Send(struct frame *fr){
   \                     RI_Send:
   \   000000                REQUIRE ?V0
   \   000000                REQUIRE ?V1
   \   000000                REQUIRE ?V2
   \   000000                REQUIRE ?V3
   \   000000                REQUIRE ?V4
   \   000000                REQUIRE ?V5
   \   000000                REQUIRE ?V6
   \   000000                REQUIRE ?V7
   \   000000   74F0         MOV       A,#-0x10
   \   000002   12....       LCALL     ?BANKED_ENTER_XDATA
   \   000005                ; Saved register size: 16
   \   000005                ; Auto size: 14
   \   000005   74F2         MOV       A,#-0xe
   \   000007   12....       LCALL     ?ALLOC_XSTACK8
   \   00000A   85..82       MOV       DPL,?XSP + 0
   \   00000D   85..83       MOV       DPH,?XSP + 1
   \   000010   EA           MOV       A,R2
   \   000011   F0           MOVX      @DPTR,A
   \   000012   A3           INC       DPTR
   \   000013   EB           MOV       A,R3
   \   000014   F0           MOVX      @DPTR,A
    137            ASSERT(fr != NULL);
   \   000015   85..82       MOV       DPL,?XSP + 0
   \   000018   85..83       MOV       DPH,?XSP + 1
   \   00001B   E0           MOVX      A,@DPTR
   \   00001C   F8           MOV       R0,A
   \   00001D   A3           INC       DPTR
   \   00001E   E0           MOVX      A,@DPTR
   \   00001F   F9           MOV       R1,A
   \   000020   E8           MOV       A,R0
   \   000021   49           ORL       A,R1
   \   000022   7037         JNZ       ??RI_Send_0
   \   000024                ; Setup parameters for call to function printf
   \   000024   75....       MOV       ?V0,#??__FUNCTION___14 & 0xff
   \   000027   75....       MOV       ?V1,#(??__FUNCTION___14 >> 8) & 0xff
   \   00002A   78..         MOV       R0,#?V0
   \   00002C   12....       LCALL     ?PUSH_XSTACK_I_TWO
   \   00002F   75..89       MOV       ?V0,#-0x77
   \   000032   75..00       MOV       ?V1,#0x0
   \   000035   78..         MOV       R0,#?V0
   \   000037   12....       LCALL     ?PUSH_XSTACK_I_TWO
   \   00003A   75....       MOV       ?V0,#`?<Constant "radio.c">` & 0xff
   \   00003D   75....       MOV       ?V1,#(`?<Constant "radio.c">` >> 8) & 0xff
   \   000040   78..         MOV       R0,#?V0
   \   000042   12....       LCALL     ?PUSH_XSTACK_I_TWO
   \   000045   7A..         MOV       R2,#`?<Constant "%s:%d:%s -> ">_4` & 0xff
   \   000047   7B..         MOV       R3,#(`?<Constant "%s:%d:%s -> ">_4` >> 8) & 0xff
   \   000049   12....       LCALL     `??printf::?relay`; Banked call to: printf
   \   00004C   7406         MOV       A,#0x6
   \   00004E   12....       LCALL     ?DEALLOC_XSTACK8
   \   000051                ; Setup parameters for call to function printf
   \   000051   7A..         MOV       R2,#`?<Constant "\\"fr != NULL\\" Faild! \\r\\n">` & 0xff
   \   000053   7B..         MOV       R3,#(`?<Constant "\\"fr != NULL\\" Faild! \\r\\n">` >> 8) & 0xff
   \   000055   12....       LCALL     `??printf::?relay`; Banked call to: printf
   \   000058                ; Setup parameters for call to function DBG_CORE_HALT
   \   000058   12....       LCALL     `??DBG_CORE_HALT::?relay`; Banked call to: DBG_CORE_HALT
    138            pre_config();
   \                     ??RI_Send_0:
   \   00005B                ; Setup parameters for call to function pre_config
   \   00005B   12....       LCALL     `??pre_config::?relay`; Banked call to: pre_config
    139            stamp_t start = UST_now();
   \   00005E                ; Setup parameters for call to function UST_now
   \   00005E   12....       LCALL     `??UST_now::?relay`; Banked call to: UST_now
   \   000061   740A         MOV       A,#0xa
   \   000063   12....       LCALL     ?XSTACK_DISP0_8
   \   000066   12....       LCALL     ?XSTORE_R2345
    140            bool send_res = SendData(fr);
   \   000069                ; Setup parameters for call to function SendData
   \   000069   85..82       MOV       DPL,?XSP + 0
   \   00006C   85..83       MOV       DPH,?XSP + 1
   \   00006F   E0           MOVX      A,@DPTR
   \   000070   FA           MOV       R2,A
   \   000071   A3           INC       DPTR
   \   000072   E0           MOVX      A,@DPTR
   \   000073   FB           MOV       R3,A
   \   000074   12....       LCALL     `??SendData::?relay`; Banked call to: SendData
   \   000077   92..         MOV       ?VB.0,C
    141            stamp_t stop = UST_now();
   \   000079                ; Setup parameters for call to function UST_now
   \   000079   12....       LCALL     `??UST_now::?relay`; Banked call to: UST_now
   \   00007C   7406         MOV       A,#0x6
   \   00007E   12....       LCALL     ?XSTACK_DISP0_8
   \   000081   12....       LCALL     ?XSTORE_R2345
    142            ustime_t tx_time = UST_interval(start, stop); 
   \   000084                ; Setup parameters for call to function UST_interval
   \   000084   7406         MOV       A,#0x6
   \   000086   12....       LCALL     ?XSTACK_DISP0_8
   \   000089   12....       LCALL     ?PUSH_XSTACK8_X_FOUR
   \   00008C   740E         MOV       A,#0xe
   \   00008E   12....       LCALL     ?XSTACK_DISP0_8
   \   000091   12....       LCALL     ?XLOAD_R2345
   \   000094   12....       LCALL     `??UST_interval::?relay`; Banked call to: UST_interval
   \   000097   7404         MOV       A,#0x4
   \   000099   12....       LCALL     ?DEALLOC_XSTACK8
   \   00009C   7402         MOV       A,#0x2
   \   00009E   12....       LCALL     ?XSTACK_DISP0_8
   \   0000A1   12....       LCALL     ?XSTORE_R2345
    143            WRITE_PARA_DBG(MODEL.RADIO.DEBUG_TX.fulltime, tx_time);
   \   0000A4   7402         MOV       A,#0x2
   \   0000A6   12....       LCALL     ?XSTACK_DISP0_8
   \   0000A9   12....       LCALL     ?XLOAD_R0123
   \   0000AC   90....       MOV       DPTR,#MODEL + 109
   \   0000AF   12....       LCALL     ?XSTORE_R0123
    144            MODEL.RADIO.UptimeTX += tx_time;
   \   0000B2   7402         MOV       A,#0x2
   \   0000B4   12....       LCALL     ?XSTACK_DISP0_8
   \   0000B7   78..         MOV       R0,#?V0
   \   0000B9   12....       LCALL     ?L_MOV_X
   \   0000BC   78..         MOV       R0,#?V0
   \   0000BE   12....       LCALL     ?UL_TO_FLT
   \   0000C1   90....       MOV       DPTR,#MODEL + 90
   \   0000C4   78..         MOV       R0,#?V4
   \   0000C6   12....       LCALL     ?L_MOV_X
   \   0000C9   78..         MOV       R0,#?V0
   \   0000CB   79..         MOV       R1,#?V4
   \   0000CD   12....       LCALL     ?FLT_ADD
   \   0000D0   90....       MOV       DPTR,#MODEL + 90
   \   0000D3   78..         MOV       R0,#?V0
   \   0000D5   12....       LCALL     ?L_MOV_TO_X
    145            WRITE_PARA_DBG(MODEL.RADIO.DEBUG_TX.ccasampled, send_res);
   \   0000D8   A2..         MOV       C,?VB.0
   \   0000DA   E4           CLR       A
   \   0000DB   33           RLC       A
   \   0000DC   90....       MOV       DPTR,#MODEL + 108
   \   0000DF   F0           MOVX      @DPTR,A
    146            if (!send_res)
   \   0000E0   A2..         MOV       C,?VB.0
   \   0000E2   4010         JC        ??RI_Send_1
    147              MODEL.RADIO.CCAReject++;
   \   0000E4   90....       MOV       DPTR,#__Constant_1
   \   0000E7   78..         MOV       R0,#?V0
   \   0000E9   12....       LCALL     ?L_MOV_X
   \   0000EC   90....       MOV       DPTR,#MODEL + 84
   \   0000EF   78..         MOV       R0,#?V0
   \   0000F1   12....       LCALL     ?L_ADD_TO_X
    148            return send_res;
   \                     ??RI_Send_1:
   \   0000F4   A2..         MOV       C,?VB.0
   \   0000F6   740E         MOV       A,#0xe
   \   0000F8   12....       LCALL     ?DEALLOC_XSTACK8
   \   0000FB   7F08         MOV       R7,#0x8
   \   0000FD   02....       LJMP      ?BANKED_LEAVE_XDATA
    149          }
    150          
    151          

   \                                 In  segment BANKED_CODE, align 1, keep-with-next
    152          static void UnLoadRXData(char *src, size_t len){
   \                     ??UnLoadRXData:
   \   000000   C082         PUSH      DPL
   \   000002   C083         PUSH      DPH
   \   000004                ; Saved register size: 2
   \   000004                ; Auto size: 0
    153            for (size_t i = 0 ; i < len; i++)
   \   000004   7800         MOV       R0,#0x0
   \   000006   7900         MOV       R1,#0x0
   \                     ??UnLoadRXData_1:
   \   000008   C3           CLR       C
   \   000009   E8           MOV       A,R0
   \   00000A   9C           SUBB      A,R4
   \   00000B   E9           MOV       A,R1
   \   00000C   9D           SUBB      A,R5
   \   00000D   5016         JNC       ??UnLoadRXData_2
    154              src[i] = RFD;
   \   00000F   E5D9         MOV       A,0xd9
   \   000011   C0E0         PUSH      A
   \   000013   EA           MOV       A,R2
   \   000014   28           ADD       A,R0
   \   000015   F582         MOV       DPL,A
   \   000017   EB           MOV       A,R3
   \   000018   39           ADDC      A,R1
   \   000019   F583         MOV       DPH,A
   \   00001B   D0E0         POP       A
   \   00001D   F0           MOVX      @DPTR,A
   \   00001E   08           INC       R0
   \   00001F   E8           MOV       A,R0
   \   000020   70E6         JNZ       ??UnLoadRXData_1
   \   000022   09           INC       R1
   \   000023   80E3         SJMP      ??UnLoadRXData_1
    155          };
   \                     ??UnLoadRXData_2:
   \   000025   D083         POP       DPH
   \   000027   D082         POP       DPL
   \   000029   02....       LJMP      ?BRET
   \   00002C                REQUIRE RFD
    156          
    157          

   \                                 In  segment BANKED_CODE, align 1, keep-with-next
    158          static bool RecvData(ustime_t timeout, nwtime_t *sfd_stamp){   
   \                     ??RecvData:
   \   000000                REQUIRE ?V0
   \   000000                REQUIRE ?V1
   \   000000                REQUIRE ?V2
   \   000000                REQUIRE ?V3
   \   000000                REQUIRE ?V4
   \   000000                REQUIRE ?V5
   \   000000   74F2         MOV       A,#-0xe
   \   000002   12....       LCALL     ?BANKED_ENTER_XDATA
   \   000005                ; Saved register size: 14
   \   000005                ; Auto size: 53
   \   000005   74CB         MOV       A,#-0x35
   \   000007   12....       LCALL     ?ALLOC_XSTACK8
   \   00000A   8A..         MOV       ?V0,R2
   \   00000C   8B..         MOV       ?V1,R3
   \   00000E   8C..         MOV       ?V2,R4
   \   000010   8D..         MOV       ?V3,R5
   \   000012   7443         MOV       A,#0x43
   \   000014   12....       LCALL     ?XSTACK_DISP0_8
   \   000017   E0           MOVX      A,@DPTR
   \   000018   FE           MOV       R6,A
   \   000019   A3           INC       DPTR
   \   00001A   E0           MOVX      A,@DPTR
   \   00001B   FF           MOV       R7,A
    159            bool recv_result = true;
   \   00001C   D2..         SETB      ?VB.0
    160            
    161            ISFLUSHRX();
   \   00001E   75E1ED       MOV       0xe1,#-0x13
    162            RFIRQF0 &= ~RFIRQF0_RXPKTDONE;  
   \   000021   53E9BF       ANL       0xe9,#0xbf
    163            RFIRQF0 &= ~RFIRQF0_SFD; 
   \   000024   53E9FD       ANL       0xe9,#0xfd
    164            ISRXON();
   \   000027   75E1E3       MOV       0xe1,#-0x1d
    165            WRITE_TIME_DBG(MODEL.RADIO.DEBUG_RX.isrxon);
   \   00002A                ; Setup parameters for call to function AT_time
   \   00002A   12....       LCALL     `??AT_time::?relay`; Banked call to: AT_time
   \   00002D   90....       MOV       DPTR,#MODEL + 113
   \   000030   EA           MOV       A,R2
   \   000031   F0           MOVX      @DPTR,A
   \   000032   A3           INC       DPTR
   \   000033   EB           MOV       A,R3
   \   000034   F0           MOVX      @DPTR,A
    166            stamp_t start = UST_now();
   \   000035                ; Setup parameters for call to function UST_now
   \   000035   12....       LCALL     `??UST_now::?relay`; Banked call to: UST_now
   \   000038   EA           MOV       A,R2
   \   000039   F8           MOV       R0,A
   \   00003A   EB           MOV       A,R3
   \   00003B   F9           MOV       R1,A
   \   00003C   EC           MOV       A,R4
   \   00003D   FA           MOV       R2,A
   \   00003E   ED           MOV       A,R5
   \   00003F   FB           MOV       R3,A
   \   000040   85..82       MOV       DPL,?XSP + 0
   \   000043   85..83       MOV       DPH,?XSP + 1
   \   000046   12....       LCALL     ?XSTORE_R0123
    167            TRY{
   \   000049   7404         MOV       A,#0x4
   \   00004B   12....       LCALL     ?XSTACK_DISP0_8
   \   00004E   7408         MOV       A,#0x8
   \   000050                REQUIRE ?V7
   \   000050   12....       LCALL     ?SETJMP_XDATA
   \   000053   8A..         MOV       ?V4,R2
   \   000055   8B..         MOV       ?V5,R3
   \   000057   78..         MOV       R0,#?V4
   \   000059   12....       LCALL     ?US_SWITCH_DENSE
   \                     `?<Jumptable for RecvData>_0`:
   \   00005C   0000         DW        0
   \   00005E   01           DB        1
   \   00005F   ....         DW        ??RecvData_1
   \   000061   ....         DW        ??RecvData_2
   \   000063   ....         DW        ??RecvData_3
    168              while(true){
    169                if (UST_time_over(start, timeout))
   \                     ??RecvData_2:
   \   000065                ; Setup parameters for call to function UST_time_over
   \   000065   78..         MOV       R0,#?V0
   \   000067   12....       LCALL     ?PUSH_XSTACK_I_FOUR
   \   00006A   7404         MOV       A,#0x4
   \   00006C   12....       LCALL     ?XSTACK_DISP0_8
   \   00006F   12....       LCALL     ?XLOAD_R2345
   \   000072   12....       LCALL     `??UST_time_over::?relay`; Banked call to: UST_time_over
   \   000075   7404         MOV       A,#0x4
   \   000077   12....       LCALL     ?DEALLOC_XSTACK8
   \   00007A   500E         JNC       ??RecvData_4
    170                  THROW(1);
   \   00007C   7A01         MOV       R2,#0x1
   \   00007E   7B00         MOV       R3,#0x0
   \   000080   7404         MOV       A,#0x4
   \   000082   12....       LCALL     ?XSTACK_DISP0_8
   \   000085   7408         MOV       A,#0x8
   \   000087                REQUIRE ?V7
   \   000087   02....       LJMP      ?LONGJMP_XDATA
    171                
    172                if ((RFIRQF0 & RFIRQF0_SFD)){ // Принят сигнал SFD
   \                     ??RecvData_4:
   \   00008A   E5E9         MOV       A,0xe9
   \   00008C   A2E1         MOV       C,0xE0 /* A   */.1
   \   00008E   50D5         JNC       ??RecvData_2
    173                  *sfd_stamp = AT_time(); 
   \   000090                ; Setup parameters for call to function AT_time
   \   000090   12....       LCALL     `??AT_time::?relay`; Banked call to: AT_time
   \   000093   8E82         MOV       DPL,R6
   \   000095   8F83         MOV       DPH,R7
   \   000097   EA           MOV       A,R2
   \   000098   F0           MOVX      @DPTR,A
   \   000099   A3           INC       DPTR
   \   00009A   EB           MOV       A,R3
   \   00009B   F0           MOVX      @DPTR,A
    174                  WRITE_TIME_DBG(MODEL.RADIO.DEBUG_RX.sfd);
   \   00009C                ; Setup parameters for call to function AT_time
   \   00009C   12....       LCALL     `??AT_time::?relay`; Banked call to: AT_time
   \   00009F   90....       MOV       DPTR,#MODEL + 115
   \   0000A2   EA           MOV       A,R2
   \   0000A3   F0           MOVX      @DPTR,A
   \   0000A4   A3           INC       DPTR
   \   0000A5   EB           MOV       A,R3
   \   0000A6   F0           MOVX      @DPTR,A
    175                  break;
    176                }
    177              }
    178              // Ждем окончания приема пакета
    179              while (!(RFIRQF0 & RFIRQF0_RXPKTDONE));
   \                     ??RecvData_5:
   \   0000A7   E5E9         MOV       A,0xe9
   \   0000A9   A2E6         MOV       C,0xE0 /* A   */.6
   \   0000AB   50FA         JNC       ??RecvData_5
    180              WRITE_TIME_DBG(MODEL.RADIO.DEBUG_RX.rxdone);
   \   0000AD                ; Setup parameters for call to function AT_time
   \   0000AD   12....       LCALL     `??AT_time::?relay`; Banked call to: AT_time
   \   0000B0   90....       MOV       DPTR,#MODEL + 117
   \   0000B3   EA           MOV       A,R2
   \   0000B4   F0           MOVX      @DPTR,A
   \   0000B5   A3           INC       DPTR
   \   0000B6   EB           MOV       A,R3
   \   0000B7   F0           MOVX      @DPTR,A
    181            }
    182            CATCH(1){ // Вышло время ожидания
   \   0000B8   8002         SJMP      ??RecvData_1
    183              recv_result = false;
   \                     ??RecvData_3:
   \   0000BA   C2..         CLR       ?VB.0
    184            }
    185            FINALLY{
    186              ISRFOFF();
   \                     ??RecvData_1:
   \   0000BC   75E1EF       MOV       0xe1,#-0x11
    187            }
    188            ETRY;
    189            return recv_result;
   \   0000BF   A2..         MOV       C,?VB.0
   \   0000C1   7435         MOV       A,#0x35
   \   0000C3   12....       LCALL     ?DEALLOC_XSTACK8
   \   0000C6   7F06         MOV       R7,#0x6
   \   0000C8   02....       LJMP      ?BANKED_LEAVE_XDATA
   \   0000CB                REQUIRE RFST
   \   0000CB                REQUIRE RFIRQF0
    190          }
    191          
    192          /*!
    193          \brief Принимает данные из эфира
    194          \details Функция принимает данные из эфира. Проводит проверку CRC, увеличивает
    195          RI_CRC_ERROR. Отмечает время прихода SFD в тактах сетевого времени .
    196          \param[in] timeout Время ожидания данных в микросекундах
    197          \return Возвращает NULL если данных нет
    198          */

   \                                 In  segment BANKED_CODE, align 1, keep-with-next
    199          struct frame* RI_Receive(ustime_t timeout){
   \                     RI_Receive:
   \   000000                REQUIRE ?V0
   \   000000                REQUIRE ?V1
   \   000000                REQUIRE ?V2
   \   000000                REQUIRE ?V3
   \   000000                REQUIRE ?V4
   \   000000                REQUIRE ?V5
   \   000000                REQUIRE ?V6
   \   000000                REQUIRE ?V7
   \   000000   74F0         MOV       A,#-0x10
   \   000002   12....       LCALL     ?BANKED_ENTER_XDATA
   \   000005                ; Saved register size: 16
   \   000005                ; Auto size: 20
   \   000005   74EC         MOV       A,#-0x14
   \   000007   12....       LCALL     ?ALLOC_XSTACK8
   \   00000A   7410         MOV       A,#0x10
   \   00000C   12....       LCALL     ?XSTACK_DISP0_8
   \   00000F   EA           MOV       A,R2
   \   000010   F0           MOVX      @DPTR,A
   \   000011   A3           INC       DPTR
   \   000012   EB           MOV       A,R3
   \   000013   F0           MOVX      @DPTR,A
   \   000014   A3           INC       DPTR
   \   000015   EC           MOV       A,R4
   \   000016   F0           MOVX      @DPTR,A
   \   000017   A3           INC       DPTR
   \   000018   ED           MOV       A,R5
   \   000019   F0           MOVX      @DPTR,A
    200            // Устанавливаем частоту передачи пакета
    201            pre_config();
   \   00001A                ; Setup parameters for call to function pre_config
   \   00001A   12....       LCALL     `??pre_config::?relay`; Banked call to: pre_config
    202            nwtime_t sfd_stamp;
    203               
    204            // Принимаем пакет 
    205            stamp_t start = UST_now();
   \   00001D                ; Setup parameters for call to function UST_now
   \   00001D   12....       LCALL     `??UST_now::?relay`; Banked call to: UST_now
   \   000020   740C         MOV       A,#0xc
   \   000022   12....       LCALL     ?XSTACK_DISP0_8
   \   000025   12....       LCALL     ?XSTORE_R2345
    206            bool recv_res = RecvData(timeout, &sfd_stamp);
   \   000028                ; Setup parameters for call to function RecvData
   \   000028   7402         MOV       A,#0x2
   \   00002A   12....       LCALL     ?XSTACK_DISP100_8
   \   00002D   88..         MOV       ?V0,R0
   \   00002F   89..         MOV       ?V1,R1
   \   000031   78..         MOV       R0,#?V0
   \   000033   12....       LCALL     ?PUSH_XSTACK_I_TWO
   \   000036   7412         MOV       A,#0x12
   \   000038   12....       LCALL     ?XSTACK_DISP0_8
   \   00003B   12....       LCALL     ?XLOAD_R2345
   \   00003E   12....       LCALL     `??RecvData::?relay`; Banked call to: RecvData
   \   000041   7402         MOV       A,#0x2
   \   000043   12....       LCALL     ?DEALLOC_XSTACK8
   \   000046   92..         MOV       ?VB.0,C
    207            stamp_t stop = UST_now();
   \   000048                ; Setup parameters for call to function UST_now
   \   000048   12....       LCALL     `??UST_now::?relay`; Banked call to: UST_now
   \   00004B   7408         MOV       A,#0x8
   \   00004D   12....       LCALL     ?XSTACK_DISP0_8
   \   000050   12....       LCALL     ?XSTORE_R2345
    208            ustime_t rx_time = UST_interval(start, stop); 
   \   000053                ; Setup parameters for call to function UST_interval
   \   000053   7408         MOV       A,#0x8
   \   000055   12....       LCALL     ?XSTACK_DISP0_8
   \   000058   12....       LCALL     ?PUSH_XSTACK8_X_FOUR
   \   00005B   7410         MOV       A,#0x10
   \   00005D   12....       LCALL     ?XSTACK_DISP0_8
   \   000060   12....       LCALL     ?XLOAD_R2345
   \   000063   12....       LCALL     `??UST_interval::?relay`; Banked call to: UST_interval
   \   000066   7404         MOV       A,#0x4
   \   000068   12....       LCALL     ?DEALLOC_XSTACK8
   \   00006B   7404         MOV       A,#0x4
   \   00006D   12....       LCALL     ?XSTACK_DISP0_8
   \   000070   12....       LCALL     ?XSTORE_R2345
    209            WRITE_PARA_DBG(MODEL.RADIO.DEBUG_RX.fulltime, rx_time);
   \   000073   7404         MOV       A,#0x4
   \   000075   12....       LCALL     ?XSTACK_DISP0_8
   \   000078   12....       LCALL     ?XLOAD_R0123
   \   00007B   90....       MOV       DPTR,#MODEL + 119
   \   00007E   12....       LCALL     ?XSTORE_R0123
    210            MODEL.RADIO.UptimeRX += rx_time;
   \   000081   7404         MOV       A,#0x4
   \   000083   12....       LCALL     ?XSTACK_DISP0_8
   \   000086   78..         MOV       R0,#?V0
   \   000088   12....       LCALL     ?L_MOV_X
   \   00008B   78..         MOV       R0,#?V0
   \   00008D   12....       LCALL     ?UL_TO_FLT
   \   000090   90....       MOV       DPTR,#MODEL + 94
   \   000093   78..         MOV       R0,#?V4
   \   000095   12....       LCALL     ?L_MOV_X
   \   000098   78..         MOV       R0,#?V0
   \   00009A   79..         MOV       R1,#?V4
   \   00009C   12....       LCALL     ?FLT_ADD
   \   00009F   90....       MOV       DPTR,#MODEL + 94
   \   0000A2   78..         MOV       R0,#?V0
   \   0000A4   12....       LCALL     ?L_MOV_TO_X
    211            WRITE_PARA_DBG(MODEL.RADIO.DEBUG_RX.received, recv_res);
   \   0000A7   A2..         MOV       C,?VB.0
   \   0000A9   E4           CLR       A
   \   0000AA   33           RLC       A
   \   0000AB   90....       MOV       DPTR,#MODEL + 123
   \   0000AE   F0           MOVX      @DPTR,A
    212            if (!recv_res) // Нет пакета, возвращаем NULL
   \   0000AF   A2..         MOV       C,?VB.0
   \   0000B1   4007         JC        ??RI_Receive_0
    213              return NULL;
   \   0000B3   7A00         MOV       R2,#0x0
   \   0000B5   7B00         MOV       R3,#0x0
   \   0000B7   02....       LJMP      ??RI_Receive_1 & 0xFFFF
    214            
    215            uint8_t frame_size = RXFIFOCNT; // Количество принятых данных
   \                     ??RI_Receive_0:
   \   0000BA   90619B       MOV       DPTR,#0x619b
   \   0000BD   E0           MOVX      A,@DPTR
   \   0000BE   F5..         MOV       ?V0,A
    216            
    217            // Минимальный размер FCS1,FCS2 - 2 байта. LEN не включен в подсчет 
    218            if (frame_size <= 2)
   \   0000C0   E5..         MOV       A,?V0
   \   0000C2   C3           CLR       C
   \   0000C3   9403         SUBB      A,#0x3
   \   0000C5   5007         JNC       ??RI_Receive_2
    219              return NULL;
   \   0000C7   7A00         MOV       R2,#0x0
   \   0000C9   7B00         MOV       R3,#0x0
   \   0000CB   02....       LJMP      ??RI_Receive_1 & 0xFFFF
    220            
    221            UnLoadRXData(RXBUFF, frame_size);
   \                     ??RI_Receive_2:
   \   0000CE                ; Setup parameters for call to function UnLoadRXData
   \   0000CE   E5..         MOV       A,?V0
   \   0000D0   FC           MOV       R4,A
   \   0000D1   7D00         MOV       R5,#0x0
   \   0000D3   7A..         MOV       R2,#??RXBUFF & 0xff
   \   0000D5   7B..         MOV       R3,#(??RXBUFF >> 8) & 0xff
   \   0000D7   12....       LCALL     `??UnLoadRXData::?relay`; Banked call to: UnLoadRXData
    222            
    223            int8_t  FCS1 = RXBUFF[frame_size - 2]; // RSSI
   \   0000DA   E5..         MOV       A,?V0
   \   0000DC   F8           MOV       R0,A
   \   0000DD   7900         MOV       R1,#0x0
   \   0000DF   74..         MOV       A,#(??RXBUFF + 254) & 0xff
   \   0000E1   28           ADD       A,R0
   \   0000E2   F582         MOV       DPL,A
   \   0000E4   74..         MOV       A,#((??RXBUFF - 2) >> 8) & 0xff
   \   0000E6   39           ADDC      A,R1
   \   0000E7   F583         MOV       DPH,A
   \   0000E9   E0           MOVX      A,@DPTR
   \   0000EA   C0E0         PUSH      A
   \   0000EC   7401         MOV       A,#0x1
   \   0000EE   12....       LCALL     ?XSTACK_DISP0_8
   \   0000F1   D0E0         POP       A
   \   0000F3   F0           MOVX      @DPTR,A
    224            uint8_t FCS2 = RXBUFF[frame_size - 1]; // bit7 = CRCOK, bit[6..0] Corr_val
   \   0000F4   E5..         MOV       A,?V0
   \   0000F6   F8           MOV       R0,A
   \   0000F7   7900         MOV       R1,#0x0
   \   0000F9   74..         MOV       A,#(??RXBUFF + 255) & 0xff
   \   0000FB   28           ADD       A,R0
   \   0000FC   F582         MOV       DPL,A
   \   0000FE   74..         MOV       A,#((??RXBUFF - 1) >> 8) & 0xff
   \   000100   39           ADDC      A,R1
   \   000101   F583         MOV       DPH,A
   \   000103   E0           MOVX      A,@DPTR
   \   000104   F5..         MOV       ?V1,A
    225            uint8_t LEN_F = RXBUFF[0]; // Поле LEN
   \   000106   90....       MOV       DPTR,#??RXBUFF
   \   000109   E0           MOVX      A,@DPTR
   \   00010A   C0E0         PUSH      A
   \   00010C   85..82       MOV       DPL,?XSP + 0
   \   00010F   85..83       MOV       DPH,?XSP + 1
   \   000112   D0E0         POP       A
   \   000114   F0           MOVX      @DPTR,A
    226            
    227            // Проверим поле LEN. Размер данных в заголовке должен совпадать
    228            // с фактической длинной принятых данных
    229            if (LEN_F != frame_size - 1){
   \   000115   85..82       MOV       DPL,?XSP + 0
   \   000118   85..83       MOV       DPH,?XSP + 1
   \   00011B   E0           MOVX      A,@DPTR
   \   00011C   FA           MOV       R2,A
   \   00011D   7B00         MOV       R3,#0x0
   \   00011F   E5..         MOV       A,?V0
   \   000121   F8           MOV       R0,A
   \   000122   7900         MOV       R1,#0x0
   \   000124   E8           MOV       A,R0
   \   000125   24FF         ADD       A,#-0x1
   \   000127   F8           MOV       R0,A
   \   000128   E9           MOV       A,R1
   \   000129   34FF         ADDC      A,#-0x1
   \   00012B   F9           MOV       R1,A
   \   00012C   E8           MOV       A,R0
   \   00012D   6A           XRL       A,R2
   \   00012E   7002         JNZ       ??RI_Receive_3
   \   000130   E9           MOV       A,R1
   \   000131   6B           XRL       A,R3
   \                     ??RI_Receive_3:
   \   000132   6017         JZ        ??RI_Receive_4
    230              MODEL.RADIO.CRCError++;
   \   000134   90....       MOV       DPTR,#__Constant_1
   \   000137   78..         MOV       R0,#?V4
   \   000139   12....       LCALL     ?L_MOV_X
   \   00013C   90....       MOV       DPTR,#MODEL + 80
   \   00013F   78..         MOV       R0,#?V4
   \   000141   12....       LCALL     ?L_ADD_TO_X
    231              return NULL;
   \   000144   7A00         MOV       R2,#0x0
   \   000146   7B00         MOV       R3,#0x0
   \   000148   02....       LJMP      ??RI_Receive_1 & 0xFFFF
    232            }
    233            
    234            // Проверим поле CRCOK
    235            if (!(FCS2 && 1<<7)){
   \                     ??RI_Receive_4:
   \   00014B   E5..         MOV       A,?V1
   \   00014D   7017         JNZ       ??RI_Receive_5
    236              MODEL.RADIO.CRCError++;
   \   00014F   90....       MOV       DPTR,#__Constant_1
   \   000152   78..         MOV       R0,#?V4
   \   000154   12....       LCALL     ?L_MOV_X
   \   000157   90....       MOV       DPTR,#MODEL + 80
   \   00015A   78..         MOV       R0,#?V4
   \   00015C   12....       LCALL     ?L_ADD_TO_X
    237              return NULL;
   \   00015F   7A00         MOV       R2,#0x0
   \   000161   7B00         MOV       R3,#0x0
   \   000163   02....       LJMP      ??RI_Receive_1 & 0xFFFF
    238            }
    239            
    240            // Создаем буфер, последнии два байта FCS1,2 и поле LEN не копируем
    241            struct frame *frame = FR_create();
   \                     ??RI_Receive_5:
   \   000166                ; Setup parameters for call to function FR_create
   \   000166   12....       LCALL     `??FR_create::?relay`; Banked call to: FR_create
   \   000169   8A..         MOV       ?V2,R2
   \   00016B   8B..         MOV       ?V3,R3
   \   00016D   AE..         MOV       R6,?V2
   \   00016F   AF..         MOV       R7,?V3
    242            ASSERT(!frame);
   \   000171   EE           MOV       A,R6
   \   000172   4F           ORL       A,R7
   \   000173   6037         JZ        ??RI_Receive_6
   \   000175                ; Setup parameters for call to function printf
   \   000175   75....       MOV       ?V2,#??__FUNCTION___15 & 0xff
   \   000178   75....       MOV       ?V3,#(??__FUNCTION___15 >> 8) & 0xff
   \   00017B   78..         MOV       R0,#?V2
   \   00017D   12....       LCALL     ?PUSH_XSTACK_I_TWO
   \   000180   75..F2       MOV       ?V2,#-0xe
   \   000183   75..00       MOV       ?V3,#0x0
   \   000186   78..         MOV       R0,#?V2
   \   000188   12....       LCALL     ?PUSH_XSTACK_I_TWO
   \   00018B   75....       MOV       ?V2,#`?<Constant "radio.c">` & 0xff
   \   00018E   75....       MOV       ?V3,#(`?<Constant "radio.c">` >> 8) & 0xff
   \   000191   78..         MOV       R0,#?V2
   \   000193   12....       LCALL     ?PUSH_XSTACK_I_TWO
   \   000196   7A..         MOV       R2,#`?<Constant "%s:%d:%s -> ">_4` & 0xff
   \   000198   7B..         MOV       R3,#(`?<Constant "%s:%d:%s -> ">_4` >> 8) & 0xff
   \   00019A   12....       LCALL     `??printf::?relay`; Banked call to: printf
   \   00019D   7406         MOV       A,#0x6
   \   00019F   12....       LCALL     ?DEALLOC_XSTACK8
   \   0001A2                ; Setup parameters for call to function printf
   \   0001A2   7A..         MOV       R2,#`?<Constant "\\"!frame\\" Faild! \\r\\n">` & 0xff
   \   0001A4   7B..         MOV       R3,#(`?<Constant "\\"!frame\\" Faild! \\r\\n">` >> 8) & 0xff
   \   0001A6   12....       LCALL     `??printf::?relay`; Banked call to: printf
   \   0001A9                ; Setup parameters for call to function DBG_CORE_HALT
   \   0001A9   12....       LCALL     `??DBG_CORE_HALT::?relay`; Banked call to: DBG_CORE_HALT
    243            bool add_h = FR_add_header(frame, &RXBUFF[1], frame_size - 3);
   \                     ??RI_Receive_6:
   \   0001AC                ; Setup parameters for call to function FR_add_header
   \   0001AC   74FD         MOV       A,#-0x3
   \   0001AE   25..         ADD       A,?V0
   \   0001B0   F9           MOV       R1,A
   \   0001B1   7C..         MOV       R4,#(??RXBUFF + 1) & 0xff
   \   0001B3   7D..         MOV       R5,#((??RXBUFF + 1) >> 8) & 0xff
   \   0001B5   EE           MOV       A,R6
   \   0001B6   FA           MOV       R2,A
   \   0001B7   EF           MOV       A,R7
   \   0001B8   FB           MOV       R3,A
   \   0001B9   12....       LCALL     `??FR_add_header::?relay`; Banked call to: FR_add_header
   \   0001BC   92..         MOV       ?VB.1,C
    244            ASSERT(add_h);
   \   0001BE   A2..         MOV       C,?VB.1
   \   0001C0   4037         JC        ??RI_Receive_7
   \   0001C2                ; Setup parameters for call to function printf
   \   0001C2   75....       MOV       ?V2,#??__FUNCTION___15 & 0xff
   \   0001C5   75....       MOV       ?V3,#(??__FUNCTION___15 >> 8) & 0xff
   \   0001C8   78..         MOV       R0,#?V2
   \   0001CA   12....       LCALL     ?PUSH_XSTACK_I_TWO
   \   0001CD   75..F4       MOV       ?V2,#-0xc
   \   0001D0   75..00       MOV       ?V3,#0x0
   \   0001D3   78..         MOV       R0,#?V2
   \   0001D5   12....       LCALL     ?PUSH_XSTACK_I_TWO
   \   0001D8   75....       MOV       ?V2,#`?<Constant "radio.c">` & 0xff
   \   0001DB   75....       MOV       ?V3,#(`?<Constant "radio.c">` >> 8) & 0xff
   \   0001DE   78..         MOV       R0,#?V2
   \   0001E0   12....       LCALL     ?PUSH_XSTACK_I_TWO
   \   0001E3   7A..         MOV       R2,#`?<Constant "%s:%d:%s -> ">_4` & 0xff
   \   0001E5   7B..         MOV       R3,#(`?<Constant "%s:%d:%s -> ">_4` >> 8) & 0xff
   \   0001E7   12....       LCALL     `??printf::?relay`; Banked call to: printf
   \   0001EA   7406         MOV       A,#0x6
   \   0001EC   12....       LCALL     ?DEALLOC_XSTACK8
   \   0001EF                ; Setup parameters for call to function printf
   \   0001EF   7A..         MOV       R2,#`?<Constant "\\"add_h\\" Faild! \\r\\n">` & 0xff
   \   0001F1   7B..         MOV       R3,#(`?<Constant "\\"add_h\\" Faild! \\r\\n">` >> 8) & 0xff
   \   0001F3   12....       LCALL     `??printf::?relay`; Banked call to: printf
   \   0001F6                ; Setup parameters for call to function DBG_CORE_HALT
   \   0001F6   12....       LCALL     `??DBG_CORE_HALT::?relay`; Banked call to: DBG_CORE_HALT
    245            
    246            frame->meta.TIMESTAMP = sfd_stamp;
   \                     ??RI_Receive_7:
   \   0001F9   7402         MOV       A,#0x2
   \   0001FB   12....       LCALL     ?XSTACK_DISP0_8
   \   0001FE   E0           MOVX      A,@DPTR
   \   0001FF   F8           MOV       R0,A
   \   000200   A3           INC       DPTR
   \   000201   E0           MOVX      A,@DPTR
   \   000202   F9           MOV       R1,A
   \   000203   8E82         MOV       DPL,R6
   \   000205   8F83         MOV       DPH,R7
   \   000207   A3           INC       DPTR
   \   000208   E8           MOV       A,R0
   \   000209   F0           MOVX      @DPTR,A
   \   00020A   A3           INC       DPTR
   \   00020B   E9           MOV       A,R1
   \   00020C   F0           MOVX      @DPTR,A
    247            frame->meta.RSSI_SIG =  FCS1 + RSSI_OFFSET;
   \   00020D   7401         MOV       A,#0x1
   \   00020F   12....       LCALL     ?XSTACK_DISP0_8
   \   000212   E0           MOVX      A,@DPTR
   \   000213   24B4         ADD       A,#-0x4c
   \   000215   C0E0         PUSH      A
   \   000217   8E82         MOV       DPL,R6
   \   000219   8F83         MOV       DPH,R7
   \   00021B   A3           INC       DPTR
   \   00021C   A3           INC       DPTR
   \   00021D   A3           INC       DPTR
   \   00021E   D0E0         POP       A
   \   000220   F0           MOVX      @DPTR,A
    248            uint8_t corr = FCS2 & 0x7F;
   \   000221   747F         MOV       A,#0x7f
   \   000223   55..         ANL       A,?V1
   \   000225   F8           MOV       R0,A
    249            frame->meta.LIQ = LIQ_CALC(corr);
   \   000226   E8           MOV       A,R0
   \   000227   C0E0         PUSH      A
   \   000229   8E82         MOV       DPL,R6
   \   00022B   8F83         MOV       DPH,R7
   \   00022D   A3           INC       DPTR
   \   00022E   A3           INC       DPTR
   \   00022F   A3           INC       DPTR
   \   000230   A3           INC       DPTR
   \   000231   D0E0         POP       A
   \   000233   F0           MOVX      @DPTR,A
    250            frame->meta.CH = MODEL.RADIO.channel;
   \   000234   90....       MOV       DPTR,#MODEL + 89
   \   000237   E0           MOVX      A,@DPTR
   \   000238   C0E0         PUSH      A
   \   00023A   8E82         MOV       DPL,R6
   \   00023C   8F83         MOV       DPH,R7
   \   00023E   A3           INC       DPTR
   \   00023F   A3           INC       DPTR
   \   000240   A3           INC       DPTR
   \   000241   A3           INC       DPTR
   \   000242   A3           INC       DPTR
   \   000243   A3           INC       DPTR
   \   000244   D0E0         POP       A
   \   000246   F0           MOVX      @DPTR,A
    251            return frame;
   \   000247   EE           MOV       A,R6
   \   000248   FA           MOV       R2,A
   \   000249   EF           MOV       A,R7
   \   00024A   FB           MOV       R3,A
   \                     ??RI_Receive_1:
   \   00024B   7414         MOV       A,#0x14
   \   00024D   12....       LCALL     ?DEALLOC_XSTACK8
   \   000250   7F08         MOV       R7,#0x8
   \   000252   02....       LJMP      ?BANKED_LEAVE_XDATA
    252          }
    253          
    254          
    255          /**
    256          @breif Подссчет количества бит в байте
    257          @return Возвращает количество бит
    258          */

   \                                 In  segment BANKED_CODE, align 1, keep-with-next
    259          static uint8_t bits_count(uint8_t value) {
   \                     ??bits_count:
   \   000000                ; Saved register size: 0
   \   000000                ; Auto size: 0
   \   000000   E9           MOV       A,R1
   \   000001   FA           MOV       R2,A
    260            int ret = 0;
   \   000002   7800         MOV       R0,#0x0
   \   000004   7900         MOV       R1,#0x0
    261            for ( ; value; value = value >> 1 )
   \                     ??bits_count_1:
   \   000006   EA           MOV       A,R2
   \   000007   6014         JZ        ??bits_count_2
    262              ret += value & 1;
   \   000009   EA           MOV       A,R2
   \   00000A   A2E0         MOV       C,0xE0 /* A   */.0
   \   00000C   E4           CLR       A
   \   00000D   33           RLC       A
   \   00000E   FC           MOV       R4,A
   \   00000F   7D00         MOV       R5,#0x0
   \   000011   E8           MOV       A,R0
   \   000012   2C           ADD       A,R4
   \   000013   F8           MOV       R0,A
   \   000014   E9           MOV       A,R1
   \   000015   3D           ADDC      A,R5
   \   000016   F9           MOV       R1,A
   \   000017   EA           MOV       A,R2
   \   000018   C3           CLR       C
   \   000019   13           RRC       A
   \   00001A   FA           MOV       R2,A
   \   00001B   80E9         SJMP      ??bits_count_1
    263            return ret;
   \                     ??bits_count_2:
   \   00001D   E8           MOV       A,R0
   \   00001E   F9           MOV       R1,A
   \   00001F   02....       LJMP      ?BRET
    264          }
    265          
    266          /**
    267          @brief Возращает 1 байт случайного числа
    268          @details Радио выдает всего лишь дви бита, нам нужно 8 
    269          */

   \                                 In  segment BANKED_CODE, align 1, keep-with-next
    270          static inline uint8_t getRNDByte(void)
   \                     ??getRNDByte:
    271          {
   \   000000   C082         PUSH      DPL
   \   000002   C083         PUSH      DPH
   \   000004                ; Saved register size: 2
   \   000004                ; Auto size: 0
    272            uint8_t val = 0;
   \   000004   7900         MOV       R1,#0x0
    273            val |= RFRND << 0;
   \   000006   9061A7       MOV       DPTR,#0x61a7
   \   000009   E0           MOVX      A,@DPTR
   \   00000A   C9           XCH       A,R1
   \   00000B   49           ORL       A,R1
   \   00000C   C9           XCH       A,R1
    274            val |= RFRND << 2;
   \   00000D   9061A7       MOV       DPTR,#0x61a7
   \   000010   E0           MOVX      A,@DPTR
   \   000011   33           RLC       A
   \   000012   33           RLC       A
   \   000013   54FC         ANL       A,#0xfc
   \   000015   C9           XCH       A,R1
   \   000016   49           ORL       A,R1
   \   000017   C9           XCH       A,R1
    275            val |= RFRND << 4;
   \   000018   9061A7       MOV       DPTR,#0x61a7
   \   00001B   E0           MOVX      A,@DPTR
   \   00001C   C4           SWAP      A
   \   00001D   54F0         ANL       A,#0xf0
   \   00001F   C9           XCH       A,R1
   \   000020   49           ORL       A,R1
   \   000021   C9           XCH       A,R1
    276            val |= RFRND << 6;
   \   000022   9061A7       MOV       DPTR,#0x61a7
   \   000025   E0           MOVX      A,@DPTR
   \   000026   C4           SWAP      A
   \   000027   33           RLC       A
   \   000028   33           RLC       A
   \   000029   54C0         ANL       A,#0xc0
   \   00002B   C9           XCH       A,R1
   \   00002C   49           ORL       A,R1
   \   00002D   C9           XCH       A,R1
    277            return val;
   \   00002E   D083         POP       DPH
   \   000030   D082         POP       DPL
   \   000032   02....       LJMP      ?BRET
    278          }
    279          
    280          /**
    281          @brief Возвращает случайное число с числом включеных бит от 2 до 6 включительно
    282          @details Случайные числа появляются в регистре с частотой 170нс. Функция 
    283          возвращает гарантированно новое значение. 
    284          @return возвращает случайное число.
    285          */

   \                                 In  segment BANKED_CODE, align 1, keep-with-next
    286          static inline uint8_t readRandom(void)
   \                     ??readRandom:
    287          {
   \   000000   74F7         MOV       A,#-0x9
   \   000002   12....       LCALL     ?BANKED_ENTER_XDATA
   \   000005                ; Saved register size: 9
   \   000005                ; Auto size: 0
    288            uint8_t rnd_val = 0;
   \   000005   7E00         MOV       R6,#0x0
    289            uint8_t bit_cnt = 0;
   \   000007   7F00         MOV       R7,#0x0
    290            while ( bit_cnt <= 2 || bit_cnt >= 6 )
   \                     ??readRandom_1:
   \   000009   EF           MOV       A,R7
   \   00000A   C3           CLR       C
   \   00000B   9403         SUBB      A,#0x3
   \   00000D   4006         JC        ??readRandom_2
   \   00000F   EF           MOV       A,R7
   \   000010   C3           CLR       C
   \   000011   9406         SUBB      A,#0x6
   \   000013   401A         JC        ??readRandom_3
    291            {
    292              rnd_val = getRNDByte();
   \                     ??readRandom_2:
   \   000015                ; Setup parameters for call to function getRNDByte
   \   000015   12....       LCALL     `??getRNDByte::?relay`; Banked call to: getRNDByte
   \   000018   E9           MOV       A,R1
   \   000019   FE           MOV       R6,A
    293              while (rnd_val == getRNDByte());
   \                     ??readRandom_4:
   \   00001A                ; Setup parameters for call to function getRNDByte
   \   00001A   12....       LCALL     `??getRNDByte::?relay`; Banked call to: getRNDByte
   \   00001D   E9           MOV       A,R1
   \   00001E   6E           XRL       A,R6
   \   00001F   60F9         JZ        ??readRandom_4
    294              rnd_val = getRNDByte();
   \   000021                ; Setup parameters for call to function getRNDByte
   \   000021   12....       LCALL     `??getRNDByte::?relay`; Banked call to: getRNDByte
   \   000024   E9           MOV       A,R1
   \   000025   FE           MOV       R6,A
    295              bit_cnt = bits_count(rnd_val);
   \   000026                ; Setup parameters for call to function bits_count
   \   000026   EE           MOV       A,R6
   \   000027   F9           MOV       R1,A
   \   000028   12....       LCALL     `??bits_count::?relay`; Banked call to: bits_count
   \   00002B   E9           MOV       A,R1
   \   00002C   FF           MOV       R7,A
   \   00002D   80DA         SJMP      ??readRandom_1
    296            }
    297            return rnd_val;
   \                     ??readRandom_3:
   \   00002F   EE           MOV       A,R6
   \   000030   F9           MOV       R1,A
   \   000031   7F01         MOV       R7,#0x1
   \   000033   02....       LJMP      ?BANKED_LEAVE_XDATA
    298          }
    299          
    300          /*!
    301          \brief Иницилизирует ядро генератора случайных чисел данными из эфира
    302          */

   \                                 In  segment BANKED_CODE, align 1, keep-with-next
    303          static void random_core_init(void)  
   \                     ??random_core_init:
    304          {
   \   000000   74F7         MOV       A,#-0x9
   \   000002   12....       LCALL     ?BANKED_ENTER_XDATA
   \   000005                ; Saved register size: 9
   \   000005                ; Auto size: 0
    305            unsigned int rnd_core = 0;;
   \   000005   7E00         MOV       R6,#0x0
   \   000007   7F00         MOV       R7,#0x0
    306               
    307            pre_config();
   \   000009                ; Setup parameters for call to function pre_config
   \   000009   12....       LCALL     `??pre_config::?relay`; Banked call to: pre_config
    308            FREQCTRL = 0x00; // Выбираем не используемую частоту
   \   00000C   90618F       MOV       DPTR,#0x618f
   \   00000F   7400         MOV       A,#0x0
   \   000011   F0           MOVX      @DPTR,A
    309          
    310            // TODO По какой то причине OP_EXE не выполняет команду.
    311            // регистра RFST читается как 0xD0. это его состояние при reset
    312            // Включаем демодулятор
    313            ISRXON();
   \   000012   75E1E3       MOV       0xe1,#-0x1d
    314            
    315            // Ждем пока статус RSSI_VALID станет true
    316            while(!RSSISTAT);
   \                     ??random_core_init_1:
   \   000015   906199       MOV       DPTR,#0x6199
   \   000018   E0           MOVX      A,@DPTR
   \   000019   60FA         JZ        ??random_core_init_1
    317            
    318            // Ждем случайных чисел
    319            while (RFRND == 0);
   \                     ??random_core_init_2:
   \   00001B   9061A7       MOV       DPTR,#0x61a7
   \   00001E   E0           MOVX      A,@DPTR
   \   00001F   60FA         JZ        ??random_core_init_2
    320            
    321            // Настраиваем ядро случайного генератора
    322            rnd_core = readRandom();
   \   000021                ; Setup parameters for call to function readRandom
   \   000021   12....       LCALL     `??readRandom::?relay`; Banked call to: readRandom
   \   000024   E9           MOV       A,R1
   \   000025   F8           MOV       R0,A
   \   000026   7900         MOV       R1,#0x0
   \   000028   E8           MOV       A,R0
   \   000029   FE           MOV       R6,A
   \   00002A   E9           MOV       A,R1
   \   00002B   FF           MOV       R7,A
    323            rnd_core |= (unsigned int)readRandom()<<8;
   \   00002C                ; Setup parameters for call to function readRandom
   \   00002C   12....       LCALL     `??readRandom::?relay`; Banked call to: readRandom
   \   00002F   E9           MOV       A,R1
   \   000030   F8           MOV       R0,A
   \   000031   7900         MOV       R1,#0x0
   \   000033   E4           CLR       A
   \   000034   C8           XCH       A,R0
   \   000035   F9           MOV       R1,A
   \   000036   E8           MOV       A,R0
   \   000037   4E           ORL       A,R6
   \   000038   FE           MOV       R6,A
   \   000039   E9           MOV       A,R1
   \   00003A   4F           ORL       A,R7
   \   00003B   FF           MOV       R7,A
    324            srand(rnd_core);
   \   00003C                ; Setup parameters for call to function srand
   \   00003C   EE           MOV       A,R6
   \   00003D   FA           MOV       R2,A
   \   00003E   EF           MOV       A,R7
   \   00003F   FB           MOV       R3,A
   \   000040   12....       LCALL     `??srand::?relay`; Banked call to: srand
    325            
    326            // Выключаем демодулятор
    327            ISRFOFF();
   \   000043   75E1EF       MOV       0xe1,#-0x11
    328            // Первая генерация случайного числа занимает много времени.
    329            // Влияло на работу радио, так как использовались случайные посылки
    330            rand(); 
   \   000046                ; Setup parameters for call to function rand
   \   000046   12....       LCALL     `??rand::?relay` ; Banked call to: rand
    331          }
   \   000049   7F01         MOV       R7,#0x1
   \   00004B   02....       LJMP      ?BANKED_LEAVE_XDATA
   \   00004E                REQUIRE RFST
    332          
    333          /**
    334          @brief Измерение мощности сигнала
    335          @details Частота = 2394+fch. fch = [0..113]. 2394MHz to 2507MHz.
    336           Устройство поддерживает частоты до 2507 МГц
    337          @param[in] fch номер ЧАСТОТНОГО канала
    338          @param[in] timeout_ms время сканирования в мс
    339          @param[out] Максимальная мощность сигнала за время сканирования
    340          @return true если успешно
    341          */

   \                                 In  segment BANKED_CODE, align 1, keep-with-next
    342          bool RI_Measure_POW(char fch, ustime_t timeout, 
   \                     RI_Measure_POW:
    343                              int8_t *RSSI_SIG){
   \   000000                REQUIRE ?V0
   \   000000                REQUIRE ?V1
   \   000000                REQUIRE ?V2
   \   000000                REQUIRE ?V3
   \   000000                REQUIRE ?V4
   \   000000                REQUIRE ?V5
   \   000000   74F2         MOV       A,#-0xe
   \   000002   12....       LCALL     ?BANKED_ENTER_XDATA
   \   000005                ; Saved register size: 14
   \   000005                ; Auto size: 0
   \   000005   E9           MOV       A,R1
   \   000006   FE           MOV       R6,A
   \   000007   8A..         MOV       ?V0,R2
   \   000009   8B..         MOV       ?V1,R3
   \   00000B   8C..         MOV       ?V2,R4
   \   00000D   8D..         MOV       ?V3,R5
   \   00000F   740E         MOV       A,#0xe
   \   000011   12....       LCALL     ?XSTACK_DISP0_8
   \   000014   E0           MOVX      A,@DPTR
   \   000015   F5..         MOV       ?V4,A
   \   000017   A3           INC       DPTR
   \   000018   E0           MOVX      A,@DPTR
   \   000019   F5..         MOV       ?V5,A
    344            if (fch > 113)
   \   00001B   EE           MOV       A,R6
   \   00001C   C3           CLR       C
   \   00001D   9472         SUBB      A,#0x72
   \   00001F   4003         JC        ??RI_Measure_POW_0
    345              return false;
   \   000021   C3           CLR       C
   \   000022   8037         SJMP      ??RI_Measure_POW_1
    346            //(2394+FREQCTRL.FREQ[6:0])
    347            FREQCTRL = fch; // Выбираем не используемую частоту
   \                     ??RI_Measure_POW_0:
   \   000024   EE           MOV       A,R6
   \   000025   90618F       MOV       DPTR,#0x618f
   \   000028   F0           MOVX      @DPTR,A
    348            ISRXON();
   \   000029   75E1E3       MOV       0xe1,#-0x1d
    349            while(!RSSISTAT);
   \                     ??RI_Measure_POW_2:
   \   00002C   906199       MOV       DPTR,#0x6199
   \   00002F   E0           MOVX      A,@DPTR
   \   000030   60FA         JZ        ??RI_Measure_POW_2
    350            FRMCTRL0 |= 1<<4; // включаем ENERGY_SCAN, детектор пикового сигнала
   \   000032   906189       MOV       DPTR,#0x6189
   \   000035   E0           MOVX      A,@DPTR
   \   000036   D2E4         SETB      0xE0 /* A   */.4
   \   000038   F0           MOVX      @DPTR,A
    351            UST_delay(timeout);
   \   000039                ; Setup parameters for call to function UST_delay
   \   000039   AA..         MOV       R2,?V0
   \   00003B   AB..         MOV       R3,?V1
   \   00003D   AC..         MOV       R4,?V2
   \   00003F   AD..         MOV       R5,?V3
   \   000041   12....       LCALL     `??UST_delay::?relay`; Banked call to: UST_delay
    352            int8_t rssi = RSSI + RSSI_OFFSET;
   \   000044   906198       MOV       DPTR,#0x6198
   \   000047   E0           MOVX      A,@DPTR
   \   000048   24B4         ADD       A,#-0x4c
   \   00004A   F8           MOV       R0,A
    353            *RSSI_SIG = rssi;
   \   00004B   E8           MOV       A,R0
   \   00004C   C0E0         PUSH      A
   \   00004E   85..82       MOV       DPL,?V4
   \   000051   85..83       MOV       DPH,?V5
   \   000054   D0E0         POP       A
   \   000056   F0           MOVX      @DPTR,A
    354            ISRFOFF();
   \   000057   75E1EF       MOV       0xe1,#-0x11
    355            return true;
   \   00005A   D3           SETB      C
   \                     ??RI_Measure_POW_1:
   \   00005B   7F06         MOV       R7,#0x6
   \   00005D   02....       LJMP      ?BANKED_LEAVE_XDATA
   \   000060                REQUIRE RFST
    356          }
    357          
E:\WMNU\IAR_new_arch\STACK_CORE_SRC\rtc.c
      1          #include "action_manager.h"
      2          
      3          /**
      4          @file
      5          */
      6           
      7          static void SW_Init(void); 
      8          

   \                                 In  segment XDATA_I, align 1, keep-with-next
      9          module_s RTC_MODULE = {ALIAS(SW_Init)};
   \                     RTC_MODULE:
   \   000000                DS 12
   \   00000C                REQUIRE `?<Initializer for RTC_MODULE>`
   \   00000C                REQUIRE __INIT_XDATA_I
     10           

   \                                 In  segment BANKED_CODE, align 1, keep-with-next
     11          static void SW_Init(void){}; 
   \                     ??SW_Init_5:
   \   000000                ; Saved register size: 0
   \   000000                ; Auto size: 0
   \   000000   02....       LJMP      ?BRET
E:\WMNU\IAR_NEW_ARCH\STACK_CORE_SRC\time_manager.c
      1          #include "time_manager.h"
      2          #include "model.h"
      3          #include "action_manager.h"
      4          #include "debug.h"
      5          #include "cpu.h"

   \                                 In  segment BANKED_CODE, align 1, keep-with-next
   \   static __banked_func __xdata_reentrant char __cli(void)
   \                     ??__cli_3:
   \   000000                ; Saved register size: 0
   \   000000                ; Auto size: 0
   \   000000   C2AF         CLR       0xa8.7
   \   000002   7901         MOV       R1,#0x1
   \   000004   02....       LJMP      ?BRET
   \   000007                REQUIRE _A_IEN0
      6          #include "macros.h"
      7          
      8          /**
      9          @file
     10          */
     11          
     12          #define MAX_TIME_SLOTS 50
     13          
     14          #define ACTIVE_INTERVAL (nwtime_t)327 // 9.979 мс
     15          #define SLEEP_INTERVAL (nwtime_t)327  // 9.979 мс
     16          #define UNACCOUNTED 68 // Остаток времени после 50ого интервала.
     17          #define FULL_INTERVAL (ACTIVE_INTERVAL + SLEEP_INTERVAL)
     18          #define SLOT_TO_NWTIME(slot) ((nwtime_t)((slot) * FULL_INTERVAL)) 
     19          #define NWTIME_TO_SLOT(nwtime) ((timeslot_t)((time)/FULL_INTERVAL))
     20           
     21          //!< Список задач менеджера. Индекс - номер слота, значение-действие

   \                                 In  segment XDATA_Z, align 1, keep-with-next
     22          static alarm_t ALARMS[MAX_TIME_SLOTS];
   \                     ??ALARMS:
   \   000000                DS 50
   \   000032                REQUIRE __INIT_XDATA_Z
     23          
     24          

   \                                 In  segment BANKED_CODE, align 1, keep-with-next
     25          void TM_SetAlarm(timeslot_t slot, alarm_t alarm){
   \                     TM_SetAlarm:
   \   000000                REQUIRE ?V0
   \   000000                REQUIRE ?V1
   \   000000   74F6         MOV       A,#-0xa
   \   000002   12....       LCALL     ?BANKED_ENTER_XDATA
   \   000005                ; Saved register size: 10
   \   000005                ; Auto size: 0
   \   000005   E9           MOV       A,R1
   \   000006   FE           MOV       R6,A
   \   000007   EA           MOV       A,R2
   \   000008   FF           MOV       R7,A
     26            ASSERT(slot < MAX_TIME_SLOTS);
   \   000009   EE           MOV       A,R6
   \   00000A   C3           CLR       C
   \   00000B   9432         SUBB      A,#0x32
   \   00000D   4037         JC        ??TM_SetAlarm_0
   \   00000F                ; Setup parameters for call to function printf
   \   00000F   75....       MOV       ?V0,#??__FUNCTION___16 & 0xff
   \   000012   75....       MOV       ?V1,#(??__FUNCTION___16 >> 8) & 0xff
   \   000015   78..         MOV       R0,#?V0
   \   000017   12....       LCALL     ?PUSH_XSTACK_I_TWO
   \   00001A   75..1A       MOV       ?V0,#0x1a
   \   00001D   75..00       MOV       ?V1,#0x0
   \   000020   78..         MOV       R0,#?V0
   \   000022   12....       LCALL     ?PUSH_XSTACK_I_TWO
   \   000025   75....       MOV       ?V0,#`?<Constant "time_manager.c">` & 0xff
   \   000028   75....       MOV       ?V1,#(`?<Constant "time_manager.c">` >> 8) & 0xff
   \   00002B   78..         MOV       R0,#?V0
   \   00002D   12....       LCALL     ?PUSH_XSTACK_I_TWO
   \   000030   7A..         MOV       R2,#`?<Constant "%s:%d:%s -> ">_5` & 0xff
   \   000032   7B..         MOV       R3,#(`?<Constant "%s:%d:%s -> ">_5` >> 8) & 0xff
   \   000034   12....       LCALL     `??printf::?relay`; Banked call to: printf
   \   000037   7406         MOV       A,#0x6
   \   000039   12....       LCALL     ?DEALLOC_XSTACK8
   \   00003C                ; Setup parameters for call to function printf
   \   00003C   7A..         MOV       R2,#`?<Constant "\\"slot < MAX_TIME_SLOT...">` & 0xff
   \   00003E   7B..         MOV       R3,#(`?<Constant "\\"slot < MAX_TIME_SLOT...">` >> 8) & 0xff
   \   000040   12....       LCALL     `??printf::?relay`; Banked call to: printf
   \   000043                ; Setup parameters for call to function DBG_CORE_HALT
   \   000043   12....       LCALL     `??DBG_CORE_HALT::?relay`; Banked call to: DBG_CORE_HALT
     27            ALARMS[slot] |= alarm;
   \                     ??TM_SetAlarm_0:
   \   000046   EE           MOV       A,R6
   \   000047   F8           MOV       R0,A
   \   000048   7900         MOV       R1,#0x0
   \   00004A   74..         MOV       A,#??ALARMS & 0xff
   \   00004C   28           ADD       A,R0
   \   00004D   F582         MOV       DPL,A
   \   00004F   74..         MOV       A,#(??ALARMS >> 8) & 0xff
   \   000051   39           ADDC      A,R1
   \   000052   F583         MOV       DPH,A
   \   000054   E0           MOVX      A,@DPTR
   \   000055   4F           ORL       A,R7
   \   000056   F0           MOVX      @DPTR,A
     28          }
   \   000057   7F02         MOV       R7,#0x2
   \   000059   02....       LJMP      ?BANKED_LEAVE_XDATA
     29          

   \                                 In  segment BANKED_CODE, align 1, keep-with-next
     30          void TM_ClrAlarm(timeslot_t slot, alarm_t alarm){
   \                     TM_ClrAlarm:
   \   000000                REQUIRE ?V0
   \   000000                REQUIRE ?V1
   \   000000   74F6         MOV       A,#-0xa
   \   000002   12....       LCALL     ?BANKED_ENTER_XDATA
   \   000005                ; Saved register size: 10
   \   000005                ; Auto size: 0
   \   000005   E9           MOV       A,R1
   \   000006   FE           MOV       R6,A
   \   000007   EA           MOV       A,R2
   \   000008   FF           MOV       R7,A
     31            ASSERT(slot < MAX_TIME_SLOTS);
   \   000009   EE           MOV       A,R6
   \   00000A   C3           CLR       C
   \   00000B   9432         SUBB      A,#0x32
   \   00000D   4037         JC        ??TM_ClrAlarm_0
   \   00000F                ; Setup parameters for call to function printf
   \   00000F   75....       MOV       ?V0,#??__FUNCTION___17 & 0xff
   \   000012   75....       MOV       ?V1,#(??__FUNCTION___17 >> 8) & 0xff
   \   000015   78..         MOV       R0,#?V0
   \   000017   12....       LCALL     ?PUSH_XSTACK_I_TWO
   \   00001A   75..1F       MOV       ?V0,#0x1f
   \   00001D   75..00       MOV       ?V1,#0x0
   \   000020   78..         MOV       R0,#?V0
   \   000022   12....       LCALL     ?PUSH_XSTACK_I_TWO
   \   000025   75....       MOV       ?V0,#`?<Constant "time_manager.c">` & 0xff
   \   000028   75....       MOV       ?V1,#(`?<Constant "time_manager.c">` >> 8) & 0xff
   \   00002B   78..         MOV       R0,#?V0
   \   00002D   12....       LCALL     ?PUSH_XSTACK_I_TWO
   \   000030   7A..         MOV       R2,#`?<Constant "%s:%d:%s -> ">_5` & 0xff
   \   000032   7B..         MOV       R3,#(`?<Constant "%s:%d:%s -> ">_5` >> 8) & 0xff
   \   000034   12....       LCALL     `??printf::?relay`; Banked call to: printf
   \   000037   7406         MOV       A,#0x6
   \   000039   12....       LCALL     ?DEALLOC_XSTACK8
   \   00003C                ; Setup parameters for call to function printf
   \   00003C   7A..         MOV       R2,#`?<Constant "\\"slot < MAX_TIME_SLOT...">` & 0xff
   \   00003E   7B..         MOV       R3,#(`?<Constant "\\"slot < MAX_TIME_SLOT...">` >> 8) & 0xff
   \   000040   12....       LCALL     `??printf::?relay`; Banked call to: printf
   \   000043                ; Setup parameters for call to function DBG_CORE_HALT
   \   000043   12....       LCALL     `??DBG_CORE_HALT::?relay`; Banked call to: DBG_CORE_HALT
     32            ALARMS[slot] &= (~alarm);
   \                     ??TM_ClrAlarm_0:
   \   000046   EF           MOV       A,R7
   \   000047   F4           CPL       A
   \   000048   FA           MOV       R2,A
   \   000049   EE           MOV       A,R6
   \   00004A   F8           MOV       R0,A
   \   00004B   7900         MOV       R1,#0x0
   \   00004D   74..         MOV       A,#??ALARMS & 0xff
   \   00004F   28           ADD       A,R0
   \   000050   F582         MOV       DPL,A
   \   000052   74..         MOV       A,#(??ALARMS >> 8) & 0xff
   \   000054   39           ADDC      A,R1
   \   000055   F583         MOV       DPH,A
   \   000057   E0           MOVX      A,@DPTR
   \   000058   5A           ANL       A,R2
   \   000059   F0           MOVX      @DPTR,A
     33          }
   \   00005A   7F02         MOV       R7,#0x2
   \   00005C   02....       LJMP      ?BANKED_LEAVE_XDATA
     34          

   \                                 In  segment BANKED_CODE, align 1, keep-with-next
     35          static inline timeslot_t _inc_timeslot(timeslot_t slot){
   \                     ??_inc_timeslot:
   \   000000                ; Saved register size: 0
   \   000000                ; Auto size: 0
   \   000000   E9           MOV       A,R1
   \   000001   F8           MOV       R0,A
     36            slot++;
   \   000002   08           INC       R0
     37            return (slot >= MAX_TIME_SLOTS) ? 0 : slot;
   \   000003   E8           MOV       A,R0
   \   000004   C3           CLR       C
   \   000005   9432         SUBB      A,#0x32
   \   000007   4004         JC        ??_inc_timeslot_1
   \   000009   7900         MOV       R1,#0x0
   \   00000B   8002         SJMP      ??_inc_timeslot_2
   \                     ??_inc_timeslot_1:
   \   00000D   E8           MOV       A,R0
   \   00000E   F9           MOV       R1,A
   \                     ??_inc_timeslot_2:
   \   00000F   02....       LJMP      ?BRET
     38          }
     39          

   \                                 In  segment BANKED_CODE, align 1, keep-with-next
     40          static inline timeslot_t _find_next_active(timeslot_t slot){
   \                     ??_find_next_active:
   \   000000   74F7         MOV       A,#-0x9
   \   000002   12....       LCALL     ?BANKED_ENTER_XDATA
   \   000005                ; Saved register size: 9
   \   000005                ; Auto size: 0
   \   000005   E9           MOV       A,R1
   \   000006   FE           MOV       R6,A
     41            slot = _inc_timeslot(slot);
   \   000007                ; Setup parameters for call to function _inc_timeslot
   \   000007   EE           MOV       A,R6
   \   000008   F9           MOV       R1,A
   \   000009   12....       LCALL     `??_inc_timeslot::?relay`; Banked call to: _inc_timeslot
   \   00000C   E9           MOV       A,R1
   \   00000D   FE           MOV       R6,A
     42            while (!slot && !ALARMS[slot])
   \                     ??_find_next_active_1:
   \   00000E   EE           MOV       A,R6
   \   00000F   701A         JNZ       ??_find_next_active_2
   \   000011   EE           MOV       A,R6
   \   000012   F8           MOV       R0,A
   \   000013   7900         MOV       R1,#0x0
   \   000015   74..         MOV       A,#??ALARMS & 0xff
   \   000017   28           ADD       A,R0
   \   000018   F582         MOV       DPL,A
   \   00001A   74..         MOV       A,#(??ALARMS >> 8) & 0xff
   \   00001C   39           ADDC      A,R1
   \   00001D   F583         MOV       DPH,A
   \   00001F   E0           MOVX      A,@DPTR
   \   000020   7009         JNZ       ??_find_next_active_2
     43              slot = _inc_timeslot(slot);
   \   000022                ; Setup parameters for call to function _inc_timeslot
   \   000022   EE           MOV       A,R6
   \   000023   F9           MOV       R1,A
   \   000024   12....       LCALL     `??_inc_timeslot::?relay`; Banked call to: _inc_timeslot
   \   000027   E9           MOV       A,R1
   \   000028   FE           MOV       R6,A
   \   000029   80E3         SJMP      ??_find_next_active_1
     44            return slot;
   \                     ??_find_next_active_2:
   \   00002B   EE           MOV       A,R6
   \   00002C   F9           MOV       R1,A
   \   00002D   7F01         MOV       R7,#0x1
   \   00002F   02....       LJMP      ?BANKED_LEAVE_XDATA
     45          }
     46          

   \                                 In  segment BANKED_CODE, align 1, keep-with-next
     47          static void scheulder_next_alarm(nwtime_t time){
   \                     ??scheulder_next_alarm:
   \   000000                REQUIRE ?V0
   \   000000   74F7         MOV       A,#-0x9
   \   000002   12....       LCALL     ?BANKED_ENTER_XDATA
   \   000005                ; Saved register size: 9
   \   000005                ; Auto size: 0
   \   000005   EA           MOV       A,R2
   \   000006   FE           MOV       R6,A
   \   000007   EB           MOV       A,R3
   \   000008   FF           MOV       R7,A
     48            timeslot_t slot = NWTIME_TO_SLOT(time);
   \   000009   EE           MOV       A,R6
   \   00000A   F8           MOV       R0,A
   \   00000B   EF           MOV       A,R7
   \   00000C   F9           MOV       R1,A
   \   00000D   7A8E         MOV       R2,#-0x72
   \   00000F   7B02         MOV       R3,#0x2
   \   000011   12....       LCALL     ?US_DIV_MOD
   \   000014   E8           MOV       A,R0
   \   000015   F5..         MOV       ?V0,A
     49            slot = _find_next_active(slot);
   \   000017                ; Setup parameters for call to function _find_next_active
   \   000017   A9..         MOV       R1,?V0
   \   000019   12....       LCALL     `??_find_next_active::?relay`; Banked call to: _find_next_active
   \   00001C   E9           MOV       A,R1
   \   00001D   F5..         MOV       ?V0,A
     50            AT_set_alarm(SLOT_TO_NWTIME(slot));
   \   00001F                ; Setup parameters for call to function AT_set_alarm
   \   00001F   E5..         MOV       A,?V0
   \   000021   FA           MOV       R2,A
   \   000022   7B00         MOV       R3,#0x0
   \   000024   EA           MOV       A,R2
   \   000025   75F08E       MOV       B,#-0x72
   \   000028   A4           MUL       AB
   \   000029   CA           XCH       A,R2
   \   00002A   A8F0         MOV       R0,B
   \   00002C   75F002       MOV       B,#0x2
   \   00002F   A4           MUL       AB
   \   000030   28           ADD       A,R0
   \   000031   F8           MOV       R0,A
   \   000032   75F08E       MOV       B,#-0x72
   \   000035   EB           MOV       A,R3
   \   000036   A4           MUL       AB
   \   000037   28           ADD       A,R0
   \   000038   FB           MOV       R3,A
   \   000039   12....       LCALL     `??AT_set_alarm::?relay`; Banked call to: AT_set_alarm
     51          }
   \   00003C   7F01         MOV       R7,#0x1
   \   00003E   02....       LJMP      ?BANKED_LEAVE_XDATA
     52          

   \                                 In  segment BANKED_CODE, align 1, keep-with-next
     53          void TM_IRQ(nwtime_t time){
   \                     TM_IRQ:
   \   000000   74F7         MOV       A,#-0x9
   \   000002   12....       LCALL     ?BANKED_ENTER_XDATA
   \   000005                ; Saved register size: 9
   \   000005                ; Auto size: 0
   \   000005   EA           MOV       A,R2
   \   000006   FE           MOV       R6,A
   \   000007   EB           MOV       A,R3
   \   000008   FF           MOV       R7,A
     54            if (MODEL.TM.MODE == 0){
   \   000009   90....       MOV       DPTR,#MODEL + 6
   \   00000C   E0           MOVX      A,@DPTR
   \   00000D   7007         JNZ       ??TM_IRQ_0
     55              AT_enable(false);
   \   00000F                ; Setup parameters for call to function AT_enable
   \   00000F   C2F0         CLR       B.0
   \   000011   12....       LCALL     `??AT_enable::?relay`; Banked call to: AT_enable
     56              return;
   \   000014   802E         SJMP      ??TM_IRQ_1
     57            }
     58            
     59            ATOMIC_BLOCK_FORCEON{    
   \                     ??TM_IRQ_0:
   \   000016                ; Setup parameters for call to function __cli
   \   000016   12....       LCALL     `??__cli::?relay_3`; Banked call to: __cli
   \   000019   E9           MOV       A,R1
   \                     ??TM_IRQ_2:
   \   00001A   6028         JZ        ??TM_IRQ_1
     60              LOG_OFF("ALARM! %d", time); 
     61              MODEL.TM.timeslot = NWTIME_TO_SLOT(time);
   \   00001C   EE           MOV       A,R6
   \   00001D   F8           MOV       R0,A
   \   00001E   EF           MOV       A,R7
   \   00001F   F9           MOV       R1,A
   \   000020   7A8E         MOV       R2,#-0x72
   \   000022   7B02         MOV       R3,#0x2
   \   000024   12....       LCALL     ?US_DIV_MOD
   \   000027   E8           MOV       A,R0
   \   000028   90....       MOV       DPTR,#MODEL + 7
   \   00002B   F0           MOVX      @DPTR,A
     62              MODEL.TM.time = time;
   \   00002C   90....       MOV       DPTR,#MODEL + 8
   \   00002F   EE           MOV       A,R6
   \   000030   F0           MOVX      @DPTR,A
   \   000031   A3           INC       DPTR
   \   000032   EF           MOV       A,R7
   \   000033   F0           MOVX      @DPTR,A
     63              scheulder_next_alarm(time);
   \   000034                ; Setup parameters for call to function scheulder_next_alarm
   \   000034   EE           MOV       A,R6
   \   000035   FA           MOV       R2,A
   \   000036   EF           MOV       A,R7
   \   000037   FB           MOV       R3,A
   \   000038   12....       LCALL     `??scheulder_next_alarm::?relay`; Banked call to: scheulder_next_alarm
     64              AM_Hot_start();
   \   00003B                ; Setup parameters for call to function AM_Hot_start
   \   00003B   12....       LCALL     `??AM_Hot_start::?relay`; Banked call to: AM_Hot_start
     65            };
   \   00003E   7400         MOV       A,#0x0
   \   000040   D2AF         SETB      0xa8.7
   \   000042   80D6         SJMP      ??TM_IRQ_2
     66          }
   \                     ??TM_IRQ_1:
   \   000044   7F01         MOV       R7,#0x1
   \   000046   02....       LJMP      ?BANKED_LEAVE_XDATA
   \   000049                REQUIRE _A_IEN0
     67          

   \                                 In  segment BANKED_CODE, align 1, keep-with-next
     68          static inline void mcu_sleep(void){
   \                     ??mcu_sleep:
   \   000000                ; Saved register size: 0
   \   000000                ; Auto size: 0
     69          }
   \   000000   02....       LJMP      ?BRET
     70          

   \                                 In  segment BANKED_CODE, align 1, keep-with-next
     71          static inline void _clr_all(void){
   \                     ??_clr_all:
   \   000000   C082         PUSH      DPL
   \   000002   C083         PUSH      DPH
   \   000004                ; Saved register size: 2
   \   000004                ; Auto size: 0
     72            for_each_type(alarm_t, ALARMS, i)
   \   000004   7582..       MOV       DPL,#??ALARMS & 0xff
   \   000007   7583..       MOV       DPH,#(??ALARMS >> 8) & 0xff
   \                     ??_clr_all_1:
   \   00000A   C3           CLR       C
   \   00000B   E582         MOV       A,DPL
   \   00000D   94..         SUBB      A,#(??ALARMS + 50) & 0xff
   \   00000F   E583         MOV       A,DPH
   \   000011   94..         SUBB      A,#((??ALARMS + 50) >> 8) & 0xff
   \   000013   5009         JNC       ??_clr_all_2
     73              i = 0;
   \   000015   758200       MOV       DPL,#0x0
   \   000018   758300       MOV       DPH,#0x0
   \   00001B   A3           INC       DPTR
   \   00001C   80EC         SJMP      ??_clr_all_1
     74          }
   \                     ??_clr_all_2:
   \   00001E   D083         POP       DPH
   \   000020   D082         POP       DPL
   \   000022   02....       LJMP      ?BRET
     75          

   \                                 In  segment BANKED_CODE, align 1, keep-with-next
     76          static void init(void){
   \                     ??init:
   \   000000   C082         PUSH      DPL
   \   000002   C083         PUSH      DPH
   \   000004                ; Saved register size: 2
   \   000004                ; Auto size: 0
     77            _clr_all();
   \   000004                ; Setup parameters for call to function _clr_all
   \   000004   12....       LCALL     `??_clr_all::?relay`; Banked call to: _clr_all
     78            scheulder_next_alarm(0);
   \   000007                ; Setup parameters for call to function scheulder_next_alarm
   \   000007   7A00         MOV       R2,#0x0
   \   000009   7B00         MOV       R3,#0x0
   \   00000B   12....       LCALL     `??scheulder_next_alarm::?relay`; Banked call to: scheulder_next_alarm
     79            AT_enable(true);
   \   00000E                ; Setup parameters for call to function AT_enable
   \   00000E   D2F0         SETB      B.0
   \   000010   12....       LCALL     `??AT_enable::?relay`; Banked call to: AT_enable
     80          }
   \   000013   D083         POP       DPH
   \   000015   D082         POP       DPL
   \   000017   02....       LJMP      ?BRET
     81          

   \                                 In  segment BANKED_CODE, align 1, keep-with-next
     82          static void start_mode_1(void){
   \                     ??start_mode_1:
   \   000000   C082         PUSH      DPL
   \   000002   C083         PUSH      DPH
   \   000004                ; Saved register size: 2
   \   000004                ; Auto size: 0
     83            AM_SW_Init();
   \   000004                ; Setup parameters for call to function AM_SW_Init
   \   000004   12....       LCALL     `??AM_SW_Init::?relay`; Banked call to: AM_SW_Init
     84            init();
   \   000007                ; Setup parameters for call to function init
   \   000007   12....       LCALL     `??init::?relay` ; Banked call to: init
     85            
     86            while (true){
     87              AM_Sleep();
   \                     ??start_mode_1_1:
   \   00000A                ; Setup parameters for call to function AM_Sleep
   \   00000A   12....       LCALL     `??AM_Sleep::?relay`; Banked call to: AM_Sleep
     88              mcu_sleep();
   \   00000D                ; Setup parameters for call to function mcu_sleep
   \   00000D   12....       LCALL     `??mcu_sleep::?relay`; Banked call to: mcu_sleep
     89              
     90              if (MODEL.TM.MODE == 0)
   \   000010   90....       MOV       DPTR,#MODEL + 6
   \   000013   E0           MOVX      A,@DPTR
   \   000014   6008         JZ        ??start_mode_1_2
     91                return;
     92              
     93              AM_Wakeup();
   \   000016                ; Setup parameters for call to function AM_Wakeup
   \   000016   12....       LCALL     `??AM_Wakeup::?relay`; Banked call to: AM_Wakeup
     94              AM_Cold_start();    
   \   000019                ; Setup parameters for call to function AM_Cold_start
   \   000019   12....       LCALL     `??AM_Cold_start::?relay`; Banked call to: AM_Cold_start
   \   00001C   80EC         SJMP      ??start_mode_1_1
     95            }  
   \                     ??start_mode_1_2:
   \   00001E   D083         POP       DPH
   \   000020   D082         POP       DPL
   \   000022   02....       LJMP      ?BRET
     96          }
     97          

   \                                 In  segment BANKED_CODE, align 1, keep-with-next
     98          static void start_mode_2(void){
   \                     ??start_mode_2:
   \   000000   C082         PUSH      DPL
   \   000002   C083         PUSH      DPH
   \   000004                ; Saved register size: 2
   \   000004                ; Auto size: 0
     99            AM_SW_Init();
   \   000004                ; Setup parameters for call to function AM_SW_Init
   \   000004   12....       LCALL     `??AM_SW_Init::?relay`; Banked call to: AM_SW_Init
    100            init();
   \   000007                ; Setup parameters for call to function init
   \   000007   12....       LCALL     `??init::?relay` ; Banked call to: init
    101          }
   \   00000A   D083         POP       DPH
   \   00000C   D082         POP       DPL
   \   00000E   02....       LJMP      ?BRET
    102          

   \                                 In  segment BANKED_CODE, align 1, keep-with-next
    103          void Neocore_start(void){
   \                     Neocore_start:
   \   000000                REQUIRE ?V0
   \   000000                REQUIRE ?V1
   \   000000   74F6         MOV       A,#-0xa
   \   000002   12....       LCALL     ?BANKED_ENTER_XDATA
   \   000005                ; Saved register size: 10
   \   000005                ; Auto size: 0
    104            switch (MODEL.TM.MODE){
   \   000005   90....       MOV       DPTR,#MODEL + 6
   \   000008   E0           MOVX      A,@DPTR
   \   000009   6045         JZ        ??Neocore_start_0
   \   00000B   14           DEC       A
   \   00000C   6005         JZ        ??Neocore_start_1
   \   00000E   14           DEC       A
   \   00000F   6005         JZ        ??Neocore_start_2
   \   000011   8006         SJMP      ??Neocore_start_3
    105            case 0:
    106              return;
    107            case 1:
    108              start_mode_1();
   \                     ??Neocore_start_1:
   \   000013                ; Setup parameters for call to function start_mode_1
   \   000013   12....       LCALL     `??start_mode_1::?relay`; Banked call to: start_mode_1
    109            case 2:
    110              start_mode_2();
   \                     ??Neocore_start_2:
   \   000016                ; Setup parameters for call to function start_mode_2
   \   000016   12....       LCALL     `??start_mode_2::?relay`; Banked call to: start_mode_2
    111            default: 
    112              HALT("Incorrect MODEL.TM.MODE");
   \                     ??Neocore_start_3:
   \   000019                ; Setup parameters for call to function printf
   \   000019   75....       MOV       ?V0,#??__FUNCTION___18 & 0xff
   \   00001C   75....       MOV       ?V1,#(??__FUNCTION___18 >> 8) & 0xff
   \   00001F   78..         MOV       R0,#?V0
   \   000021   12....       LCALL     ?PUSH_XSTACK_I_TWO
   \   000024   75..70       MOV       ?V0,#0x70
   \   000027   75..00       MOV       ?V1,#0x0
   \   00002A   78..         MOV       R0,#?V0
   \   00002C   12....       LCALL     ?PUSH_XSTACK_I_TWO
   \   00002F   75....       MOV       ?V0,#`?<Constant "time_manager.c">` & 0xff
   \   000032   75....       MOV       ?V1,#(`?<Constant "time_manager.c">` >> 8) & 0xff
   \   000035   78..         MOV       R0,#?V0
   \   000037   12....       LCALL     ?PUSH_XSTACK_I_TWO
   \   00003A   7A..         MOV       R2,#`?<Constant "%s:%d:%s -> ">_5` & 0xff
   \   00003C   7B..         MOV       R3,#(`?<Constant "%s:%d:%s -> ">_5` >> 8) & 0xff
   \   00003E   12....       LCALL     `??printf::?relay`; Banked call to: printf
   \   000041   7406         MOV       A,#0x6
   \   000043   12....       LCALL     ?DEALLOC_XSTACK8
   \   000046                ; Setup parameters for call to function printf
   \   000046   7A..         MOV       R2,#`?<Constant "Incorrect MODEL.TM.MODE">` & 0xff
   \   000048   7B..         MOV       R3,#(`?<Constant "Incorrect MODEL.TM.MODE">` >> 8) & 0xff
   \   00004A   12....       LCALL     `??printf::?relay`; Banked call to: printf
   \   00004D                ; Setup parameters for call to function DBG_CORE_HALT
   \   00004D   12....       LCALL     `??DBG_CORE_HALT::?relay`; Banked call to: DBG_CORE_HALT
    113            }
    114          }
   \                     ??Neocore_start_0:
   \   000050   7F02         MOV       R7,#0x2
   \   000052   02....       LJMP      ?BANKED_LEAVE_XDATA
E:\WMNU\IAR_new_arch\PRJ Test\u_alarm_timer.c
      1          #include "debug.h"
      2          #include "alarm_timer.h"
      3          #include "cpu.h"
      4          
      5          // тестирование вставками. Теперь переопределить функции нельзя
      6          // void TM_IRQ(nwtime_t time) теперь вручную мониторить

   \                                 In  segment BANKED_CODE, align 1, keep-with-next
      7          void u_alarm_timer(void){
   \                     u_alarm_timer:
   \   000000   74F7         MOV       A,#-0x9
   \   000002   12....       LCALL     ?BANKED_ENTER_XDATA
   \   000005                ; Saved register size: 9
   \   000005                ; Auto size: 0
      8            nwtime_t alarm = 500;
   \   000005   7EF4         MOV       R6,#-0xc
   \   000007   7F01         MOV       R7,#0x1
      9            INTERRUPT_ENABLE();
   \   000009   D2AF         SETB      0xa8.7
     10            AT_set_alarm(alarm);
   \   00000B                ; Setup parameters for call to function AT_set_alarm
   \   00000B   EE           MOV       A,R6
   \   00000C   FA           MOV       R2,A
   \   00000D   EF           MOV       A,R7
   \   00000E   FB           MOV       R3,A
   \   00000F   12....       LCALL     `??AT_set_alarm::?relay`; Banked call to: AT_set_alarm
     11            while(1);
   \                     ??u_alarm_timer_0:
   \   000012   80FE         SJMP      ??u_alarm_timer_0
   \   000014                REQUIRE _A_IEN0
     12          }
E:\WMNU\IAR_NEW_ARCH\PRJ Test\u_buffer.c
      1          #include "utest.h"
      2          #include "stddef.h"
      3          
      4          static int test1(void);
      5          static int test2(void);
      6          static int test3(void);

   \                                 In  segment XDATA_I, align 1, keep-with-next
      7          struct test_unit UT_BF_1 = {.name = "BF:push tx", .fun = test1};
   \                     UT_BF_1:
   \   000000                DS 34
   \   000022                REQUIRE `?<Initializer for UT_BF_1>`
   \   000022                REQUIRE __INIT_XDATA_I

   \                                 In  segment XDATA_I, align 1, keep-with-next
      8          struct test_unit UT_BF_2 = {.name = "BF:push-pop tx all", .fun = test2};
   \                     UT_BF_2:
   \   000000                DS 34
   \   000022                REQUIRE `?<Initializer for UT_BF_2>`
   \   000022                REQUIRE __INIT_XDATA_I

   \                                 In  segment XDATA_I, align 1, keep-with-next
      9          struct test_unit UT_BF_3 = {.name = "BF:mix rx-tx bufs", .fun = test3};
   \                     UT_BF_3:
   \   000000                DS 34
   \   000022                REQUIRE `?<Initializer for UT_BF_3>`
   \   000022                REQUIRE __INIT_XDATA_I
     10          
     11          #include "buffer.h"
     12          #include "frame.h"
     13          

   \                                 In  segment BANKED_CODE, align 1, keep-with-next
     14          static int test3(void){
   \                     ??test3:
   \   000000                REQUIRE ?V0
   \   000000                REQUIRE ?V1
   \   000000                REQUIRE ?V2
   \   000000                REQUIRE ?V3
   \   000000                REQUIRE ?V4
   \   000000                REQUIRE ?V5
   \   000000                REQUIRE ?V6
   \   000000                REQUIRE ?V7
   \   000000   74F0         MOV       A,#-0x10
   \   000002   12....       LCALL     ?BANKED_ENTER_XDATA
   \   000005                ; Saved register size: 16
   \   000005                ; Auto size: 42
   \   000005   74D6         MOV       A,#-0x2a
   \   000007   12....       LCALL     ?ALLOC_XSTACK8
     15            int test_res = 0;
   \   00000A   7E00         MOV       R6,#0x0
   \   00000C   7F00         MOV       R7,#0x0
     16            struct frame* fr_rx[10];
     17            struct frame* fr_tx[10];
     18            struct frame* content;
     19            
     20            
     21            if (BF_rx_busy() != 0)
   \   00000E                ; Setup parameters for call to function BF_rx_busy
   \   00000E   12....       LCALL     `??BF_rx_busy::?relay`; Banked call to: BF_rx_busy
   \   000011   8A..         MOV       ?V0,R2
   \   000013   8B..         MOV       ?V1,R3
   \   000015   E5..         MOV       A,?V0
   \   000017   45..         ORL       A,?V1
   \   000019   6004         JZ        ??test3_3
     22              test_res = 31;
   \   00001B   7E1F         MOV       R6,#0x1f
   \   00001D   7F00         MOV       R7,#0x0
     23          
     24            if (BF_tx_busy() != 0)
   \                     ??test3_3:
   \   00001F                ; Setup parameters for call to function BF_tx_busy
   \   00001F   12....       LCALL     `??BF_tx_busy::?relay`; Banked call to: BF_tx_busy
   \   000022   8A..         MOV       ?V0,R2
   \   000024   8B..         MOV       ?V1,R3
   \   000026   E5..         MOV       A,?V0
   \   000028   45..         ORL       A,?V1
   \   00002A   6004         JZ        ??test3_4
     25              test_res = 32;
   \   00002C   7E20         MOV       R6,#0x20
   \   00002E   7F00         MOV       R7,#0x0
     26          
     27            if (BF_available()!=20)
   \                     ??test3_4:
   \   000030                ; Setup parameters for call to function BF_available
   \   000030   12....       LCALL     `??BF_available::?relay`; Banked call to: BF_available
   \   000033   8A..         MOV       ?V0,R2
   \   000035   8B..         MOV       ?V1,R3
   \   000037   7414         MOV       A,#0x14
   \   000039   65..         XRL       A,?V0
   \   00003B   7004         JNZ       ??test3_5
   \   00003D   7400         MOV       A,#0x0
   \   00003F   65..         XRL       A,?V1
   \                     ??test3_5:
   \   000041   6004         JZ        ??test3_6
     28              test_res = 33;
   \   000043   7E21         MOV       R6,#0x21
   \   000045   7F00         MOV       R7,#0x0
     29            
     30            for (int i = 0; i < 10; i++){
   \                     ??test3_6:
   \   000047   75..00       MOV       ?V0,#0x0
   \   00004A   75..00       MOV       ?V1,#0x0
   \                     ??test3_7:
   \   00004D   C3           CLR       C
   \   00004E   E5..         MOV       A,?V0
   \   000050   940A         SUBB      A,#0xa
   \   000052   E5..         MOV       A,?V1
   \   000054   9400         SUBB      A,#0x0
   \   000056   A2D2         MOV       C,0xD0 /* PSW */.2
   \   000058   65D0         XRL       A,PSW
   \   00005A   33           RLC       A
   \   00005B   4003         JC        $+5
   \   00005D   02....       LJMP      ??test3_8 & 0xFFFF
     31              fr_rx[i] = FR_create();
   \   000060                ; Setup parameters for call to function FR_create
   \   000060   12....       LCALL     `??FR_create::?relay`; Banked call to: FR_create
   \   000063   A8..         MOV       R0,?V0
   \   000065   A9..         MOV       R1,?V1
   \   000067   E8           MOV       A,R0
   \   000068   75F002       MOV       B,#0x2
   \   00006B   A4           MUL       AB
   \   00006C   C8           XCH       A,R0
   \   00006D   ACF0         MOV       R4,B
   \   00006F   75F000       MOV       B,#0x0
   \   000072   A4           MUL       AB
   \   000073   2C           ADD       A,R4
   \   000074   FC           MOV       R4,A
   \   000075   75F002       MOV       B,#0x2
   \   000078   E9           MOV       A,R1
   \   000079   A4           MUL       AB
   \   00007A   2C           ADD       A,R4
   \   00007B   F9           MOV       R1,A
   \   00007C   7416         MOV       A,#0x16
   \   00007E   12....       LCALL     ?XSTACK_DISP0_8
   \   000081   E582         MOV       A,DPL
   \   000083   28           ADD       A,R0
   \   000084   F582         MOV       DPL,A
   \   000086   E583         MOV       A,DPH
   \   000088   39           ADDC      A,R1
   \   000089   F583         MOV       DPH,A
   \   00008B   EA           MOV       A,R2
   \   00008C   F0           MOVX      @DPTR,A
   \   00008D   A3           INC       DPTR
   \   00008E   EB           MOV       A,R3
   \   00008F   F0           MOVX      @DPTR,A
     32              fr_tx[i] = FR_create();
   \   000090                ; Setup parameters for call to function FR_create
   \   000090   12....       LCALL     `??FR_create::?relay`; Banked call to: FR_create
   \   000093   A8..         MOV       R0,?V0
   \   000095   A9..         MOV       R1,?V1
   \   000097   E8           MOV       A,R0
   \   000098   75F002       MOV       B,#0x2
   \   00009B   A4           MUL       AB
   \   00009C   C8           XCH       A,R0
   \   00009D   ACF0         MOV       R4,B
   \   00009F   75F000       MOV       B,#0x0
   \   0000A2   A4           MUL       AB
   \   0000A3   2C           ADD       A,R4
   \   0000A4   FC           MOV       R4,A
   \   0000A5   75F002       MOV       B,#0x2
   \   0000A8   E9           MOV       A,R1
   \   0000A9   A4           MUL       AB
   \   0000AA   2C           ADD       A,R4
   \   0000AB   F9           MOV       R1,A
   \   0000AC   7402         MOV       A,#0x2
   \   0000AE   12....       LCALL     ?XSTACK_DISP0_8
   \   0000B1   E582         MOV       A,DPL
   \   0000B3   28           ADD       A,R0
   \   0000B4   F582         MOV       DPL,A
   \   0000B6   E583         MOV       A,DPH
   \   0000B8   39           ADDC      A,R1
   \   0000B9   F583         MOV       DPH,A
   \   0000BB   EA           MOV       A,R2
   \   0000BC   F0           MOVX      @DPTR,A
   \   0000BD   A3           INC       DPTR
   \   0000BE   EB           MOV       A,R3
   \   0000BF   F0           MOVX      @DPTR,A
     33              if (!BF_push_tx(fr_tx[i]))
   \   0000C0                ; Setup parameters for call to function BF_push_tx
   \   0000C0   A8..         MOV       R0,?V0
   \   0000C2   A9..         MOV       R1,?V1
   \   0000C4   E8           MOV       A,R0
   \   0000C5   75F002       MOV       B,#0x2
   \   0000C8   A4           MUL       AB
   \   0000C9   C8           XCH       A,R0
   \   0000CA   AAF0         MOV       R2,B
   \   0000CC   75F000       MOV       B,#0x0
   \   0000CF   A4           MUL       AB
   \   0000D0   2A           ADD       A,R2
   \   0000D1   FA           MOV       R2,A
   \   0000D2   75F002       MOV       B,#0x2
   \   0000D5   E9           MOV       A,R1
   \   0000D6   A4           MUL       AB
   \   0000D7   2A           ADD       A,R2
   \   0000D8   F9           MOV       R1,A
   \   0000D9   7402         MOV       A,#0x2
   \   0000DB   12....       LCALL     ?XSTACK_DISP0_8
   \   0000DE   E582         MOV       A,DPL
   \   0000E0   28           ADD       A,R0
   \   0000E1   F582         MOV       DPL,A
   \   0000E3   E583         MOV       A,DPH
   \   0000E5   39           ADDC      A,R1
   \   0000E6   F583         MOV       DPH,A
   \   0000E8   E0           MOVX      A,@DPTR
   \   0000E9   FA           MOV       R2,A
   \   0000EA   A3           INC       DPTR
   \   0000EB   E0           MOVX      A,@DPTR
   \   0000EC   FB           MOV       R3,A
   \   0000ED   12....       LCALL     `??BF_push_tx::?relay`; Banked call to: BF_push_tx
   \   0000F0   4004         JC        ??test3_9
     34                test_res = 1;
   \   0000F2   7E01         MOV       R6,#0x1
   \   0000F4   7F00         MOV       R7,#0x0
     35              if (!BF_push_rx(fr_rx[i]))
   \                     ??test3_9:
   \   0000F6                ; Setup parameters for call to function BF_push_rx
   \   0000F6   A8..         MOV       R0,?V0
   \   0000F8   A9..         MOV       R1,?V1
   \   0000FA   E8           MOV       A,R0
   \   0000FB   75F002       MOV       B,#0x2
   \   0000FE   A4           MUL       AB
   \   0000FF   C8           XCH       A,R0
   \   000100   AAF0         MOV       R2,B
   \   000102   75F000       MOV       B,#0x0
   \   000105   A4           MUL       AB
   \   000106   2A           ADD       A,R2
   \   000107   FA           MOV       R2,A
   \   000108   75F002       MOV       B,#0x2
   \   00010B   E9           MOV       A,R1
   \   00010C   A4           MUL       AB
   \   00010D   2A           ADD       A,R2
   \   00010E   F9           MOV       R1,A
   \   00010F   7416         MOV       A,#0x16
   \   000111   12....       LCALL     ?XSTACK_DISP0_8
   \   000114   E582         MOV       A,DPL
   \   000116   28           ADD       A,R0
   \   000117   F582         MOV       DPL,A
   \   000119   E583         MOV       A,DPH
   \   00011B   39           ADDC      A,R1
   \   00011C   F583         MOV       DPH,A
   \   00011E   E0           MOVX      A,@DPTR
   \   00011F   FA           MOV       R2,A
   \   000120   A3           INC       DPTR
   \   000121   E0           MOVX      A,@DPTR
   \   000122   FB           MOV       R3,A
   \   000123   12....       LCALL     `??BF_push_rx::?relay`; Banked call to: BF_push_rx
   \   000126   4004         JC        ??test3_10
     36                test_res = 2;    
   \   000128   7E02         MOV       R6,#0x2
   \   00012A   7F00         MOV       R7,#0x0
     37            } 
   \                     ??test3_10:
   \   00012C   05..         INC       ?V0
   \   00012E   E5..         MOV       A,?V0
   \   000130   7002         JNZ       ??test3_11
   \   000132   05..         INC       ?V1
   \                     ??test3_11:
   \   000134   02....       LJMP      ??test3_7 & 0xFFFF
     38           
     39            if (BF_rx_busy() != 10)
   \                     ??test3_8:
   \   000137                ; Setup parameters for call to function BF_rx_busy
   \   000137   12....       LCALL     `??BF_rx_busy::?relay`; Banked call to: BF_rx_busy
   \   00013A   8A..         MOV       ?V0,R2
   \   00013C   8B..         MOV       ?V1,R3
   \   00013E   740A         MOV       A,#0xa
   \   000140   65..         XRL       A,?V0
   \   000142   7004         JNZ       ??test3_12
   \   000144   7400         MOV       A,#0x0
   \   000146   65..         XRL       A,?V1
   \                     ??test3_12:
   \   000148   6004         JZ        ??test3_13
     40              test_res = 21;
   \   00014A   7E15         MOV       R6,#0x15
   \   00014C   7F00         MOV       R7,#0x0
     41          
     42            if (BF_tx_busy() != 10)
   \                     ??test3_13:
   \   00014E                ; Setup parameters for call to function BF_tx_busy
   \   00014E   12....       LCALL     `??BF_tx_busy::?relay`; Banked call to: BF_tx_busy
   \   000151   8A..         MOV       ?V0,R2
   \   000153   8B..         MOV       ?V1,R3
   \   000155   740A         MOV       A,#0xa
   \   000157   65..         XRL       A,?V0
   \   000159   7004         JNZ       ??test3_14
   \   00015B   7400         MOV       A,#0x0
   \   00015D   65..         XRL       A,?V1
   \                     ??test3_14:
   \   00015F   6004         JZ        ??test3_15
     43              test_res = 22;
   \   000161   7E16         MOV       R6,#0x16
   \   000163   7F00         MOV       R7,#0x0
     44          
     45            if (BF_available()!=0)
   \                     ??test3_15:
   \   000165                ; Setup parameters for call to function BF_available
   \   000165   12....       LCALL     `??BF_available::?relay`; Banked call to: BF_available
   \   000168   8A..         MOV       ?V0,R2
   \   00016A   8B..         MOV       ?V1,R3
   \   00016C   E5..         MOV       A,?V0
   \   00016E   45..         ORL       A,?V1
   \   000170   6004         JZ        ??test3_16
     46              test_res = 23;
   \   000172   7E17         MOV       R6,#0x17
   \   000174   7F00         MOV       R7,#0x0
     47            
     48            void *cursor = BF_cursor_tx();
   \                     ??test3_16:
   \   000176                ; Setup parameters for call to function BF_cursor_tx
   \   000176   12....       LCALL     `??BF_cursor_tx::?relay`; Banked call to: BF_cursor_tx
   \   000179   8A..         MOV       ?V2,R2
   \   00017B   8B..         MOV       ?V3,R3
   \   00017D   85....       MOV       ?V0,?V2
   \   000180   85....       MOV       ?V1,?V3
     49            for (int i = 0; i < 10; i++){
   \   000183   75..00       MOV       ?V2,#0x0
   \   000186   75..00       MOV       ?V3,#0x0
   \                     ??test3_17:
   \   000189   C3           CLR       C
   \   00018A   E5..         MOV       A,?V2
   \   00018C   940A         SUBB      A,#0xa
   \   00018E   E5..         MOV       A,?V3
   \   000190   9400         SUBB      A,#0x0
   \   000192   A2D2         MOV       C,0xD0 /* PSW */.2
   \   000194   65D0         XRL       A,PSW
   \   000196   33           RLC       A
   \   000197   507A         JNC       ??test3_18
     50                content = BF_content(cursor);
   \   000199                ; Setup parameters for call to function BF_content
   \   000199   AA..         MOV       R2,?V0
   \   00019B   AB..         MOV       R3,?V1
   \   00019D   12....       LCALL     `??BF_content::?relay`; Banked call to: BF_content
   \   0001A0   85..82       MOV       DPL,?XSP + 0
   \   0001A3   85..83       MOV       DPH,?XSP + 1
   \   0001A6   EA           MOV       A,R2
   \   0001A7   F0           MOVX      @DPTR,A
   \   0001A8   A3           INC       DPTR
   \   0001A9   EB           MOV       A,R3
   \   0001AA   F0           MOVX      @DPTR,A
     51                if (content != fr_tx[9-i])
   \   0001AB   85..82       MOV       DPL,?XSP + 0
   \   0001AE   85..83       MOV       DPH,?XSP + 1
   \   0001B1   E0           MOVX      A,@DPTR
   \   0001B2   FA           MOV       R2,A
   \   0001B3   A3           INC       DPTR
   \   0001B4   E0           MOVX      A,@DPTR
   \   0001B5   FB           MOV       R3,A
   \   0001B6   C3           CLR       C
   \   0001B7   E4           CLR       A
   \   0001B8   95..         SUBB      A,?V2
   \   0001BA   F8           MOV       R0,A
   \   0001BB   E4           CLR       A
   \   0001BC   95..         SUBB      A,?V3
   \   0001BE   F9           MOV       R1,A
   \   0001BF   E8           MOV       A,R0
   \   0001C0   75F002       MOV       B,#0x2
   \   0001C3   A4           MUL       AB
   \   0001C4   C8           XCH       A,R0
   \   0001C5   ACF0         MOV       R4,B
   \   0001C7   75F000       MOV       B,#0x0
   \   0001CA   A4           MUL       AB
   \   0001CB   2C           ADD       A,R4
   \   0001CC   FC           MOV       R4,A
   \   0001CD   75F002       MOV       B,#0x2
   \   0001D0   E9           MOV       A,R1
   \   0001D1   A4           MUL       AB
   \   0001D2   2C           ADD       A,R4
   \   0001D3   F9           MOV       R1,A
   \   0001D4   7402         MOV       A,#0x2
   \   0001D6   12....       LCALL     ?XSTACK_DISP0_8
   \   0001D9   E582         MOV       A,DPL
   \   0001DB   28           ADD       A,R0
   \   0001DC   F8           MOV       R0,A
   \   0001DD   E583         MOV       A,DPH
   \   0001DF   39           ADDC      A,R1
   \   0001E0   F9           MOV       R1,A
   \   0001E1   E8           MOV       A,R0
   \   0001E2   2412         ADD       A,#0x12
   \   0001E4   F582         MOV       DPL,A
   \   0001E6   E4           CLR       A
   \   0001E7   39           ADDC      A,R1
   \   0001E8   F583         MOV       DPH,A
   \   0001EA   E0           MOVX      A,@DPTR
   \   0001EB   6A           XRL       A,R2
   \   0001EC   7003         JNZ       ??test3_19
   \   0001EE   A3           INC       DPTR
   \   0001EF   E0           MOVX      A,@DPTR
   \   0001F0   6B           XRL       A,R3
   \                     ??test3_19:
   \   0001F1   6004         JZ        ??test3_20
     52                  test_res = 3;
   \   0001F3   7E03         MOV       R6,#0x3
   \   0001F5   7F00         MOV       R7,#0x0
     53                cursor = BF_cursor_next(cursor);
   \                     ??test3_20:
   \   0001F7                ; Setup parameters for call to function BF_cursor_next
   \   0001F7   AA..         MOV       R2,?V0
   \   0001F9   AB..         MOV       R3,?V1
   \   0001FB   12....       LCALL     `??BF_cursor_next::?relay`; Banked call to: BF_cursor_next
   \   0001FE   8A..         MOV       ?V4,R2
   \   000200   8B..         MOV       ?V5,R3
   \   000202   85....       MOV       ?V0,?V4
   \   000205   85....       MOV       ?V1,?V5
     54            }  
   \   000208   05..         INC       ?V2
   \   00020A   E5..         MOV       A,?V2
   \   00020C   7002         JNZ       ??test3_21
   \   00020E   05..         INC       ?V3
   \                     ??test3_21:
   \   000210   02....       LJMP      ??test3_17 & 0xFFFF
     55          
     56            cursor = BF_cursor_rx();
   \                     ??test3_18:
   \   000213                ; Setup parameters for call to function BF_cursor_rx
   \   000213   12....       LCALL     `??BF_cursor_rx::?relay`; Banked call to: BF_cursor_rx
   \   000216   8A..         MOV       ?V2,R2
   \   000218   8B..         MOV       ?V3,R3
   \   00021A   85....       MOV       ?V0,?V2
   \   00021D   85....       MOV       ?V1,?V3
     57            for (int i = 0; i < 10; i++){
   \   000220   75..00       MOV       ?V2,#0x0
   \   000223   75..00       MOV       ?V3,#0x0
   \                     ??test3_22:
   \   000226   C3           CLR       C
   \   000227   E5..         MOV       A,?V2
   \   000229   940A         SUBB      A,#0xa
   \   00022B   E5..         MOV       A,?V3
   \   00022D   9400         SUBB      A,#0x0
   \   00022F   A2D2         MOV       C,0xD0 /* PSW */.2
   \   000231   65D0         XRL       A,PSW
   \   000233   33           RLC       A
   \   000234   507A         JNC       ??test3_23
     58                content = BF_content(cursor);
   \   000236                ; Setup parameters for call to function BF_content
   \   000236   AA..         MOV       R2,?V0
   \   000238   AB..         MOV       R3,?V1
   \   00023A   12....       LCALL     `??BF_content::?relay`; Banked call to: BF_content
   \   00023D   85..82       MOV       DPL,?XSP + 0
   \   000240   85..83       MOV       DPH,?XSP + 1
   \   000243   EA           MOV       A,R2
   \   000244   F0           MOVX      @DPTR,A
   \   000245   A3           INC       DPTR
   \   000246   EB           MOV       A,R3
   \   000247   F0           MOVX      @DPTR,A
     59                if (content != fr_rx[9-i])
   \   000248   85..82       MOV       DPL,?XSP + 0
   \   00024B   85..83       MOV       DPH,?XSP + 1
   \   00024E   E0           MOVX      A,@DPTR
   \   00024F   FA           MOV       R2,A
   \   000250   A3           INC       DPTR
   \   000251   E0           MOVX      A,@DPTR
   \   000252   FB           MOV       R3,A
   \   000253   C3           CLR       C
   \   000254   E4           CLR       A
   \   000255   95..         SUBB      A,?V2
   \   000257   F8           MOV       R0,A
   \   000258   E4           CLR       A
   \   000259   95..         SUBB      A,?V3
   \   00025B   F9           MOV       R1,A
   \   00025C   E8           MOV       A,R0
   \   00025D   75F002       MOV       B,#0x2
   \   000260   A4           MUL       AB
   \   000261   C8           XCH       A,R0
   \   000262   ACF0         MOV       R4,B
   \   000264   75F000       MOV       B,#0x0
   \   000267   A4           MUL       AB
   \   000268   2C           ADD       A,R4
   \   000269   FC           MOV       R4,A
   \   00026A   75F002       MOV       B,#0x2
   \   00026D   E9           MOV       A,R1
   \   00026E   A4           MUL       AB
   \   00026F   2C           ADD       A,R4
   \   000270   F9           MOV       R1,A
   \   000271   7416         MOV       A,#0x16
   \   000273   12....       LCALL     ?XSTACK_DISP0_8
   \   000276   E582         MOV       A,DPL
   \   000278   28           ADD       A,R0
   \   000279   F8           MOV       R0,A
   \   00027A   E583         MOV       A,DPH
   \   00027C   39           ADDC      A,R1
   \   00027D   F9           MOV       R1,A
   \   00027E   E8           MOV       A,R0
   \   00027F   2412         ADD       A,#0x12
   \   000281   F582         MOV       DPL,A
   \   000283   E4           CLR       A
   \   000284   39           ADDC      A,R1
   \   000285   F583         MOV       DPH,A
   \   000287   E0           MOVX      A,@DPTR
   \   000288   6A           XRL       A,R2
   \   000289   7003         JNZ       ??test3_24
   \   00028B   A3           INC       DPTR
   \   00028C   E0           MOVX      A,@DPTR
   \   00028D   6B           XRL       A,R3
   \                     ??test3_24:
   \   00028E   6004         JZ        ??test3_25
     60                  test_res = 4;
   \   000290   7E04         MOV       R6,#0x4
   \   000292   7F00         MOV       R7,#0x0
     61                cursor = BF_cursor_next(cursor);
   \                     ??test3_25:
   \   000294                ; Setup parameters for call to function BF_cursor_next
   \   000294   AA..         MOV       R2,?V0
   \   000296   AB..         MOV       R3,?V1
   \   000298   12....       LCALL     `??BF_cursor_next::?relay`; Banked call to: BF_cursor_next
   \   00029B   8A..         MOV       ?V4,R2
   \   00029D   8B..         MOV       ?V5,R3
   \   00029F   85....       MOV       ?V0,?V4
   \   0002A2   85....       MOV       ?V1,?V5
     62            }    
   \   0002A5   05..         INC       ?V2
   \   0002A7   E5..         MOV       A,?V2
   \   0002A9   7002         JNZ       ??test3_26
   \   0002AB   05..         INC       ?V3
   \                     ??test3_26:
   \   0002AD   02....       LJMP      ??test3_22 & 0xFFFF
     63            
     64            void *del_cursor;
     65            cursor = BF_cursor_tx();
   \                     ??test3_23:
   \   0002B0                ; Setup parameters for call to function BF_cursor_tx
   \   0002B0   12....       LCALL     `??BF_cursor_tx::?relay`; Banked call to: BF_cursor_tx
   \   0002B3   8A..         MOV       ?V2,R2
   \   0002B5   8B..         MOV       ?V3,R3
   \   0002B7   85....       MOV       ?V0,?V2
   \   0002BA   85....       MOV       ?V1,?V3
     66            for (int i = 0; i < 10; i++){
   \   0002BD   75..00       MOV       ?V2,#0x0
   \   0002C0   75..00       MOV       ?V3,#0x0
   \                     ??test3_27:
   \   0002C3   C3           CLR       C
   \   0002C4   E5..         MOV       A,?V2
   \   0002C6   940A         SUBB      A,#0xa
   \   0002C8   E5..         MOV       A,?V3
   \   0002CA   9400         SUBB      A,#0x0
   \   0002CC   A2D2         MOV       C,0xD0 /* PSW */.2
   \   0002CE   65D0         XRL       A,PSW
   \   0002D0   33           RLC       A
   \   0002D1   5064         JNC       ??test3_28
     67                if (!FR_delete(fr_tx[i]))
   \   0002D3                ; Setup parameters for call to function FR_delete
   \   0002D3   A8..         MOV       R0,?V2
   \   0002D5   A9..         MOV       R1,?V3
   \   0002D7   E8           MOV       A,R0
   \   0002D8   75F002       MOV       B,#0x2
   \   0002DB   A4           MUL       AB
   \   0002DC   C8           XCH       A,R0
   \   0002DD   AAF0         MOV       R2,B
   \   0002DF   75F000       MOV       B,#0x0
   \   0002E2   A4           MUL       AB
   \   0002E3   2A           ADD       A,R2
   \   0002E4   FA           MOV       R2,A
   \   0002E5   75F002       MOV       B,#0x2
   \   0002E8   E9           MOV       A,R1
   \   0002E9   A4           MUL       AB
   \   0002EA   2A           ADD       A,R2
   \   0002EB   F9           MOV       R1,A
   \   0002EC   7402         MOV       A,#0x2
   \   0002EE   12....       LCALL     ?XSTACK_DISP0_8
   \   0002F1   E582         MOV       A,DPL
   \   0002F3   28           ADD       A,R0
   \   0002F4   F582         MOV       DPL,A
   \   0002F6   E583         MOV       A,DPH
   \   0002F8   39           ADDC      A,R1
   \   0002F9   F583         MOV       DPH,A
   \   0002FB   E0           MOVX      A,@DPTR
   \   0002FC   FA           MOV       R2,A
   \   0002FD   A3           INC       DPTR
   \   0002FE   E0           MOVX      A,@DPTR
   \   0002FF   FB           MOV       R3,A
   \   000300   12....       LCALL     `??FR_delete::?relay`; Banked call to: FR_delete
   \   000303   4004         JC        ??test3_29
     68                  test_res = 5;
   \   000305   7E05         MOV       R6,#0x5
   \   000307   7F00         MOV       R7,#0x0
     69                del_cursor = cursor;
   \                     ??test3_29:
   \   000309   85....       MOV       ?V6,?V0
   \   00030C   85....       MOV       ?V7,?V1
     70                cursor = BF_cursor_next(cursor);
   \   00030F                ; Setup parameters for call to function BF_cursor_next
   \   00030F   AA..         MOV       R2,?V0
   \   000311   AB..         MOV       R3,?V1
   \   000313   12....       LCALL     `??BF_cursor_next::?relay`; Banked call to: BF_cursor_next
   \   000316   8A..         MOV       ?V4,R2
   \   000318   8B..         MOV       ?V5,R3
   \   00031A   85....       MOV       ?V0,?V4
   \   00031D   85....       MOV       ?V1,?V5
     71                if (!BF_remove(del_cursor))
   \   000320                ; Setup parameters for call to function BF_remove
   \   000320   AA..         MOV       R2,?V6
   \   000322   AB..         MOV       R3,?V7
   \   000324   12....       LCALL     `??BF_remove::?relay`; Banked call to: BF_remove
   \   000327   4004         JC        ??test3_30
     72                  test_res = 6;
   \   000329   7E06         MOV       R6,#0x6
   \   00032B   7F00         MOV       R7,#0x0
     73            }  
   \                     ??test3_30:
   \   00032D   05..         INC       ?V2
   \   00032F   E5..         MOV       A,?V2
   \   000331   7090         JNZ       ??test3_27
   \   000333   05..         INC       ?V3
   \   000335   808C         SJMP      ??test3_27
     74          
     75          
     76            cursor = BF_cursor_rx();
   \                     ??test3_28:
   \   000337                ; Setup parameters for call to function BF_cursor_rx
   \   000337   12....       LCALL     `??BF_cursor_rx::?relay`; Banked call to: BF_cursor_rx
   \   00033A   8A..         MOV       ?V2,R2
   \   00033C   8B..         MOV       ?V3,R3
   \   00033E   85....       MOV       ?V0,?V2
   \   000341   85....       MOV       ?V1,?V3
     77            for (int i = 0; i < 10; i++){
   \   000344   75..00       MOV       ?V2,#0x0
   \   000347   75..00       MOV       ?V3,#0x0
   \                     ??test3_31:
   \   00034A   C3           CLR       C
   \   00034B   E5..         MOV       A,?V2
   \   00034D   940A         SUBB      A,#0xa
   \   00034F   E5..         MOV       A,?V3
   \   000351   9400         SUBB      A,#0x0
   \   000353   A2D2         MOV       C,0xD0 /* PSW */.2
   \   000355   65D0         XRL       A,PSW
   \   000357   33           RLC       A
   \   000358   5064         JNC       ??test3_32
     78                if (!FR_delete(fr_rx[i]))
   \   00035A                ; Setup parameters for call to function FR_delete
   \   00035A   A8..         MOV       R0,?V2
   \   00035C   A9..         MOV       R1,?V3
   \   00035E   E8           MOV       A,R0
   \   00035F   75F002       MOV       B,#0x2
   \   000362   A4           MUL       AB
   \   000363   C8           XCH       A,R0
   \   000364   AAF0         MOV       R2,B
   \   000366   75F000       MOV       B,#0x0
   \   000369   A4           MUL       AB
   \   00036A   2A           ADD       A,R2
   \   00036B   FA           MOV       R2,A
   \   00036C   75F002       MOV       B,#0x2
   \   00036F   E9           MOV       A,R1
   \   000370   A4           MUL       AB
   \   000371   2A           ADD       A,R2
   \   000372   F9           MOV       R1,A
   \   000373   7416         MOV       A,#0x16
   \   000375   12....       LCALL     ?XSTACK_DISP0_8
   \   000378   E582         MOV       A,DPL
   \   00037A   28           ADD       A,R0
   \   00037B   F582         MOV       DPL,A
   \   00037D   E583         MOV       A,DPH
   \   00037F   39           ADDC      A,R1
   \   000380   F583         MOV       DPH,A
   \   000382   E0           MOVX      A,@DPTR
   \   000383   FA           MOV       R2,A
   \   000384   A3           INC       DPTR
   \   000385   E0           MOVX      A,@DPTR
   \   000386   FB           MOV       R3,A
   \   000387   12....       LCALL     `??FR_delete::?relay`; Banked call to: FR_delete
   \   00038A   4004         JC        ??test3_33
     79                  test_res = 7;
   \   00038C   7E07         MOV       R6,#0x7
   \   00038E   7F00         MOV       R7,#0x0
     80                del_cursor = cursor;
   \                     ??test3_33:
   \   000390   85....       MOV       ?V6,?V0
   \   000393   85....       MOV       ?V7,?V1
     81                cursor = BF_cursor_next(cursor);
   \   000396                ; Setup parameters for call to function BF_cursor_next
   \   000396   AA..         MOV       R2,?V0
   \   000398   AB..         MOV       R3,?V1
   \   00039A   12....       LCALL     `??BF_cursor_next::?relay`; Banked call to: BF_cursor_next
   \   00039D   8A..         MOV       ?V4,R2
   \   00039F   8B..         MOV       ?V5,R3
   \   0003A1   85....       MOV       ?V0,?V4
   \   0003A4   85....       MOV       ?V1,?V5
     82                if (!BF_remove(del_cursor))
   \   0003A7                ; Setup parameters for call to function BF_remove
   \   0003A7   AA..         MOV       R2,?V6
   \   0003A9   AB..         MOV       R3,?V7
   \   0003AB   12....       LCALL     `??BF_remove::?relay`; Banked call to: BF_remove
   \   0003AE   4004         JC        ??test3_34
     83                  test_res = 8;
   \   0003B0   7E08         MOV       R6,#0x8
   \   0003B2   7F00         MOV       R7,#0x0
     84            }
   \                     ??test3_34:
   \   0003B4   05..         INC       ?V2
   \   0003B6   E5..         MOV       A,?V2
   \   0003B8   7090         JNZ       ??test3_31
   \   0003BA   05..         INC       ?V3
   \   0003BC   808C         SJMP      ??test3_31
     85            
     86            cursor = BF_cursor_tx();
   \                     ??test3_32:
   \   0003BE                ; Setup parameters for call to function BF_cursor_tx
   \   0003BE   12....       LCALL     `??BF_cursor_tx::?relay`; Banked call to: BF_cursor_tx
   \   0003C1   8A..         MOV       ?V2,R2
   \   0003C3   8B..         MOV       ?V3,R3
   \   0003C5   85....       MOV       ?V0,?V2
   \   0003C8   85....       MOV       ?V1,?V3
     87            if (cursor)
   \   0003CB   E5..         MOV       A,?V0
   \   0003CD   45..         ORL       A,?V1
   \   0003CF   6006         JZ        ??test3_35
     88                return 9; 
   \   0003D1   7A09         MOV       R2,#0x9
   \   0003D3   7B00         MOV       R3,#0x0
   \   0003D5   801D         SJMP      ??test3_36
     89          
     90            cursor = BF_cursor_rx();
   \                     ??test3_35:
   \   0003D7                ; Setup parameters for call to function BF_cursor_rx
   \   0003D7   12....       LCALL     `??BF_cursor_rx::?relay`; Banked call to: BF_cursor_rx
   \   0003DA   8A..         MOV       ?V2,R2
   \   0003DC   8B..         MOV       ?V3,R3
   \   0003DE   85....       MOV       ?V0,?V2
   \   0003E1   85....       MOV       ?V1,?V3
     91            if (cursor)
   \   0003E4   E5..         MOV       A,?V0
   \   0003E6   45..         ORL       A,?V1
   \   0003E8   6006         JZ        ??test3_37
     92                return 9;
   \   0003EA   7A09         MOV       R2,#0x9
   \   0003EC   7B00         MOV       R3,#0x0
   \   0003EE   8004         SJMP      ??test3_36
     93            
     94           return test_res;
   \                     ??test3_37:
   \   0003F0   EE           MOV       A,R6
   \   0003F1   FA           MOV       R2,A
   \   0003F2   EF           MOV       A,R7
   \   0003F3   FB           MOV       R3,A
   \                     ??test3_36:
   \   0003F4   742A         MOV       A,#0x2a
   \   0003F6   12....       LCALL     ?DEALLOC_XSTACK8
   \   0003F9   7F08         MOV       R7,#0x8
   \   0003FB   02....       LJMP      ?BANKED_LEAVE_XDATA
     95          }
     96          

   \                                 In  segment BANKED_CODE, align 1, keep-with-next
     97          static int test2(void){
   \                     ??test2:
   \   000000                REQUIRE ?V0
   \   000000                REQUIRE ?V1
   \   000000                REQUIRE ?V2
   \   000000                REQUIRE ?V3
   \   000000                REQUIRE ?V4
   \   000000                REQUIRE ?V5
   \   000000                REQUIRE ?V6
   \   000000                REQUIRE ?V7
   \   000000   74F0         MOV       A,#-0x10
   \   000002   12....       LCALL     ?BANKED_ENTER_XDATA
   \   000005                ; Saved register size: 16
   \   000005                ; Auto size: 42
   \   000005   74D6         MOV       A,#-0x2a
   \   000007   12....       LCALL     ?ALLOC_XSTACK8
     98            int test_res = 0;
   \   00000A   7E00         MOV       R6,#0x0
   \   00000C   7F00         MOV       R7,#0x0
     99            
    100            struct frame* fr[20];
    101            struct frame* content;
    102            
    103            for (int i = 0; i < 20; i++){
   \   00000E   75..00       MOV       ?V0,#0x0
   \   000011   75..00       MOV       ?V1,#0x0
   \                     ??test2_4:
   \   000014   C3           CLR       C
   \   000015   E5..         MOV       A,?V0
   \   000017   9414         SUBB      A,#0x14
   \   000019   E5..         MOV       A,?V1
   \   00001B   9400         SUBB      A,#0x0
   \   00001D   A2D2         MOV       C,0xD0 /* PSW */.2
   \   00001F   65D0         XRL       A,PSW
   \   000021   33           RLC       A
   \   000022   5070         JNC       ??test2_5
    104              fr[i] = FR_create();
   \   000024                ; Setup parameters for call to function FR_create
   \   000024   12....       LCALL     `??FR_create::?relay`; Banked call to: FR_create
   \   000027   A8..         MOV       R0,?V0
   \   000029   A9..         MOV       R1,?V1
   \   00002B   E8           MOV       A,R0
   \   00002C   75F002       MOV       B,#0x2
   \   00002F   A4           MUL       AB
   \   000030   C8           XCH       A,R0
   \   000031   ACF0         MOV       R4,B
   \   000033   75F000       MOV       B,#0x0
   \   000036   A4           MUL       AB
   \   000037   2C           ADD       A,R4
   \   000038   FC           MOV       R4,A
   \   000039   75F002       MOV       B,#0x2
   \   00003C   E9           MOV       A,R1
   \   00003D   A4           MUL       AB
   \   00003E   2C           ADD       A,R4
   \   00003F   F9           MOV       R1,A
   \   000040   7402         MOV       A,#0x2
   \   000042   12....       LCALL     ?XSTACK_DISP0_8
   \   000045   E582         MOV       A,DPL
   \   000047   28           ADD       A,R0
   \   000048   F582         MOV       DPL,A
   \   00004A   E583         MOV       A,DPH
   \   00004C   39           ADDC      A,R1
   \   00004D   F583         MOV       DPH,A
   \   00004F   EA           MOV       A,R2
   \   000050   F0           MOVX      @DPTR,A
   \   000051   A3           INC       DPTR
   \   000052   EB           MOV       A,R3
   \   000053   F0           MOVX      @DPTR,A
    105              if (!BF_push_tx(fr[i]))
   \   000054                ; Setup parameters for call to function BF_push_tx
   \   000054   A8..         MOV       R0,?V0
   \   000056   A9..         MOV       R1,?V1
   \   000058   E8           MOV       A,R0
   \   000059   75F002       MOV       B,#0x2
   \   00005C   A4           MUL       AB
   \   00005D   C8           XCH       A,R0
   \   00005E   AAF0         MOV       R2,B
   \   000060   75F000       MOV       B,#0x0
   \   000063   A4           MUL       AB
   \   000064   2A           ADD       A,R2
   \   000065   FA           MOV       R2,A
   \   000066   75F002       MOV       B,#0x2
   \   000069   E9           MOV       A,R1
   \   00006A   A4           MUL       AB
   \   00006B   2A           ADD       A,R2
   \   00006C   F9           MOV       R1,A
   \   00006D   7402         MOV       A,#0x2
   \   00006F   12....       LCALL     ?XSTACK_DISP0_8
   \   000072   E582         MOV       A,DPL
   \   000074   28           ADD       A,R0
   \   000075   F582         MOV       DPL,A
   \   000077   E583         MOV       A,DPH
   \   000079   39           ADDC      A,R1
   \   00007A   F583         MOV       DPH,A
   \   00007C   E0           MOVX      A,@DPTR
   \   00007D   FA           MOV       R2,A
   \   00007E   A3           INC       DPTR
   \   00007F   E0           MOVX      A,@DPTR
   \   000080   FB           MOV       R3,A
   \   000081   12....       LCALL     `??BF_push_tx::?relay`; Banked call to: BF_push_tx
   \   000084   4004         JC        ??test2_6
    106                test_res = 1;
   \   000086   7E01         MOV       R6,#0x1
   \   000088   7F00         MOV       R7,#0x0
    107            }
   \                     ??test2_6:
   \   00008A   05..         INC       ?V0
   \   00008C   E5..         MOV       A,?V0
   \   00008E   7084         JNZ       ??test2_4
   \   000090   05..         INC       ?V1
   \   000092   8080         SJMP      ??test2_4
    108            
    109            void *cursor = BF_cursor_tx();
   \                     ??test2_5:
   \   000094                ; Setup parameters for call to function BF_cursor_tx
   \   000094   12....       LCALL     `??BF_cursor_tx::?relay`; Banked call to: BF_cursor_tx
   \   000097   8A..         MOV       ?V2,R2
   \   000099   8B..         MOV       ?V3,R3
   \   00009B   85....       MOV       ?V0,?V2
   \   00009E   85....       MOV       ?V1,?V3
    110            for (int i = 0; i <20; i++){
   \   0000A1   75..00       MOV       ?V2,#0x0
   \   0000A4   75..00       MOV       ?V3,#0x0
   \                     ??test2_7:
   \   0000A7   C3           CLR       C
   \   0000A8   E5..         MOV       A,?V2
   \   0000AA   9414         SUBB      A,#0x14
   \   0000AC   E5..         MOV       A,?V3
   \   0000AE   9400         SUBB      A,#0x0
   \   0000B0   A2D2         MOV       C,0xD0 /* PSW */.2
   \   0000B2   65D0         XRL       A,PSW
   \   0000B4   33           RLC       A
   \   0000B5   507A         JNC       ??test2_8
    111                content = BF_content(cursor);
   \   0000B7                ; Setup parameters for call to function BF_content
   \   0000B7   AA..         MOV       R2,?V0
   \   0000B9   AB..         MOV       R3,?V1
   \   0000BB   12....       LCALL     `??BF_content::?relay`; Banked call to: BF_content
   \   0000BE   85..82       MOV       DPL,?XSP + 0
   \   0000C1   85..83       MOV       DPH,?XSP + 1
   \   0000C4   EA           MOV       A,R2
   \   0000C5   F0           MOVX      @DPTR,A
   \   0000C6   A3           INC       DPTR
   \   0000C7   EB           MOV       A,R3
   \   0000C8   F0           MOVX      @DPTR,A
    112                if (content != fr[19-i])
   \   0000C9   85..82       MOV       DPL,?XSP + 0
   \   0000CC   85..83       MOV       DPH,?XSP + 1
   \   0000CF   E0           MOVX      A,@DPTR
   \   0000D0   FA           MOV       R2,A
   \   0000D1   A3           INC       DPTR
   \   0000D2   E0           MOVX      A,@DPTR
   \   0000D3   FB           MOV       R3,A
   \   0000D4   C3           CLR       C
   \   0000D5   E4           CLR       A
   \   0000D6   95..         SUBB      A,?V2
   \   0000D8   F8           MOV       R0,A
   \   0000D9   E4           CLR       A
   \   0000DA   95..         SUBB      A,?V3
   \   0000DC   F9           MOV       R1,A
   \   0000DD   E8           MOV       A,R0
   \   0000DE   75F002       MOV       B,#0x2
   \   0000E1   A4           MUL       AB
   \   0000E2   C8           XCH       A,R0
   \   0000E3   ACF0         MOV       R4,B
   \   0000E5   75F000       MOV       B,#0x0
   \   0000E8   A4           MUL       AB
   \   0000E9   2C           ADD       A,R4
   \   0000EA   FC           MOV       R4,A
   \   0000EB   75F002       MOV       B,#0x2
   \   0000EE   E9           MOV       A,R1
   \   0000EF   A4           MUL       AB
   \   0000F0   2C           ADD       A,R4
   \   0000F1   F9           MOV       R1,A
   \   0000F2   7402         MOV       A,#0x2
   \   0000F4   12....       LCALL     ?XSTACK_DISP0_8
   \   0000F7   E582         MOV       A,DPL
   \   0000F9   28           ADD       A,R0
   \   0000FA   F8           MOV       R0,A
   \   0000FB   E583         MOV       A,DPH
   \   0000FD   39           ADDC      A,R1
   \   0000FE   F9           MOV       R1,A
   \   0000FF   E8           MOV       A,R0
   \   000100   2426         ADD       A,#0x26
   \   000102   F582         MOV       DPL,A
   \   000104   E4           CLR       A
   \   000105   39           ADDC      A,R1
   \   000106   F583         MOV       DPH,A
   \   000108   E0           MOVX      A,@DPTR
   \   000109   6A           XRL       A,R2
   \   00010A   7003         JNZ       ??test2_9
   \   00010C   A3           INC       DPTR
   \   00010D   E0           MOVX      A,@DPTR
   \   00010E   6B           XRL       A,R3
   \                     ??test2_9:
   \   00010F   6004         JZ        ??test2_10
    113                  test_res = 2;
   \   000111   7E02         MOV       R6,#0x2
   \   000113   7F00         MOV       R7,#0x0
    114                cursor = BF_cursor_next(cursor);
   \                     ??test2_10:
   \   000115                ; Setup parameters for call to function BF_cursor_next
   \   000115   AA..         MOV       R2,?V0
   \   000117   AB..         MOV       R3,?V1
   \   000119   12....       LCALL     `??BF_cursor_next::?relay`; Banked call to: BF_cursor_next
   \   00011C   8A..         MOV       ?V4,R2
   \   00011E   8B..         MOV       ?V5,R3
   \   000120   85....       MOV       ?V0,?V4
   \   000123   85....       MOV       ?V1,?V5
    115            }
   \   000126   05..         INC       ?V2
   \   000128   E5..         MOV       A,?V2
   \   00012A   7002         JNZ       ??test2_11
   \   00012C   05..         INC       ?V3
   \                     ??test2_11:
   \   00012E   02....       LJMP      ??test2_7 & 0xFFFF
    116            
    117            void *del_cursor;
    118            cursor = BF_cursor_tx();
   \                     ??test2_8:
   \   000131                ; Setup parameters for call to function BF_cursor_tx
   \   000131   12....       LCALL     `??BF_cursor_tx::?relay`; Banked call to: BF_cursor_tx
   \   000134   8A..         MOV       ?V2,R2
   \   000136   8B..         MOV       ?V3,R3
   \   000138   85....       MOV       ?V0,?V2
   \   00013B   85....       MOV       ?V1,?V3
    119            for (int i = 0; i < 20; i++){
   \   00013E   75..00       MOV       ?V2,#0x0
   \   000141   75..00       MOV       ?V3,#0x0
   \                     ??test2_12:
   \   000144   C3           CLR       C
   \   000145   E5..         MOV       A,?V2
   \   000147   9414         SUBB      A,#0x14
   \   000149   E5..         MOV       A,?V3
   \   00014B   9400         SUBB      A,#0x0
   \   00014D   A2D2         MOV       C,0xD0 /* PSW */.2
   \   00014F   65D0         XRL       A,PSW
   \   000151   33           RLC       A
   \   000152   5064         JNC       ??test2_13
    120                if (!FR_delete(fr[i]))
   \   000154                ; Setup parameters for call to function FR_delete
   \   000154   A8..         MOV       R0,?V2
   \   000156   A9..         MOV       R1,?V3
   \   000158   E8           MOV       A,R0
   \   000159   75F002       MOV       B,#0x2
   \   00015C   A4           MUL       AB
   \   00015D   C8           XCH       A,R0
   \   00015E   AAF0         MOV       R2,B
   \   000160   75F000       MOV       B,#0x0
   \   000163   A4           MUL       AB
   \   000164   2A           ADD       A,R2
   \   000165   FA           MOV       R2,A
   \   000166   75F002       MOV       B,#0x2
   \   000169   E9           MOV       A,R1
   \   00016A   A4           MUL       AB
   \   00016B   2A           ADD       A,R2
   \   00016C   F9           MOV       R1,A
   \   00016D   7402         MOV       A,#0x2
   \   00016F   12....       LCALL     ?XSTACK_DISP0_8
   \   000172   E582         MOV       A,DPL
   \   000174   28           ADD       A,R0
   \   000175   F582         MOV       DPL,A
   \   000177   E583         MOV       A,DPH
   \   000179   39           ADDC      A,R1
   \   00017A   F583         MOV       DPH,A
   \   00017C   E0           MOVX      A,@DPTR
   \   00017D   FA           MOV       R2,A
   \   00017E   A3           INC       DPTR
   \   00017F   E0           MOVX      A,@DPTR
   \   000180   FB           MOV       R3,A
   \   000181   12....       LCALL     `??FR_delete::?relay`; Banked call to: FR_delete
   \   000184   4004         JC        ??test2_14
    121                  test_res = 3;
   \   000186   7E03         MOV       R6,#0x3
   \   000188   7F00         MOV       R7,#0x0
    122                del_cursor = cursor;
   \                     ??test2_14:
   \   00018A   85....       MOV       ?V6,?V0
   \   00018D   85....       MOV       ?V7,?V1
    123                cursor = BF_cursor_next(cursor);
   \   000190                ; Setup parameters for call to function BF_cursor_next
   \   000190   AA..         MOV       R2,?V0
   \   000192   AB..         MOV       R3,?V1
   \   000194   12....       LCALL     `??BF_cursor_next::?relay`; Banked call to: BF_cursor_next
   \   000197   8A..         MOV       ?V4,R2
   \   000199   8B..         MOV       ?V5,R3
   \   00019B   85....       MOV       ?V0,?V4
   \   00019E   85....       MOV       ?V1,?V5
    124                if (!BF_remove(del_cursor))
   \   0001A1                ; Setup parameters for call to function BF_remove
   \   0001A1   AA..         MOV       R2,?V6
   \   0001A3   AB..         MOV       R3,?V7
   \   0001A5   12....       LCALL     `??BF_remove::?relay`; Banked call to: BF_remove
   \   0001A8   4004         JC        ??test2_15
    125                  test_res = 4;
   \   0001AA   7E04         MOV       R6,#0x4
   \   0001AC   7F00         MOV       R7,#0x0
    126            }
   \                     ??test2_15:
   \   0001AE   05..         INC       ?V2
   \   0001B0   E5..         MOV       A,?V2
   \   0001B2   7090         JNZ       ??test2_12
   \   0001B4   05..         INC       ?V3
   \   0001B6   808C         SJMP      ??test2_12
    127            
    128            cursor = BF_cursor_tx();
   \                     ??test2_13:
   \   0001B8                ; Setup parameters for call to function BF_cursor_tx
   \   0001B8   12....       LCALL     `??BF_cursor_tx::?relay`; Banked call to: BF_cursor_tx
   \   0001BB   8A..         MOV       ?V2,R2
   \   0001BD   8B..         MOV       ?V3,R3
   \   0001BF   85....       MOV       ?V0,?V2
   \   0001C2   85....       MOV       ?V1,?V3
    129            if (cursor)
   \   0001C5   E5..         MOV       A,?V0
   \   0001C7   45..         ORL       A,?V1
   \   0001C9   6004         JZ        ??test2_16
    130                test_res =  5; 
   \   0001CB   7E05         MOV       R6,#0x5
   \   0001CD   7F00         MOV       R7,#0x0
    131            
    132            return test_res;
   \                     ??test2_16:
   \   0001CF   EE           MOV       A,R6
   \   0001D0   FA           MOV       R2,A
   \   0001D1   EF           MOV       A,R7
   \   0001D2   FB           MOV       R3,A
   \   0001D3   742A         MOV       A,#0x2a
   \   0001D5   12....       LCALL     ?DEALLOC_XSTACK8
   \   0001D8   7F08         MOV       R7,#0x8
   \   0001DA   02....       LJMP      ?BANKED_LEAVE_XDATA
    133          }
    134          

   \                                 In  segment BANKED_CODE, align 1, keep-with-next
    135          static int test1(void){
   \                     ??test1:
   \   000000                REQUIRE ?V0
   \   000000                REQUIRE ?V1
   \   000000                REQUIRE ?V2
   \   000000                REQUIRE ?V3
   \   000000                REQUIRE ?V4
   \   000000                REQUIRE ?V5
   \   000000                REQUIRE ?V6
   \   000000                REQUIRE ?V7
   \   000000   74F0         MOV       A,#-0x10
   \   000002   12....       LCALL     ?BANKED_ENTER_XDATA
   \   000005                ; Saved register size: 16
   \   000005                ; Auto size: 2
   \   000005   74FE         MOV       A,#-0x2
   \   000007   12....       LCALL     ?ALLOC_XSTACK8
    136            int test_res = 0;
   \   00000A   7E00         MOV       R6,#0x0
   \   00000C   7F00         MOV       R7,#0x0
    137            struct frame *fr = FR_create();
   \   00000E                ; Setup parameters for call to function FR_create
   \   00000E   12....       LCALL     `??FR_create::?relay`; Banked call to: FR_create
   \   000011   8A..         MOV       ?V0,R2
   \   000013   8B..         MOV       ?V1,R3
   \   000015   85....       MOV       ?V2,?V0
   \   000018   85....       MOV       ?V3,?V1
    138            
    139            if (!BF_push_tx(fr))
   \   00001B                ; Setup parameters for call to function BF_push_tx
   \   00001B   AA..         MOV       R2,?V2
   \   00001D   AB..         MOV       R3,?V3
   \   00001F   12....       LCALL     `??BF_push_tx::?relay`; Banked call to: BF_push_tx
   \   000022   4004         JC        ??test1_4
    140              test_res = 1;
   \   000024   7E01         MOV       R6,#0x1
   \   000026   7F00         MOV       R7,#0x0
    141          
    142            void *cursor = BF_cursor_tx();
   \                     ??test1_4:
   \   000028                ; Setup parameters for call to function BF_cursor_tx
   \   000028   12....       LCALL     `??BF_cursor_tx::?relay`; Banked call to: BF_cursor_tx
   \   00002B   8A..         MOV       ?V4,R2
   \   00002D   8B..         MOV       ?V5,R3
   \   00002F   85....       MOV       ?V0,?V4
   \   000032   85....       MOV       ?V1,?V5
    143            if (!cursor)
   \   000035   E5..         MOV       A,?V0
   \   000037   45..         ORL       A,?V1
   \   000039   7004         JNZ       ??test1_5
    144              test_res = 2;
   \   00003B   7E02         MOV       R6,#0x2
   \   00003D   7F00         MOV       R7,#0x0
    145            
    146            struct frame *n_fr = BF_content(cursor);
   \                     ??test1_5:
   \   00003F                ; Setup parameters for call to function BF_content
   \   00003F   AA..         MOV       R2,?V0
   \   000041   AB..         MOV       R3,?V1
   \   000043   12....       LCALL     `??BF_content::?relay`; Banked call to: BF_content
   \   000046   85..82       MOV       DPL,?XSP + 0
   \   000049   85..83       MOV       DPH,?XSP + 1
   \   00004C   EA           MOV       A,R2
   \   00004D   F0           MOVX      @DPTR,A
   \   00004E   A3           INC       DPTR
   \   00004F   EB           MOV       A,R3
   \   000050   F0           MOVX      @DPTR,A
    147            if (fr != n_fr)
   \   000051   85..82       MOV       DPL,?XSP + 0
   \   000054   85..83       MOV       DPH,?XSP + 1
   \   000057   E0           MOVX      A,@DPTR
   \   000058   F8           MOV       R0,A
   \   000059   A3           INC       DPTR
   \   00005A   E0           MOVX      A,@DPTR
   \   00005B   F9           MOV       R1,A
   \   00005C   E5..         MOV       A,?V2
   \   00005E   68           XRL       A,R0
   \   00005F   7003         JNZ       ??test1_6
   \   000061   E5..         MOV       A,?V3
   \   000063   69           XRL       A,R1
   \                     ??test1_6:
   \   000064   6004         JZ        ??test1_7
    148              test_res = 3;
   \   000066   7E03         MOV       R6,#0x3
   \   000068   7F00         MOV       R7,#0x0
    149            
    150            struct frame *fr2 = FR_create();
   \                     ??test1_7:
   \   00006A                ; Setup parameters for call to function FR_create
   \   00006A   12....       LCALL     `??FR_create::?relay`; Banked call to: FR_create
   \   00006D   8A..         MOV       ?V4,R2
   \   00006F   8B..         MOV       ?V5,R3
   \   000071   85....       MOV       ?V6,?V4
   \   000074   85....       MOV       ?V7,?V5
    151            if (!BF_push_tx(fr2))
   \   000077                ; Setup parameters for call to function BF_push_tx
   \   000077   AA..         MOV       R2,?V6
   \   000079   AB..         MOV       R3,?V7
   \   00007B   12....       LCALL     `??BF_push_tx::?relay`; Banked call to: BF_push_tx
   \   00007E   4004         JC        ??test1_8
    152              test_res = 4;
   \   000080   7E04         MOV       R6,#0x4
   \   000082   7F00         MOV       R7,#0x0
    153            
    154            cursor = BF_cursor_tx();
   \                     ??test1_8:
   \   000084                ; Setup parameters for call to function BF_cursor_tx
   \   000084   12....       LCALL     `??BF_cursor_tx::?relay`; Banked call to: BF_cursor_tx
   \   000087   8A..         MOV       ?V4,R2
   \   000089   8B..         MOV       ?V5,R3
   \   00008B   85....       MOV       ?V0,?V4
   \   00008E   85....       MOV       ?V1,?V5
    155            if (!cursor)
   \   000091   E5..         MOV       A,?V0
   \   000093   45..         ORL       A,?V1
   \   000095   7004         JNZ       ??test1_9
    156              test_res = 5;
   \   000097   7E05         MOV       R6,#0x5
   \   000099   7F00         MOV       R7,#0x0
    157            
    158            cursor = BF_cursor_next(cursor);  
   \                     ??test1_9:
   \   00009B                ; Setup parameters for call to function BF_cursor_next
   \   00009B   AA..         MOV       R2,?V0
   \   00009D   AB..         MOV       R3,?V1
   \   00009F   12....       LCALL     `??BF_cursor_next::?relay`; Banked call to: BF_cursor_next
   \   0000A2   8A..         MOV       ?V4,R2
   \   0000A4   8B..         MOV       ?V5,R3
   \   0000A6   85....       MOV       ?V0,?V4
   \   0000A9   85....       MOV       ?V1,?V5
    159            if (!cursor)
   \   0000AC   E5..         MOV       A,?V0
   \   0000AE   45..         ORL       A,?V1
   \   0000B0   7004         JNZ       ??test1_10
    160              test_res = 6;
   \   0000B2   7E06         MOV       R6,#0x6
   \   0000B4   7F00         MOV       R7,#0x0
    161              
    162            cursor = BF_cursor_tx();
   \                     ??test1_10:
   \   0000B6                ; Setup parameters for call to function BF_cursor_tx
   \   0000B6   12....       LCALL     `??BF_cursor_tx::?relay`; Banked call to: BF_cursor_tx
   \   0000B9   8A..         MOV       ?V4,R2
   \   0000BB   8B..         MOV       ?V5,R3
   \   0000BD   85....       MOV       ?V0,?V4
   \   0000C0   85....       MOV       ?V1,?V5
    163            if (!BF_remove(cursor))
   \   0000C3                ; Setup parameters for call to function BF_remove
   \   0000C3   AA..         MOV       R2,?V0
   \   0000C5   AB..         MOV       R3,?V1
   \   0000C7   12....       LCALL     `??BF_remove::?relay`; Banked call to: BF_remove
   \   0000CA   4006         JC        ??test1_11
    164                return 8;
   \   0000CC   7A08         MOV       R2,#0x8
   \   0000CE   7B00         MOV       R3,#0x0
   \   0000D0   8057         SJMP      ??test1_12
    165            
    166            cursor = BF_cursor_tx();
   \                     ??test1_11:
   \   0000D2                ; Setup parameters for call to function BF_cursor_tx
   \   0000D2   12....       LCALL     `??BF_cursor_tx::?relay`; Banked call to: BF_cursor_tx
   \   0000D5   8A..         MOV       ?V4,R2
   \   0000D7   8B..         MOV       ?V5,R3
   \   0000D9   85....       MOV       ?V0,?V4
   \   0000DC   85....       MOV       ?V1,?V5
    167            if (!BF_remove(cursor))
   \   0000DF                ; Setup parameters for call to function BF_remove
   \   0000DF   AA..         MOV       R2,?V0
   \   0000E1   AB..         MOV       R3,?V1
   \   0000E3   12....       LCALL     `??BF_remove::?relay`; Banked call to: BF_remove
   \   0000E6   4006         JC        ??test1_13
    168                return 9;
   \   0000E8   7A09         MOV       R2,#0x9
   \   0000EA   7B00         MOV       R3,#0x0
   \   0000EC   803B         SJMP      ??test1_12
    169          
    170            cursor = BF_cursor_tx();
   \                     ??test1_13:
   \   0000EE                ; Setup parameters for call to function BF_cursor_tx
   \   0000EE   12....       LCALL     `??BF_cursor_tx::?relay`; Banked call to: BF_cursor_tx
   \   0000F1   8A..         MOV       ?V4,R2
   \   0000F3   8B..         MOV       ?V5,R3
   \   0000F5   85....       MOV       ?V0,?V4
   \   0000F8   85....       MOV       ?V1,?V5
    171            if (cursor)
   \   0000FB   E5..         MOV       A,?V0
   \   0000FD   45..         ORL       A,?V1
   \   0000FF   6006         JZ        ??test1_14
    172                return 10;  
   \   000101   7A0A         MOV       R2,#0xa
   \   000103   7B00         MOV       R3,#0x0
   \   000105   8022         SJMP      ??test1_12
    173            
    174            if (!FR_delete(fr))
   \                     ??test1_14:
   \   000107                ; Setup parameters for call to function FR_delete
   \   000107   AA..         MOV       R2,?V2
   \   000109   AB..         MOV       R3,?V3
   \   00010B   12....       LCALL     `??FR_delete::?relay`; Banked call to: FR_delete
   \   00010E   4006         JC        ??test1_15
    175              return 11;
   \   000110   7A0B         MOV       R2,#0xb
   \   000112   7B00         MOV       R3,#0x0
   \   000114   8013         SJMP      ??test1_12
    176          
    177            if (!FR_delete(fr2))
   \                     ??test1_15:
   \   000116                ; Setup parameters for call to function FR_delete
   \   000116   AA..         MOV       R2,?V6
   \   000118   AB..         MOV       R3,?V7
   \   00011A   12....       LCALL     `??FR_delete::?relay`; Banked call to: FR_delete
   \   00011D   4006         JC        ??test1_16
    178              return 12;
   \   00011F   7A0C         MOV       R2,#0xc
   \   000121   7B00         MOV       R3,#0x0
   \   000123   8004         SJMP      ??test1_12
    179            
    180            return test_res;
   \                     ??test1_16:
   \   000125   EE           MOV       A,R6
   \   000126   FA           MOV       R2,A
   \   000127   EF           MOV       A,R7
   \   000128   FB           MOV       R3,A
   \                     ??test1_12:
   \   000129   7402         MOV       A,#0x2
   \   00012B   12....       LCALL     ?DEALLOC_XSTACK8
   \   00012E   7F08         MOV       R7,#0x8
   \   000130   02....       LJMP      ?BANKED_LEAVE_XDATA
    181          }
E:\WMNU\IAR_NEW_ARCH\PRJ Test\u_debug.c
      1          #include "utest.h"
      2          

   \                                 In  segment XDATA_I, align 1, keep-with-next
      3          struct test_unit UTEST_DEBUG = {.name = "DEBUG MODUL"};
   \                     UTEST_DEBUG:
   \   000000                DS 34
   \   000022                REQUIRE `?<Initializer for UTEST_DEBUG>`
   \   000022                REQUIRE __INIT_XDATA_I
      4          
      5          static void u_test(void){
      6          
      7          }
E:\WMNU\IAR_new_arch\PRJ Test\u_frame.c
      1          #include "utest.h"
      2          #include "stddef.h"
      3          #include "stdbool.h"
      4          
      5          static int test1(void);
      6          static int test2(void);
      7          static int test3(void);

   \                                 In  segment XDATA_I, align 1, keep-with-next
      8          struct test_unit UT_FR_1 = {.name = "FR:create-delete", .fun = test1};
   \                     UT_FR_1:
   \   000000                DS 34
   \   000022                REQUIRE `?<Initializer for UT_FR_1>`
   \   000022                REQUIRE __INIT_XDATA_I

   \                                 In  segment XDATA_I, align 1, keep-with-next
      9          struct test_unit UT_FR_2 = {.name = "FR:create-full", .fun = test2};
   \                     UT_FR_2:
   \   000000                DS 34
   \   000022                REQUIRE `?<Initializer for UT_FR_2>`
   \   000022                REQUIRE __INIT_XDATA_I

   \                                 In  segment XDATA_I, align 1, keep-with-next
     10          struct test_unit UT_FR_3 = {.name = "FR:header manipulation", .fun = test3};
   \                     UT_FR_3:
   \   000000                DS 34
   \   000022                REQUIRE `?<Initializer for UT_FR_3>`
   \   000022                REQUIRE __INIT_XDATA_I
     11          #include "frame.h"
     12          
     13          //struct frame* FR_create();
     14          //void FR_delete(struct frame*);
     15          //void FR_add_header(struct frame*, void *head, char len);
     16          //void FR_del_header(struct frame*, char len);
     17          //int FR_busy();
     18          //int FR_available();
     19          

   \                                 In  segment BANKED_CODE, align 1, keep-with-next
     20          static bool ch_cmp(void *dst, void *src, size_t len){
   \                     ??ch_cmp:
   \   000000   74F7         MOV       A,#-0x9
   \   000002   12....       LCALL     ?BANKED_ENTER_XDATA
   \   000005                ; Saved register size: 9
   \   000005                ; Auto size: 0
   \   000005   7409         MOV       A,#0x9
   \   000007   12....       LCALL     ?XSTACK_DISP0_8
   \   00000A   E0           MOVX      A,@DPTR
   \   00000B   F8           MOV       R0,A
   \   00000C   A3           INC       DPTR
   \   00000D   E0           MOVX      A,@DPTR
   \   00000E   F9           MOV       R1,A
     21            while (len-- > 0){
   \                     ??ch_cmp_1:
   \   00000F   E8           MOV       A,R0
   \   000010   FE           MOV       R6,A
   \   000011   E9           MOV       A,R1
   \   000012   FF           MOV       R7,A
   \   000013   EE           MOV       A,R6
   \   000014   24FF         ADD       A,#-0x1
   \   000016   F8           MOV       R0,A
   \   000017   EF           MOV       A,R7
   \   000018   34FF         ADDC      A,#-0x1
   \   00001A   F9           MOV       R1,A
   \   00001B   EE           MOV       A,R6
   \   00001C   4F           ORL       A,R7
   \   00001D   6011         JZ        ??ch_cmp_2
     22              if ( *(char*)dst != *(char*)src)
   \   00001F   8A82         MOV       DPL,R2
   \   000021   8B83         MOV       DPH,R3
   \   000023   E0           MOVX      A,@DPTR
   \   000024   FE           MOV       R6,A
   \   000025   8C82         MOV       DPL,R4
   \   000027   8D83         MOV       DPH,R5
   \   000029   E0           MOVX      A,@DPTR
   \   00002A   6E           XRL       A,R6
   \   00002B   60E2         JZ        ??ch_cmp_1
     23                return false;
   \   00002D   C3           CLR       C
   \   00002E   8001         SJMP      ??ch_cmp_3
     24            }
     25            return true;
   \                     ??ch_cmp_2:
   \   000030   D3           SETB      C
   \                     ??ch_cmp_3:
   \   000031   7F01         MOV       R7,#0x1
   \   000033   02....       LJMP      ?BANKED_LEAVE_XDATA
     26          }
     27          

   \                                 In  segment BANKED_CODE, align 1, keep-with-next
     28          static bool ch_cmp_val(void *dst, char val, size_t len){
   \                     ??ch_cmp_val:
   \   000000   74F7         MOV       A,#-0x9
   \   000002   12....       LCALL     ?BANKED_ENTER_XDATA
   \   000005                ; Saved register size: 9
   \   000005                ; Auto size: 0
     29            while (len-- > 0){
   \                     ??ch_cmp_val_1:
   \   000005   EC           MOV       A,R4
   \   000006   FE           MOV       R6,A
   \   000007   ED           MOV       A,R5
   \   000008   FF           MOV       R7,A
   \   000009   EE           MOV       A,R6
   \   00000A   24FF         ADD       A,#-0x1
   \   00000C   FC           MOV       R4,A
   \   00000D   EF           MOV       A,R7
   \   00000E   34FF         ADDC      A,#-0x1
   \   000010   FD           MOV       R5,A
   \   000011   EE           MOV       A,R6
   \   000012   4F           ORL       A,R7
   \   000013   600B         JZ        ??ch_cmp_val_2
     30              if ( *(char*)dst != val)
   \   000015   8A82         MOV       DPL,R2
   \   000017   8B83         MOV       DPH,R3
   \   000019   E0           MOVX      A,@DPTR
   \   00001A   69           XRL       A,R1
   \   00001B   60E8         JZ        ??ch_cmp_val_1
     31                return false;
   \   00001D   C3           CLR       C
   \   00001E   8001         SJMP      ??ch_cmp_val_3
     32            }
     33            return true;
   \                     ??ch_cmp_val_2:
   \   000020   D3           SETB      C
   \                     ??ch_cmp_val_3:
   \   000021   7F01         MOV       R7,#0x1
   \   000023   02....       LJMP      ?BANKED_LEAVE_XDATA
     34          }
     35          

   \                                 In  segment BANKED_CODE, align 1, keep-with-next
     36          static int test3(void){
   \                     ??test3_1:
   \   000000                REQUIRE ?V0
   \   000000                REQUIRE ?V1
   \   000000                REQUIRE ?V2
   \   000000                REQUIRE ?V3
   \   000000   74F4         MOV       A,#-0xc
   \   000002   12....       LCALL     ?BANKED_ENTER_XDATA
   \   000005                ; Saved register size: 12
   \   000005                ; Auto size: 10
   \   000005   74F6         MOV       A,#-0xa
   \   000007   12....       LCALL     ?ALLOC_XSTACK8
     37            int test_res = 0;
   \   00000A   7E00         MOV       R6,#0x0
   \   00000C   7F00         MOV       R7,#0x0
     38            struct frame *fr = FR_create();
   \   00000E                ; Setup parameters for call to function FR_create
   \   00000E   12....       LCALL     `??FR_create::?relay`; Banked call to: FR_create
   \   000011   8A..         MOV       ?V2,R2
   \   000013   8B..         MOV       ?V3,R3
   \   000015   85....       MOV       ?V0,?V2
   \   000018   85....       MOV       ?V1,?V3
     39            char hdr[10] = {1,2,3,4,5,6,7,8,9,10};
   \   00001B   90....       MOV       DPTR,#`?<Constant {1, 2, 3, 4, 5, 6, 7, 8, 9, 10}>`
   \   00001E   AC..         MOV       R4,?XSP + 0
   \   000020   AD..         MOV       R5,?XSP + 1
   \   000022   740A         MOV       A,#0xa
   \   000024   12....       LCALL     ?MOVE_LONG8_XDATA_XDATA
     40            FR_add_header(fr, hdr, sizeof(hdr));
   \   000027                ; Setup parameters for call to function FR_add_header
   \   000027   790A         MOV       R1,#0xa
   \   000029   AC..         MOV       R4,?XSP + 0
   \   00002B   AD..         MOV       R5,?XSP + 1
   \   00002D   AA..         MOV       R2,?V0
   \   00002F   AB..         MOV       R3,?V1
   \   000031   12....       LCALL     `??FR_add_header::?relay`; Banked call to: FR_add_header
     41            if (!ch_cmp(hdr, fr->payload, sizeof(hdr)))
   \   000034                ; Setup parameters for call to function ch_cmp
   \   000034   75..0A       MOV       ?V2,#0xa
   \   000037   75..00       MOV       ?V3,#0x0
   \   00003A   78..         MOV       R0,#?V2
   \   00003C   12....       LCALL     ?PUSH_XSTACK_I_TWO
   \   00003F   E5..         MOV       A,?V0
   \   000041   2415         ADD       A,#0x15
   \   000043   FC           MOV       R4,A
   \   000044   E4           CLR       A
   \   000045   35..         ADDC      A,?V1
   \   000047   FD           MOV       R5,A
   \   000048   7402         MOV       A,#0x2
   \   00004A   12....       LCALL     ?XSTACK_DISP101_8
   \   00004D   12....       LCALL     `??ch_cmp::?relay`; Banked call to: ch_cmp
   \   000050   7402         MOV       A,#0x2
   \   000052   12....       LCALL     ?DEALLOC_XSTACK8
   \   000055   4004         JC        ??test3_38
     42                test_res = 1;
   \   000057   7E01         MOV       R6,#0x1
   \   000059   7F00         MOV       R7,#0x0
     43            
     44            if (fr->len != sizeof(hdr))
   \                     ??test3_38:
   \   00005B   85..82       MOV       DPL,?V0
   \   00005E   85..83       MOV       DPH,?V1
   \   000061   E0           MOVX      A,@DPTR
   \   000062   640A         XRL       A,#0xa
   \   000064   6004         JZ        ??test3_39
     45                test_res = 2;
   \   000066   7E02         MOV       R6,#0x2
   \   000068   7F00         MOV       R7,#0x0
     46            
     47            FR_del_header(fr, 5);
   \                     ??test3_39:
   \   00006A                ; Setup parameters for call to function FR_del_header
   \   00006A   7905         MOV       R1,#0x5
   \   00006C   AA..         MOV       R2,?V0
   \   00006E   AB..         MOV       R3,?V1
   \   000070   12....       LCALL     `??FR_del_header::?relay`; Banked call to: FR_del_header
     48            if (!ch_cmp(&hdr[5], fr->payload, sizeof(hdr) - 5))
   \   000073                ; Setup parameters for call to function ch_cmp
   \   000073   75..05       MOV       ?V2,#0x5
   \   000076   75..00       MOV       ?V3,#0x0
   \   000079   78..         MOV       R0,#?V2
   \   00007B   12....       LCALL     ?PUSH_XSTACK_I_TWO
   \   00007E   E5..         MOV       A,?V0
   \   000080   2415         ADD       A,#0x15
   \   000082   FC           MOV       R4,A
   \   000083   E4           CLR       A
   \   000084   35..         ADDC      A,?V1
   \   000086   FD           MOV       R5,A
   \   000087   7407         MOV       A,#0x7
   \   000089   12....       LCALL     ?XSTACK_DISP0_8
   \   00008C   AA82         MOV       R2,DPL
   \   00008E   AB83         MOV       R3,DPH
   \   000090   12....       LCALL     `??ch_cmp::?relay`; Banked call to: ch_cmp
   \   000093   7402         MOV       A,#0x2
   \   000095   12....       LCALL     ?DEALLOC_XSTACK8
   \   000098   4004         JC        ??test3_40
     49                test_res = 3;  
   \   00009A   7E03         MOV       R6,#0x3
   \   00009C   7F00         MOV       R7,#0x0
     50            
     51            if (fr->len != sizeof(hdr) - 5)
   \                     ??test3_40:
   \   00009E   85..82       MOV       DPL,?V0
   \   0000A1   85..83       MOV       DPH,?V1
   \   0000A4   E0           MOVX      A,@DPTR
   \   0000A5   6405         XRL       A,#0x5
   \   0000A7   6004         JZ        ??test3_41
     52              test_res = 4;
   \   0000A9   7E04         MOV       R6,#0x4
   \   0000AB   7F00         MOV       R7,#0x0
     53            
     54            if (!ch_cmp_val(&fr->payload[5], 0, MAX_PAYLOAD_SIZE - 5))
   \                     ??test3_41:
   \   0000AD                ; Setup parameters for call to function ch_cmp_val
   \   0000AD   7C7A         MOV       R4,#0x7a
   \   0000AF   7D00         MOV       R5,#0x0
   \   0000B1   7900         MOV       R1,#0x0
   \   0000B3   E5..         MOV       A,?V0
   \   0000B5   241A         ADD       A,#0x1a
   \   0000B7   FA           MOV       R2,A
   \   0000B8   E4           CLR       A
   \   0000B9   35..         ADDC      A,?V1
   \   0000BB   FB           MOV       R3,A
   \   0000BC   12....       LCALL     `??ch_cmp_val::?relay`; Banked call to: ch_cmp_val
   \   0000BF   4004         JC        ??test3_42
     55              test_res = 5;  
   \   0000C1   7E05         MOV       R6,#0x5
   \   0000C3   7F00         MOV       R7,#0x0
     56            
     57            FR_del_header(fr, 5);
   \                     ??test3_42:
   \   0000C5                ; Setup parameters for call to function FR_del_header
   \   0000C5   7905         MOV       R1,#0x5
   \   0000C7   AA..         MOV       R2,?V0
   \   0000C9   AB..         MOV       R3,?V1
   \   0000CB   12....       LCALL     `??FR_del_header::?relay`; Banked call to: FR_del_header
     58            if (!ch_cmp_val(&fr->payload, 0, MAX_PAYLOAD_SIZE))
   \   0000CE                ; Setup parameters for call to function ch_cmp_val
   \   0000CE   7C7F         MOV       R4,#0x7f
   \   0000D0   7D00         MOV       R5,#0x0
   \   0000D2   7900         MOV       R1,#0x0
   \   0000D4   E5..         MOV       A,?V0
   \   0000D6   2415         ADD       A,#0x15
   \   0000D8   FA           MOV       R2,A
   \   0000D9   E4           CLR       A
   \   0000DA   35..         ADDC      A,?V1
   \   0000DC   FB           MOV       R3,A
   \   0000DD   12....       LCALL     `??ch_cmp_val::?relay`; Banked call to: ch_cmp_val
   \   0000E0   4004         JC        ??test3_43
     59              test_res = 6; 
   \   0000E2   7E06         MOV       R6,#0x6
   \   0000E4   7F00         MOV       R7,#0x0
     60            
     61            if (fr->len != 0)
   \                     ??test3_43:
   \   0000E6   85..82       MOV       DPL,?V0
   \   0000E9   85..83       MOV       DPH,?V1
   \   0000EC   E0           MOVX      A,@DPTR
   \   0000ED   6004         JZ        ??test3_44
     62                test_res = 7;
   \   0000EF   7E07         MOV       R6,#0x7
   \   0000F1   7F00         MOV       R7,#0x0
     63            
     64            if (FR_add_header(fr, hdr, 200))
   \                     ??test3_44:
   \   0000F3                ; Setup parameters for call to function FR_add_header
   \   0000F3   79C8         MOV       R1,#-0x38
   \   0000F5   AC..         MOV       R4,?XSP + 0
   \   0000F7   AD..         MOV       R5,?XSP + 1
   \   0000F9   AA..         MOV       R2,?V0
   \   0000FB   AB..         MOV       R3,?V1
   \   0000FD   12....       LCALL     `??FR_add_header::?relay`; Banked call to: FR_add_header
   \   000100   5004         JNC       ??test3_45
     65              test_res = 8;
   \   000102   7E08         MOV       R6,#0x8
   \   000104   7F00         MOV       R7,#0x0
     66           
     67            if (FR_del_header(fr, 200))
   \                     ??test3_45:
   \   000106                ; Setup parameters for call to function FR_del_header
   \   000106   79C8         MOV       R1,#-0x38
   \   000108   AA..         MOV       R2,?V0
   \   00010A   AB..         MOV       R3,?V1
   \   00010C   12....       LCALL     `??FR_del_header::?relay`; Banked call to: FR_del_header
   \   00010F   5004         JNC       ??test3_46
     68              test_res = 9;
   \   000111   7E09         MOV       R6,#0x9
   \   000113   7F00         MOV       R7,#0x0
     69            return test_res;
   \                     ??test3_46:
   \   000115   EE           MOV       A,R6
   \   000116   FA           MOV       R2,A
   \   000117   EF           MOV       A,R7
   \   000118   FB           MOV       R3,A
   \   000119   740A         MOV       A,#0xa
   \   00011B   12....       LCALL     ?DEALLOC_XSTACK8
   \   00011E   7F04         MOV       R7,#0x4
   \   000120   02....       LJMP      ?BANKED_LEAVE_XDATA
     70          }
     71          

   \                                 In  segment BANKED_CODE, align 1, keep-with-next
     72          static int test2(void){
   \                     ??test2_1:
   \   000000                REQUIRE ?V0
   \   000000                REQUIRE ?V1
   \   000000                REQUIRE ?V2
   \   000000                REQUIRE ?V3
   \   000000   74F4         MOV       A,#-0xc
   \   000002   12....       LCALL     ?BANKED_ENTER_XDATA
   \   000005                ; Saved register size: 12
   \   000005                ; Auto size: 40
   \   000005   74D8         MOV       A,#-0x28
   \   000007   12....       LCALL     ?ALLOC_XSTACK8
     73            int test_res = 0;
   \   00000A   7E00         MOV       R6,#0x0
   \   00000C   7F00         MOV       R7,#0x0
     74            struct frame* all[20];
     75            
     76            for (int i = 0; i < 20; i++)
   \   00000E   75..00       MOV       ?V0,#0x0
   \   000011   75..00       MOV       ?V1,#0x0
   \                     ??test2_17:
   \   000014   C3           CLR       C
   \   000015   E5..         MOV       A,?V0
   \   000017   9414         SUBB      A,#0x14
   \   000019   E5..         MOV       A,?V1
   \   00001B   9400         SUBB      A,#0x0
   \   00001D   A2D2         MOV       C,0xD0 /* PSW */.2
   \   00001F   65D0         XRL       A,PSW
   \   000021   33           RLC       A
   \   000022   503B         JNC       ??test2_18
     77              all[i] = FR_create();
   \   000024                ; Setup parameters for call to function FR_create
   \   000024   12....       LCALL     `??FR_create::?relay`; Banked call to: FR_create
   \   000027   A8..         MOV       R0,?V0
   \   000029   A9..         MOV       R1,?V1
   \   00002B   E8           MOV       A,R0
   \   00002C   75F002       MOV       B,#0x2
   \   00002F   A4           MUL       AB
   \   000030   C8           XCH       A,R0
   \   000031   ACF0         MOV       R4,B
   \   000033   75F000       MOV       B,#0x0
   \   000036   A4           MUL       AB
   \   000037   2C           ADD       A,R4
   \   000038   FC           MOV       R4,A
   \   000039   75F002       MOV       B,#0x2
   \   00003C   E9           MOV       A,R1
   \   00003D   A4           MUL       AB
   \   00003E   2C           ADD       A,R4
   \   00003F   F9           MOV       R1,A
   \   000040   85..82       MOV       DPL,?XSP + 0
   \   000043   85..83       MOV       DPH,?XSP + 1
   \   000046   E582         MOV       A,DPL
   \   000048   28           ADD       A,R0
   \   000049   F582         MOV       DPL,A
   \   00004B   E583         MOV       A,DPH
   \   00004D   39           ADDC      A,R1
   \   00004E   F583         MOV       DPH,A
   \   000050   EA           MOV       A,R2
   \   000051   F0           MOVX      @DPTR,A
   \   000052   A3           INC       DPTR
   \   000053   EB           MOV       A,R3
   \   000054   F0           MOVX      @DPTR,A
   \   000055   05..         INC       ?V0
   \   000057   E5..         MOV       A,?V0
   \   000059   70B9         JNZ       ??test2_17
   \   00005B   05..         INC       ?V1
   \   00005D   80B5         SJMP      ??test2_17
     78          
     79          // Нету NULL  
     80            for(int i = 0; i < 20; i++)
   \                     ??test2_18:
   \   00005F   7800         MOV       R0,#0x0
   \   000061   7900         MOV       R1,#0x0
   \                     ??test2_19:
   \   000063   C3           CLR       C
   \   000064   E8           MOV       A,R0
   \   000065   9414         SUBB      A,#0x14
   \   000067   E9           MOV       A,R1
   \   000068   9400         SUBB      A,#0x0
   \   00006A   A2D2         MOV       C,0xD0 /* PSW */.2
   \   00006C   65D0         XRL       A,PSW
   \   00006E   33           RLC       A
   \   00006F   503D         JNC       ??test2_20
     81              if (all[i] == NULL)
   \   000071   E8           MOV       A,R0
   \   000072   FA           MOV       R2,A
   \   000073   E9           MOV       A,R1
   \   000074   FB           MOV       R3,A
   \   000075   EA           MOV       A,R2
   \   000076   75F002       MOV       B,#0x2
   \   000079   A4           MUL       AB
   \   00007A   CA           XCH       A,R2
   \   00007B   ACF0         MOV       R4,B
   \   00007D   75F000       MOV       B,#0x0
   \   000080   A4           MUL       AB
   \   000081   2C           ADD       A,R4
   \   000082   FC           MOV       R4,A
   \   000083   75F002       MOV       B,#0x2
   \   000086   EB           MOV       A,R3
   \   000087   A4           MUL       AB
   \   000088   2C           ADD       A,R4
   \   000089   FB           MOV       R3,A
   \   00008A   85..82       MOV       DPL,?XSP + 0
   \   00008D   85..83       MOV       DPH,?XSP + 1
   \   000090   E582         MOV       A,DPL
   \   000092   2A           ADD       A,R2
   \   000093   F582         MOV       DPL,A
   \   000095   E583         MOV       A,DPH
   \   000097   3B           ADDC      A,R3
   \   000098   F583         MOV       DPH,A
   \   00009A   E0           MOVX      A,@DPTR
   \   00009B   FA           MOV       R2,A
   \   00009C   A3           INC       DPTR
   \   00009D   E0           MOVX      A,@DPTR
   \   00009E   FB           MOV       R3,A
   \   00009F   EA           MOV       A,R2
   \   0000A0   4B           ORL       A,R3
   \   0000A1   7004         JNZ       ??test2_21
     82                test_res = 1;
   \   0000A3   7E01         MOV       R6,#0x1
   \   0000A5   7F00         MOV       R7,#0x0
   \                     ??test2_21:
   \   0000A7   08           INC       R0
   \   0000A8   E8           MOV       A,R0
   \   0000A9   70B8         JNZ       ??test2_19
   \   0000AB   09           INC       R1
   \   0000AC   80B5         SJMP      ??test2_19
     83          
     84          // Все слоты должны быть разные 
     85            for(int i = 1; i < 20; i++)
   \                     ??test2_20:
   \   0000AE   7801         MOV       R0,#0x1
   \   0000B0   7900         MOV       R1,#0x0
   \                     ??test2_22:
   \   0000B2   C3           CLR       C
   \   0000B3   E8           MOV       A,R0
   \   0000B4   9414         SUBB      A,#0x14
   \   0000B6   E9           MOV       A,R1
   \   0000B7   9400         SUBB      A,#0x0
   \   0000B9   A2D2         MOV       C,0xD0 /* PSW */.2
   \   0000BB   65D0         XRL       A,PSW
   \   0000BD   33           RLC       A
   \   0000BE   5078         JNC       ??test2_23
     86              if (all[i] == all[i - 1])
   \   0000C0   E8           MOV       A,R0
   \   0000C1   FA           MOV       R2,A
   \   0000C2   E9           MOV       A,R1
   \   0000C3   FB           MOV       R3,A
   \   0000C4   EA           MOV       A,R2
   \   0000C5   75F002       MOV       B,#0x2
   \   0000C8   A4           MUL       AB
   \   0000C9   CA           XCH       A,R2
   \   0000CA   ACF0         MOV       R4,B
   \   0000CC   75F000       MOV       B,#0x0
   \   0000CF   A4           MUL       AB
   \   0000D0   2C           ADD       A,R4
   \   0000D1   FC           MOV       R4,A
   \   0000D2   75F002       MOV       B,#0x2
   \   0000D5   EB           MOV       A,R3
   \   0000D6   A4           MUL       AB
   \   0000D7   2C           ADD       A,R4
   \   0000D8   FB           MOV       R3,A
   \   0000D9   85..82       MOV       DPL,?XSP + 0
   \   0000DC   85..83       MOV       DPH,?XSP + 1
   \   0000DF   E582         MOV       A,DPL
   \   0000E1   2A           ADD       A,R2
   \   0000E2   F582         MOV       DPL,A
   \   0000E4   E583         MOV       A,DPH
   \   0000E6   3B           ADDC      A,R3
   \   0000E7   F583         MOV       DPH,A
   \   0000E9   E0           MOVX      A,@DPTR
   \   0000EA   FC           MOV       R4,A
   \   0000EB   A3           INC       DPTR
   \   0000EC   E0           MOVX      A,@DPTR
   \   0000ED   FD           MOV       R5,A
   \   0000EE   E8           MOV       A,R0
   \   0000EF   FA           MOV       R2,A
   \   0000F0   E9           MOV       A,R1
   \   0000F1   FB           MOV       R3,A
   \   0000F2   EA           MOV       A,R2
   \   0000F3   75F002       MOV       B,#0x2
   \   0000F6   A4           MUL       AB
   \   0000F7   CA           XCH       A,R2
   \   0000F8   85F0..       MOV       ?V0,B
   \   0000FB   75F000       MOV       B,#0x0
   \   0000FE   A4           MUL       AB
   \   0000FF   25..         ADD       A,?V0
   \   000101   F5..         MOV       ?V0,A
   \   000103   75F002       MOV       B,#0x2
   \   000106   EB           MOV       A,R3
   \   000107   A4           MUL       AB
   \   000108   25..         ADD       A,?V0
   \   00010A   FB           MOV       R3,A
   \   00010B   85..82       MOV       DPL,?XSP + 0
   \   00010E   85..83       MOV       DPH,?XSP + 1
   \   000111   E582         MOV       A,DPL
   \   000113   2A           ADD       A,R2
   \   000114   FA           MOV       R2,A
   \   000115   E583         MOV       A,DPH
   \   000117   3B           ADDC      A,R3
   \   000118   FB           MOV       R3,A
   \   000119   EA           MOV       A,R2
   \   00011A   24FE         ADD       A,#-0x2
   \   00011C   F582         MOV       DPL,A
   \   00011E   EB           MOV       A,R3
   \   00011F   34FF         ADDC      A,#-0x1
   \   000121   F583         MOV       DPH,A
   \   000123   E0           MOVX      A,@DPTR
   \   000124   6C           XRL       A,R4
   \   000125   7003         JNZ       ??test2_24
   \   000127   A3           INC       DPTR
   \   000128   E0           MOVX      A,@DPTR
   \   000129   6D           XRL       A,R5
   \                     ??test2_24:
   \   00012A   7004         JNZ       ??test2_25
     87                test_res = 2;   
   \   00012C   7E02         MOV       R6,#0x2
   \   00012E   7F00         MOV       R7,#0x0
   \                     ??test2_25:
   \   000130   08           INC       R0
   \   000131   E8           MOV       A,R0
   \   000132   7001         JNZ       ??test2_26
   \   000134   09           INC       R1
   \                     ??test2_26:
   \   000135   02....       LJMP      ??test2_22 & 0xFFFF
     88            
     89            if (FR_busy() != 20)
   \                     ??test2_23:
   \   000138                ; Setup parameters for call to function FR_busy
   \   000138   12....       LCALL     `??FR_busy::?relay`; Banked call to: FR_busy
   \   00013B   8A..         MOV       ?V0,R2
   \   00013D   8B..         MOV       ?V1,R3
   \   00013F   7414         MOV       A,#0x14
   \   000141   65..         XRL       A,?V0
   \   000143   7004         JNZ       ??test2_27
   \   000145   7400         MOV       A,#0x0
   \   000147   65..         XRL       A,?V1
   \                     ??test2_27:
   \   000149   6004         JZ        ??test2_28
     90              test_res = 3;
   \   00014B   7E03         MOV       R6,#0x3
   \   00014D   7F00         MOV       R7,#0x0
     91            
     92            if (FR_available() != 0)
   \                     ??test2_28:
   \   00014F                ; Setup parameters for call to function FR_available
   \   00014F   12....       LCALL     `??FR_available::?relay`; Banked call to: FR_available
   \   000152   8A..         MOV       ?V0,R2
   \   000154   8B..         MOV       ?V1,R3
   \   000156   E5..         MOV       A,?V0
   \   000158   45..         ORL       A,?V1
   \   00015A   6004         JZ        ??test2_29
     93              test_res = 4;
   \   00015C   7E04         MOV       R6,#0x4
   \   00015E   7F00         MOV       R7,#0x0
     94           
     95            // Выделяемм еще один. он должен быть NULL
     96            struct frame* fr = FR_create();
   \                     ??test2_29:
   \   000160                ; Setup parameters for call to function FR_create
   \   000160   12....       LCALL     `??FR_create::?relay`; Banked call to: FR_create
   \   000163   8A..         MOV       ?V0,R2
   \   000165   8B..         MOV       ?V1,R3
   \   000167   85....       MOV       ?V2,?V0
   \   00016A   85....       MOV       ?V3,?V1
     97            if (fr)
   \   00016D   E5..         MOV       A,?V2
   \   00016F   45..         ORL       A,?V3
   \   000171   6004         JZ        ??test2_30
     98              test_res = 5;
   \   000173   7E05         MOV       R6,#0x5
   \   000175   7F00         MOV       R7,#0x0
     99            
    100             if (FR_busy() != 20)
   \                     ??test2_30:
   \   000177                ; Setup parameters for call to function FR_busy
   \   000177   12....       LCALL     `??FR_busy::?relay`; Banked call to: FR_busy
   \   00017A   8A..         MOV       ?V0,R2
   \   00017C   8B..         MOV       ?V1,R3
   \   00017E   7414         MOV       A,#0x14
   \   000180   65..         XRL       A,?V0
   \   000182   7004         JNZ       ??test2_31
   \   000184   7400         MOV       A,#0x0
   \   000186   65..         XRL       A,?V1
   \                     ??test2_31:
   \   000188   6004         JZ        ??test2_32
    101              test_res = 6;
   \   00018A   7E06         MOV       R6,#0x6
   \   00018C   7F00         MOV       R7,#0x0
    102            
    103            if (FR_available() != 0)
   \                     ??test2_32:
   \   00018E                ; Setup parameters for call to function FR_available
   \   00018E   12....       LCALL     `??FR_available::?relay`; Banked call to: FR_available
   \   000191   8A..         MOV       ?V0,R2
   \   000193   8B..         MOV       ?V1,R3
   \   000195   E5..         MOV       A,?V0
   \   000197   45..         ORL       A,?V1
   \   000199   6004         JZ        ??test2_33
    104              test_res = 7; 
   \   00019B   7E07         MOV       R6,#0x7
   \   00019D   7F00         MOV       R7,#0x0
    105            
    106          // Удаляем все что создали и контролим результат
    107            for (int i = 0; i < 20; i++)
   \                     ??test2_33:
   \   00019F   75..00       MOV       ?V0,#0x0
   \   0001A2   75..00       MOV       ?V1,#0x0
   \                     ??test2_34:
   \   0001A5   C3           CLR       C
   \   0001A6   E5..         MOV       A,?V0
   \   0001A8   9414         SUBB      A,#0x14
   \   0001AA   E5..         MOV       A,?V1
   \   0001AC   9400         SUBB      A,#0x0
   \   0001AE   A2D2         MOV       C,0xD0 /* PSW */.2
   \   0001B0   65D0         XRL       A,PSW
   \   0001B2   33           RLC       A
   \   0001B3   5041         JNC       ??test2_35
    108              if (!FR_delete(all[i]))
   \   0001B5                ; Setup parameters for call to function FR_delete
   \   0001B5   A8..         MOV       R0,?V0
   \   0001B7   A9..         MOV       R1,?V1
   \   0001B9   E8           MOV       A,R0
   \   0001BA   75F002       MOV       B,#0x2
   \   0001BD   A4           MUL       AB
   \   0001BE   C8           XCH       A,R0
   \   0001BF   AAF0         MOV       R2,B
   \   0001C1   75F000       MOV       B,#0x0
   \   0001C4   A4           MUL       AB
   \   0001C5   2A           ADD       A,R2
   \   0001C6   FA           MOV       R2,A
   \   0001C7   75F002       MOV       B,#0x2
   \   0001CA   E9           MOV       A,R1
   \   0001CB   A4           MUL       AB
   \   0001CC   2A           ADD       A,R2
   \   0001CD   F9           MOV       R1,A
   \   0001CE   85..82       MOV       DPL,?XSP + 0
   \   0001D1   85..83       MOV       DPH,?XSP + 1
   \   0001D4   E582         MOV       A,DPL
   \   0001D6   28           ADD       A,R0
   \   0001D7   F582         MOV       DPL,A
   \   0001D9   E583         MOV       A,DPH
   \   0001DB   39           ADDC      A,R1
   \   0001DC   F583         MOV       DPH,A
   \   0001DE   E0           MOVX      A,@DPTR
   \   0001DF   FA           MOV       R2,A
   \   0001E0   A3           INC       DPTR
   \   0001E1   E0           MOVX      A,@DPTR
   \   0001E2   FB           MOV       R3,A
   \   0001E3   12....       LCALL     `??FR_delete::?relay`; Banked call to: FR_delete
   \   0001E6   4004         JC        ??test2_36
    109                test_res = 8;   
   \   0001E8   7E08         MOV       R6,#0x8
   \   0001EA   7F00         MOV       R7,#0x0
   \                     ??test2_36:
   \   0001EC   05..         INC       ?V0
   \   0001EE   E5..         MOV       A,?V0
   \   0001F0   70B3         JNZ       ??test2_34
   \   0001F2   05..         INC       ?V1
   \   0001F4   80AF         SJMP      ??test2_34
    110          
    111             if (FR_busy() != 0)
   \                     ??test2_35:
   \   0001F6                ; Setup parameters for call to function FR_busy
   \   0001F6   12....       LCALL     `??FR_busy::?relay`; Banked call to: FR_busy
   \   0001F9   8A..         MOV       ?V0,R2
   \   0001FB   8B..         MOV       ?V1,R3
   \   0001FD   E5..         MOV       A,?V0
   \   0001FF   45..         ORL       A,?V1
   \   000201   6004         JZ        ??test2_37
    112              test_res = 9;
   \   000203   7E09         MOV       R6,#0x9
   \   000205   7F00         MOV       R7,#0x0
    113            
    114            if (FR_available() != 20)
   \                     ??test2_37:
   \   000207                ; Setup parameters for call to function FR_available
   \   000207   12....       LCALL     `??FR_available::?relay`; Banked call to: FR_available
   \   00020A   8A..         MOV       ?V0,R2
   \   00020C   8B..         MOV       ?V1,R3
   \   00020E   7414         MOV       A,#0x14
   \   000210   65..         XRL       A,?V0
   \   000212   7004         JNZ       ??test2_38
   \   000214   7400         MOV       A,#0x0
   \   000216   65..         XRL       A,?V1
   \                     ??test2_38:
   \   000218   6004         JZ        ??test2_39
    115              test_res = 10;  
   \   00021A   7E0A         MOV       R6,#0xa
   \   00021C   7F00         MOV       R7,#0x0
    116            
    117          // Еще разок пробуем все удалить 
    118            for (int i = 0; i < 20; i++)
   \                     ??test2_39:
   \   00021E   75..00       MOV       ?V0,#0x0
   \   000221   75..00       MOV       ?V1,#0x0
   \                     ??test2_40:
   \   000224   C3           CLR       C
   \   000225   E5..         MOV       A,?V0
   \   000227   9414         SUBB      A,#0x14
   \   000229   E5..         MOV       A,?V1
   \   00022B   9400         SUBB      A,#0x0
   \   00022D   A2D2         MOV       C,0xD0 /* PSW */.2
   \   00022F   65D0         XRL       A,PSW
   \   000231   33           RLC       A
   \   000232   5041         JNC       ??test2_41
    119              if (FR_delete(all[i]))
   \   000234                ; Setup parameters for call to function FR_delete
   \   000234   A8..         MOV       R0,?V0
   \   000236   A9..         MOV       R1,?V1
   \   000238   E8           MOV       A,R0
   \   000239   75F002       MOV       B,#0x2
   \   00023C   A4           MUL       AB
   \   00023D   C8           XCH       A,R0
   \   00023E   AAF0         MOV       R2,B
   \   000240   75F000       MOV       B,#0x0
   \   000243   A4           MUL       AB
   \   000244   2A           ADD       A,R2
   \   000245   FA           MOV       R2,A
   \   000246   75F002       MOV       B,#0x2
   \   000249   E9           MOV       A,R1
   \   00024A   A4           MUL       AB
   \   00024B   2A           ADD       A,R2
   \   00024C   F9           MOV       R1,A
   \   00024D   85..82       MOV       DPL,?XSP + 0
   \   000250   85..83       MOV       DPH,?XSP + 1
   \   000253   E582         MOV       A,DPL
   \   000255   28           ADD       A,R0
   \   000256   F582         MOV       DPL,A
   \   000258   E583         MOV       A,DPH
   \   00025A   39           ADDC      A,R1
   \   00025B   F583         MOV       DPH,A
   \   00025D   E0           MOVX      A,@DPTR
   \   00025E   FA           MOV       R2,A
   \   00025F   A3           INC       DPTR
   \   000260   E0           MOVX      A,@DPTR
   \   000261   FB           MOV       R3,A
   \   000262   12....       LCALL     `??FR_delete::?relay`; Banked call to: FR_delete
   \   000265   5004         JNC       ??test2_42
    120                test_res = 11; 
   \   000267   7E0B         MOV       R6,#0xb
   \   000269   7F00         MOV       R7,#0x0
   \                     ??test2_42:
   \   00026B   05..         INC       ?V0
   \   00026D   E5..         MOV       A,?V0
   \   00026F   70B3         JNZ       ??test2_40
   \   000271   05..         INC       ?V1
   \   000273   80AF         SJMP      ??test2_40
    121            
    122             if (FR_busy() != 0)
   \                     ??test2_41:
   \   000275                ; Setup parameters for call to function FR_busy
   \   000275   12....       LCALL     `??FR_busy::?relay`; Banked call to: FR_busy
   \   000278   8A..         MOV       ?V0,R2
   \   00027A   8B..         MOV       ?V1,R3
   \   00027C   E5..         MOV       A,?V0
   \   00027E   45..         ORL       A,?V1
   \   000280   6004         JZ        ??test2_43
    123              test_res = 12;
   \   000282   7E0C         MOV       R6,#0xc
   \   000284   7F00         MOV       R7,#0x0
    124            
    125            if (FR_available() != 20)
   \                     ??test2_43:
   \   000286                ; Setup parameters for call to function FR_available
   \   000286   12....       LCALL     `??FR_available::?relay`; Banked call to: FR_available
   \   000289   8A..         MOV       ?V0,R2
   \   00028B   8B..         MOV       ?V1,R3
   \   00028D   7414         MOV       A,#0x14
   \   00028F   65..         XRL       A,?V0
   \   000291   7004         JNZ       ??test2_44
   \   000293   7400         MOV       A,#0x0
   \   000295   65..         XRL       A,?V1
   \                     ??test2_44:
   \   000297   6004         JZ        ??test2_45
    126              test_res = 13;
   \   000299   7E0D         MOV       R6,#0xd
   \   00029B   7F00         MOV       R7,#0x0
    127            
    128            return test_res;
   \                     ??test2_45:
   \   00029D   EE           MOV       A,R6
   \   00029E   FA           MOV       R2,A
   \   00029F   EF           MOV       A,R7
   \   0002A0   FB           MOV       R3,A
   \   0002A1   7428         MOV       A,#0x28
   \   0002A3   12....       LCALL     ?DEALLOC_XSTACK8
   \   0002A6   7F04         MOV       R7,#0x4
   \   0002A8   02....       LJMP      ?BANKED_LEAVE_XDATA
    129          }
    130          

   \                                 In  segment BANKED_CODE, align 1, keep-with-next
    131          static int test1(void){
   \                     ??test1_1:
   \   000000                REQUIRE ?V0
   \   000000                REQUIRE ?V1
   \   000000                REQUIRE ?V2
   \   000000                REQUIRE ?V3
   \   000000   74F4         MOV       A,#-0xc
   \   000002   12....       LCALL     ?BANKED_ENTER_XDATA
   \   000005                ; Saved register size: 12
   \   000005                ; Auto size: 0
    132            int test_res = 0;
   \   000005   7E00         MOV       R6,#0x0
   \   000007   7F00         MOV       R7,#0x0
    133            
    134            if (FR_busy() != 0)
   \   000009                ; Setup parameters for call to function FR_busy
   \   000009   12....       LCALL     `??FR_busy::?relay`; Banked call to: FR_busy
   \   00000C   8A..         MOV       ?V0,R2
   \   00000E   8B..         MOV       ?V1,R3
   \   000010   E5..         MOV       A,?V0
   \   000012   45..         ORL       A,?V1
   \   000014   6004         JZ        ??test1_17
    135              test_res = 1;
   \   000016   7E01         MOV       R6,#0x1
   \   000018   7F00         MOV       R7,#0x0
    136            
    137            if (FR_available() != 20)
   \                     ??test1_17:
   \   00001A                ; Setup parameters for call to function FR_available
   \   00001A   12....       LCALL     `??FR_available::?relay`; Banked call to: FR_available
   \   00001D   8A..         MOV       ?V0,R2
   \   00001F   8B..         MOV       ?V1,R3
   \   000021   7414         MOV       A,#0x14
   \   000023   65..         XRL       A,?V0
   \   000025   7004         JNZ       ??test1_18
   \   000027   7400         MOV       A,#0x0
   \   000029   65..         XRL       A,?V1
   \                     ??test1_18:
   \   00002B   6004         JZ        ??test1_19
    138              test_res = 2;
   \   00002D   7E02         MOV       R6,#0x2
   \   00002F   7F00         MOV       R7,#0x0
    139            
    140            struct frame *fr = FR_create();
   \                     ??test1_19:
   \   000031                ; Setup parameters for call to function FR_create
   \   000031   12....       LCALL     `??FR_create::?relay`; Banked call to: FR_create
   \   000034   8A..         MOV       ?V2,R2
   \   000036   8B..         MOV       ?V3,R3
   \   000038   85....       MOV       ?V0,?V2
   \   00003B   85....       MOV       ?V1,?V3
    141            
    142            if (!fr)
   \   00003E   E5..         MOV       A,?V0
   \   000040   45..         ORL       A,?V1
   \   000042   7004         JNZ       ??test1_20
    143              test_res = 3;
   \   000044   7E03         MOV       R6,#0x3
   \   000046   7F00         MOV       R7,#0x0
    144            
    145            if (FR_busy() != 1)
   \                     ??test1_20:
   \   000048                ; Setup parameters for call to function FR_busy
   \   000048   12....       LCALL     `??FR_busy::?relay`; Banked call to: FR_busy
   \   00004B   8A..         MOV       ?V2,R2
   \   00004D   8B..         MOV       ?V3,R3
   \   00004F   7401         MOV       A,#0x1
   \   000051   65..         XRL       A,?V2
   \   000053   7004         JNZ       ??test1_21
   \   000055   7400         MOV       A,#0x0
   \   000057   65..         XRL       A,?V3
   \                     ??test1_21:
   \   000059   6004         JZ        ??test1_22
    146              test_res = 4;
   \   00005B   7E04         MOV       R6,#0x4
   \   00005D   7F00         MOV       R7,#0x0
    147            
    148            if (FR_available() != 19)
   \                     ??test1_22:
   \   00005F                ; Setup parameters for call to function FR_available
   \   00005F   12....       LCALL     `??FR_available::?relay`; Banked call to: FR_available
   \   000062   8A..         MOV       ?V2,R2
   \   000064   8B..         MOV       ?V3,R3
   \   000066   7413         MOV       A,#0x13
   \   000068   65..         XRL       A,?V2
   \   00006A   7004         JNZ       ??test1_23
   \   00006C   7400         MOV       A,#0x0
   \   00006E   65..         XRL       A,?V3
   \                     ??test1_23:
   \   000070   6004         JZ        ??test1_24
    149              test_res = 5;  
   \   000072   7E05         MOV       R6,#0x5
   \   000074   7F00         MOV       R7,#0x0
    150            
    151            if (!FR_delete(fr))
   \                     ??test1_24:
   \   000076                ; Setup parameters for call to function FR_delete
   \   000076   AA..         MOV       R2,?V0
   \   000078   AB..         MOV       R3,?V1
   \   00007A   12....       LCALL     `??FR_delete::?relay`; Banked call to: FR_delete
   \   00007D   4004         JC        ??test1_25
    152              test_res = 6;
   \   00007F   7E06         MOV       R6,#0x6
   \   000081   7F00         MOV       R7,#0x0
    153            
    154            if (FR_busy() != 0)
   \                     ??test1_25:
   \   000083                ; Setup parameters for call to function FR_busy
   \   000083   12....       LCALL     `??FR_busy::?relay`; Banked call to: FR_busy
   \   000086   8A..         MOV       ?V2,R2
   \   000088   8B..         MOV       ?V3,R3
   \   00008A   E5..         MOV       A,?V2
   \   00008C   45..         ORL       A,?V3
   \   00008E   6004         JZ        ??test1_26
    155              test_res = 7;
   \   000090   7E07         MOV       R6,#0x7
   \   000092   7F00         MOV       R7,#0x0
    156            
    157            if (FR_available() != 20)
   \                     ??test1_26:
   \   000094                ; Setup parameters for call to function FR_available
   \   000094   12....       LCALL     `??FR_available::?relay`; Banked call to: FR_available
   \   000097   8A..         MOV       ?V2,R2
   \   000099   8B..         MOV       ?V3,R3
   \   00009B   7414         MOV       A,#0x14
   \   00009D   65..         XRL       A,?V2
   \   00009F   7004         JNZ       ??test1_27
   \   0000A1   7400         MOV       A,#0x0
   \   0000A3   65..         XRL       A,?V3
   \                     ??test1_27:
   \   0000A5   6004         JZ        ??test1_28
    158              test_res = 8;   
   \   0000A7   7E08         MOV       R6,#0x8
   \   0000A9   7F00         MOV       R7,#0x0
    159            
    160            return test_res;
   \                     ??test1_28:
   \   0000AB   EE           MOV       A,R6
   \   0000AC   FA           MOV       R2,A
   \   0000AD   EF           MOV       A,R7
   \   0000AE   FB           MOV       R3,A
   \   0000AF   7F04         MOV       R7,#0x4
   \   0000B1   02....       LJMP      ?BANKED_LEAVE_XDATA
    161          }
E:\WMNU\IAR_NEW_ARCH\PRJ Test\u_macros.c
      1          #include "utest.h"
      2          static int test1(void);
      3          static int test2(void);

   \                                 In  segment XDATA_I, align 1, keep-with-next
      4          struct test_unit UT_MACR_1 = {.name = "MACROS: EXCEPTIOS", .fun = test1};
   \                     UT_MACR_1:
   \   000000                DS 34
   \   000022                REQUIRE `?<Initializer for UT_MACR_1>`
   \   000022                REQUIRE __INIT_XDATA_I

   \                                 In  segment XDATA_I, align 1, keep-with-next
      5          struct test_unit UT_MACR_2 = {.name = "MACROS: EXCEPTIOS", .fun = test2};
   \                     UT_MACR_2:
   \   000000                DS 34
   \   000022                REQUIRE `?<Initializer for UT_MACR_2>`
   \   000022                REQUIRE __INIT_XDATA_I
      6          
      7          
      8          #include "stdint.h"
      9          #include "macros.h"
     10          #include "stdbool.h"
     11          

   \                                 In  segment BANKED_CODE, align 1, keep-with-next
     12          static int test2(void){
   \                     ??test2_2:
   \   000000                REQUIRE ?V0
   \   000000                REQUIRE ?V1
   \   000000   74F6         MOV       A,#-0xa
   \   000002   12....       LCALL     ?BANKED_ENTER_XDATA
   \   000005                ; Saved register size: 10
   \   000005                ; Auto size: 49
   \   000005   74CF         MOV       A,#-0x31
   \   000007   12....       LCALL     ?ALLOC_XSTACK8
     13            bool catched = false;
   \   00000A   C2..         CLR       ?VB.0
     14            bool finalyed = false;
   \   00000C   C2..         CLR       ?VB.1
     15            bool noexe = true;
   \   00000E   D2..         SETB      ?VB.2
     16            
     17            TRY{
   \   000010   85..82       MOV       DPL,?XSP + 0
   \   000013   85..83       MOV       DPH,?XSP + 1
   \   000016   7408         MOV       A,#0x8
   \   000018                REQUIRE ?V7
   \   000018   12....       LCALL     ?SETJMP_XDATA
   \   00001B   8A..         MOV       ?V0,R2
   \   00001D   8B..         MOV       ?V1,R3
   \   00001F   78..         MOV       R0,#?V0
   \   000021   12....       LCALL     ?US_SWITCH_DENSE
   \                     `?<Jumptable for test2>_0`:
   \   000024   0000         DW        0
   \   000026   01           DB        1
   \   000027   ....         DW        ??test2_46
   \   000029   ....         DW        ??test2_47
   \   00002B   ....         DW        ??test2_48
     18              THROW(2);
   \                     ??test2_47:
   \   00002D   7A02         MOV       R2,#0x2
   \   00002F   7B00         MOV       R3,#0x0
   \   000031   85..82       MOV       DPL,?XSP + 0
   \   000034   85..83       MOV       DPH,?XSP + 1
   \   000037   7408         MOV       A,#0x8
   \   000039                REQUIRE ?V7
   \   000039   02....       LJMP      ?LONGJMP_XDATA
     19              noexe = false;
                     ^
Warning[Pe111]: statement is unreachable
          detected during compilation of secondary translation unit
                    "E:\WMNU\IAR_NEW_ARCH\PRJ Test\u_macros.c"
     20            }
     21            CATCH(1){
     22              catched = true;
   \                     ??test2_48:
   \   00003C   D2..         SETB      ?VB.0
     23            }
     24            FINALLY{
     25              finalyed = true;
   \                     ??test2_46:
   \   00003E   D2..         SETB      ?VB.1
     26            }
     27            ETRY;  
     28            
     29            if (!noexe)
   \   000040   A2..         MOV       C,?VB.2
   \   000042   4006         JC        ??test2_49
     30              return 1;
   \   000044   7A01         MOV       R2,#0x1
   \   000046   7B00         MOV       R3,#0x0
   \   000048   8018         SJMP      ??test2_50
     31          
     32            if (catched)
   \                     ??test2_49:
   \   00004A   A2..         MOV       C,?VB.0
   \   00004C   5006         JNC       ??test2_51
     33              return 2;  
   \   00004E   7A02         MOV       R2,#0x2
   \   000050   7B00         MOV       R3,#0x0
   \   000052   800E         SJMP      ??test2_50
     34          
     35            if (!finalyed)
   \                     ??test2_51:
   \   000054   A2..         MOV       C,?VB.1
   \   000056   4006         JC        ??test2_52
     36              return 3;
   \   000058   7A03         MOV       R2,#0x3
   \   00005A   7B00         MOV       R3,#0x0
   \   00005C   8004         SJMP      ??test2_50
     37              
     38            return 0;
   \                     ??test2_52:
   \   00005E   7A00         MOV       R2,#0x0
   \   000060   7B00         MOV       R3,#0x0
   \                     ??test2_50:
   \   000062   7431         MOV       A,#0x31
   \   000064   12....       LCALL     ?DEALLOC_XSTACK8
   \   000067   7F02         MOV       R7,#0x2
   \   000069   02....       LJMP      ?BANKED_LEAVE_XDATA
     39          }
     40          
     41          

   \                                 In  segment BANKED_CODE, align 1, keep-with-next
     42          static int test1(void){
   \                     ??test1_2:
   \   000000                REQUIRE ?V0
   \   000000                REQUIRE ?V1
   \   000000   74F6         MOV       A,#-0xa
   \   000002   12....       LCALL     ?BANKED_ENTER_XDATA
   \   000005                ; Saved register size: 10
   \   000005                ; Auto size: 49
   \   000005   74CF         MOV       A,#-0x31
   \   000007   12....       LCALL     ?ALLOC_XSTACK8
     43            bool catched = false;
   \   00000A   C2..         CLR       ?VB.0
     44            bool finalyed = false;
   \   00000C   C2..         CLR       ?VB.1
     45            bool noexe = true;
   \   00000E   D2..         SETB      ?VB.2
     46            
     47            TRY{
   \   000010   85..82       MOV       DPL,?XSP + 0
   \   000013   85..83       MOV       DPH,?XSP + 1
   \   000016   7408         MOV       A,#0x8
   \   000018                REQUIRE ?V7
   \   000018   12....       LCALL     ?SETJMP_XDATA
   \   00001B   8A..         MOV       ?V0,R2
   \   00001D   8B..         MOV       ?V1,R3
   \   00001F   78..         MOV       R0,#?V0
   \   000021   12....       LCALL     ?US_SWITCH_DENSE
   \                     `?<Jumptable for test1>_0`:
   \   000024   0000         DW        0
   \   000026   01           DB        1
   \   000027   ....         DW        ??test1_29
   \   000029   ....         DW        ??test1_30
   \   00002B   ....         DW        ??test1_31
     48              THROW(1);
   \                     ??test1_30:
   \   00002D   7A01         MOV       R2,#0x1
   \   00002F   7B00         MOV       R3,#0x0
   \   000031   85..82       MOV       DPL,?XSP + 0
   \   000034   85..83       MOV       DPH,?XSP + 1
   \   000037   7408         MOV       A,#0x8
   \   000039                REQUIRE ?V7
   \   000039   02....       LJMP      ?LONGJMP_XDATA
     49              noexe = false;
                     ^
Warning[Pe111]: statement is unreachable
          detected during compilation of secondary translation unit
                    "E:\WMNU\IAR_NEW_ARCH\PRJ Test\u_macros.c"

  static void SW_Init(void){
              ^
"E:\WMNU\IAR_NEW_ARCH\STACK_CORE_SRC\alarm_timer.c",34  Warning[Pe177]: 
          function "SW_Init" was declared but never referenced
          detected during compilation of secondary translation unit
                    "E:\WMNU\IAR_NEW_ARCH\STACK_CORE_SRC\alarm_timer.c"

  static void uart_init(void){
              ^
"E:\WMNU\IAR_new_arch\STACK_CORE_SRC\debug.c",32  Warning[Pe177]: function
          "uart_init" was declared but never referenced
          detected during compilation of secondary translation unit
                    "E:\WMNU\IAR_new_arch\STACK_CORE_SRC\debug.c"

  static void u_test(void){
              ^
"E:\WMNU\IAR_NEW_ARCH\PRJ Test\u_debug.c",5  Warning[Pe177]: function "u_test"
          was declared but never referenced
          detected during compilation of secondary translation unit
                    "E:\WMNU\IAR_NEW_ARCH\PRJ Test\u_debug.c"
     50            }
     51            CATCH(1){
     52              catched = true;
   \                     ??test1_31:
   \   00003C   D2..         SETB      ?VB.0
     53            }
     54            FINALLY{
     55              finalyed = true;
   \                     ??test1_29:
   \   00003E   D2..         SETB      ?VB.1
     56            }
     57            ETRY;  
     58            
     59            if (!noexe)
   \   000040   A2..         MOV       C,?VB.2
   \   000042   4006         JC        ??test1_32
     60              return 1;
   \   000044   7A01         MOV       R2,#0x1
   \   000046   7B00         MOV       R3,#0x0
   \   000048   8018         SJMP      ??test1_33
     61          
     62            if (!catched)
   \                     ??test1_32:
   \   00004A   A2..         MOV       C,?VB.0
   \   00004C   4006         JC        ??test1_34
     63              return 2;  
   \   00004E   7A02         MOV       R2,#0x2
   \   000050   7B00         MOV       R3,#0x0
   \   000052   800E         SJMP      ??test1_33
     64          
     65            if (!finalyed)
   \                     ??test1_34:
   \   000054   A2..         MOV       C,?VB.1
   \   000056   4006         JC        ??test1_35
     66              return 3;
   \   000058   7A03         MOV       R2,#0x3
   \   00005A   7B00         MOV       R3,#0x0
   \   00005C   8004         SJMP      ??test1_33
     67              
     68            return 0;
   \                     ??test1_35:
   \   00005E   7A00         MOV       R2,#0x0
   \   000060   7B00         MOV       R3,#0x0
   \                     ??test1_33:
   \   000062   7431         MOV       A,#0x31
   \   000064   12....       LCALL     ?DEALLOC_XSTACK8
   \   000067   7F02         MOV       R7,#0x2
   \   000069   02....       LJMP      ?BANKED_LEAVE_XDATA
     69          }
     70          
     71          
E:\WMNU\IAR_NEW_ARCH\PRJ Test\u_mem_slots.c
      1          #include "utest.h"
      2          #include "stddef.h"
      3          
      4          static int test1(void);
      5          static int test2(void);
      6          static int test3(void);
      7          

   \                                 In  segment XDATA_I, align 1, keep-with-next
      8          struct test_unit UT_MS_1 = {.name = "MS:create-delete", .fun = test1};
   \                     UT_MS_1:
   \   000000                DS 34
   \   000022                REQUIRE `?<Initializer for UT_MS_1>`
   \   000022                REQUIRE __INIT_XDATA_I

   \                                 In  segment XDATA_I, align 1, keep-with-next
      9          struct test_unit UT_MS_2 = {.name = "MS:create-full", .fun = test2};
   \                     UT_MS_2:
   \   000000                DS 34
   \   000022                REQUIRE `?<Initializer for UT_MS_2>`
   \   000022                REQUIRE __INIT_XDATA_I

   \                                 In  segment XDATA_I, align 1, keep-with-next
     10          struct test_unit UT_MS_3 = {.name = "MS:zone-check", .fun = test3};
   \                     UT_MS_3:
   \   000000                DS 34
   \   000022                REQUIRE `?<Initializer for UT_MS_3>`
   \   000022                REQUIRE __INIT_XDATA_I
     11          
     12          #include "mem_slots.h"
     13          
     14          //int SL_zone_check();
     15          //int SL_available();
     16          //int SL_busy();
     17          //bool SL_free(char *buff);
     18          //char* SL_alloc(void);

   \                                 In  segment BANKED_CODE, align 1, keep-with-next
     19          static int test3(void){
   \                     ??test3_2:
   \   000000                REQUIRE ?V0
   \   000000                REQUIRE ?V1
   \   000000                REQUIRE ?V2
   \   000000                REQUIRE ?V3
   \   000000                REQUIRE ?V4
   \   000000                REQUIRE ?V5
   \   000000                REQUIRE ?V6
   \   000000                REQUIRE ?V7
   \   000000   74F0         MOV       A,#-0x10
   \   000002   12....       LCALL     ?BANKED_ENTER_XDATA
   \   000005                ; Saved register size: 16
   \   000005                ; Auto size: 0
     20            int test_res = 0;
   \   000005   7E00         MOV       R6,#0x0
   \   000007   7F00         MOV       R7,#0x0
     21            
     22            if (!SL_zone_check())
   \   000009                ; Setup parameters for call to function SL_zone_check
   \   000009   12....       LCALL     `??SL_zone_check::?relay`; Banked call to: SL_zone_check
   \   00000C   8A..         MOV       ?V0,R2
   \   00000E   8B..         MOV       ?V1,R3
   \   000010   E5..         MOV       A,?V0
   \   000012   45..         ORL       A,?V1
   \   000014   7004         JNZ       ??test3_47
     23              test_res = 1;
   \   000016   7E01         MOV       R6,#0x1
   \   000018   7F00         MOV       R7,#0x0
     24            
     25            // Нарушаем границу во втором слоте
     26            char *sl1 = SL_alloc();
   \                     ??test3_47:
   \   00001A                ; Setup parameters for call to function SL_alloc
   \   00001A   12....       LCALL     `??SL_alloc::?relay`; Banked call to: SL_alloc
   \   00001D   8A..         MOV       ?V0,R2
   \   00001F   8B..         MOV       ?V1,R3
   \   000021   85....       MOV       ?V6,?V0
   \   000024   85....       MOV       ?V7,?V1
     27            char *sl2 = SL_alloc();
   \   000027                ; Setup parameters for call to function SL_alloc
   \   000027   12....       LCALL     `??SL_alloc::?relay`; Banked call to: SL_alloc
   \   00002A   8A..         MOV       ?V0,R2
   \   00002C   8B..         MOV       ?V1,R3
   \   00002E   85....       MOV       ?V2,?V0
   \   000031   85....       MOV       ?V3,?V1
     28            char *sl3 = SL_alloc();
   \   000034                ; Setup parameters for call to function SL_alloc
   \   000034   12....       LCALL     `??SL_alloc::?relay`; Banked call to: SL_alloc
   \   000037   8A..         MOV       ?V4,R2
   \   000039   8B..         MOV       ?V5,R3
   \   00003B   85....       MOV       ?V0,?V4
   \   00003E   85....       MOV       ?V1,?V5
     29            for (int i = 0; i < 180; i++)
   \   000041   7800         MOV       R0,#0x0
   \   000043   7900         MOV       R1,#0x0
   \                     ??test3_48:
   \   000045   C3           CLR       C
   \   000046   E8           MOV       A,R0
   \   000047   94B4         SUBB      A,#-0x4c
   \   000049   E9           MOV       A,R1
   \   00004A   9400         SUBB      A,#0x0
   \   00004C   A2D2         MOV       C,0xD0 /* PSW */.2
   \   00004E   65D0         XRL       A,PSW
   \   000050   33           RLC       A
   \   000051   5014         JNC       ??test3_49
     30              sl3[i] = 0x55;
   \   000053   E5..         MOV       A,?V0
   \   000055   28           ADD       A,R0
   \   000056   F582         MOV       DPL,A
   \   000058   E5..         MOV       A,?V1
   \   00005A   39           ADDC      A,R1
   \   00005B   F583         MOV       DPH,A
   \   00005D   7455         MOV       A,#0x55
   \   00005F   F0           MOVX      @DPTR,A
   \   000060   08           INC       R0
   \   000061   E8           MOV       A,R0
   \   000062   70E1         JNZ       ??test3_48
   \   000064   09           INC       R1
   \   000065   80DE         SJMP      ??test3_48
     31            
     32            if (SL_zone_check()!=2)
   \                     ??test3_49:
   \   000067                ; Setup parameters for call to function SL_zone_check
   \   000067   12....       LCALL     `??SL_zone_check::?relay`; Banked call to: SL_zone_check
   \   00006A   8A..         MOV       ?V4,R2
   \   00006C   8B..         MOV       ?V5,R3
   \   00006E   7402         MOV       A,#0x2
   \   000070   65..         XRL       A,?V4
   \   000072   7004         JNZ       ??test3_50
   \   000074   7400         MOV       A,#0x0
   \   000076   65..         XRL       A,?V5
   \                     ??test3_50:
   \   000078   6004         JZ        ??test3_51
     33              test_res = 2;  
   \   00007A   7E02         MOV       R6,#0x2
   \   00007C   7F00         MOV       R7,#0x0
     34            
     35            return test_res;
   \                     ??test3_51:
   \   00007E   EE           MOV       A,R6
   \   00007F   FA           MOV       R2,A
   \   000080   EF           MOV       A,R7
   \   000081   FB           MOV       R3,A
   \   000082   7F08         MOV       R7,#0x8
   \   000084   02....       LJMP      ?BANKED_LEAVE_XDATA
     36          }
     37          

   \                                 In  segment BANKED_CODE, align 1, keep-with-next
     38          static int test2(void){
   \                     ??test2_3:
   \   000000                REQUIRE ?V0
   \   000000                REQUIRE ?V1
   \   000000                REQUIRE ?V2
   \   000000                REQUIRE ?V3
   \   000000   74F4         MOV       A,#-0xc
   \   000002   12....       LCALL     ?BANKED_ENTER_XDATA
   \   000005                ; Saved register size: 12
   \   000005                ; Auto size: 40
   \   000005   74D8         MOV       A,#-0x28
   \   000007   12....       LCALL     ?ALLOC_XSTACK8
     39          // Используем полностью все фреймы
     40            char *all[20];
     41            int test_res = 0;
   \   00000A   7E00         MOV       R6,#0x0
   \   00000C   7F00         MOV       R7,#0x0
     42            
     43            for (int i = 0; i < 20; i++)
   \   00000E   75..00       MOV       ?V0,#0x0
   \   000011   75..00       MOV       ?V1,#0x0
   \                     ??test2_53:
   \   000014   C3           CLR       C
   \   000015   E5..         MOV       A,?V0
   \   000017   9414         SUBB      A,#0x14
   \   000019   E5..         MOV       A,?V1
   \   00001B   9400         SUBB      A,#0x0
   \   00001D   A2D2         MOV       C,0xD0 /* PSW */.2
   \   00001F   65D0         XRL       A,PSW
   \   000021   33           RLC       A
   \   000022   503B         JNC       ??test2_54
     44              all[i] = SL_alloc();
   \   000024                ; Setup parameters for call to function SL_alloc
   \   000024   12....       LCALL     `??SL_alloc::?relay`; Banked call to: SL_alloc
   \   000027   A8..         MOV       R0,?V0
   \   000029   A9..         MOV       R1,?V1
   \   00002B   E8           MOV       A,R0
   \   00002C   75F002       MOV       B,#0x2
   \   00002F   A4           MUL       AB
   \   000030   C8           XCH       A,R0
   \   000031   ACF0         MOV       R4,B
   \   000033   75F000       MOV       B,#0x0
   \   000036   A4           MUL       AB
   \   000037   2C           ADD       A,R4
   \   000038   FC           MOV       R4,A
   \   000039   75F002       MOV       B,#0x2
   \   00003C   E9           MOV       A,R1
   \   00003D   A4           MUL       AB
   \   00003E   2C           ADD       A,R4
   \   00003F   F9           MOV       R1,A
   \   000040   85..82       MOV       DPL,?XSP + 0
   \   000043   85..83       MOV       DPH,?XSP + 1
   \   000046   E582         MOV       A,DPL
   \   000048   28           ADD       A,R0
   \   000049   F582         MOV       DPL,A
   \   00004B   E583         MOV       A,DPH
   \   00004D   39           ADDC      A,R1
   \   00004E   F583         MOV       DPH,A
   \   000050   EA           MOV       A,R2
   \   000051   F0           MOVX      @DPTR,A
   \   000052   A3           INC       DPTR
   \   000053   EB           MOV       A,R3
   \   000054   F0           MOVX      @DPTR,A
   \   000055   05..         INC       ?V0
   \   000057   E5..         MOV       A,?V0
   \   000059   70B9         JNZ       ??test2_53
   \   00005B   05..         INC       ?V1
   \   00005D   80B5         SJMP      ??test2_53
     45          
     46          // Нету NULL  
     47            for(int i = 0; i < 20; i++)
   \                     ??test2_54:
   \   00005F   7800         MOV       R0,#0x0
   \   000061   7900         MOV       R1,#0x0
   \                     ??test2_55:
   \   000063   C3           CLR       C
   \   000064   E8           MOV       A,R0
   \   000065   9414         SUBB      A,#0x14
   \   000067   E9           MOV       A,R1
   \   000068   9400         SUBB      A,#0x0
   \   00006A   A2D2         MOV       C,0xD0 /* PSW */.2
   \   00006C   65D0         XRL       A,PSW
   \   00006E   33           RLC       A
   \   00006F   503D         JNC       ??test2_56
     48              if (all[i] == NULL)
   \   000071   E8           MOV       A,R0
   \   000072   FA           MOV       R2,A
   \   000073   E9           MOV       A,R1
   \   000074   FB           MOV       R3,A
   \   000075   EA           MOV       A,R2
   \   000076   75F002       MOV       B,#0x2
   \   000079   A4           MUL       AB
   \   00007A   CA           XCH       A,R2
   \   00007B   ACF0         MOV       R4,B
   \   00007D   75F000       MOV       B,#0x0
   \   000080   A4           MUL       AB
   \   000081   2C           ADD       A,R4
   \   000082   FC           MOV       R4,A
   \   000083   75F002       MOV       B,#0x2
   \   000086   EB           MOV       A,R3
   \   000087   A4           MUL       AB
   \   000088   2C           ADD       A,R4
   \   000089   FB           MOV       R3,A
   \   00008A   85..82       MOV       DPL,?XSP + 0
   \   00008D   85..83       MOV       DPH,?XSP + 1
   \   000090   E582         MOV       A,DPL
   \   000092   2A           ADD       A,R2
   \   000093   F582         MOV       DPL,A
   \   000095   E583         MOV       A,DPH
   \   000097   3B           ADDC      A,R3
   \   000098   F583         MOV       DPH,A
   \   00009A   E0           MOVX      A,@DPTR
   \   00009B   FA           MOV       R2,A
   \   00009C   A3           INC       DPTR
   \   00009D   E0           MOVX      A,@DPTR
   \   00009E   FB           MOV       R3,A
   \   00009F   EA           MOV       A,R2
   \   0000A0   4B           ORL       A,R3
   \   0000A1   7004         JNZ       ??test2_57
     49                test_res = 1;
   \   0000A3   7E01         MOV       R6,#0x1
   \   0000A5   7F00         MOV       R7,#0x0
   \                     ??test2_57:
   \   0000A7   08           INC       R0
   \   0000A8   E8           MOV       A,R0
   \   0000A9   70B8         JNZ       ??test2_55
   \   0000AB   09           INC       R1
   \   0000AC   80B5         SJMP      ??test2_55
     50          
     51          // Все слоты должны быть разные 
     52            for(int i = 1; i < 20; i++)
   \                     ??test2_56:
   \   0000AE   7801         MOV       R0,#0x1
   \   0000B0   7900         MOV       R1,#0x0
   \                     ??test2_58:
   \   0000B2   C3           CLR       C
   \   0000B3   E8           MOV       A,R0
   \   0000B4   9414         SUBB      A,#0x14
   \   0000B6   E9           MOV       A,R1
   \   0000B7   9400         SUBB      A,#0x0
   \   0000B9   A2D2         MOV       C,0xD0 /* PSW */.2
   \   0000BB   65D0         XRL       A,PSW
   \   0000BD   33           RLC       A
   \   0000BE   5078         JNC       ??test2_59
     53              if (all[i] == all[i - 1])
   \   0000C0   E8           MOV       A,R0
   \   0000C1   FA           MOV       R2,A
   \   0000C2   E9           MOV       A,R1
   \   0000C3   FB           MOV       R3,A
   \   0000C4   EA           MOV       A,R2
   \   0000C5   75F002       MOV       B,#0x2
   \   0000C8   A4           MUL       AB
   \   0000C9   CA           XCH       A,R2
   \   0000CA   ACF0         MOV       R4,B
   \   0000CC   75F000       MOV       B,#0x0
   \   0000CF   A4           MUL       AB
   \   0000D0   2C           ADD       A,R4
   \   0000D1   FC           MOV       R4,A
   \   0000D2   75F002       MOV       B,#0x2
   \   0000D5   EB           MOV       A,R3
   \   0000D6   A4           MUL       AB
   \   0000D7   2C           ADD       A,R4
   \   0000D8   FB           MOV       R3,A
   \   0000D9   85..82       MOV       DPL,?XSP + 0
   \   0000DC   85..83       MOV       DPH,?XSP + 1
   \   0000DF   E582         MOV       A,DPL
   \   0000E1   2A           ADD       A,R2
   \   0000E2   F582         MOV       DPL,A
   \   0000E4   E583         MOV       A,DPH
   \   0000E6   3B           ADDC      A,R3
   \   0000E7   F583         MOV       DPH,A
   \   0000E9   E0           MOVX      A,@DPTR
   \   0000EA   FC           MOV       R4,A
   \   0000EB   A3           INC       DPTR
   \   0000EC   E0           MOVX      A,@DPTR
   \   0000ED   FD           MOV       R5,A
   \   0000EE   E8           MOV       A,R0
   \   0000EF   FA           MOV       R2,A
   \   0000F0   E9           MOV       A,R1
   \   0000F1   FB           MOV       R3,A
   \   0000F2   EA           MOV       A,R2
   \   0000F3   75F002       MOV       B,#0x2
   \   0000F6   A4           MUL       AB
   \   0000F7   CA           XCH       A,R2
   \   0000F8   85F0..       MOV       ?V0,B
   \   0000FB   75F000       MOV       B,#0x0
   \   0000FE   A4           MUL       AB
   \   0000FF   25..         ADD       A,?V0
   \   000101   F5..         MOV       ?V0,A
   \   000103   75F002       MOV       B,#0x2
   \   000106   EB           MOV       A,R3
   \   000107   A4           MUL       AB
   \   000108   25..         ADD       A,?V0
   \   00010A   FB           MOV       R3,A
   \   00010B   85..82       MOV       DPL,?XSP + 0
   \   00010E   85..83       MOV       DPH,?XSP + 1
   \   000111   E582         MOV       A,DPL
   \   000113   2A           ADD       A,R2
   \   000114   FA           MOV       R2,A
   \   000115   E583         MOV       A,DPH
   \   000117   3B           ADDC      A,R3
   \   000118   FB           MOV       R3,A
   \   000119   EA           MOV       A,R2
   \   00011A   24FE         ADD       A,#-0x2
   \   00011C   F582         MOV       DPL,A
   \   00011E   EB           MOV       A,R3
   \   00011F   34FF         ADDC      A,#-0x1
   \   000121   F583         MOV       DPH,A
   \   000123   E0           MOVX      A,@DPTR
   \   000124   6C           XRL       A,R4
   \   000125   7003         JNZ       ??test2_60
   \   000127   A3           INC       DPTR
   \   000128   E0           MOVX      A,@DPTR
   \   000129   6D           XRL       A,R5
   \                     ??test2_60:
   \   00012A   7004         JNZ       ??test2_61
     54                test_res = 2;  
   \   00012C   7E02         MOV       R6,#0x2
   \   00012E   7F00         MOV       R7,#0x0
   \                     ??test2_61:
   \   000130   08           INC       R0
   \   000131   E8           MOV       A,R0
   \   000132   7001         JNZ       ??test2_62
   \   000134   09           INC       R1
   \                     ??test2_62:
   \   000135   02....       LJMP      ??test2_58 & 0xFFFF
     55          
     56          // Все слоты занятыы
     57            if (SL_busy() != 20)
   \                     ??test2_59:
   \   000138                ; Setup parameters for call to function SL_busy
   \   000138   12....       LCALL     `??SL_busy::?relay`; Banked call to: SL_busy
   \   00013B   8A..         MOV       ?V0,R2
   \   00013D   8B..         MOV       ?V1,R3
   \   00013F   7414         MOV       A,#0x14
   \   000141   65..         XRL       A,?V0
   \   000143   7004         JNZ       ??test2_63
   \   000145   7400         MOV       A,#0x0
   \   000147   65..         XRL       A,?V1
   \                     ??test2_63:
   \   000149   6004         JZ        ??test2_64
     58              test_res = 3;  
   \   00014B   7E03         MOV       R6,#0x3
   \   00014D   7F00         MOV       R7,#0x0
     59          
     60          // Свободных слотов нет
     61            if (SL_available() != 0)
   \                     ??test2_64:
   \   00014F                ; Setup parameters for call to function SL_available
   \   00014F   12....       LCALL     `??SL_available::?relay`; Banked call to: SL_available
   \   000152   8A..         MOV       ?V0,R2
   \   000154   8B..         MOV       ?V1,R3
   \   000156   E5..         MOV       A,?V0
   \   000158   45..         ORL       A,?V1
   \   00015A   6004         JZ        ??test2_65
     62              test_res = 4;   
   \   00015C   7E04         MOV       R6,#0x4
   \   00015E   7F00         MOV       R7,#0x0
     63            
     64          // Слотов нет и при выделении должен быть NULL  
     65            char *sl =  SL_alloc();
   \                     ??test2_65:
   \   000160                ; Setup parameters for call to function SL_alloc
   \   000160   12....       LCALL     `??SL_alloc::?relay`; Banked call to: SL_alloc
   \   000163   8A..         MOV       ?V0,R2
   \   000165   8B..         MOV       ?V1,R3
   \   000167   85....       MOV       ?V2,?V0
   \   00016A   85....       MOV       ?V3,?V1
     66            if (sl)
   \   00016D   E5..         MOV       A,?V2
   \   00016F   45..         ORL       A,?V3
   \   000171   6007         JZ        ??test2_66
     67              return 5;  
   \   000173   7A05         MOV       R2,#0x5
   \   000175   7B00         MOV       R3,#0x0
   \   000177   02....       LJMP      ??test2_67 & 0xFFFF
     68            
     69          // Убедимся что счетчики не уехали
     70          // Все слоты занятыы
     71            if (SL_busy() != 20)
   \                     ??test2_66:
   \   00017A                ; Setup parameters for call to function SL_busy
   \   00017A   12....       LCALL     `??SL_busy::?relay`; Banked call to: SL_busy
   \   00017D   8A..         MOV       ?V0,R2
   \   00017F   8B..         MOV       ?V1,R3
   \   000181   7414         MOV       A,#0x14
   \   000183   65..         XRL       A,?V0
   \   000185   7004         JNZ       ??test2_68
   \   000187   7400         MOV       A,#0x0
   \   000189   65..         XRL       A,?V1
   \                     ??test2_68:
   \   00018B   6004         JZ        ??test2_69
     72              test_res = 6;  
   \   00018D   7E06         MOV       R6,#0x6
   \   00018F   7F00         MOV       R7,#0x0
     73          
     74          // Свободных слотов нет
     75            if (SL_available() != 0)
   \                     ??test2_69:
   \   000191                ; Setup parameters for call to function SL_available
   \   000191   12....       LCALL     `??SL_available::?relay`; Banked call to: SL_available
   \   000194   8A..         MOV       ?V0,R2
   \   000196   8B..         MOV       ?V1,R3
   \   000198   E5..         MOV       A,?V0
   \   00019A   45..         ORL       A,?V1
   \   00019C   6004         JZ        ??test2_70
     76              test_res = 7; 
   \   00019E   7E07         MOV       R6,#0x7
   \   0001A0   7F00         MOV       R7,#0x0
     77            
     78          // Удаляем все что создали и контролим результат
     79            for (int i = 0; i < 20; i++)
   \                     ??test2_70:
   \   0001A2   75..00       MOV       ?V0,#0x0
   \   0001A5   75..00       MOV       ?V1,#0x0
   \                     ??test2_71:
   \   0001A8   C3           CLR       C
   \   0001A9   E5..         MOV       A,?V0
   \   0001AB   9414         SUBB      A,#0x14
   \   0001AD   E5..         MOV       A,?V1
   \   0001AF   9400         SUBB      A,#0x0
   \   0001B1   A2D2         MOV       C,0xD0 /* PSW */.2
   \   0001B3   65D0         XRL       A,PSW
   \   0001B5   33           RLC       A
   \   0001B6   5041         JNC       ??test2_72
     80              if (!SL_free(all[i]))
   \   0001B8                ; Setup parameters for call to function SL_free
   \   0001B8   A8..         MOV       R0,?V0
   \   0001BA   A9..         MOV       R1,?V1
   \   0001BC   E8           MOV       A,R0
   \   0001BD   75F002       MOV       B,#0x2
   \   0001C0   A4           MUL       AB
   \   0001C1   C8           XCH       A,R0
   \   0001C2   AAF0         MOV       R2,B
   \   0001C4   75F000       MOV       B,#0x0
   \   0001C7   A4           MUL       AB
   \   0001C8   2A           ADD       A,R2
   \   0001C9   FA           MOV       R2,A
   \   0001CA   75F002       MOV       B,#0x2
   \   0001CD   E9           MOV       A,R1
   \   0001CE   A4           MUL       AB
   \   0001CF   2A           ADD       A,R2
   \   0001D0   F9           MOV       R1,A
   \   0001D1   85..82       MOV       DPL,?XSP + 0
   \   0001D4   85..83       MOV       DPH,?XSP + 1
   \   0001D7   E582         MOV       A,DPL
   \   0001D9   28           ADD       A,R0
   \   0001DA   F582         MOV       DPL,A
   \   0001DC   E583         MOV       A,DPH
   \   0001DE   39           ADDC      A,R1
   \   0001DF   F583         MOV       DPH,A
   \   0001E1   E0           MOVX      A,@DPTR
   \   0001E2   FA           MOV       R2,A
   \   0001E3   A3           INC       DPTR
   \   0001E4   E0           MOVX      A,@DPTR
   \   0001E5   FB           MOV       R3,A
   \   0001E6   12....       LCALL     `??SL_free::?relay`; Banked call to: SL_free
   \   0001E9   4004         JC        ??test2_73
     81                test_res = 8; 
   \   0001EB   7E08         MOV       R6,#0x8
   \   0001ED   7F00         MOV       R7,#0x0
   \                     ??test2_73:
   \   0001EF   05..         INC       ?V0
   \   0001F1   E5..         MOV       A,?V0
   \   0001F3   70B3         JNZ       ??test2_71
   \   0001F5   05..         INC       ?V1
   \   0001F7   80AF         SJMP      ??test2_71
     82          
     83          // Все слоты свободны
     84            if (SL_busy() != 0)
   \                     ??test2_72:
   \   0001F9                ; Setup parameters for call to function SL_busy
   \   0001F9   12....       LCALL     `??SL_busy::?relay`; Banked call to: SL_busy
   \   0001FC   8A..         MOV       ?V0,R2
   \   0001FE   8B..         MOV       ?V1,R3
   \   000200   E5..         MOV       A,?V0
   \   000202   45..         ORL       A,?V1
   \   000204   6004         JZ        ??test2_74
     85              test_res = 9;  
   \   000206   7E09         MOV       R6,#0x9
   \   000208   7F00         MOV       R7,#0x0
     86          
     87            if (SL_available() != 20)
   \                     ??test2_74:
   \   00020A                ; Setup parameters for call to function SL_available
   \   00020A   12....       LCALL     `??SL_available::?relay`; Banked call to: SL_available
   \   00020D   8A..         MOV       ?V0,R2
   \   00020F   8B..         MOV       ?V1,R3
   \   000211   7414         MOV       A,#0x14
   \   000213   65..         XRL       A,?V0
   \   000215   7004         JNZ       ??test2_75
   \   000217   7400         MOV       A,#0x0
   \   000219   65..         XRL       A,?V1
   \                     ??test2_75:
   \   00021B   6004         JZ        ??test2_76
     88              test_res = 10;
   \   00021D   7E0A         MOV       R6,#0xa
   \   00021F   7F00         MOV       R7,#0x0
     89            
     90          // Пробуем удалить уже удаленное рез. должен быть false  
     91            for (int i = 0; i < 20; i++)
   \                     ??test2_76:
   \   000221   75..00       MOV       ?V0,#0x0
   \   000224   75..00       MOV       ?V1,#0x0
   \                     ??test2_77:
   \   000227   C3           CLR       C
   \   000228   E5..         MOV       A,?V0
   \   00022A   9414         SUBB      A,#0x14
   \   00022C   E5..         MOV       A,?V1
   \   00022E   9400         SUBB      A,#0x0
   \   000230   A2D2         MOV       C,0xD0 /* PSW */.2
   \   000232   65D0         XRL       A,PSW
   \   000234   33           RLC       A
   \   000235   5041         JNC       ??test2_78
     92              if (SL_free(all[i]))
   \   000237                ; Setup parameters for call to function SL_free
   \   000237   A8..         MOV       R0,?V0
   \   000239   A9..         MOV       R1,?V1
   \   00023B   E8           MOV       A,R0
   \   00023C   75F002       MOV       B,#0x2
   \   00023F   A4           MUL       AB
   \   000240   C8           XCH       A,R0
   \   000241   AAF0         MOV       R2,B
   \   000243   75F000       MOV       B,#0x0
   \   000246   A4           MUL       AB
   \   000247   2A           ADD       A,R2
   \   000248   FA           MOV       R2,A
   \   000249   75F002       MOV       B,#0x2
   \   00024C   E9           MOV       A,R1
   \   00024D   A4           MUL       AB
   \   00024E   2A           ADD       A,R2
   \   00024F   F9           MOV       R1,A
   \   000250   85..82       MOV       DPL,?XSP + 0
   \   000253   85..83       MOV       DPH,?XSP + 1
   \   000256   E582         MOV       A,DPL
   \   000258   28           ADD       A,R0
   \   000259   F582         MOV       DPL,A
   \   00025B   E583         MOV       A,DPH
   \   00025D   39           ADDC      A,R1
   \   00025E   F583         MOV       DPH,A
   \   000260   E0           MOVX      A,@DPTR
   \   000261   FA           MOV       R2,A
   \   000262   A3           INC       DPTR
   \   000263   E0           MOVX      A,@DPTR
   \   000264   FB           MOV       R3,A
   \   000265   12....       LCALL     `??SL_free::?relay`; Banked call to: SL_free
   \   000268   5004         JNC       ??test2_79
     93                test_res = 11;
   \   00026A   7E0B         MOV       R6,#0xb
   \   00026C   7F00         MOV       R7,#0x0
   \                     ??test2_79:
   \   00026E   05..         INC       ?V0
   \   000270   E5..         MOV       A,?V0
   \   000272   70B3         JNZ       ??test2_77
   \   000274   05..         INC       ?V1
   \   000276   80AF         SJMP      ??test2_77
     94            
     95          // Все слоты свободны
     96            if (SL_busy() != 0)
   \                     ??test2_78:
   \   000278                ; Setup parameters for call to function SL_busy
   \   000278   12....       LCALL     `??SL_busy::?relay`; Banked call to: SL_busy
   \   00027B   8A..         MOV       ?V0,R2
   \   00027D   8B..         MOV       ?V1,R3
   \   00027F   E5..         MOV       A,?V0
   \   000281   45..         ORL       A,?V1
   \   000283   6004         JZ        ??test2_80
     97              test_res = 12;  
   \   000285   7E0C         MOV       R6,#0xc
   \   000287   7F00         MOV       R7,#0x0
     98          
     99            if (SL_available() != 20)
   \                     ??test2_80:
   \   000289                ; Setup parameters for call to function SL_available
   \   000289   12....       LCALL     `??SL_available::?relay`; Banked call to: SL_available
   \   00028C   8A..         MOV       ?V0,R2
   \   00028E   8B..         MOV       ?V1,R3
   \   000290   7414         MOV       A,#0x14
   \   000292   65..         XRL       A,?V0
   \   000294   7004         JNZ       ??test2_81
   \   000296   7400         MOV       A,#0x0
   \   000298   65..         XRL       A,?V1
   \                     ??test2_81:
   \   00029A   6004         JZ        ??test2_82
    100              test_res = 13;
   \   00029C   7E0D         MOV       R6,#0xd
   \   00029E   7F00         MOV       R7,#0x0
    101            
    102            return test_res;
   \                     ??test2_82:
   \   0002A0   EE           MOV       A,R6
   \   0002A1   FA           MOV       R2,A
   \   0002A2   EF           MOV       A,R7
   \   0002A3   FB           MOV       R3,A
   \                     ??test2_67:
   \   0002A4   7428         MOV       A,#0x28
   \   0002A6   12....       LCALL     ?DEALLOC_XSTACK8
   \   0002A9   7F04         MOV       R7,#0x4
   \   0002AB   02....       LJMP      ?BANKED_LEAVE_XDATA
    103          }
    104          

   \                                 In  segment BANKED_CODE, align 1, keep-with-next
    105          static int test1(void){
   \                     ??test1_3:
   \   000000                REQUIRE ?V0
   \   000000                REQUIRE ?V1
   \   000000   74F6         MOV       A,#-0xa
   \   000002   12....       LCALL     ?BANKED_ENTER_XDATA
   \   000005                ; Saved register size: 10
   \   000005                ; Auto size: 0
    106            // Простой тест на создание и удаление
    107            bool test_res = 0;
   \   000005   C2..         CLR       ?VB.0
    108            
    109            if (SL_busy() != 0)
   \   000007                ; Setup parameters for call to function SL_busy
   \   000007   12....       LCALL     `??SL_busy::?relay`; Banked call to: SL_busy
   \   00000A   8A..         MOV       ?V0,R2
   \   00000C   8B..         MOV       ?V1,R3
   \   00000E   E5..         MOV       A,?V0
   \   000010   45..         ORL       A,?V1
   \   000012   6002         JZ        ??test1_36
    110              test_res = 1;  
   \   000014   D2..         SETB      ?VB.0
    111          
    112            if (SL_available() != 20)
   \                     ??test1_36:
   \   000016                ; Setup parameters for call to function SL_available
   \   000016   12....       LCALL     `??SL_available::?relay`; Banked call to: SL_available
   \   000019   8A..         MOV       ?V0,R2
   \   00001B   8B..         MOV       ?V1,R3
   \   00001D   7414         MOV       A,#0x14
   \   00001F   65..         XRL       A,?V0
   \   000021   7004         JNZ       ??test1_37
   \   000023   7400         MOV       A,#0x0
   \   000025   65..         XRL       A,?V1
   \                     ??test1_37:
   \   000027   6002         JZ        ??test1_38
    113              test_res = 2;    
   \   000029   D2..         SETB      ?VB.0
    114            
    115            char* slot = SL_alloc();
   \                     ??test1_38:
   \   00002B                ; Setup parameters for call to function SL_alloc
   \   00002B   12....       LCALL     `??SL_alloc::?relay`; Banked call to: SL_alloc
   \   00002E   8A..         MOV       ?V0,R2
   \   000030   8B..         MOV       ?V1,R3
   \   000032   AE..         MOV       R6,?V0
   \   000034   AF..         MOV       R7,?V1
    116            if (SL_busy() != 1)
   \   000036                ; Setup parameters for call to function SL_busy
   \   000036   12....       LCALL     `??SL_busy::?relay`; Banked call to: SL_busy
   \   000039   8A..         MOV       ?V0,R2
   \   00003B   8B..         MOV       ?V1,R3
   \   00003D   7401         MOV       A,#0x1
   \   00003F   65..         XRL       A,?V0
   \   000041   7004         JNZ       ??test1_39
   \   000043   7400         MOV       A,#0x0
   \   000045   65..         XRL       A,?V1
   \                     ??test1_39:
   \   000047   6002         JZ        ??test1_40
    117              test_res = 3;
   \   000049   D2..         SETB      ?VB.0
    118            
    119            if (SL_available() != 19)
   \                     ??test1_40:
   \   00004B                ; Setup parameters for call to function SL_available
   \   00004B   12....       LCALL     `??SL_available::?relay`; Banked call to: SL_available
   \   00004E   8A..         MOV       ?V0,R2
   \   000050   8B..         MOV       ?V1,R3
   \   000052   7413         MOV       A,#0x13
   \   000054   65..         XRL       A,?V0
   \   000056   7004         JNZ       ??test1_41
   \   000058   7400         MOV       A,#0x0
   \   00005A   65..         XRL       A,?V1
   \                     ??test1_41:
   \   00005C   6002         JZ        ??test1_42
    120              test_res = 4;  
   \   00005E   D2..         SETB      ?VB.0
    121            
    122            SL_free(slot);
   \                     ??test1_42:
   \   000060                ; Setup parameters for call to function SL_free
   \   000060   EE           MOV       A,R6
   \   000061   FA           MOV       R2,A
   \   000062   EF           MOV       A,R7
   \   000063   FB           MOV       R3,A
   \   000064   12....       LCALL     `??SL_free::?relay`; Banked call to: SL_free
    123            if (SL_busy() != 0)
   \   000067                ; Setup parameters for call to function SL_busy
   \   000067   12....       LCALL     `??SL_busy::?relay`; Banked call to: SL_busy
   \   00006A   8A..         MOV       ?V0,R2
   \   00006C   8B..         MOV       ?V1,R3
   \   00006E   E5..         MOV       A,?V0
   \   000070   45..         ORL       A,?V1
   \   000072   6002         JZ        ??test1_43
    124              test_res = 5;  
   \   000074   D2..         SETB      ?VB.0
    125            
    126            if (SL_available() != 20)
   \                     ??test1_43:
   \   000076                ; Setup parameters for call to function SL_available
   \   000076   12....       LCALL     `??SL_available::?relay`; Banked call to: SL_available
   \   000079   8A..         MOV       ?V0,R2
   \   00007B   8B..         MOV       ?V1,R3
   \   00007D   7414         MOV       A,#0x14
   \   00007F   65..         XRL       A,?V0
   \   000081   7004         JNZ       ??test1_44
   \   000083   7400         MOV       A,#0x0
   \   000085   65..         XRL       A,?V1
   \                     ??test1_44:
   \   000087   6002         JZ        ??test1_45
    127              test_res = 6; 
   \   000089   D2..         SETB      ?VB.0
    128            
    129            return test_res;
   \                     ??test1_45:
   \   00008B   A2..         MOV       C,?VB.0
   \   00008D   E4           CLR       A
   \   00008E   33           RLC       A
   \   00008F   FA           MOV       R2,A
   \   000090   7B00         MOV       R3,#0x0
   \   000092   7F02         MOV       R7,#0x2
   \   000094   02....       LJMP      ?BANKED_LEAVE_XDATA
    130          }
    131          
E:\WMNU\IAR_new_arch\PRJ Test\u_mem_utils.c
      1          #include "debug.h"
      2          #include "mem_utils.h"
      3          

   \                                 In  segment BANKED_CODE, align 1, keep-with-next
      4          void u_mem_utils(void){
   \                     u_mem_utils:
   \   000000                REQUIRE ?V0
   \   000000                REQUIRE ?V1
   \   000000                REQUIRE ?V2
   \   000000                REQUIRE ?V3
   \   000000   74F4         MOV       A,#-0xc
   \   000002   12....       LCALL     ?BANKED_ENTER_XDATA
   \   000005                ; Saved register size: 12
   \   000005                ; Auto size: 29
   \   000005   74E3         MOV       A,#-0x1d
   \   000007   12....       LCALL     ?ALLOC_XSTACK8
      5            char tst1[10] = {1,2,3,4,5,6,7,8,9,10};
   \   00000A   90....       MOV       DPTR,#`?<Constant {1, 2, 3, 4, 5, 6, 7, 8, 9, 10}>_1`
   \   00000D   7409         MOV       A,#0x9
   \   00000F   12....       LCALL     ?XSTACK_DISP102_8
   \   000012   740A         MOV       A,#0xa
   \   000014   12....       LCALL     ?MOVE_LONG8_XDATA_XDATA
      6            char tst2[10];
      7            int cmp_res;
      8            
      9            struct memcpy memcpy = {.src = tst1, .dst = tst2, .len = sizeof(tst1)};
   \   000017   90....       MOV       DPTR,#`?<Constant {(char *)0, (char *)0, 10}>`
   \   00001A   7404         MOV       A,#0x4
   \   00001C   12....       LCALL     ?XSTACK_DISP102_8
   \   00001F   7405         MOV       A,#0x5
   \   000021   12....       LCALL     ?MOVE_LONG8_XDATA_XDATA
   \   000024   7413         MOV       A,#0x13
   \   000026   12....       LCALL     ?XSTACK_DISP100_8
   \   000029   7404         MOV       A,#0x4
   \   00002B   12....       LCALL     ?XSTACK_DISP0_8
   \   00002E   E8           MOV       A,R0
   \   00002F   F0           MOVX      @DPTR,A
   \   000030   A3           INC       DPTR
   \   000031   E9           MOV       A,R1
   \   000032   F0           MOVX      @DPTR,A
   \   000033   7409         MOV       A,#0x9
   \   000035   12....       LCALL     ?XSTACK_DISP100_8
   \   000038   7406         MOV       A,#0x6
   \   00003A   12....       LCALL     ?XSTACK_DISP0_8
   \   00003D   E8           MOV       A,R0
   \   00003E   F0           MOVX      @DPTR,A
   \   00003F   A3           INC       DPTR
   \   000040   E9           MOV       A,R1
   \   000041   F0           MOVX      @DPTR,A
     10            MEM_memcpy(&memcpy);
   \   000042                ; Setup parameters for call to function MEM_memcpy
   \   000042   7404         MOV       A,#0x4
   \   000044   12....       LCALL     ?XSTACK_DISP101_8
   \   000047   12....       LCALL     `??MEM_memcpy::?relay`; Banked call to: MEM_memcpy
     11            
     12            for (int i = 0; i < sizeof(tst1); i++){
   \   00004A   75..00       MOV       ?V0,#0x0
   \   00004D   75..00       MOV       ?V1,#0x0
   \                     ??u_mem_utils_0:
   \   000050   C3           CLR       C
   \   000051   E5..         MOV       A,?V0
   \   000053   940A         SUBB      A,#0xa
   \   000055   E5..         MOV       A,?V1
   \   000057   9400         SUBB      A,#0x0
   \   000059   5078         JNC       ??u_mem_utils_1
     13              cmp_res = tst1[i] == tst2[i];
   \   00005B   7409         MOV       A,#0x9
   \   00005D   12....       LCALL     ?XSTACK_DISP0_8
   \   000060   E582         MOV       A,DPL
   \   000062   25..         ADD       A,?V0
   \   000064   F582         MOV       DPL,A
   \   000066   E583         MOV       A,DPH
   \   000068   35..         ADDC      A,?V1
   \   00006A   F583         MOV       DPH,A
   \   00006C   E0           MOVX      A,@DPTR
   \   00006D   F8           MOV       R0,A
   \   00006E   7413         MOV       A,#0x13
   \   000070   12....       LCALL     ?XSTACK_DISP0_8
   \   000073   E582         MOV       A,DPL
   \   000075   25..         ADD       A,?V0
   \   000077   F582         MOV       DPL,A
   \   000079   E583         MOV       A,DPH
   \   00007B   35..         ADDC      A,?V1
   \   00007D   F583         MOV       DPH,A
   \   00007F   E0           MOVX      A,@DPTR
   \   000080   68           XRL       A,R0
   \   000081   7006         JNZ       ??u_mem_utils_2
   \   000083   7E01         MOV       R6,#0x1
   \   000085   7F00         MOV       R7,#0x0
   \   000087   8004         SJMP      ??u_mem_utils_3
   \                     ??u_mem_utils_2:
   \   000089   7E00         MOV       R6,#0x0
   \   00008B   7F00         MOV       R7,#0x0
     14              ASSERT(cmp_res == 0);
   \                     ??u_mem_utils_3:
   \   00008D   EE           MOV       A,R6
   \   00008E   4F           ORL       A,R7
   \   00008F   6037         JZ        ??u_mem_utils_4
   \   000091                ; Setup parameters for call to function printf
   \   000091   75....       MOV       ?V2,#??__FUNCTION___19 & 0xff
   \   000094   75....       MOV       ?V3,#(??__FUNCTION___19 >> 8) & 0xff
   \   000097   78..         MOV       R0,#?V2
   \   000099   12....       LCALL     ?PUSH_XSTACK_I_TWO
   \   00009C   75..0E       MOV       ?V2,#0xe
   \   00009F   75..00       MOV       ?V3,#0x0
   \   0000A2   78..         MOV       R0,#?V2
   \   0000A4   12....       LCALL     ?PUSH_XSTACK_I_TWO
   \   0000A7   75....       MOV       ?V2,#`?<Constant "u_mem_utils.c">` & 0xff
   \   0000AA   75....       MOV       ?V3,#(`?<Constant "u_mem_utils.c">` >> 8) & 0xff
   \   0000AD   78..         MOV       R0,#?V2
   \   0000AF   12....       LCALL     ?PUSH_XSTACK_I_TWO
   \   0000B2   7A..         MOV       R2,#`?<Constant "%s:%d:%s -> ">_6` & 0xff
   \   0000B4   7B..         MOV       R3,#(`?<Constant "%s:%d:%s -> ">_6` >> 8) & 0xff
   \   0000B6   12....       LCALL     `??printf::?relay`; Banked call to: printf
   \   0000B9   7406         MOV       A,#0x6
   \   0000BB   12....       LCALL     ?DEALLOC_XSTACK8
   \   0000BE                ; Setup parameters for call to function printf
   \   0000BE   7A..         MOV       R2,#`?<Constant "\\"cmp_res == 0\\" Faild! \\r\\n">` & 0xff
   \   0000C0   7B..         MOV       R3,#(`?<Constant "\\"cmp_res == 0\\" Faild! \\r\\n">` >> 8) & 0xff
   \   0000C2   12....       LCALL     `??printf::?relay`; Banked call to: printf
   \   0000C5                ; Setup parameters for call to function DBG_CORE_HALT
   \   0000C5   12....       LCALL     `??DBG_CORE_HALT::?relay`; Banked call to: DBG_CORE_HALT
     15              }
   \                     ??u_mem_utils_4:
   \   0000C8   05..         INC       ?V0
   \   0000CA   E5..         MOV       A,?V0
   \   0000CC   7082         JNZ       ??u_mem_utils_0
   \   0000CE   05..         INC       ?V1
   \   0000D0   02....       LJMP      ??u_mem_utils_0 & 0xFFFF
     16            LOG_ON("MEM_memcpy ok!");
   \                     ??u_mem_utils_1:
   \   0000D3                ; Setup parameters for call to function printf
   \   0000D3   75....       MOV       ?V0,#??__FUNCTION___19 & 0xff
   \   0000D6   75....       MOV       ?V1,#(??__FUNCTION___19 >> 8) & 0xff
   \   0000D9   78..         MOV       R0,#?V0
   \   0000DB   12....       LCALL     ?PUSH_XSTACK_I_TWO
   \   0000DE   75..10       MOV       ?V0,#0x10
   \   0000E1   75..00       MOV       ?V1,#0x0
   \   0000E4   78..         MOV       R0,#?V0
   \   0000E6   12....       LCALL     ?PUSH_XSTACK_I_TWO
   \   0000E9   75....       MOV       ?V0,#`?<Constant "u_mem_utils.c">` & 0xff
   \   0000EC   75....       MOV       ?V1,#(`?<Constant "u_mem_utils.c">` >> 8) & 0xff
   \   0000EF   78..         MOV       R0,#?V0
   \   0000F1   12....       LCALL     ?PUSH_XSTACK_I_TWO
   \   0000F4   7A..         MOV       R2,#`?<Constant "%s:%d:%s -> ">_6` & 0xff
   \   0000F6   7B..         MOV       R3,#(`?<Constant "%s:%d:%s -> ">_6` >> 8) & 0xff
   \   0000F8   12....       LCALL     `??printf::?relay`; Banked call to: printf
   \   0000FB   7406         MOV       A,#0x6
   \   0000FD   12....       LCALL     ?DEALLOC_XSTACK8
   \   000100                ; Setup parameters for call to function printf
   \   000100   7A..         MOV       R2,#`?<Constant "MEM_memcpy ok!">` & 0xff
   \   000102   7B..         MOV       R3,#(`?<Constant "MEM_memcpy ok!">` >> 8) & 0xff
   \   000104   12....       LCALL     `??printf::?relay`; Banked call to: printf
   \   000107                ; Setup parameters for call to function printf
   \   000107   7A..         MOV       R2,#`?<Constant "\\r\\n">` & 0xff
   \   000109   7B..         MOV       R3,#(`?<Constant "\\r\\n">` >> 8) & 0xff
   \   00010B   12....       LCALL     `??printf::?relay`; Banked call to: printf
     17            
     18            struct memset memset = {.dst = tst1, .val = 7, .len = sizeof(tst1)};
   \   00010E   90....       MOV       DPTR,#`?<Constant {(char *)0, 10, 7}>`
   \   000111   AC..         MOV       R4,?XSP + 0
   \   000113   AD..         MOV       R5,?XSP + 1
   \   000115   7404         MOV       A,#0x4
   \   000117   12....       LCALL     ?MOVE_LONG8_XDATA_XDATA
   \   00011A   7409         MOV       A,#0x9
   \   00011C   12....       LCALL     ?XSTACK_DISP100_8
   \   00011F   85..82       MOV       DPL,?XSP + 0
   \   000122   85..83       MOV       DPH,?XSP + 1
   \   000125   E8           MOV       A,R0
   \   000126   F0           MOVX      @DPTR,A
   \   000127   A3           INC       DPTR
   \   000128   E9           MOV       A,R1
   \   000129   F0           MOVX      @DPTR,A
     19            MEM_memset(&memset);
   \   00012A                ; Setup parameters for call to function MEM_memset
   \   00012A   AA..         MOV       R2,?XSP + 0
   \   00012C   AB..         MOV       R3,?XSP + 1
   \   00012E   12....       LCALL     `??MEM_memset::?relay`; Banked call to: MEM_memset
     20          
     21            for (int i = 0; i < sizeof(tst1); i++){
   \   000131   75..00       MOV       ?V0,#0x0
   \   000134   75..00       MOV       ?V1,#0x0
   \                     ??u_mem_utils_5:
   \   000137   C3           CLR       C
   \   000138   E5..         MOV       A,?V0
   \   00013A   940A         SUBB      A,#0xa
   \   00013C   E5..         MOV       A,?V1
   \   00013E   9400         SUBB      A,#0x0
   \   000140   5065         JNC       ??u_mem_utils_6
     22              cmp_res = tst1[i] == 7;
   \   000142   7409         MOV       A,#0x9
   \   000144   12....       LCALL     ?XSTACK_DISP0_8
   \   000147   E582         MOV       A,DPL
   \   000149   25..         ADD       A,?V0
   \   00014B   F582         MOV       DPL,A
   \   00014D   E583         MOV       A,DPH
   \   00014F   35..         ADDC      A,?V1
   \   000151   F583         MOV       DPH,A
   \   000153   E0           MOVX      A,@DPTR
   \   000154   6407         XRL       A,#0x7
   \   000156   7006         JNZ       ??u_mem_utils_7
   \   000158   7E01         MOV       R6,#0x1
   \   00015A   7F00         MOV       R7,#0x0
   \   00015C   8004         SJMP      ??u_mem_utils_8
   \                     ??u_mem_utils_7:
   \   00015E   7E00         MOV       R6,#0x0
   \   000160   7F00         MOV       R7,#0x0
     23              ASSERT(cmp_res == 0);
   \                     ??u_mem_utils_8:
   \   000162   EE           MOV       A,R6
   \   000163   4F           ORL       A,R7
   \   000164   6037         JZ        ??u_mem_utils_9
   \   000166                ; Setup parameters for call to function printf
   \   000166   75....       MOV       ?V2,#??__FUNCTION___19 & 0xff
   \   000169   75....       MOV       ?V3,#(??__FUNCTION___19 >> 8) & 0xff
   \   00016C   78..         MOV       R0,#?V2
   \   00016E   12....       LCALL     ?PUSH_XSTACK_I_TWO
   \   000171   75..17       MOV       ?V2,#0x17
   \   000174   75..00       MOV       ?V3,#0x0
   \   000177   78..         MOV       R0,#?V2
   \   000179   12....       LCALL     ?PUSH_XSTACK_I_TWO
   \   00017C   75....       MOV       ?V2,#`?<Constant "u_mem_utils.c">` & 0xff
   \   00017F   75....       MOV       ?V3,#(`?<Constant "u_mem_utils.c">` >> 8) & 0xff
   \   000182   78..         MOV       R0,#?V2
   \   000184   12....       LCALL     ?PUSH_XSTACK_I_TWO
   \   000187   7A..         MOV       R2,#`?<Constant "%s:%d:%s -> ">_6` & 0xff
   \   000189   7B..         MOV       R3,#(`?<Constant "%s:%d:%s -> ">_6` >> 8) & 0xff
   \   00018B   12....       LCALL     `??printf::?relay`; Banked call to: printf
   \   00018E   7406         MOV       A,#0x6
   \   000190   12....       LCALL     ?DEALLOC_XSTACK8
   \   000193                ; Setup parameters for call to function printf
   \   000193   7A..         MOV       R2,#`?<Constant "\\"cmp_res == 0\\" Faild! \\r\\n">` & 0xff
   \   000195   7B..         MOV       R3,#(`?<Constant "\\"cmp_res == 0\\" Faild! \\r\\n">` >> 8) & 0xff
   \   000197   12....       LCALL     `??printf::?relay`; Banked call to: printf
   \   00019A                ; Setup parameters for call to function DBG_CORE_HALT
   \   00019A   12....       LCALL     `??DBG_CORE_HALT::?relay`; Banked call to: DBG_CORE_HALT
     24              }
   \                     ??u_mem_utils_9:
   \   00019D   05..         INC       ?V0
   \   00019F   E5..         MOV       A,?V0
   \   0001A1   7094         JNZ       ??u_mem_utils_5
   \   0001A3   05..         INC       ?V1
   \   0001A5   8090         SJMP      ??u_mem_utils_5
     25            LOG_ON("MEM_memset ok!");
   \                     ??u_mem_utils_6:
   \   0001A7                ; Setup parameters for call to function printf
   \   0001A7   75....       MOV       ?V0,#??__FUNCTION___19 & 0xff
   \   0001AA   75....       MOV       ?V1,#(??__FUNCTION___19 >> 8) & 0xff
   \   0001AD   78..         MOV       R0,#?V0
   \   0001AF   12....       LCALL     ?PUSH_XSTACK_I_TWO
   \   0001B2   75..19       MOV       ?V0,#0x19
   \   0001B5   75..00       MOV       ?V1,#0x0
   \   0001B8   78..         MOV       R0,#?V0
   \   0001BA   12....       LCALL     ?PUSH_XSTACK_I_TWO
   \   0001BD   75....       MOV       ?V0,#`?<Constant "u_mem_utils.c">` & 0xff
   \   0001C0   75....       MOV       ?V1,#(`?<Constant "u_mem_utils.c">` >> 8) & 0xff
   \   0001C3   78..         MOV       R0,#?V0
   \   0001C5   12....       LCALL     ?PUSH_XSTACK_I_TWO
   \   0001C8   7A..         MOV       R2,#`?<Constant "%s:%d:%s -> ">_6` & 0xff
   \   0001CA   7B..         MOV       R3,#(`?<Constant "%s:%d:%s -> ">_6` >> 8) & 0xff
   \   0001CC   12....       LCALL     `??printf::?relay`; Banked call to: printf
   \   0001CF   7406         MOV       A,#0x6
   \   0001D1   12....       LCALL     ?DEALLOC_XSTACK8
   \   0001D4                ; Setup parameters for call to function printf
   \   0001D4   7A..         MOV       R2,#`?<Constant "MEM_memset ok!">` & 0xff
   \   0001D6   7B..         MOV       R3,#(`?<Constant "MEM_memset ok!">` >> 8) & 0xff
   \   0001D8   12....       LCALL     `??printf::?relay`; Banked call to: printf
   \   0001DB                ; Setup parameters for call to function printf
   \   0001DB   7A..         MOV       R2,#`?<Constant "\\r\\n">` & 0xff
   \   0001DD   7B..         MOV       R3,#(`?<Constant "\\r\\n">` >> 8) & 0xff
   \   0001DF   12....       LCALL     `??printf::?relay`; Banked call to: printf
     26          }
   \   0001E2   741D         MOV       A,#0x1d
   \   0001E4   12....       LCALL     ?DEALLOC_XSTACK8
   \   0001E7   7F04         MOV       R7,#0x4
   \   0001E9   02....       LJMP      ?BANKED_LEAVE_XDATA

   \                                 In  segment XDATA_ROM_C, align 1
   \                     `?<Constant {(char *)0, (char *)0, 10}>`:
   \   000000   0000         DW 0H
   \   000002   0000         DW 0H
   \   000004   0A           DB 10

   \                                 In  segment XDATA_ROM_C, align 1
   \                     `?<Constant {(char *)0, 10, 7}>`:
   \   000000   0000         DW 0H
   \   000002   0A           DB 10
   \   000003   07           DB 7
E:\WMNU\IAR_NEW_ARCH\STACK_CORE_SRC\ustimer.c
      1          #include "ioCC2530.h"
      2          #include "ustimer.h"
      3          #include "stdint.h"
      4          #include "action_manager.h"
      5          #include "stdbool.h"
      6          
      7          #define TICK_NS  31.25 // Количество нс в одном такте TIM2
      8          #define TICK_US  0.03125 // Количество мкс в одном такте TIM2
      9          #define TICK_PER_US 32 // Количество тактов в одной микросекунде
     10          #define TICKS_TO_US(tick) ((tick)/TICK_PER_US)
     11          #define US_TO_TICKS(us)   ((us)*TICK_PER_US)
     12          #define ACCURATE_VAL_US 500 
     13          
     14          // Максимальное кол-во тактов таймера. Константа 40 бит, 5 байт

   \                                 In  segment XDATA_ROM_C, align 1
     15          static const uint32_t MAC_TIMER_MAX = 0xFFFFFFFFUL; 
   \                     ??MAC_TIMER_MAX:
   \   000000   FFFFFFFF     DD 4294967295

   \                                 In  segment XDATA_Z, align 1, keep-with-next
     16          static uint32_t DELAY_CALIBRATE_TICS; // Калибровка функции задержки
   \                     ??DELAY_CALIBRATE_TICS:
   \   000000                DS 4
   \   000004                REQUIRE __INIT_XDATA_Z
     17          
     18          static void DelayCalibrate(void);
     19          static void HW_Init(void);  

   \                                 In  segment XDATA_I, align 1, keep-with-next
     20          module_s UST_MODULE = {ALIAS(HW_Init)};
   \                     UST_MODULE:
   \   000000                DS 12
   \   00000C                REQUIRE `?<Initializer for UST_MODULE>`
   \   00000C                REQUIRE __INIT_XDATA_I
     21          
     22          

   \                                 In  segment BANKED_CODE, align 1, keep-with-next
     23          void HW_Init(void){
   \                     ??HW_Init_7:
   \   000000   C082         PUSH      DPL
   \   000002   C083         PUSH      DPH
   \   000004                ; Saved register size: 2
   \   000004                ; Auto size: 0
     24            // Запускаем таймер, LATCH MODE = 1
     25            // Latch mode фиксирует значение таймера переполнения при чтении T2M0
     26            // ЗАпускаем MAC таймер без синхронизации с кварцем 32.768к
     27            T2CTRL = (1<<0) | (1<<3); 
   \   000004   759409       MOV       0x94,#0x9
     28            // Калибровка функции задержки
     29            DelayCalibrate();
   \   000007                ; Setup parameters for call to function DelayCalibrate
   \   000007   12....       LCALL     `??DelayCalibrate::?relay`; Banked call to: DelayCalibrate
     30          }
   \   00000A   D083         POP       DPH
   \   00000C   D082         POP       DPL
   \   00000E   02....       LJMP      ?BRET
   \   000011                REQUIRE T2CTRL
     31          

   \                                 In  segment BANKED_CODE, align 1, keep-with-next
     32          ustime_t UST_now(void){
   \                     UST_now:
   \   000000   C082         PUSH      DPL
   \   000002   C083         PUSH      DPH
   \   000004                ; Saved register size: 2
   \   000004                ; Auto size: 4
   \   000004   74FC         MOV       A,#-0x4
   \   000006   12....       LCALL     ?ALLOC_XSTACK8
     33            ustime_t now;
     34            ((char*)&now)[0] = T2M0;
   \   000009   E5A2         MOV       A,0xa2
   \   00000B   C0E0         PUSH      A
   \   00000D   85..82       MOV       DPL,?XSP + 0
   \   000010   85..83       MOV       DPH,?XSP + 1
   \   000013   D0E0         POP       A
   \   000015   F0           MOVX      @DPTR,A
     35            ((char*)&now)[1] = T2M1;
   \   000016   E5A3         MOV       A,0xa3
   \   000018   C0E0         PUSH      A
   \   00001A   7401         MOV       A,#0x1
   \   00001C   12....       LCALL     ?XSTACK_DISP0_8
   \   00001F   D0E0         POP       A
   \   000021   F0           MOVX      @DPTR,A
     36            ((char*)&now)[2] = T2MOVF0;
   \   000022   E5A4         MOV       A,0xa4
   \   000024   C0E0         PUSH      A
   \   000026   7402         MOV       A,#0x2
   \   000028   12....       LCALL     ?XSTACK_DISP0_8
   \   00002B   D0E0         POP       A
   \   00002D   F0           MOVX      @DPTR,A
     37            ((char*)&now)[3] = T2MOVF1;
   \   00002E   E5A5         MOV       A,0xa5
   \   000030   C0E0         PUSH      A
   \   000032   7403         MOV       A,#0x3
   \   000034   12....       LCALL     ?XSTACK_DISP0_8
   \   000037   D0E0         POP       A
   \   000039   F0           MOVX      @DPTR,A
     38            return now;
   \   00003A   85..82       MOV       DPL,?XSP + 0
   \   00003D   85..83       MOV       DPH,?XSP + 1
   \   000040   12....       LCALL     ?XLOAD_R2345
   \   000043   7404         MOV       A,#0x4
   \   000045   12....       LCALL     ?DEALLOC_XSTACK8
   \   000048   D083         POP       DPH
   \   00004A   D082         POP       DPL
   \   00004C   02....       LJMP      ?BRET
   \   00004F                REQUIRE T2M0
   \   00004F                REQUIRE T2M1
   \   00004F                REQUIRE T2MOVF0
   \   00004F                REQUIRE T2MOVF1
     39          }
     40          

   \                                 In  segment BANKED_CODE, align 1, keep-with-next
     41          bool UST_time_over(stamp_t beg, ustime_t wait){
   \                     UST_time_over:
   \   000000                REQUIRE ?V0
   \   000000                REQUIRE ?V1
   \   000000                REQUIRE ?V2
   \   000000                REQUIRE ?V3
   \   000000                REQUIRE ?V4
   \   000000                REQUIRE ?V5
   \   000000                REQUIRE ?V6
   \   000000                REQUIRE ?V7
   \   000000   74F0         MOV       A,#-0x10
   \   000002   12....       LCALL     ?BANKED_ENTER_XDATA
   \   000005                ; Saved register size: 16
   \   000005                ; Auto size: 4
   \   000005   74FC         MOV       A,#-0x4
   \   000007   12....       LCALL     ?ALLOC_XSTACK8
   \   00000A   85..82       MOV       DPL,?XSP + 0
   \   00000D   85..83       MOV       DPH,?XSP + 1
   \   000010   EA           MOV       A,R2
   \   000011   F0           MOVX      @DPTR,A
   \   000012   A3           INC       DPTR
   \   000013   EB           MOV       A,R3
   \   000014   F0           MOVX      @DPTR,A
   \   000015   A3           INC       DPTR
   \   000016   EC           MOV       A,R4
   \   000017   F0           MOVX      @DPTR,A
   \   000018   A3           INC       DPTR
   \   000019   ED           MOV       A,R5
   \   00001A   F0           MOVX      @DPTR,A
     42            return (UST_now() >= (beg + US_TO_TICKS(wait))) ?  true:false;
   \   00001B   85..82       MOV       DPL,?XSP + 0
   \   00001E   85..83       MOV       DPH,?XSP + 1
   \   000021   C082         PUSH      DPL
   \   000023   C083         PUSH      DPH
   \   000025   7414         MOV       A,#0x14
   \   000027   12....       LCALL     ?XSTACK_DISP0_8
   \   00002A   78..         MOV       R0,#?V0
   \   00002C   12....       LCALL     ?L_MOV_X
   \   00002F   90....       MOV       DPTR,#__Constant_20
   \   000032   78..         MOV       R0,#?V4
   \   000034   12....       LCALL     ?L_MOV_X
   \   000037   78..         MOV       R0,#?V0
   \   000039   79..         MOV       R1,#?V4
   \   00003B   12....       LCALL     ?L_MUL
   \   00003E   D083         POP       DPH
   \   000040   D082         POP       DPL
   \   000042   78..         MOV       R0,#?V0
   \   000044   12....       LCALL     ?L_ADD_X
   \   000047                ; Setup parameters for call to function UST_now
   \   000047   12....       LCALL     `??UST_now::?relay`; Banked call to: UST_now
   \   00004A   8A..         MOV       ?V4,R2
   \   00004C   8B..         MOV       ?V5,R3
   \   00004E   8C..         MOV       ?V6,R4
   \   000050   8D..         MOV       ?V7,R5
   \   000052   78..         MOV       R0,#?V0
   \   000054   79..         MOV       R1,#?V4
   \   000056   12....       LCALL     ?UL_GT
   \   000059   4004         JC        ??UST_time_over_0
   \   00005B   D2F0         SETB      B.0
   \   00005D   8002         SJMP      ??UST_time_over_1
   \                     ??UST_time_over_0:
   \   00005F   C2F0         CLR       B.0
   \                     ??UST_time_over_1:
   \   000061   A2F0         MOV       C,B.0
   \   000063   7404         MOV       A,#0x4
   \   000065   12....       LCALL     ?DEALLOC_XSTACK8
   \   000068   7F08         MOV       R7,#0x8
   \   00006A   02....       LJMP      ?BANKED_LEAVE_XDATA
     43          }
     44          

   \                                 In  segment BANKED_CODE, align 1, keep-with-next
     45          ustime_t UST_interval(stamp_t beg, stamp_t end){
   \                     UST_interval:
   \   000000                REQUIRE ?V0
   \   000000                REQUIRE ?V1
   \   000000                REQUIRE ?V2
   \   000000                REQUIRE ?V3
   \   000000                REQUIRE ?V4
   \   000000                REQUIRE ?V5
   \   000000                REQUIRE ?V6
   \   000000                REQUIRE ?V7
   \   000000   74F0         MOV       A,#-0x10
   \   000002   12....       LCALL     ?BANKED_ENTER_XDATA
   \   000005                ; Saved register size: 16
   \   000005                ; Auto size: 8
   \   000005   74F8         MOV       A,#-0x8
   \   000007   12....       LCALL     ?ALLOC_XSTACK8
   \   00000A   85..82       MOV       DPL,?XSP + 0
   \   00000D   85..83       MOV       DPH,?XSP + 1
   \   000010   EA           MOV       A,R2
   \   000011   F0           MOVX      @DPTR,A
   \   000012   A3           INC       DPTR
   \   000013   EB           MOV       A,R3
   \   000014   F0           MOVX      @DPTR,A
   \   000015   A3           INC       DPTR
   \   000016   EC           MOV       A,R4
   \   000017   F0           MOVX      @DPTR,A
   \   000018   A3           INC       DPTR
   \   000019   ED           MOV       A,R5
   \   00001A   F0           MOVX      @DPTR,A
   \   00001B   7418         MOV       A,#0x18
   \   00001D   12....       LCALL     ?XSTACK_DISP0_8
   \   000020   78..         MOV       R0,#?V0
   \   000022   12....       LCALL     ?L_MOV_X
     46            return (end >= beg) ? 
     47              TICKS_TO_US(end - beg) :
     48              TICKS_TO_US(MAC_TIMER_MAX - beg + end);
   \   000025   85..82       MOV       DPL,?XSP + 0
   \   000028   85..83       MOV       DPH,?XSP + 1
   \   00002B   78..         MOV       R0,#?V0
   \   00002D   12....       LCALL     ?UL_GE_X
   \   000030   501E         JNC       ??UST_interval_0
   \   000032   85..82       MOV       DPL,?XSP + 0
   \   000035   85..83       MOV       DPH,?XSP + 1
   \   000038   78..         MOV       R0,#?V0
   \   00003A   12....       LCALL     ?L_SUB_X
   \   00003D   7405         MOV       A,#0x5
   \   00003F   78..         MOV       R0,#?V0
   \   000041   12....       LCALL     ?UL_SHR
   \   000044   7404         MOV       A,#0x4
   \   000046   12....       LCALL     ?XSTACK_DISP0_8
   \   000049   78..         MOV       R0,#?V0
   \   00004B   12....       LCALL     ?L_MOV_TO_X
   \   00004E   802B         SJMP      ??UST_interval_1
   \                     ??UST_interval_0:
   \   000050   90....       MOV       DPTR,#??MAC_TIMER_MAX
   \   000053   78..         MOV       R0,#?V4
   \   000055   12....       LCALL     ?L_MOV_X
   \   000058   85..82       MOV       DPL,?XSP + 0
   \   00005B   85..83       MOV       DPH,?XSP + 1
   \   00005E   78..         MOV       R0,#?V4
   \   000060   12....       LCALL     ?L_SUB_X
   \   000063   78..         MOV       R0,#?V4
   \   000065   79..         MOV       R1,#?V0
   \   000067   12....       LCALL     ?L_ADD
   \   00006A   7405         MOV       A,#0x5
   \   00006C   78..         MOV       R0,#?V4
   \   00006E   12....       LCALL     ?UL_SHR
   \   000071   7404         MOV       A,#0x4
   \   000073   12....       LCALL     ?XSTACK_DISP0_8
   \   000076   78..         MOV       R0,#?V4
   \   000078   12....       LCALL     ?L_MOV_TO_X
   \                     ??UST_interval_1:
   \   00007B   7404         MOV       A,#0x4
   \   00007D   12....       LCALL     ?XSTACK_DISP0_8
   \   000080   12....       LCALL     ?XLOAD_R2345
   \   000083   7408         MOV       A,#0x8
   \   000085   12....       LCALL     ?DEALLOC_XSTACK8
   \   000088   7F08         MOV       R7,#0x8
   \   00008A   02....       LJMP      ?BANKED_LEAVE_XDATA
     49          };
     50          

   \                                 In  segment BANKED_CODE, align 1, keep-with-next
     51          void UST_delay(ustime_t time){
   \                     UST_delay:
   \   000000                REQUIRE ?V0
   \   000000                REQUIRE ?V1
   \   000000                REQUIRE ?V2
   \   000000                REQUIRE ?V3
   \   000000                REQUIRE ?V4
   \   000000                REQUIRE ?V5
   \   000000                REQUIRE ?V6
   \   000000                REQUIRE ?V7
   \   000000   74F0         MOV       A,#-0x10
   \   000002   12....       LCALL     ?BANKED_ENTER_XDATA
   \   000005                ; Saved register size: 16
   \   000005                ; Auto size: 16
   \   000005   74F0         MOV       A,#-0x10
   \   000007   12....       LCALL     ?ALLOC_XSTACK8
   \   00000A   740C         MOV       A,#0xc
   \   00000C   12....       LCALL     ?XSTACK_DISP0_8
   \   00000F   EA           MOV       A,R2
   \   000010   F0           MOVX      @DPTR,A
   \   000011   A3           INC       DPTR
   \   000012   EB           MOV       A,R3
   \   000013   F0           MOVX      @DPTR,A
   \   000014   A3           INC       DPTR
   \   000015   EC           MOV       A,R4
   \   000016   F0           MOVX      @DPTR,A
   \   000017   A3           INC       DPTR
   \   000018   ED           MOV       A,R5
   \   000019   F0           MOVX      @DPTR,A
     52            stamp_t now = UST_now();
   \   00001A                ; Setup parameters for call to function UST_now
   \   00001A   12....       LCALL     `??UST_now::?relay`; Banked call to: UST_now
   \   00001D   7408         MOV       A,#0x8
   \   00001F   12....       LCALL     ?XSTACK_DISP0_8
   \   000022   12....       LCALL     ?XSTORE_R2345
     53            stamp_t len = US_TO_TICKS(time);
   \   000025   740C         MOV       A,#0xc
   \   000027   12....       LCALL     ?XSTACK_DISP0_8
   \   00002A   78..         MOV       R0,#?V0
   \   00002C   12....       LCALL     ?L_MOV_X
   \   00002F   90....       MOV       DPTR,#__Constant_20
   \   000032   78..         MOV       R0,#?V4
   \   000034   12....       LCALL     ?L_MOV_X
   \   000037   78..         MOV       R0,#?V0
   \   000039   79..         MOV       R1,#?V4
   \   00003B   12....       LCALL     ?L_MUL
   \   00003E   7404         MOV       A,#0x4
   \   000040   12....       LCALL     ?XSTACK_DISP0_8
   \   000043   78..         MOV       R0,#?V0
   \   000045   12....       LCALL     ?L_MOV_TO_X
     54            stamp_t offset = (time > DELAY_CALIBRATE_TICS) ?
     55                              DELAY_CALIBRATE_TICS : 0;
   \   000048   740C         MOV       A,#0xc
   \   00004A   12....       LCALL     ?XSTACK_DISP0_8
   \   00004D   78..         MOV       R0,#?V0
   \   00004F   12....       LCALL     ?L_MOV_X
   \   000052   90....       MOV       DPTR,#??DELAY_CALIBRATE_TICS
   \   000055   78..         MOV       R0,#?V0
   \   000057   12....       LCALL     ?UL_GT_X
   \   00005A   5011         JNC       ??UST_delay_0
   \   00005C   90....       MOV       DPTR,#??DELAY_CALIBRATE_TICS
   \   00005F   12....       LCALL     ?XLOAD_R0123
   \   000062   85..82       MOV       DPL,?XSP + 0
   \   000065   85..83       MOV       DPH,?XSP + 1
   \   000068   12....       LCALL     ?XSTORE_R0123
   \   00006B   8015         SJMP      ??UST_delay_1
   \                     ??UST_delay_0:
   \   00006D   85..82       MOV       DPL,?XSP + 0
   \   000070   85..83       MOV       DPH,?XSP + 1
   \   000073   7400         MOV       A,#0x0
   \   000075   F0           MOVX      @DPTR,A
   \   000076   A3           INC       DPTR
   \   000077   7400         MOV       A,#0x0
   \   000079   F0           MOVX      @DPTR,A
   \   00007A   A3           INC       DPTR
   \   00007B   7400         MOV       A,#0x0
   \   00007D   F0           MOVX      @DPTR,A
   \   00007E   A3           INC       DPTR
   \   00007F   7400         MOV       A,#0x0
   \   000081   F0           MOVX      @DPTR,A
     56            while (UST_now() < (now + len - offset));
   \                     ??UST_delay_1:
   \   000082   7408         MOV       A,#0x8
   \   000084   12....       LCALL     ?XSTACK_DISP0_8
   \   000087   78..         MOV       R0,#?V0
   \   000089   12....       LCALL     ?L_MOV_X
   \   00008C   7404         MOV       A,#0x4
   \   00008E   12....       LCALL     ?XSTACK_DISP0_8
   \   000091   78..         MOV       R0,#?V0
   \   000093   12....       LCALL     ?L_ADD_X
   \   000096   85..82       MOV       DPL,?XSP + 0
   \   000099   85..83       MOV       DPH,?XSP + 1
   \   00009C   78..         MOV       R0,#?V0
   \   00009E   12....       LCALL     ?L_SUB_X
   \   0000A1                ; Setup parameters for call to function UST_now
   \   0000A1   12....       LCALL     `??UST_now::?relay`; Banked call to: UST_now
   \   0000A4   8A..         MOV       ?V4,R2
   \   0000A6   8B..         MOV       ?V5,R3
   \   0000A8   8C..         MOV       ?V6,R4
   \   0000AA   8D..         MOV       ?V7,R5
   \   0000AC   78..         MOV       R0,#?V0
   \   0000AE   79..         MOV       R1,#?V4
   \   0000B0   12....       LCALL     ?UL_GT
   \   0000B3   40CD         JC        ??UST_delay_1
     57          }
   \   0000B5   7410         MOV       A,#0x10
   \   0000B7   12....       LCALL     ?DEALLOC_XSTACK8
   \   0000BA   7F08         MOV       R7,#0x8
   \   0000BC   02....       LJMP      ?BANKED_LEAVE_XDATA
     58          
     59          

   \                                 In  segment BANKED_CODE, align 1, keep-with-next
     60          stamp_t _interval(stamp_t beg, stamp_t end){
   \                     _interval:
   \   000000                REQUIRE ?V0
   \   000000                REQUIRE ?V1
   \   000000                REQUIRE ?V2
   \   000000                REQUIRE ?V3
   \   000000                REQUIRE ?V4
   \   000000                REQUIRE ?V5
   \   000000                REQUIRE ?V6
   \   000000                REQUIRE ?V7
   \   000000   74F0         MOV       A,#-0x10
   \   000002   12....       LCALL     ?BANKED_ENTER_XDATA
   \   000005                ; Saved register size: 16
   \   000005                ; Auto size: 8
   \   000005   74F8         MOV       A,#-0x8
   \   000007   12....       LCALL     ?ALLOC_XSTACK8
   \   00000A   85..82       MOV       DPL,?XSP + 0
   \   00000D   85..83       MOV       DPH,?XSP + 1
   \   000010   EA           MOV       A,R2
   \   000011   F0           MOVX      @DPTR,A
   \   000012   A3           INC       DPTR
   \   000013   EB           MOV       A,R3
   \   000014   F0           MOVX      @DPTR,A
   \   000015   A3           INC       DPTR
   \   000016   EC           MOV       A,R4
   \   000017   F0           MOVX      @DPTR,A
   \   000018   A3           INC       DPTR
   \   000019   ED           MOV       A,R5
   \   00001A   F0           MOVX      @DPTR,A
   \   00001B   7418         MOV       A,#0x18
   \   00001D   12....       LCALL     ?XSTACK_DISP0_8
   \   000020   78..         MOV       R0,#?V0
   \   000022   12....       LCALL     ?L_MOV_X
     61            return (end >= beg) ? 
     62              (end - beg) :
     63              (MAC_TIMER_MAX - beg + end);
   \   000025   85..82       MOV       DPL,?XSP + 0
   \   000028   85..83       MOV       DPH,?XSP + 1
   \   00002B   78..         MOV       R0,#?V0
   \   00002D   12....       LCALL     ?UL_GE_X
   \   000030   5017         JNC       ??_interval_0
   \   000032   85..82       MOV       DPL,?XSP + 0
   \   000035   85..83       MOV       DPH,?XSP + 1
   \   000038   78..         MOV       R0,#?V0
   \   00003A   12....       LCALL     ?L_SUB_X
   \   00003D   7404         MOV       A,#0x4
   \   00003F   12....       LCALL     ?XSTACK_DISP0_8
   \   000042   78..         MOV       R0,#?V0
   \   000044   12....       LCALL     ?L_MOV_TO_X
   \   000047   8024         SJMP      ??_interval_1
   \                     ??_interval_0:
   \   000049   90....       MOV       DPTR,#??MAC_TIMER_MAX
   \   00004C   78..         MOV       R0,#?V4
   \   00004E   12....       LCALL     ?L_MOV_X
   \   000051   85..82       MOV       DPL,?XSP + 0
   \   000054   85..83       MOV       DPH,?XSP + 1
   \   000057   78..         MOV       R0,#?V4
   \   000059   12....       LCALL     ?L_SUB_X
   \   00005C   78..         MOV       R0,#?V4
   \   00005E   79..         MOV       R1,#?V0
   \   000060   12....       LCALL     ?L_ADD
   \   000063   7404         MOV       A,#0x4
   \   000065   12....       LCALL     ?XSTACK_DISP0_8
   \   000068   78..         MOV       R0,#?V4
   \   00006A   12....       LCALL     ?L_MOV_TO_X
   \                     ??_interval_1:
   \   00006D   7404         MOV       A,#0x4
   \   00006F   12....       LCALL     ?XSTACK_DISP0_8
   \   000072   12....       LCALL     ?XLOAD_R2345
   \   000075   7408         MOV       A,#0x8
   \   000077   12....       LCALL     ?DEALLOC_XSTACK8
   \   00007A   7F08         MOV       R7,#0x8
   \   00007C   02....       LJMP      ?BANKED_LEAVE_XDATA
     64          };
     65          
     66          /**
     67          @brief Калибровка функции задержки TIM_delay
     68          */

   \                                 In  segment BANKED_CODE, align 1, keep-with-next
     69          static void DelayCalibrate(void){
   \                     ??DelayCalibrate:
   \   000000                REQUIRE ?V0
   \   000000                REQUIRE ?V1
   \   000000                REQUIRE ?V2
   \   000000                REQUIRE ?V3
   \   000000                REQUIRE ?V4
   \   000000                REQUIRE ?V5
   \   000000                REQUIRE ?V6
   \   000000                REQUIRE ?V7
   \   000000   74F0         MOV       A,#-0x10
   \   000002   12....       LCALL     ?BANKED_ENTER_XDATA
   \   000005                ; Saved register size: 16
   \   000005                ; Auto size: 4
   \   000005   74FC         MOV       A,#-0x4
   \   000007   12....       LCALL     ?ALLOC_XSTACK8
     70            DELAY_CALIBRATE_TICS = 0;  
   \   00000A   90....       MOV       DPTR,#??DELAY_CALIBRATE_TICS
   \   00000D   7400         MOV       A,#0x0
   \   00000F   F0           MOVX      @DPTR,A
   \   000010   A3           INC       DPTR
   \   000011   7400         MOV       A,#0x0
   \   000013   F0           MOVX      @DPTR,A
   \   000014   A3           INC       DPTR
   \   000015   7400         MOV       A,#0x0
   \   000017   F0           MOVX      @DPTR,A
   \   000018   A3           INC       DPTR
   \   000019   7400         MOV       A,#0x0
   \   00001B   F0           MOVX      @DPTR,A
     71            stamp_t start = UST_now();
   \   00001C                ; Setup parameters for call to function UST_now
   \   00001C   12....       LCALL     `??UST_now::?relay`; Banked call to: UST_now
   \   00001F   85..82       MOV       DPL,?XSP + 0
   \   000022   85..83       MOV       DPH,?XSP + 1
   \   000025   12....       LCALL     ?XSTORE_R2345
     72            UST_delay(ACCURATE_VAL_US);
   \   000028                ; Setup parameters for call to function UST_delay
   \   000028   90....       MOV       DPTR,#__Constant_1f4
   \   00002B   12....       LCALL     ?XLOAD_R2345
   \   00002E   12....       LCALL     `??UST_delay::?relay`; Banked call to: UST_delay
     73            stamp_t end = UST_now();
   \   000031                ; Setup parameters for call to function UST_now
   \   000031   12....       LCALL     `??UST_now::?relay`; Banked call to: UST_now
   \   000034   8A..         MOV       ?V0,R2
   \   000036   8B..         MOV       ?V1,R3
   \   000038   8C..         MOV       ?V2,R4
   \   00003A   8D..         MOV       ?V3,R5
     74            DELAY_CALIBRATE_TICS = _interval(start, end) -
     75                                    US_TO_TICKS(ACCURATE_VAL_US);
   \   00003C                ; Setup parameters for call to function _interval
   \   00003C   78..         MOV       R0,#?V0
   \   00003E   12....       LCALL     ?PUSH_XSTACK_I_FOUR
   \   000041   7404         MOV       A,#0x4
   \   000043   12....       LCALL     ?XSTACK_DISP0_8
   \   000046   12....       LCALL     ?XLOAD_R2345
   \   000049   12....       LCALL     `??_interval::?relay`; Banked call to: _interval
   \   00004C   7404         MOV       A,#0x4
   \   00004E   12....       LCALL     ?DEALLOC_XSTACK8
   \   000051   8A..         MOV       ?V4,R2
   \   000053   8B..         MOV       ?V5,R3
   \   000055   8C..         MOV       ?V6,R4
   \   000057   8D..         MOV       ?V7,R5
   \   000059   90....       MOV       DPTR,#__Constant_ffffc180
   \   00005C   78..         MOV       R0,#?V4
   \   00005E   12....       LCALL     ?L_ADD_X
   \   000061   90....       MOV       DPTR,#??DELAY_CALIBRATE_TICS
   \   000064   78..         MOV       R0,#?V4
   \   000066   12....       LCALL     ?L_MOV_TO_X
     76          };
   \   000069   7404         MOV       A,#0x4
   \   00006B   12....       LCALL     ?DEALLOC_XSTACK8
   \   00006E   7F08         MOV       R7,#0x8
   \   000070   02....       LJMP      ?BANKED_LEAVE_XDATA
E:\WMNU\IAR_new_arch\PRJ Test\utest.c
      1          #include "utest.h"
      2          #include "macros.h"
      3          #include "stdio.h"
      4          #include "action_manager.h"
      5          

   \                                 In  segment XDATA_I, align 1, keep-with-next
      6          struct test_unit* TEST_FUN[] = TEST_FUN_DEF;
   \                     TEST_FUN:
   \   000000                DS 22
   \   000016                REQUIRE `?<Initializer for TEST_FUN>`
   \   000016                REQUIRE __INIT_XDATA_I
      7          

   \                                 In  segment XDATA_Z, align 1, keep-with-next
      8          static int passed = 0;
   \                     ??passed:
   \   000000                DS 2
   \   000002                REQUIRE __INIT_XDATA_Z

   \                                 In  segment XDATA_Z, align 1, keep-with-next
      9          static int common_count = 0;
   \                     ??common_count:
   \   000000                DS 2
   \   000002                REQUIRE __INIT_XDATA_Z
     10          

   \                                 In  segment BANKED_CODE, align 1, keep-with-next
     11          static inline void run_unit_fun(struct test_unit* unit){
   \                     ??run_unit_fun:
   \   000000                REQUIRE ?V0
   \   000000                REQUIRE ?V1
   \   000000                REQUIRE ?V2
   \   000000                REQUIRE ?V3
   \   000000                REQUIRE ?V4
   \   000000                REQUIRE ?V5
   \   000000   74F2         MOV       A,#-0xe
   \   000002   12....       LCALL     ?BANKED_ENTER_XDATA
   \   000005                ; Saved register size: 14
   \   000005                ; Auto size: 0
   \   000005   8A..         MOV       ?V0,R2
   \   000007   8B..         MOV       ?V1,R3
     12            if (!unit->fun){
   \   000009   E5..         MOV       A,?V0
   \   00000B   2420         ADD       A,#0x20
   \   00000D   F582         MOV       DPL,A
   \   00000F   E4           CLR       A
   \   000010   35..         ADDC      A,?V1
   \   000012   F583         MOV       DPH,A
   \   000014   E0           MOVX      A,@DPTR
   \   000015   F8           MOV       R0,A
   \   000016   A3           INC       DPTR
   \   000017   E0           MOVX      A,@DPTR
   \   000018   F9           MOV       R1,A
   \   000019   E8           MOV       A,R0
   \   00001A   49           ORL       A,R1
   \   00001B   7009         JNZ       ??run_unit_fun_1
     13            printf("Test function not assigned!!!");
   \   00001D                ; Setup parameters for call to function printf
   \   00001D   7A..         MOV       R2,#`?<Constant "Test function not ass...">` & 0xff
   \   00001F   7B..         MOV       R3,#(`?<Constant "Test function not ass...">` >> 8) & 0xff
   \   000021   12....       LCALL     `??printf::?relay`; Banked call to: printf
     14            while(true);
   \                     ??run_unit_fun_2:
   \   000024   80FE         SJMP      ??run_unit_fun_2
     15            }
     16            int res;
     17            common_count++;
   \                     ??run_unit_fun_1:
   \   000026   90....       MOV       DPTR,#??common_count
   \   000029   E0           MOVX      A,@DPTR
   \   00002A   2401         ADD       A,#0x1
   \   00002C   F0           MOVX      @DPTR,A
   \   00002D   A3           INC       DPTR
   \   00002E   E0           MOVX      A,@DPTR
   \   00002F   3400         ADDC      A,#0x0
   \   000031   F0           MOVX      @DPTR,A
     18            res = unit->fun();
   \   000032                ; Setup parameters for indirect call
   \   000032   E5..         MOV       A,?V0
   \   000034   2420         ADD       A,#0x20
   \   000036   F582         MOV       DPL,A
   \   000038   E4           CLR       A
   \   000039   35..         ADDC      A,?V1
   \   00003B   F583         MOV       DPH,A
   \   00003D   E0           MOVX      A,@DPTR
   \   00003E   F8           MOV       R0,A
   \   00003F   A3           INC       DPTR
   \   000040   E0           MOVX      A,@DPTR
   \   000041   F583         MOV       DPH,A
   \   000043   8882         MOV       DPL,R0
   \   000045   12....       LCALL     ?CALL_IND
   \   000048   8A..         MOV       ?V4,R2
   \   00004A   8B..         MOV       ?V5,R3
   \   00004C   85....       MOV       ?V2,?V4
   \   00004F   85....       MOV       ?V3,?V5
     19            
     20            printf("TESTING:\t%-32s", unit->name);
   \   000052                ; Setup parameters for call to function printf
   \   000052   78..         MOV       R0,#?V0
   \   000054   12....       LCALL     ?PUSH_XSTACK_I_TWO
   \   000057   7A..         MOV       R2,#`?<Constant "TESTING:\\t%-32s">` & 0xff
   \   000059   7B..         MOV       R3,#(`?<Constant "TESTING:\\t%-32s">` >> 8) & 0xff
   \   00005B   12....       LCALL     `??printf::?relay`; Banked call to: printf
   \   00005E   7402         MOV       A,#0x2
   \   000060   12....       LCALL     ?DEALLOC_XSTACK8
     21            if (res == 0){
   \   000063   E5..         MOV       A,?V2
   \   000065   45..         ORL       A,?V3
   \   000067   7015         JNZ       ??run_unit_fun_3
     22              printf("\tPASSED\r\n");
   \   000069                ; Setup parameters for call to function printf
   \   000069   7A..         MOV       R2,#`?<Constant "\\tPASSED\\r\\n">` & 0xff
   \   00006B   7B..         MOV       R3,#(`?<Constant "\\tPASSED\\r\\n">` >> 8) & 0xff
   \   00006D   12....       LCALL     `??printf::?relay`; Banked call to: printf
     23              passed++;
   \   000070   90....       MOV       DPTR,#??passed
   \   000073   E0           MOVX      A,@DPTR
   \   000074   2401         ADD       A,#0x1
   \   000076   F0           MOVX      @DPTR,A
   \   000077   A3           INC       DPTR
   \   000078   E0           MOVX      A,@DPTR
   \   000079   3400         ADDC      A,#0x0
   \   00007B   F0           MOVX      @DPTR,A
   \   00007C   8011         SJMP      ??run_unit_fun_4
     24            }
     25            else
     26              printf("\tERR = %d. FAILED <--------------\r\n", res);           
   \                     ??run_unit_fun_3:
   \   00007E                ; Setup parameters for call to function printf
   \   00007E   78..         MOV       R0,#?V2
   \   000080   12....       LCALL     ?PUSH_XSTACK_I_TWO
   \   000083   7A..         MOV       R2,#`?<Constant "\\tERR = %d. FAILED <--...">` & 0xff
   \   000085   7B..         MOV       R3,#(`?<Constant "\\tERR = %d. FAILED <--...">` >> 8) & 0xff
   \   000087   12....       LCALL     `??printf::?relay`; Banked call to: printf
   \   00008A   7402         MOV       A,#0x2
   \   00008C   12....       LCALL     ?DEALLOC_XSTACK8
     27          };
   \                     ??run_unit_fun_4:
   \   00008F   7F06         MOV       R7,#0x6
   \   000091   02....       LJMP      ?BANKED_LEAVE_XDATA
     28          

   \                                 In  segment BANKED_CODE, align 1, keep-with-next
     29          static void show_grating(void){
   \                     ??show_grating:
   \   000000   C082         PUSH      DPL
   \   000002   C083         PUSH      DPH
   \   000004                ; Saved register size: 2
   \   000004                ; Auto size: 0
     30            printf("Begin unit test\r\n");
   \   000004                ; Setup parameters for call to function printf
   \   000004   7A..         MOV       R2,#`?<Constant "Begin unit test\\r\\n">` & 0xff
   \   000006   7B..         MOV       R3,#(`?<Constant "Begin unit test\\r\\n">` >> 8) & 0xff
   \   000008   12....       LCALL     `??printf::?relay`; Banked call to: printf
     31          }
   \   00000B   D083         POP       DPH
   \   00000D   D082         POP       DPL
   \   00000F   02....       LJMP      ?BRET
     32          

   \                                 In  segment BANKED_CODE, align 1, keep-with-next
     33          static void show_statistic(void){
   \                     ??show_statistic:
   \   000000   C082         PUSH      DPL
   \   000002   C083         PUSH      DPH
   \   000004                ; Saved register size: 2
   \   000004                ; Auto size: 0
     34            printf("\r\n##########################################\r\n");
   \   000004                ; Setup parameters for call to function printf
   \   000004   7A..         MOV       R2,#`?<Constant "\\r\\n###################...">` & 0xff
   \   000006   7B..         MOV       R3,#(`?<Constant "\\r\\n###################...">` >> 8) & 0xff
   \   000008   12....       LCALL     `??printf::?relay`; Banked call to: printf
     35            printf("Test runned: \t%d\r\n", common_count);
   \   00000B                ; Setup parameters for call to function printf
   \   00000B   90....       MOV       DPTR,#??common_count
   \   00000E   12....       LCALL     ?PUSH_XSTACK8_X_TWO
   \   000011   7A..         MOV       R2,#`?<Constant "Test runned: \\t%d\\r\\n">` & 0xff
   \   000013   7B..         MOV       R3,#(`?<Constant "Test runned: \\t%d\\r\\n">` >> 8) & 0xff
   \   000015   12....       LCALL     `??printf::?relay`; Banked call to: printf
   \   000018   7402         MOV       A,#0x2
   \   00001A   12....       LCALL     ?DEALLOC_XSTACK8
     36            printf("Test passed: \t%d\r\n", passed);
   \   00001D                ; Setup parameters for call to function printf
   \   00001D   90....       MOV       DPTR,#??passed
   \   000020   12....       LCALL     ?PUSH_XSTACK8_X_TWO
   \   000023   7A..         MOV       R2,#`?<Constant "Test passed: \\t%d\\r\\n">` & 0xff
   \   000025   7B..         MOV       R3,#(`?<Constant "Test passed: \\t%d\\r\\n">` >> 8) & 0xff
   \   000027   12....       LCALL     `??printf::?relay`; Banked call to: printf
   \   00002A   7402         MOV       A,#0x2
   \   00002C   12....       LCALL     ?DEALLOC_XSTACK8
     37            if (common_count == passed)
   \   00002F   90....       MOV       DPTR,#??common_count
   \   000032   E0           MOVX      A,@DPTR
   \   000033   F8           MOV       R0,A
   \   000034   A3           INC       DPTR
   \   000035   E0           MOVX      A,@DPTR
   \   000036   F9           MOV       R1,A
   \   000037   90....       MOV       DPTR,#??passed
   \   00003A   E0           MOVX      A,@DPTR
   \   00003B   68           XRL       A,R0
   \   00003C   7003         JNZ       ??show_statistic_1
   \   00003E   A3           INC       DPTR
   \   00003F   E0           MOVX      A,@DPTR
   \   000040   69           XRL       A,R1
   \                     ??show_statistic_1:
   \   000041   7009         JNZ       ??show_statistic_2
     38              printf("Succes!\r\n");
   \   000043                ; Setup parameters for call to function printf
   \   000043   7A..         MOV       R2,#`?<Constant "Succes!\\r\\n">` & 0xff
   \   000045   7B..         MOV       R3,#(`?<Constant "Succes!\\r\\n">` >> 8) & 0xff
   \   000047   12....       LCALL     `??printf::?relay`; Banked call to: printf
   \   00004A   8007         SJMP      ??show_statistic_3
     39            else
     40              printf("Failed!\r\n");
   \                     ??show_statistic_2:
   \   00004C                ; Setup parameters for call to function printf
   \   00004C   7A..         MOV       R2,#`?<Constant "Failed!\\r\\n">` & 0xff
   \   00004E   7B..         MOV       R3,#(`?<Constant "Failed!\\r\\n">` >> 8) & 0xff
   \   000050   12....       LCALL     `??printf::?relay`; Banked call to: printf
     41          }
   \                     ??show_statistic_3:
   \   000053   D083         POP       DPH
   \   000055   D082         POP       DPL
   \   000057   02....       LJMP      ?BRET
     42          

   \                                 In  segment BANKED_CODE, align 1, keep-with-next
     43          void run_tests(void){
   \                     run_tests:
   \   000000                REQUIRE ?V0
   \   000000                REQUIRE ?V1
   \   000000   74F6         MOV       A,#-0xa
   \   000002   12....       LCALL     ?BANKED_ENTER_XDATA
   \   000005                ; Saved register size: 10
   \   000005                ; Auto size: 0
     44            show_grating();
   \   000005                ; Setup parameters for call to function show_grating
   \   000005   12....       LCALL     `??show_grating::?relay`; Banked call to: show_grating
     45            struct test_unit* unit;
     46            for (int i = 0; i < sizeof(TEST_FUN)/sizeof(struct test_unit*); i++){
   \   000008   7E00         MOV       R6,#0x0
   \   00000A   7F00         MOV       R7,#0x0
   \                     ??run_tests_0:
   \   00000C   C3           CLR       C
   \   00000D   EE           MOV       A,R6
   \   00000E   940B         SUBB      A,#0xb
   \   000010   EF           MOV       A,R7
   \   000011   9400         SUBB      A,#0x0
   \   000013   503D         JNC       ??run_tests_1
     47              unit = TEST_FUN[i];
   \   000015   EE           MOV       A,R6
   \   000016   F8           MOV       R0,A
   \   000017   EF           MOV       A,R7
   \   000018   F9           MOV       R1,A
   \   000019   E8           MOV       A,R0
   \   00001A   75F002       MOV       B,#0x2
   \   00001D   A4           MUL       AB
   \   00001E   C8           XCH       A,R0
   \   00001F   AAF0         MOV       R2,B
   \   000021   75F000       MOV       B,#0x0
   \   000024   A4           MUL       AB
   \   000025   2A           ADD       A,R2
   \   000026   FA           MOV       R2,A
   \   000027   75F002       MOV       B,#0x2
   \   00002A   E9           MOV       A,R1
   \   00002B   A4           MUL       AB
   \   00002C   2A           ADD       A,R2
   \   00002D   F9           MOV       R1,A
   \   00002E   74..         MOV       A,#TEST_FUN & 0xff
   \   000030   28           ADD       A,R0
   \   000031   F582         MOV       DPL,A
   \   000033   74..         MOV       A,#(TEST_FUN >> 8) & 0xff
   \   000035   39           ADDC      A,R1
   \   000036   F583         MOV       DPH,A
   \   000038   E0           MOVX      A,@DPTR
   \   000039   F8           MOV       R0,A
   \   00003A   A3           INC       DPTR
   \   00003B   E0           MOVX      A,@DPTR
   \   00003C   F9           MOV       R1,A
   \   00003D   88..         MOV       ?V0,R0
   \   00003F   89..         MOV       ?V1,R1
     48              AM_SW_Init();
   \   000041                ; Setup parameters for call to function AM_SW_Init
   \   000041   12....       LCALL     `??AM_SW_Init::?relay`; Banked call to: AM_SW_Init
     49              run_unit_fun(unit);
   \   000044                ; Setup parameters for call to function run_unit_fun
   \   000044   AA..         MOV       R2,?V0
   \   000046   AB..         MOV       R3,?V1
   \   000048   12....       LCALL     `??run_unit_fun::?relay`; Banked call to: run_unit_fun
     50            };
   \   00004B   0E           INC       R6
   \   00004C   EE           MOV       A,R6
   \   00004D   70BD         JNZ       ??run_tests_0
   \   00004F   0F           INC       R7
   \   000050   80BA         SJMP      ??run_tests_0
     51            show_statistic();  
   \                     ??run_tests_1:
   \   000052                ; Setup parameters for call to function show_statistic
   \   000052   12....       LCALL     `??show_statistic::?relay`; Banked call to: show_statistic
     52          }
   \   000055   7F02         MOV       R7,#0x2
   \   000057   02....       LJMP      ?BANKED_LEAVE_XDATA

   \                                 In  segment INTVEC, offset 0x2b, root
   \                     `??TimerCompareInterrupt::??INTVEC 43`:
   \   00002B   02....       LJMP       (TimerCompareInterrupt)

   \                                 In  segment XDATA_ID, align 1, keep-with-next
   \                     `?<Initializer for HW_MOD>`:
   \   000000   ....         DW CPU_MODULE
   \   000002   ....         DW DBG_MODULE
   \   000004   ....         DW AT_MODULE
   \   000006   ....         DW UST_MODULE
   \   000008   ....         DW DMA_MODULE
   \   00000A   ....         DW CODER_MODULE
   \   00000C   ....         DW RADIO_MODULE

   \                                 In  segment XDATA_ID, align 1, keep-with-next
   \                     `?<Initializer for SW_MOD>`:
   \   000000   ....         DW FR_MODULE
   \   000002   ....         DW MD_MODULE
   \   000004   ....         DW MS_MODULE
   \   000006   ....         DW BF_MODULE
   \   000008   ....         DW RADIO_MODULE

   \                                 In  segment XDATA_ID, align 1, keep-with-next
   \                     `?<Initializer for POW_MOD>`:
   \   000000   ....         DW RTC_MODULE

   \                                 In  segment XDATA_ID, align 1, keep-with-next
   \                     `?<Initializer for AT_MODULE>`:
   \   000000   ....         DW `??HW_Init::?relay`
   \   000002   00000000     DB 0, 0, 0, 0, 0, 0, 0, 0
   \            00000000
   \   00000A   0000         DB 0, 0

   \                                 In  segment XDATA_ID, align 1, keep-with-next
   \                     `?<Initializer for BF_MODULE>`:
   \   000000   0000         DW 0H
   \   000002   ....         DW `??SW_Init::?relay`
   \   000004   00000000     DB 0, 0, 0, 0, 0, 0, 0, 0
   \            00000000

   \                                 In  segment XDATA_ID, align 1, keep-with-next
   \                     `?<Initializer for TX_LIST_HEAD>`:
   \   000000   ....         DW TX_LIST_HEAD
   \   000002   ....         DW TX_LIST_HEAD

   \                                 In  segment XDATA_ID, align 1, keep-with-next
   \                     `?<Initializer for RX_LIST_HEAD>`:
   \   000000   ....         DW RX_LIST_HEAD
   \   000002   ....         DW RX_LIST_HEAD

   \                                 In  segment XDATA_ID, align 1, keep-with-next
   \                     `?<Initializer for CODER_MODULE>`:
   \   000000   ....         DW `??HW_Init::?relay_1`
   \   000002   00000000     DB 0, 0, 0, 0, 0, 0, 0, 0
   \            00000000
   \   00000A   0000         DB 0, 0

   \                                 In  segment XDATA_ID, align 1, keep-with-next
   \                     `?<Initializer for CPU_MODULE>`:
   \   000000   ....         DW `??HW_Init::?relay_2`
   \   000002   00000000     DB 0, 0, 0, 0, 0, 0, 0, 0
   \            00000000
   \   00000A   0000         DB 0, 0

   \                                 In  segment XDATA_ID, align 1, keep-with-next
   \                     `?<Initializer for DBG_MODULE>`:
   \   000000   ....         DW `??HW_Init::?relay_3`
   \   000002   00000000     DB 0, 0, 0, 0, 0, 0, 0, 0
   \            00000000
   \   00000A   0000         DB 0, 0

   \                                 In  segment XDATA_ID, align 1, keep-with-next
   \                     `?<Initializer for DMA_MODULE>`:
   \   000000   ....         DW `??HW_Init::?relay_4`
   \   000002   00000000     DB 0, 0, 0, 0, 0, 0, 0, 0
   \            00000000
   \   00000A   0000         DB 0, 0

   \                                 In  segment XDATA_ID, align 1, keep-with-next
   \                     `?<Initializer for FR_MODULE>`:
   \   000000   0000         DW 0H
   \   000002   ....         DW `??SW_Init::?relay_1`
   \   000004   00000000     DB 0, 0, 0, 0, 0, 0, 0, 0
   \            00000000

   \                                 In  segment XDATA_ID, align 1, keep-with-next
   \                     `?<Initializer for MS_MODULE>`:
   \   000000   0000         DW 0H
   \   000002   ....         DW `??SW_Init::?relay_2`
   \   000004   00000000     DB 0, 0, 0, 0, 0, 0, 0, 0
   \            00000000

   \                                 In  segment XDATA_ID, align 1, keep-with-next
   \                     `?<Initializer for MD_MODULE>`:
   \   000000   ....         DW `??HW_Init::?relay_5`
   \   000002   ....         DW `??SW_Init::?relay_3`
   \   000004   ....         DW `??Sleep::?relay`
   \   000006   ....         DW `??Wakeup::?relay`
   \   000008   ....         DW `??Cold_Start::?relay`
   \   00000A   ....         DW `??Hot_Start::?relay`

   \                                 In  segment XDATA_ID, align 1, keep-with-next
   \                     `?<Initializer for RADIO_MODULE>`:
   \   000000   ....         DW `??HW_Init::?relay_6`
   \   000002   ....         DW `??SW_Init::?relay_4`
   \   000004   00000000     DB 0, 0, 0, 0, 0, 0, 0, 0
   \            00000000

   \                                 In  segment XDATA_ID, align 1, keep-with-next
   \                     `?<Initializer for RTC_MODULE>`:
   \   000000   0000         DW 0H
   \   000002   ....         DW `??SW_Init::?relay_5`
   \   000004   00000000     DB 0, 0, 0, 0, 0, 0, 0, 0
   \            00000000

   \                                 In  segment XDATA_ID, align 1, keep-with-next
   \                     `?<Initializer for UT_BF_1>`:
   \   000000   42463A70     DB "BF:push tx"
   \            75736820
   \            747800  
   \   00000B   00000000     DB 0, 0, 0, 0, 0, 0, 0, 0
   \            00000000
   \   000013   00000000     DB 0, 0, 0, 0, 0, 0, 0, 0
   \            00000000
   \   00001B   00000000     DB 0, 0, 0, 0, 0
   \            00      
   \   000020   ....         DW `??test1::?relay`

   \                                 In  segment XDATA_ID, align 1, keep-with-next
   \                     `?<Initializer for UT_BF_2>`:
   \   000000   42463A70     DB "BF:push-pop tx all"
   \            7573682D
   \            706F7020
   \            74782061
   \            6C6C00  
   \   000013   00000000     DB 0, 0, 0, 0, 0, 0, 0, 0
   \            00000000
   \   00001B   00000000     DB 0, 0, 0, 0, 0
   \            00      
   \   000020   ....         DW `??test2::?relay`

   \                                 In  segment XDATA_ID, align 1, keep-with-next
   \                     `?<Initializer for UT_BF_3>`:
   \   000000   42463A6D     DB "BF:mix rx-tx bufs"
   \            69782072
   \            782D7478
   \            20627566
   \            7300    
   \   000012   00000000     DB 0, 0, 0, 0, 0, 0, 0, 0
   \            00000000
   \   00001A   00000000     DB 0, 0, 0, 0, 0, 0
   \            0000    
   \   000020   ....         DW `??test3::?relay`

   \                                 In  segment XDATA_ID, align 1, keep-with-next
   \                     `?<Initializer for UTEST_DEBUG>`:
   \   000000   44454255     DB "DEBUG MODUL"
   \            47204D4F
   \            44554C00
   \   00000C   00000000     DB 0, 0, 0, 0, 0, 0, 0, 0
   \            00000000
   \   000014   00000000     DB 0, 0, 0, 0, 0, 0, 0, 0
   \            00000000
   \   00001C   00000000     DB 0, 0, 0, 0, 0, 0
   \            0000    

   \                                 In  segment XDATA_ID, align 1, keep-with-next
   \                     `?<Initializer for UT_FR_1>`:
   \   000000   46523A63     DB "FR:create-delete"
   \            72656174
   \            652D6465
   \            6C657465
   \            00      
   \   000011   00000000     DB 0, 0, 0, 0, 0, 0, 0, 0
   \            00000000
   \   000019   00000000     DB 0, 0, 0, 0, 0, 0, 0
   \            000000  
   \   000020   ....         DW `??test1::?relay_1`

   \                                 In  segment XDATA_ID, align 1, keep-with-next
   \                     `?<Initializer for UT_FR_2>`:
   \   000000   46523A63     DB "FR:create-full"
   \            72656174
   \            652D6675
   \            6C6C00  
   \   00000F   00000000     DB 0, 0, 0, 0, 0, 0, 0, 0
   \            00000000
   \   000017   00000000     DB 0, 0, 0, 0, 0, 0, 0, 0
   \            00000000
   \   00001F   00           DB 0
   \   000020   ....         DW `??test2::?relay_1`

   \                                 In  segment XDATA_ID, align 1, keep-with-next
   \                     `?<Initializer for UT_FR_3>`:
   \   000000   46523A68     DB "FR:header manipulation"
   \            65616465
   \            72206D61
   \            6E697075
   \            6C617469
   \            6F6E00  
   \   000017   00000000     DB 0, 0, 0, 0, 0, 0, 0, 0
   \            00000000
   \   00001F   00           DB 0
   \   000020   ....         DW `??test3::?relay_1`

   \                                 In  segment XDATA_ID, align 1, keep-with-next
   \                     `?<Initializer for UT_MACR_1>`:
   \   000000   4D414352     DB "MACROS: EXCEPTIOS"
   \            4F533A20
   \            45584345
   \            5054494F
   \            5300    
   \   000012   00000000     DB 0, 0, 0, 0, 0, 0, 0, 0
   \            00000000
   \   00001A   00000000     DB 0, 0, 0, 0, 0, 0
   \            0000    
   \   000020   ....         DW `??test1::?relay_2`

   \                                 In  segment XDATA_ID, align 1, keep-with-next
   \                     `?<Initializer for UT_MACR_2>`:
   \   000000   4D414352     DB "MACROS: EXCEPTIOS"
   \            4F533A20
   \            45584345
   \            5054494F
   \            5300    
   \   000012   00000000     DB 0, 0, 0, 0, 0, 0, 0, 0
   \            00000000
   \   00001A   00000000     DB 0, 0, 0, 0, 0, 0
   \            0000    
   \   000020   ....         DW `??test2::?relay_2`

   \                                 In  segment XDATA_ID, align 1, keep-with-next
   \                     `?<Initializer for UT_MS_1>`:
   \   000000   4D533A63     DB "MS:create-delete"
   \            72656174
   \            652D6465
   \            6C657465
   \            00      
   \   000011   00000000     DB 0, 0, 0, 0, 0, 0, 0, 0
   \            00000000
   \   000019   00000000     DB 0, 0, 0, 0, 0, 0, 0
   \            000000  
   \   000020   ....         DW `??test1::?relay_3`

   \                                 In  segment XDATA_ID, align 1, keep-with-next
   \                     `?<Initializer for UT_MS_2>`:
   \   000000   4D533A63     DB "MS:create-full"
   \            72656174
   \            652D6675
   \            6C6C00  
   \   00000F   00000000     DB 0, 0, 0, 0, 0, 0, 0, 0
   \            00000000
   \   000017   00000000     DB 0, 0, 0, 0, 0, 0, 0, 0
   \            00000000
   \   00001F   00           DB 0
   \   000020   ....         DW `??test2::?relay_3`

   \                                 In  segment XDATA_ID, align 1, keep-with-next
   \                     `?<Initializer for UT_MS_3>`:
   \   000000   4D533A7A     DB "MS:zone-check"
   \            6F6E652D
   \            63686563
   \            6B00    
   \   00000E   00000000     DB 0, 0, 0, 0, 0, 0, 0, 0
   \            00000000
   \   000016   00000000     DB 0, 0, 0, 0, 0, 0, 0, 0
   \            00000000
   \   00001E   0000         DB 0, 0
   \   000020   ....         DW `??test3::?relay_2`

   \                                 In  segment XDATA_ID, align 1, keep-with-next
   \                     `?<Initializer for UST_MODULE>`:
   \   000000   ....         DW `??HW_Init::?relay_7`
   \   000002   00000000     DB 0, 0, 0, 0, 0, 0, 0, 0
   \            00000000
   \   00000A   0000         DB 0, 0

   \                                 In  segment XDATA_ID, align 1, keep-with-next
   \                     `?<Initializer for TEST_FUN>`:
   \   000000   ....         DW UT_MS_1
   \   000002   ....         DW UT_MS_2
   \   000004   ....         DW UT_MS_3
   \   000006   ....         DW UT_FR_1
   \   000008   ....         DW UT_FR_2
   \   00000A   ....         DW UT_FR_3
   \   00000C   ....         DW UT_BF_1
   \   00000E   ....         DW UT_BF_2
   \   000010   ....         DW UT_BF_3
   \   000012   ....         DW UT_MACR_1
   \   000014   ....         DW UT_MACR_2

   \                                 In  segment BANK_RELAYS, align 1
   \                     `??AM_Cold_start::?relay`:
   \   000000   12....       LCALL   ?BDISPATCH
   \   000003   ......       DC24    AM_Cold_start

   \                                 In  segment BANK_RELAYS, align 1
   \                     `??AM_Hot_start::?relay`:
   \   000000   12....       LCALL   ?BDISPATCH
   \   000003   ......       DC24    AM_Hot_start

   \                                 In  segment BANK_RELAYS, align 1
   \                     `??AM_HW_Init::?relay`:
   \   000000   12....       LCALL   ?BDISPATCH
   \   000003   ......       DC24    AM_HW_Init

   \                                 In  segment BANK_RELAYS, align 1
   \                     `??AM_SW_Init::?relay`:
   \   000000   12....       LCALL   ?BDISPATCH
   \   000003   ......       DC24    AM_SW_Init

   \                                 In  segment BANK_RELAYS, align 1
   \                     `??AM_Sleep::?relay`:
   \   000000   12....       LCALL   ?BDISPATCH
   \   000003   ......       DC24    AM_Sleep

   \                                 In  segment BANK_RELAYS, align 1
   \                     `??AM_Wakeup::?relay`:
   \   000000   12....       LCALL   ?BDISPATCH
   \   000003   ......       DC24    AM_Wakeup

   \                                 In  segment BANK_RELAYS, align 1
   \                     `??__cli::?relay`:
   \   000000   12....       LCALL   ?BDISPATCH
   \   000003   ......       DC24    ??__cli

   \                                 In  segment BANK_RELAYS, align 1
   \                     `??HW_Init::?relay`:
   \   000000   12....       LCALL   ?BDISPATCH
   \   000003   ......       DC24    ??HW_Init

   \                                 In  segment BANK_RELAYS, align 1
   \                     `??AT_enable::?relay`:
   \   000000   12....       LCALL   ?BDISPATCH
   \   000003   ......       DC24    AT_enable

   \                                 In  segment BANK_RELAYS, align 1
   \                     `??AT_set_time::?relay`:
   \   000000   12....       LCALL   ?BDISPATCH
   \   000003   ......       DC24    AT_set_time

   \                                 In  segment BANK_RELAYS, align 1
   \                     `??AT_time::?relay`:
   \   000000   12....       LCALL   ?BDISPATCH
   \   000003   ......       DC24    AT_time

   \                                 In  segment BANK_RELAYS, align 1
   \                     `??AT_wait::?relay`:
   \   000000   12....       LCALL   ?BDISPATCH
   \   000003   ......       DC24    AT_wait

   \                                 In  segment BANK_RELAYS, align 1
   \                     `??IRQEnable::?relay`:
   \   000000   12....       LCALL   ?BDISPATCH
   \   000003   ......       DC24    ??IRQEnable

   \                                 In  segment BANK_RELAYS, align 1
   \                     `??AT_set_alarm::?relay`:
   \   000000   12....       LCALL   ?BDISPATCH
   \   000003   ......       DC24    AT_set_alarm

   \                                 In  segment BANK_RELAYS, align 1
   \                     `??calcCompareTime::?relay`:
   \   000000   12....       LCALL   ?BDISPATCH
   \   000003   ......       DC24    ??calcCompareTime

   \                                 In  segment BANK_RELAYS, align 1
   \                     `??ReadTimer::?relay`:
   \   000000   12....       LCALL   ?BDISPATCH
   \   000003   ......       DC24    ??ReadTimer

   \                                 In  segment BANK_RELAYS, align 1
   \                     `??loadTimerCompare::?relay`:
   \   000000   12....       LCALL   ?BDISPATCH
   \   000003   ......       DC24    ??loadTimerCompare

   \                                 In  segment BANK_RELAYS, align 1
   \                     `??isIRQEnable::?relay`:
   \   000000   12....       LCALL   ?BDISPATCH
   \   000003   ......       DC24    ??isIRQEnable

   \                                 In  segment BANK_RELAYS, align 1
   \                     `??__cli::?relay_1`:
   \   000000   12....       LCALL   ?BDISPATCH
   \   000003   ......       DC24    ??__cli_1

   \                                 In  segment BANK_RELAYS, align 1
   \                     `??INIT_LIST_HEAD::?relay`:
   \   000000   12....       LCALL   ?BDISPATCH
   \   000003   ......       DC24    ??INIT_LIST_HEAD

   \                                 In  segment BANK_RELAYS, align 1
   \                     `??__list_add_valid::?relay`:
   \   000000   12....       LCALL   ?BDISPATCH
   \   000003   ......       DC24    ??__list_add_valid

   \                                 In  segment BANK_RELAYS, align 1
   \                     `??__list_del_entry_valid::?relay`:
   \   000000   12....       LCALL   ?BDISPATCH
   \   000003   ......       DC24    ??__list_del_entry_valid

   \                                 In  segment BANK_RELAYS, align 1
   \                     `??__list_add::?relay`:
   \   000000   12....       LCALL   ?BDISPATCH
   \   000003   ......       DC24    ??__list_add

   \                                 In  segment BANK_RELAYS, align 1
   \                     `??list_add::?relay`:
   \   000000   12....       LCALL   ?BDISPATCH
   \   000003   ......       DC24    ??list_add

   \                                 In  segment BANK_RELAYS, align 1
   \                     `??__list_del::?relay`:
   \   000000   12....       LCALL   ?BDISPATCH
   \   000003   ......       DC24    ??__list_del

   \                                 In  segment BANK_RELAYS, align 1
   \                     `??__list_del_entry::?relay`:
   \   000000   12....       LCALL   ?BDISPATCH
   \   000003   ......       DC24    ??__list_del_entry

   \                                 In  segment BANK_RELAYS, align 1
   \                     `??list_del::?relay`:
   \   000000   12....       LCALL   ?BDISPATCH
   \   000003   ......       DC24    ??list_del

   \                                 In  segment BANK_RELAYS, align 1
   \                     `??list_empty::?relay`:
   \   000000   12....       LCALL   ?BDISPATCH
   \   000003   ......       DC24    ??list_empty

   \                                 In  segment BANK_RELAYS, align 1
   \                     `??SW_Init::?relay`:
   \   000000   12....       LCALL   ?BDISPATCH
   \   000003   ......       DC24    ??SW_Init

   \                                 In  segment BANK_RELAYS, align 1
   \                     `??BF_rx_busy::?relay`:
   \   000000   12....       LCALL   ?BDISPATCH
   \   000003   ......       DC24    BF_rx_busy

   \                                 In  segment BANK_RELAYS, align 1
   \                     `??BF_tx_busy::?relay`:
   \   000000   12....       LCALL   ?BDISPATCH
   \   000003   ......       DC24    BF_tx_busy

   \                                 In  segment BANK_RELAYS, align 1
   \                     `??BF_available::?relay`:
   \   000000   12....       LCALL   ?BDISPATCH
   \   000003   ......       DC24    BF_available

   \                                 In  segment BANK_RELAYS, align 1
   \                     `??find_free_node::?relay`:
   \   000000   12....       LCALL   ?BDISPATCH
   \   000003   ......       DC24    ??find_free_node

   \                                 In  segment BANK_RELAYS, align 1
   \                     `??_push::?relay`:
   \   000000   12....       LCALL   ?BDISPATCH
   \   000003   ......       DC24    ??_push

   \                                 In  segment BANK_RELAYS, align 1
   \                     `??BF_push_tx::?relay`:
   \   000000   12....       LCALL   ?BDISPATCH
   \   000003   ......       DC24    BF_push_tx

   \                                 In  segment BANK_RELAYS, align 1
   \                     `??BF_push_rx::?relay`:
   \   000000   12....       LCALL   ?BDISPATCH
   \   000003   ......       DC24    BF_push_rx

   \                                 In  segment BANK_RELAYS, align 1
   \                     `??BF_cursor_rx::?relay`:
   \   000000   12....       LCALL   ?BDISPATCH
   \   000003   ......       DC24    BF_cursor_rx

   \                                 In  segment BANK_RELAYS, align 1
   \                     `??BF_cursor_tx::?relay`:
   \   000000   12....       LCALL   ?BDISPATCH
   \   000003   ......       DC24    BF_cursor_tx

   \                                 In  segment BANK_RELAYS, align 1
   \                     `??BF_cursor_next::?relay`:
   \   000000   12....       LCALL   ?BDISPATCH
   \   000003   ......       DC24    BF_cursor_next

   \                                 In  segment BANK_RELAYS, align 1
   \                     `??BF_remove::?relay`:
   \   000000   12....       LCALL   ?BDISPATCH
   \   000003   ......       DC24    BF_remove

   \                                 In  segment BANK_RELAYS, align 1
   \                     `??BF_content::?relay`:
   \   000000   12....       LCALL   ?BDISPATCH
   \   000003   ......       DC24    BF_content

   \                                 In  segment BANK_RELAYS, align 1
   \                     `??HW_Init::?relay_1`:
   \   000000   12....       LCALL   ?BDISPATCH
   \   000003   ......       DC24    ??HW_Init_1

   \                                 In  segment BANK_RELAYS, align 1
   \                     `??AES_StreamCoder::?relay`:
   \   000000   12....       LCALL   ?BDISPATCH
   \   000003   ......       DC24    AES_StreamCoder

   \                                 In  segment BANK_RELAYS, align 1
   \                     `??CTR_enc_decrypt::?relay`:
   \   000000   12....       LCALL   ?BDISPATCH
   \   000003   ......       DC24    ??CTR_enc_decrypt

   \                                 In  segment BANK_RELAYS, align 1
   \                     `??CBCMAC_buf_encrypt::?relay`:
   \   000000   12....       LCALL   ?BDISPATCH
   \   000003   ......       DC24    ??CBCMAC_buf_encrypt

   \                                 In  segment BANK_RELAYS, align 1
   \                     `??generateAuthData::?relay`:
   \   000000   12....       LCALL   ?BDISPATCH
   \   000003   ......       DC24    ??generateAuthData

   \                                 In  segment BANK_RELAYS, align 1
   \                     `??AES_CCMEncrypt::?relay`:
   \   000000   12....       LCALL   ?BDISPATCH
   \   000003   ......       DC24    AES_CCMEncrypt

   \                                 In  segment BANK_RELAYS, align 1
   \                     `??AES_CCMDecrypt::?relay`:
   \   000000   12....       LCALL   ?BDISPATCH
   \   000003   ......       DC24    AES_CCMDecrypt

   \                                 In  segment BANK_RELAYS, align 1
   \                     `??HW_Init::?relay_2`:
   \   000000   12....       LCALL   ?BDISPATCH
   \   000003   ......       DC24    ??HW_Init_2

   \                                 In  segment BANK_RELAYS, align 1
   \                     `??HW_Init::?relay_3`:
   \   000000   12....       LCALL   ?BDISPATCH
   \   000003   ......       DC24    ??HW_Init_3

   \                                 In  segment BANK_RELAYS, align 1
   \                     `??DBG_CORE_HALT::?relay`:
   \   000000   12....       LCALL   ?BDISPATCH
   \   000003   ......       DC24    DBG_CORE_HALT

   \                                 In  segment BANK_RELAYS, align 1
   \                     `??DBG_CORE_FAULT::?relay`:
   \   000000   12....       LCALL   ?BDISPATCH
   \   000003   ......       DC24    DBG_CORE_FAULT

   \                                 In  segment BANK_RELAYS, align 1
   \                     `??HW_Init::?relay_4`:
   \   000000   12....       LCALL   ?BDISPATCH
   \   000003   ......       DC24    ??HW_Init_4

   \                                 In  segment BANK_RELAYS, align 1
   \                     `??SW_Init::?relay_1`:
   \   000000   12....       LCALL   ?BDISPATCH
   \   000003   ......       DC24    ??SW_Init_1

   \                                 In  segment BANK_RELAYS, align 1
   \                     `??FR_create::?relay`:
   \   000000   12....       LCALL   ?BDISPATCH
   \   000003   ......       DC24    FR_create

   \                                 In  segment BANK_RELAYS, align 1
   \                     `??FR_delete::?relay`:
   \   000000   12....       LCALL   ?BDISPATCH
   \   000003   ......       DC24    FR_delete

   \                                 In  segment BANK_RELAYS, align 1
   \                     `??FR_add_header::?relay`:
   \   000000   12....       LCALL   ?BDISPATCH
   \   000003   ......       DC24    FR_add_header

   \                                 In  segment BANK_RELAYS, align 1
   \                     `??FR_del_header::?relay`:
   \   000000   12....       LCALL   ?BDISPATCH
   \   000003   ......       DC24    FR_del_header

   \                                 In  segment BANK_RELAYS, align 1
   \                     `??FR_busy::?relay`:
   \   000000   12....       LCALL   ?BDISPATCH
   \   000003   ......       DC24    FR_busy

   \                                 In  segment BANK_RELAYS, align 1
   \                     `??FR_available::?relay`:
   \   000000   12....       LCALL   ?BDISPATCH
   \   000003   ......       DC24    FR_available

   \                                 In  segment BANK_RELAYS, align 1
   \                     `??main::?relay`:
   \   000000   12....       LCALL   ?BDISPATCH
   \   000003   ......       DC24    main

   \                                 In  segment BANK_RELAYS, align 1
   \                     `??is_array_ptr::?relay`:
   \   000000   12....       LCALL   ?BDISPATCH
   \   000003   ......       DC24    ??is_array_ptr

   \                                 In  segment BANK_RELAYS, align 1
   \                     `??array_index::?relay`:
   \   000000   12....       LCALL   ?BDISPATCH
   \   000003   ......       DC24    ??array_index

   \                                 In  segment BANK_RELAYS, align 1
   \                     `??__cli::?relay_2`:
   \   000000   12....       LCALL   ?BDISPATCH
   \   000003   ......       DC24    ??__cli_2

   \                                 In  segment BANK_RELAYS, align 1
   \                     `??SW_Init::?relay_2`:
   \   000000   12....       LCALL   ?BDISPATCH
   \   000003   ......       DC24    ??SW_Init_2

   \                                 In  segment BANK_RELAYS, align 1
   \                     `??SL_alloc::?relay`:
   \   000000   12....       LCALL   ?BDISPATCH
   \   000003   ......       DC24    SL_alloc

   \                                 In  segment BANK_RELAYS, align 1
   \                     `??_free::?relay`:
   \   000000   12....       LCALL   ?BDISPATCH
   \   000003   ......       DC24    ??_free

   \                                 In  segment BANK_RELAYS, align 1
   \                     `??SL_free::?relay`:
   \   000000   12....       LCALL   ?BDISPATCH
   \   000003   ......       DC24    SL_free

   \                                 In  segment BANK_RELAYS, align 1
   \                     `??SL_busy::?relay`:
   \   000000   12....       LCALL   ?BDISPATCH
   \   000003   ......       DC24    SL_busy

   \                                 In  segment BANK_RELAYS, align 1
   \                     `??SL_available::?relay`:
   \   000000   12....       LCALL   ?BDISPATCH
   \   000003   ......       DC24    SL_available

   \                                 In  segment BANK_RELAYS, align 1
   \                     `??SL_zone_check::?relay`:
   \   000000   12....       LCALL   ?BDISPATCH
   \   000003   ......       DC24    SL_zone_check

   \                                 In  segment BANK_RELAYS, align 1
   \                     `??MEM_memcpy::?relay`:
   \   000000   12....       LCALL   ?BDISPATCH
   \   000003   ......       DC24    MEM_memcpy

   \                                 In  segment BANK_RELAYS, align 1
   \                     `??MEM_memset::?relay`:
   \   000000   12....       LCALL   ?BDISPATCH
   \   000003   ......       DC24    MEM_memset

   \                                 In  segment BANK_RELAYS, align 1
   \                     `??HW_Init::?relay_5`:
   \   000000   12....       LCALL   ?BDISPATCH
   \   000003   ......       DC24    ??HW_Init_5

   \                                 In  segment BANK_RELAYS, align 1
   \                     `??SW_Init::?relay_3`:
   \   000000   12....       LCALL   ?BDISPATCH
   \   000003   ......       DC24    ??SW_Init_3

   \                                 In  segment BANK_RELAYS, align 1
   \                     `??Sleep::?relay`:
   \   000000   12....       LCALL   ?BDISPATCH
   \   000003   ......       DC24    ??Sleep

   \                                 In  segment BANK_RELAYS, align 1
   \                     `??Wakeup::?relay`:
   \   000000   12....       LCALL   ?BDISPATCH
   \   000003   ......       DC24    ??Wakeup

   \                                 In  segment BANK_RELAYS, align 1
   \                     `??Cold_Start::?relay`:
   \   000000   12....       LCALL   ?BDISPATCH
   \   000003   ......       DC24    ??Cold_Start

   \                                 In  segment BANK_RELAYS, align 1
   \                     `??Hot_Start::?relay`:
   \   000000   12....       LCALL   ?BDISPATCH
   \   000003   ......       DC24    ??Hot_Start

   \                                 In  segment BANK_RELAYS, align 1
   \                     `??SW_Init::?relay_4`:
   \   000000   12....       LCALL   ?BDISPATCH
   \   000003   ......       DC24    ??SW_Init_4

   \                                 In  segment BANK_RELAYS, align 1
   \                     `??HW_Init::?relay_6`:
   \   000000   12....       LCALL   ?BDISPATCH
   \   000003   ......       DC24    ??HW_Init_6

   \                                 In  segment BANK_RELAYS, align 1
   \                     `??setFreq::?relay`:
   \   000000   12....       LCALL   ?BDISPATCH
   \   000003   ......       DC24    ??setFreq

   \                                 In  segment BANK_RELAYS, align 1
   \                     `??pre_config::?relay`:
   \   000000   12....       LCALL   ?BDISPATCH
   \   000003   ......       DC24    ??pre_config

   \                                 In  segment BANK_RELAYS, align 1
   \                     `??RI_SetChannel::?relay`:
   \   000000   12....       LCALL   ?BDISPATCH
   \   000003   ......       DC24    RI_SetChannel

   \                                 In  segment BANK_RELAYS, align 1
   \                     `??LoadTXData::?relay`:
   \   000000   12....       LCALL   ?BDISPATCH
   \   000003   ......       DC24    ??LoadTXData

   \                                 In  segment BANK_RELAYS, align 1
   \                     `??SendData::?relay`:
   \   000000   12....       LCALL   ?BDISPATCH
   \   000003   ......       DC24    ??SendData

   \                                 In  segment BANK_RELAYS, align 1
   \                     `??RI_Send::?relay`:
   \   000000   12....       LCALL   ?BDISPATCH
   \   000003   ......       DC24    RI_Send

   \                                 In  segment BANK_RELAYS, align 1
   \                     `??UnLoadRXData::?relay`:
   \   000000   12....       LCALL   ?BDISPATCH
   \   000003   ......       DC24    ??UnLoadRXData

   \                                 In  segment BANK_RELAYS, align 1
   \                     `??RecvData::?relay`:
   \   000000   12....       LCALL   ?BDISPATCH
   \   000003   ......       DC24    ??RecvData

   \                                 In  segment BANK_RELAYS, align 1
   \                     `??RI_Receive::?relay`:
   \   000000   12....       LCALL   ?BDISPATCH
   \   000003   ......       DC24    RI_Receive

   \                                 In  segment BANK_RELAYS, align 1
   \                     `??bits_count::?relay`:
   \   000000   12....       LCALL   ?BDISPATCH
   \   000003   ......       DC24    ??bits_count

   \                                 In  segment BANK_RELAYS, align 1
   \                     `??getRNDByte::?relay`:
   \   000000   12....       LCALL   ?BDISPATCH
   \   000003   ......       DC24    ??getRNDByte

   \                                 In  segment BANK_RELAYS, align 1
   \                     `??readRandom::?relay`:
   \   000000   12....       LCALL   ?BDISPATCH
   \   000003   ......       DC24    ??readRandom

   \                                 In  segment BANK_RELAYS, align 1
   \                     `??random_core_init::?relay`:
   \   000000   12....       LCALL   ?BDISPATCH
   \   000003   ......       DC24    ??random_core_init

   \                                 In  segment BANK_RELAYS, align 1
   \                     `??RI_Measure_POW::?relay`:
   \   000000   12....       LCALL   ?BDISPATCH
   \   000003   ......       DC24    RI_Measure_POW

   \                                 In  segment BANK_RELAYS, align 1
   \                     `??SW_Init::?relay_5`:
   \   000000   12....       LCALL   ?BDISPATCH
   \   000003   ......       DC24    ??SW_Init_5

   \                                 In  segment BANK_RELAYS, align 1
   \                     `??__cli::?relay_3`:
   \   000000   12....       LCALL   ?BDISPATCH
   \   000003   ......       DC24    ??__cli_3

   \                                 In  segment BANK_RELAYS, align 1
   \                     `??TM_SetAlarm::?relay`:
   \   000000   12....       LCALL   ?BDISPATCH
   \   000003   ......       DC24    TM_SetAlarm

   \                                 In  segment BANK_RELAYS, align 1
   \                     `??TM_ClrAlarm::?relay`:
   \   000000   12....       LCALL   ?BDISPATCH
   \   000003   ......       DC24    TM_ClrAlarm

   \                                 In  segment BANK_RELAYS, align 1
   \                     `??_inc_timeslot::?relay`:
   \   000000   12....       LCALL   ?BDISPATCH
   \   000003   ......       DC24    ??_inc_timeslot

   \                                 In  segment BANK_RELAYS, align 1
   \                     `??_find_next_active::?relay`:
   \   000000   12....       LCALL   ?BDISPATCH
   \   000003   ......       DC24    ??_find_next_active

   \                                 In  segment BANK_RELAYS, align 1
   \                     `??scheulder_next_alarm::?relay`:
   \   000000   12....       LCALL   ?BDISPATCH
   \   000003   ......       DC24    ??scheulder_next_alarm

   \                                 In  segment BANK_RELAYS, align 1
   \                     `??TM_IRQ::?relay`:
   \   000000   12....       LCALL   ?BDISPATCH
   \   000003   ......       DC24    TM_IRQ

   \                                 In  segment BANK_RELAYS, align 1
   \                     `??mcu_sleep::?relay`:
   \   000000   12....       LCALL   ?BDISPATCH
   \   000003   ......       DC24    ??mcu_sleep

   \                                 In  segment BANK_RELAYS, align 1
   \                     `??_clr_all::?relay`:
   \   000000   12....       LCALL   ?BDISPATCH
   \   000003   ......       DC24    ??_clr_all

   \                                 In  segment BANK_RELAYS, align 1
   \                     `??init::?relay`:
   \   000000   12....       LCALL   ?BDISPATCH
   \   000003   ......       DC24    ??init

   \                                 In  segment BANK_RELAYS, align 1
   \                     `??start_mode_1::?relay`:
   \   000000   12....       LCALL   ?BDISPATCH
   \   000003   ......       DC24    ??start_mode_1

   \                                 In  segment BANK_RELAYS, align 1
   \                     `??start_mode_2::?relay`:
   \   000000   12....       LCALL   ?BDISPATCH
   \   000003   ......       DC24    ??start_mode_2

   \                                 In  segment BANK_RELAYS, align 1
   \                     `??Neocore_start::?relay`:
   \   000000   12....       LCALL   ?BDISPATCH
   \   000003   ......       DC24    Neocore_start

   \                                 In  segment BANK_RELAYS, align 1
   \                     `??u_alarm_timer::?relay`:
   \   000000   12....       LCALL   ?BDISPATCH
   \   000003   ......       DC24    u_alarm_timer

   \                                 In  segment BANK_RELAYS, align 1
   \                     `??test3::?relay`:
   \   000000   12....       LCALL   ?BDISPATCH
   \   000003   ......       DC24    ??test3

   \                                 In  segment BANK_RELAYS, align 1
   \                     `??test2::?relay`:
   \   000000   12....       LCALL   ?BDISPATCH
   \   000003   ......       DC24    ??test2

   \                                 In  segment BANK_RELAYS, align 1
   \                     `??test1::?relay`:
   \   000000   12....       LCALL   ?BDISPATCH
   \   000003   ......       DC24    ??test1

   \                                 In  segment BANK_RELAYS, align 1
   \                     `??ch_cmp::?relay`:
   \   000000   12....       LCALL   ?BDISPATCH
   \   000003   ......       DC24    ??ch_cmp

   \                                 In  segment BANK_RELAYS, align 1
   \                     `??ch_cmp_val::?relay`:
   \   000000   12....       LCALL   ?BDISPATCH
   \   000003   ......       DC24    ??ch_cmp_val

   \                                 In  segment BANK_RELAYS, align 1
   \                     `??test3::?relay_1`:
   \   000000   12....       LCALL   ?BDISPATCH
   \   000003   ......       DC24    ??test3_1

   \                                 In  segment BANK_RELAYS, align 1
   \                     `??test2::?relay_1`:
   \   000000   12....       LCALL   ?BDISPATCH
   \   000003   ......       DC24    ??test2_1

   \                                 In  segment BANK_RELAYS, align 1
   \                     `??test1::?relay_1`:
   \   000000   12....       LCALL   ?BDISPATCH
   \   000003   ......       DC24    ??test1_1

   \                                 In  segment BANK_RELAYS, align 1
   \                     `??test2::?relay_2`:
   \   000000   12....       LCALL   ?BDISPATCH
   \   000003   ......       DC24    ??test2_2

   \                                 In  segment BANK_RELAYS, align 1
   \                     `??test1::?relay_2`:
   \   000000   12....       LCALL   ?BDISPATCH
   \   000003   ......       DC24    ??test1_2

   \                                 In  segment BANK_RELAYS, align 1
   \                     `??test3::?relay_2`:
   \   000000   12....       LCALL   ?BDISPATCH
   \   000003   ......       DC24    ??test3_2

   \                                 In  segment BANK_RELAYS, align 1
   \                     `??test2::?relay_3`:
   \   000000   12....       LCALL   ?BDISPATCH
   \   000003   ......       DC24    ??test2_3

   \                                 In  segment BANK_RELAYS, align 1
   \                     `??test1::?relay_3`:
   \   000000   12....       LCALL   ?BDISPATCH
   \   000003   ......       DC24    ??test1_3

   \                                 In  segment BANK_RELAYS, align 1
   \                     `??u_mem_utils::?relay`:
   \   000000   12....       LCALL   ?BDISPATCH
   \   000003   ......       DC24    u_mem_utils

   \                                 In  segment BANK_RELAYS, align 1
   \                     `??HW_Init::?relay_7`:
   \   000000   12....       LCALL   ?BDISPATCH
   \   000003   ......       DC24    ??HW_Init_7

   \                                 In  segment BANK_RELAYS, align 1
   \                     `??UST_now::?relay`:
   \   000000   12....       LCALL   ?BDISPATCH
   \   000003   ......       DC24    UST_now

   \                                 In  segment BANK_RELAYS, align 1
   \                     `??UST_time_over::?relay`:
   \   000000   12....       LCALL   ?BDISPATCH
   \   000003   ......       DC24    UST_time_over

   \                                 In  segment BANK_RELAYS, align 1
   \                     `??UST_interval::?relay`:
   \   000000   12....       LCALL   ?BDISPATCH
   \   000003   ......       DC24    UST_interval

   \                                 In  segment BANK_RELAYS, align 1
   \                     `??UST_delay::?relay`:
   \   000000   12....       LCALL   ?BDISPATCH
   \   000003   ......       DC24    UST_delay

   \                                 In  segment BANK_RELAYS, align 1
   \                     `??_interval::?relay`:
   \   000000   12....       LCALL   ?BDISPATCH
   \   000003   ......       DC24    _interval

   \                                 In  segment BANK_RELAYS, align 1
   \                     `??DelayCalibrate::?relay`:
   \   000000   12....       LCALL   ?BDISPATCH
   \   000003   ......       DC24    ??DelayCalibrate

   \                                 In  segment BANK_RELAYS, align 1
   \                     `??run_unit_fun::?relay`:
   \   000000   12....       LCALL   ?BDISPATCH
   \   000003   ......       DC24    ??run_unit_fun

   \                                 In  segment BANK_RELAYS, align 1
   \                     `??show_grating::?relay`:
   \   000000   12....       LCALL   ?BDISPATCH
   \   000003   ......       DC24    ??show_grating

   \                                 In  segment BANK_RELAYS, align 1
   \                     `??show_statistic::?relay`:
   \   000000   12....       LCALL   ?BDISPATCH
   \   000003   ......       DC24    ??show_statistic

   \                                 In  segment BANK_RELAYS, align 1
   \                     `??run_tests::?relay`:
   \   000000   12....       LCALL   ?BDISPATCH
   \   000003   ......       DC24    run_tests

   \                                 In  segment XDATA_ROM_C, align 1
   \                     `?<Constant "%s:%d:%s -> ">`:
   \   000000   25733A25     DB "%s:%d:%s -> "
   \            643A2573
   \            202D3E20
   \            00      

   \                                 In  segment XDATA_ROM_C, align 1
   \                     `?<Constant "action_manager.c">`:
   \   000000   61637469     DB "action_manager.c"
   \            6F6E5F6D
   \            616E6167
   \            65722E63
   \            00      

   \                                 In  segment XDATA_ROM_C, align 1
   \                     `?<Constant "\\"COLD_MOD[i]->Cold_St...">`:
   \   000000   22434F4C     DB "\"COLD_MOD[i]->Cold_Start != NULL\" Faild! \015\012"
   \            445F4D4F
   \            445B695D
   \            2D3E436F
   \            6C645F53
   \            74617274
   \            20213D20
   \            4E554C4C
   \            22204661
   \            696C6421
   \            200D0A00

   \                                 In  segment XDATA_ROM_C, align 1
   \                     `?<Constant "\\"HOT_MOD[i]->Hot_Star...">`:
   \   000000   22484F54     DB "\"HOT_MOD[i]->Hot_Start != NULL\" Faild! \015\012"
   \            5F4D4F44
   \            5B695D2D
   \            3E486F74
   \            5F537461
   \            72742021
   \            3D204E55
   \            4C4C2220
   \            4661696C
   \            6421200D
   \            0A00    

   \                                 In  segment XDATA_ROM_C, align 1
   \                     `?<Constant "\\"HW_MOD[i]->HW_Init !...">`:
   \   000000   2248575F     DB "\"HW_MOD[i]->HW_Init != NULL\" Faild! \015\012"
   \            4D4F445B
   \            695D2D3E
   \            48575F49
   \            6E697420
   \            213D204E
   \            554C4C22
   \            20466169
   \            6C642120
   \            0D0A00  

   \                                 In  segment XDATA_ROM_C, align 1
   \                     `?<Constant "\\"SW_MOD[i]->SW_Init !...">`:
   \   000000   2253575F     DB "\"SW_MOD[i]->SW_Init != NULL\" Faild! \015\012"
   \            4D4F445B
   \            695D2D3E
   \            53575F49
   \            6E697420
   \            213D204E
   \            554C4C22
   \            20466169
   \            6C642120
   \            0D0A00  

   \                                 In  segment XDATA_ROM_C, align 1
   \                     `?<Constant "\\"POW_MOD[i]->Sleep !=...">`:
   \   000000   22504F57     DB "\"POW_MOD[i]->Sleep != NULL\" Faild! \015\012"
   \            5F4D4F44
   \            5B695D2D
   \            3E536C65
   \            65702021
   \            3D204E55
   \            4C4C2220
   \            4661696C
   \            6421200D
   \            0A00    

   \                                 In  segment XDATA_ROM_C, align 1
   \                     `?<Constant "\\"POW_MOD[i]->Wakeup !...">`:
   \   000000   22504F57     DB "\"POW_MOD[i]->Wakeup != NULL\" Faild! \015\012"
   \            5F4D4F44
   \            5B695D2D
   \            3E57616B
   \            65757020
   \            213D204E
   \            554C4C22
   \            20466169
   \            6C642120
   \            0D0A00  

   \                                 In  segment XDATA_ROM_C, align 1
   \                     `?<Constant "%s:%d:%s -> ">_1`:
   \   000000   25733A25     DB "%s:%d:%s -> "
   \            643A2573
   \            202D3E20
   \            00      

   \                                 In  segment XDATA_ROM_C, align 1
   \                     `?<Constant "alarm_timer.c">`:
   \   000000   616C6172     DB "alarm_timer.c"
   \            6D5F7469
   \            6D65722E
   \            6300    

   \                                 In  segment XDATA_ROM_C, align 1
   \                     `?<Constant "\\"time <= MAX_NWTIME\\" ...">`:
   \   000000   2274696D     DB "\"time <= MAX_NWTIME\" Faild! \015\012"
   \            65203C3D
   \            204D4158
   \            5F4E5754
   \            494D4522
   \            20466169
   \            6C642120
   \            0D0A00  

   \                                 In  segment XDATA_ROM_C, align 1
   \                     `?<Constant "\\"alarm <= MAX_NWTIME\\"...">`:
   \   000000   22616C61     DB "\"alarm <= MAX_NWTIME\" Faild! \015\012"
   \            726D203C
   \            3D204D41
   \            585F4E57
   \            54494D45
   \            22204661
   \            696C6421
   \            200D0A00

   \                                 In  segment XDATA_ROM_C, align 1
   \                     `?<Constant "%s:%d:%s -> ">_2`:
   \   000000   25733A25     DB "%s:%d:%s -> "
   \            643A2573
   \            202D3E20
   \            00      

   \                                 In  segment XDATA_ROM_C, align 1
   \                     `?<Constant "buffer.c">`:
   \   000000   62756666     DB "buffer.c"
   \            65722E63
   \            00      

   \                                 In  segment XDATA_ROM_C, align 1
   \                     `?<Constant "\\"summ <= MAX_TXRX_BUF...">`:
   \   000000   2273756D     DB "\"summ <= MAX_TXRX_BUFF_SIZE\" Faild! \015\012"
   \            6D203C3D
   \            204D4158
   \            5F545852
   \            585F4255
   \            46465F53
   \            495A4522
   \            20466169
   \            6C642120
   \            0D0A00  

   \                                 In  segment XDATA_ROM_C, align 1
   \                     `?<Constant "\\"frame != NULL\\" Faild...">`:
   \   000000   22667261     DB "\"frame != NULL\" Faild! \015\012"
   \            6D652021
   \            3D204E55
   \            4C4C2220
   \            4661696C
   \            6421200D
   \            0A00    

   \                                 In  segment XDATA_ROM_C, align 1
   \                     `?<Constant "%s:%d:%s -> ">_3`:
   \   000000   25733A25     DB "%s:%d:%s -> "
   \            643A2573
   \            202D3E20
   \            00      

   \                                 In  segment XDATA_ROM_C, align 1
   \                     `?<Constant "mem_slots.c">`:
   \   000000   6D656D5F     DB "mem_slots.c"
   \            736C6F74
   \            732E6300

   \                                 In  segment XDATA_ROM_C, align 1
   \                     `?<Constant "\\"slot_busy <= SLOT_PO...">`:
   \   000000   22736C6F     DB "\"slot_busy <= SLOT_POOL_ITEMS\" Faild! \015\012"
   \            745F6275
   \            7379203C
   \            3D20534C
   \            4F545F50
   \            4F4F4C5F
   \            4954454D
   \            53222046
   \            61696C64
   \            21200D0A
   \            00      

   \                                 In  segment XDATA_ROM_C, align 1
   \                     `?<Constant "%s:%d:%s -> ">_4`:
   \   000000   25733A25     DB "%s:%d:%s -> "
   \            643A2573
   \            202D3E20
   \            00      

   \                                 In  segment XDATA_ROM_C, align 1
   \                     `?<Constant "radio.c">`:
   \   000000   72616469     DB "radio.c"
   \            6F2E6300

   \                                 In  segment XDATA_ROM_C, align 1
   \                     `?<Constant "\\"(ch >= MIN_CH) && (c...">`:
   \   000000   22286368     DB "\"(ch >= MIN_CH) && (ch <= MAX_CH)\" Faild! \015\012"
   \            203E3D20
   \            4D494E5F
   \            43482920
   \            26262028
   \            6368203C
   \            3D204D41
   \            585F4348
   \            29222046
   \            61696C64
   \            21200D0A
   \            00      

   \                                 In  segment XDATA_ROM_C, align 1
   \                     `?<Constant "\\"fr != NULL\\" Faild! \\r\\n">`:
   \   000000   22667220     DB "\"fr != NULL\" Faild! \015\012"
   \            213D204E
   \            554C4C22
   \            20466169
   \            6C642120
   \            0D0A00  

   \                                 In  segment XDATA_ROM_C, align 1
   \                     `?<Constant "\\"!frame\\" Faild! \\r\\n">`:
   \   000000   22216672     DB "\"!frame\" Faild! \015\012"
   \            616D6522
   \            20466169
   \            6C642120
   \            0D0A00  

   \                                 In  segment XDATA_ROM_C, align 1
   \                     `?<Constant "\\"add_h\\" Faild! \\r\\n">`:
   \   000000   22616464     DB "\"add_h\" Faild! \015\012"
   \            5F682220
   \            4661696C
   \            6421200D
   \            0A00    

   \                                 In  segment XDATA_ROM_C, align 1
   \                     `?<Constant "%s:%d:%s -> ">_5`:
   \   000000   25733A25     DB "%s:%d:%s -> "
   \            643A2573
   \            202D3E20
   \            00      

   \                                 In  segment XDATA_ROM_C, align 1
   \                     `?<Constant "time_manager.c">`:
   \   000000   74696D65     DB "time_manager.c"
   \            5F6D616E
   \            61676572
   \            2E6300  

   \                                 In  segment XDATA_ROM_C, align 1
   \                     `?<Constant "\\"slot < MAX_TIME_SLOT...">`:
   \   000000   22736C6F     DB "\"slot < MAX_TIME_SLOTS\" Faild! \015\012"
   \            74203C20
   \            4D41585F
   \            54494D45
   \            5F534C4F
   \            54532220
   \            4661696C
   \            6421200D
   \            0A00    

   \                                 In  segment XDATA_ROM_C, align 1
   \                     `?<Constant "Incorrect MODEL.TM.MODE">`:
   \   000000   496E636F     DB "Incorrect MODEL.TM.MODE"
   \            72726563
   \            74204D4F
   \            44454C2E
   \            544D2E4D
   \            4F444500

   \                                 In  segment XDATA_ROM_C, align 1
   \                     `?<Constant {1, 2, 3, 4, 5, 6, 7, 8, 9, 10}>`:
   \   000000   01           DB 1
   \   000001   02           DB 2
   \   000002   03           DB 3
   \   000003   04           DB 4
   \   000004   05           DB 5
   \   000005   06           DB 6
   \   000006   07           DB 7
   \   000007   08           DB 8
   \   000008   09           DB 9
   \   000009   0A           DB 10

   \                                 In  segment XDATA_ROM_C, align 1
   \                     `?<Constant {1, 2, 3, 4, 5, 6, 7, 8, 9, 10}>_1`:
   \   000000   01           DB 1
   \   000001   02           DB 2
   \   000002   03           DB 3
   \   000003   04           DB 4
   \   000004   05           DB 5
   \   000005   06           DB 6
   \   000006   07           DB 7
   \   000007   08           DB 8
   \   000008   09           DB 9
   \   000009   0A           DB 10

   \                                 In  segment XDATA_ROM_C, align 1
   \                     `?<Constant "%s:%d:%s -> ">_6`:
   \   000000   25733A25     DB "%s:%d:%s -> "
   \            643A2573
   \            202D3E20
   \            00      

   \                                 In  segment XDATA_ROM_C, align 1
   \                     `?<Constant "u_mem_utils.c">`:
   \   000000   755F6D65     DB "u_mem_utils.c"
   \            6D5F7574
   \            696C732E
   \            6300    

   \                                 In  segment XDATA_ROM_C, align 1
   \                     `?<Constant "\\"cmp_res == 0\\" Faild! \\r\\n">`:
   \   000000   22636D70     DB "\"cmp_res == 0\" Faild! \015\012"
   \            5F726573
   \            203D3D20
   \            30222046
   \            61696C64
   \            21200D0A
   \            00      

   \                                 In  segment XDATA_ROM_C, align 1
   \                     `?<Constant "MEM_memcpy ok!">`:
   \   000000   4D454D5F     DB "MEM_memcpy ok!"
   \            6D656D63
   \            7079206F
   \            6B2100  

   \                                 In  segment XDATA_ROM_C, align 1
   \                     `?<Constant "\\r\\n">`:
   \   000000   0D0A00       DB "\015\012"

   \                                 In  segment XDATA_ROM_C, align 1
   \                     `?<Constant "MEM_memset ok!">`:
   \   000000   4D454D5F     DB "MEM_memset ok!"
   \            6D656D73
   \            6574206F
   \            6B2100  

   \                                 In  segment XDATA_ROM_C, align 1
   \                     `?<Constant "Test function not ass...">`:
   \   000000   54657374     DB "Test function not assigned!!!"
   \            2066756E
   \            6374696F
   \            6E206E6F
   \            74206173
   \            7369676E
   \            65642121
   \            2100    

   \                                 In  segment XDATA_ROM_C, align 1
   \                     `?<Constant "TESTING:\\t%-32s">`:
   \   000000   54455354     DB "TESTING:\t%-32s"
   \            494E473A
   \            09252D33
   \            327300  

   \                                 In  segment XDATA_ROM_C, align 1
   \                     `?<Constant "\\tPASSED\\r\\n">`:
   \   000000   09504153     DB "\tPASSED\015\012"
   \            5345440D
   \            0A00    

   \                                 In  segment XDATA_ROM_C, align 1
   \                     `?<Constant "\\tERR = %d. FAILED <--...">`:
   \   000000   09455252     DB "\tERR = %d. FAILED <--------------\015\012"
   \            203D2025
   \            642E2046
   \            41494C45
   \            44203C2D
   \            2D2D2D2D
   \            2D2D2D2D
   \            2D2D2D2D
   \            2D0D0A00

   \                                 In  segment XDATA_ROM_C, align 1
   \                     `?<Constant "Begin unit test\\r\\n">`:
   \   000000   42656769     DB "Begin unit test\015\012"
   \            6E20756E
   \            69742074
   \            6573740D
   \            0A00    

   \                                 In  segment XDATA_ROM_C, align 1
   \                     `?<Constant "\\r\\n###################...">`:
   \   000000   0D0A2323     DB "\015\012##########################################\015\012"
   \            23232323
   \            23232323
   \            23232323
   \            23232323
   \            23232323
   \            23232323
   \            23232323
   \            23232323
   \            23232323
   \            23232323
   \            0D0A00  

   \                                 In  segment XDATA_ROM_C, align 1
   \                     `?<Constant "Test runned: \\t%d\\r\\n">`:
   \   000000   54657374     DB "Test runned: \t%d\015\012"
   \            2072756E
   \            6E65643A
   \            20092564
   \            0D0A00  

   \                                 In  segment XDATA_ROM_C, align 1
   \                     `?<Constant "Test passed: \\t%d\\r\\n">`:
   \   000000   54657374     DB "Test passed: \t%d\015\012"
   \            20706173
   \            7365643A
   \            20092564
   \            0D0A00  

   \                                 In  segment XDATA_ROM_C, align 1
   \                     `?<Constant "Succes!\\r\\n">`:
   \   000000   53756363     DB "Succes!\015\012"
   \            6573210D
   \            0A00    

   \                                 In  segment XDATA_ROM_C, align 1
   \                     `?<Constant "Failed!\\r\\n">`:
   \   000000   4661696C     DB "Failed!\015\012"
   \            6564210D
   \            0A00    

   \                                 In  segment XDATA_ROM_C, align 1
   \                     __Constant_7fff:
   \   000000   FF7F0000     DD 32767

   \                                 In  segment XDATA_ROM_C, align 1
   \                     __Constant_ffff8000:
   \   000000   0080FFFF     DD 4294934528

   \                                 In  segment XDATA_ROM_C, align 1
   \                     __Constant_8000:
   \   000000   00800000     DD 32768

   \                                 In  segment XDATA_ROM_C, align 1
   \                     __Constant_ffffff:
   \   000000   FFFFFF00     DD 16777215

   \                                 In  segment XDATA_ROM_C, align 1
   \                     __Constant_1:
   \   000000   01000000     DD 1

   \                                 In  segment XDATA_ROM_C, align 1
   \                     __Constant_20:
   \   000000   20000000     DD 32

   \                                 In  segment XDATA_ROM_C, align 1
   \                     __Constant_1f4:
   \   000000   F4010000     DD 500

   \                                 In  segment XDATA_ROM_C, align 1
   \                     __Constant_ffffc180:
   \   000000   80C1FFFF     DD 4294951296

   Maximum stack usage in bytes:

   ISTACK XSTACK Function
   ------ ------ --------
      1     74   AES_CCMDecrypt
        0     68   -> CBCMAC_buf_encrypt
        0     72   -> CTR_enc_decrypt
        0     70   -> generateAuthData
        0     70   -> memcpy
        0     70   -> memset
      1     58   AES_CCMEncrypt
        0     52   -> CBCMAC_buf_encrypt
        0     56   -> CTR_enc_decrypt
        0     54   -> generateAuthData
        0     54   -> memcpy
        0     54   -> memset
      0     43   AES_StreamCoder
        0     43   -> memcpy
        0     43   -> memset
      0     16   AM_Cold_start
        0     10   -> DBG_CORE_HALT
        0     10   -> printf
        0     16   -> printf
      0     16   AM_HW_Init
        0     10   -> DBG_CORE_HALT
        0     10   -> printf
        0     16   -> printf
      0     25   AM_Hot_start
        0     10   -> DBG_CORE_HALT
        0     10   -> printf
        0     16   -> printf
      0     26   AM_SW_Init
        0     10   -> DBG_CORE_HALT
        0     10   -> printf
        0     16   -> printf
      0     16   AM_Sleep
        0     10   -> DBG_CORE_HALT
        0     10   -> printf
        0     16   -> printf
      0     16   AM_Wakeup
        0     10   -> DBG_CORE_HALT
        0     10   -> printf
        0     16   -> printf
      0     18   AT_enable
        0      9   -> IRQEnable
        0      9   -> __cli
      0     32   AT_set_alarm
        0     12   -> DBG_CORE_HALT
        0     12   -> IRQEnable
        0     12   -> calcCompareTime
        0     12   -> loadTimerCompare
        0     12   -> printf
        0     18   -> printf
      0     20   AT_set_time
        0     14   -> AT_set_alarm
        0     14   -> DBG_CORE_HALT
        0     14   -> ReadTimer
        0     14   -> isIRQEnable
        0     14   -> printf
        0     20   -> printf
      0     83   AT_time
        0     16   -> ReadTimer
      0     77   AT_wait
        0     12   -> DBG_CORE_HALT
        0     12   -> printf
        0     18   -> printf
      0     74   BF_available
        0     10   -> DBG_CORE_HALT
        0     10   -> printf
        0     16   -> printf
      2     58   BF_content
      0     69   BF_cursor_next
        0     11   -> __cli
      0     68   BF_cursor_rx
        0     10   -> __cli
        0     10   -> list_empty
      0     68   BF_cursor_tx
        0     10   -> __cli
        0     10   -> list_empty
      0     67   BF_push_rx
        0      9   -> __cli
        0      9   -> _push
      0     67   BF_push_tx
        0      9   -> __cli
        0      9   -> _push
      0     69   BF_remove
        0     11   -> __cli
        0     11   -> list_del
      2     58   BF_rx_busy
      2     58   BF_tx_busy
      0    118   CBCMAC_buf_encrypt
        0     50   -> memcpy
        0     50   -> memset
      0    111   CTR_enc_decrypt
        0     39   -> memcpy
        0     39   -> memset
      0      0   Cold_Start
      0      0   DBG_CORE_FAULT
      0     41   DBG_CORE_HALT
      0     24   DelayCalibrate
        0     20   -> UST_delay
        0     20   -> UST_now
        0     24   -> _interval
      1     59   FR_add_header
        0     23   -> MEM_memcpy
      2     52   FR_available
        2      0   -> SL_available
      2     52   FR_busy
        2      0   -> SL_busy
      2     58   FR_create
        2      0   -> SL_alloc
      1     40   FR_del_header
        0     18   -> MEM_memcpy
        0     18   -> MEM_memset
      0     67   FR_delete
        0      9   -> SL_free
      2      0   HW_Init
        2      0   -> IRQEnable
      2      0   HW_Init
      0      0   HW_Init
      0      0   HW_Init
      0      0   HW_Init
      3      1   HW_Init
      0      0   HW_Init
      2      0   HW_Init
        2      0   -> DelayCalibrate
      0      0   Hot_Start
      2      9   INIT_LIST_HEAD
      0     15   IRQEnable
      2     59   LoadTXData
      3     41   MEM_memcpy
      3     41   MEM_memset
      0     16   Neocore_start
        0     10   -> DBG_CORE_HALT
        0     10   -> printf
        0     16   -> printf
        0     10   -> start_mode_1
        0     10   -> start_mode_2
      1     16   RI_Measure_POW
        0     14   -> UST_delay
      1     42   RI_Receive
        0     36   -> DBG_CORE_HALT
        0     36   -> FR_add_header
        0     36   -> FR_create
        0     38   -> RecvData
        0     40   -> UST_interval
        0     36   -> UST_now
        0     36   -> UnLoadRXData
        0     36   -> pre_config
        0     36   -> printf
        0     42   -> printf
      0     36   RI_Send
        0     30   -> DBG_CORE_HALT
        0     30   -> SendData
        0     34   -> UST_interval
        0     30   -> UST_now
        0     30   -> pre_config
        0     30   -> printf
        0     36   -> printf
      2      0   RI_SetChannel
      2     22   ReadTimer
      0    109   RecvData
        0     67   -> AT_time
        0     67   -> UST_now
        0     71   -> UST_time_over
      0     65   SL_alloc
        0     13   -> MEM_memset
        0     13   -> __cli
      0     68   SL_available
        0     10   -> DBG_CORE_HALT
        0     10   -> printf
        0     16   -> printf
      0     68   SL_busy
        0     10   -> DBG_CORE_HALT
        0     10   -> printf
        0     16   -> printf
      0     61   SL_free
        0      9   -> __cli
        0      9   -> _free
      2     16   SL_zone_check
      0      9   SW_Init
        0      9   -> INIT_LIST_HEAD
      0      0   SW_Init
      0     13   SW_Init
        0     13   -> MEM_memset
      0      0   SW_Init
      2      0   SW_Init
        2      0   -> random_core_init
      0      0   SW_Init
      0     89   SendData
        0     59   -> AT_time
        0     59   -> AT_wait
        0     59   -> LoadTXData
      0      0   Sleep
      0     16   TM_ClrAlarm
        0     10   -> DBG_CORE_HALT
        0     10   -> printf
        0     16   -> printf
      0     24   TM_IRQ
        0      9   -> AM_Hot_start
        0      9   -> AT_enable
        0      9   -> __cli
        0      9   -> scheulder_next_alarm
      0     16   TM_SetAlarm
        0     10   -> DBG_CORE_HALT
        0     10   -> printf
        0     16   -> printf
      0     15   TimerCompareInterrupt
        0     15   -> AT_time
        0     15   -> IRQEnable
        0     15   -> TM_IRQ
      0     52   UST_delay
        0     32   -> UST_now
      0     64   UST_interval
      3     71   UST_now
      2     91   UST_time_over
        0     20   -> UST_now
      3     36   UnLoadRXData
      0      0   Wakeup
      0      9   __cli
      0     13   __cli
      0     11   __cli
      0      9   __cli
      0     26   __list_add
        0     14   -> __list_add_valid
      0     14   __list_add_valid
      2      9   __list_del
      0     18   __list_del_entry
        0      9   -> __list_del
        0      9   -> __list_del_entry_valid
      0      9   __list_del_entry_valid
      2      0   _clr_all
      0     18   _find_next_active
        0      9   -> _inc_timeslot
      0     23   _free
        0     14   -> array_index
        0     14   -> is_array_ptr
      0      9   _inc_timeslot
      0     48   _interval
      0     29   _push
        0     14   -> DBG_CORE_HALT
        0     14   -> find_free_node
        0     14   -> list_add
        0     14   -> printf
        0     20   -> printf
      0     26   array_index
      0      9   bits_count
      2     34   calcCompareTime
        0     22   -> ReadTimer
      0     33   ch_cmp
      0     31   ch_cmp_val
      0     23   find_free_node
        0      9   -> INIT_LIST_HEAD
      0     88   generateAuthData
        0     18   -> memcpy
      2      9   getRNDByte
      2      0   init
        2      0   -> AT_enable
        2      0   -> _clr_all
        2      0   -> scheulder_next_alarm
      0     14   isIRQEnable
      0     26   is_array_ptr
      0     26   list_add
        0     12   -> __list_add
      0     20   list_del
        0      9   -> __list_del_entry
      2     10   list_empty
      0     28   loadTimerCompare
      0      0   main
        0      0   -> run_tests
      0      0   mcu_sleep
      2     36   pre_config
        2      0   -> setFreq
      0      9   random_core_init
        0      9   -> pre_config
        0      9   -> rand
        0      9   -> readRandom
        0      9   -> srand
      0     18   readRandom
        0      9   -> bits_count
        0      9   -> getRNDByte
      0     10   run_tests
        0     10   -> AM_SW_Init
        0     10   -> run_unit_fun
        0     10   -> show_grating
        0     10   -> show_statistic
      0     26   run_unit_fun
        0     14   -> printf
        0     16   -> printf
      0     18   scheulder_next_alarm
        0      9   -> AT_set_alarm
        0      9   -> _find_next_active
      1     17   setFreq
        0     11   -> DBG_CORE_HALT
        0     11   -> printf
        0     17   -> printf
      2     10   show_grating
        2      0   -> printf
      2     12   show_statistic
        2      0   -> printf
        2      2   -> printf
      2     10   start_mode_1
        2      0   -> AM_Cold_start
        2      0   -> AM_SW_Init
        2      0   -> AM_Sleep
        2      0   -> AM_Wakeup
        2      0   -> init
        2      0   -> mcu_sleep
      2     10   start_mode_2
        2      0   -> AM_SW_Init
        2      0   -> init
      0     10   test1
        0     10   -> SL_alloc
        0     10   -> SL_available
        0     10   -> SL_busy
        0     10   -> SL_free
      0     59   test1
      0     12   test1
        0     12   -> FR_available
        0     12   -> FR_busy
        0     12   -> FR_create
        0     12   -> FR_delete
      0     18   test1
        0     18   -> BF_content
        0     18   -> BF_cursor_next
        0     18   -> BF_cursor_tx
        0     18   -> BF_push_tx
        0     18   -> BF_remove
        0     18   -> FR_create
        0     18   -> FR_delete
      0     59   test2
      0     52   test2
        0     52   -> FR_available
        0     52   -> FR_busy
        0     52   -> FR_create
        0     52   -> FR_delete
      0     58   test2
        0     58   -> BF_content
        0     58   -> BF_cursor_next
        0     58   -> BF_cursor_tx
        0     58   -> BF_push_tx
        0     58   -> BF_remove
        0     58   -> FR_create
        0     58   -> FR_delete
      0     52   test2
        0     52   -> SL_alloc
        0     52   -> SL_available
        0     52   -> SL_busy
        0     52   -> SL_free
      0     16   test3
        0     16   -> SL_alloc
        0     16   -> SL_zone_check
      0     24   test3
        0     22   -> FR_add_header
        0     22   -> FR_create
        0     22   -> FR_del_header
        0     24   -> ch_cmp
        0     22   -> ch_cmp_val
      0     58   test3
        0     58   -> BF_available
        0     58   -> BF_content
        0     58   -> BF_cursor_next
        0     58   -> BF_cursor_rx
        0     58   -> BF_cursor_tx
        0     58   -> BF_push_rx
        0     58   -> BF_push_tx
        0     58   -> BF_remove
        0     58   -> BF_rx_busy
        0     58   -> BF_tx_busy
        0     58   -> FR_create
        0     58   -> FR_delete
      0      9   u_alarm_timer
        0      9   -> AT_set_alarm
      0     47   u_mem_utils
        0     41   -> DBG_CORE_HALT
        0     41   -> MEM_memcpy
        0     41   -> MEM_memset
        0     41   -> printf
        0     47   -> printf


   Segment part sizes:

   Bytes  Function/Label
   -----  --------------
      13  ?<Constant "%s:%d:%s -> ">
      13  ?<Constant "%s:%d:%s -> ">_1
      13  ?<Constant "%s:%d:%s -> ">_2
      13  ?<Constant "%s:%d:%s -> ">_3
      13  ?<Constant "%s:%d:%s -> ">_4
      13  ?<Constant "%s:%d:%s -> ">_5
      13  ?<Constant "%s:%d:%s -> ">_6
      18  ?<Constant "Begin unit test\r\n">
      10  ?<Constant "Failed!\r\n">
      24  ?<Constant "Incorrect MODEL.TM.MODE">
      15  ?<Constant "MEM_memcpy ok!">
      15  ?<Constant "MEM_memset ok!">
      10  ?<Constant "Succes!\r\n">
      15  ?<Constant "TESTING:\t%-32s">
      30  ?<Constant "Test function not ass...">
      19  ?<Constant "Test passed: \t%d\r\n">
      19  ?<Constant "Test runned: \t%d\r\n">
      19  ?<Constant "\"!frame\" Faild! \r\n">
      45  ?<Constant "\"(ch >= MIN_CH) && (c...">
      44  ?<Constant "\"COLD_MOD[i]->Cold_St...">
      42  ?<Constant "\"HOT_MOD[i]->Hot_Star...">
      39  ?<Constant "\"HW_MOD[i]->HW_Init !...">
      38  ?<Constant "\"POW_MOD[i]->Sleep !=...">
      39  ?<Constant "\"POW_MOD[i]->Wakeup !...">
      39  ?<Constant "\"SW_MOD[i]->SW_Init !...">
      18  ?<Constant "\"add_h\" Faild! \r\n">
      32  ?<Constant "\"alarm <= MAX_NWTIME\"...">
      25  ?<Constant "\"cmp_res == 0\" Faild! \r\n">
      23  ?<Constant "\"fr != NULL\" Faild! \r\n">
      26  ?<Constant "\"frame != NULL\" Faild...">
      34  ?<Constant "\"slot < MAX_TIME_SLOT...">
      41  ?<Constant "\"slot_busy <= SLOT_PO...">
      39  ?<Constant "\"summ <= MAX_TXRX_BUF...">
      31  ?<Constant "\"time <= MAX_NWTIME\" ...">
       3  ?<Constant "\r\n">
      47  ?<Constant "\r\n###################...">
      36  ?<Constant "\tERR = %d. FAILED <--...">
      10  ?<Constant "\tPASSED\r\n">
      17  ?<Constant "action_manager.c">
      14  ?<Constant "alarm_timer.c">
       9  ?<Constant "buffer.c">
      12  ?<Constant "mem_slots.c">
       8  ?<Constant "radio.c">
      15  ?<Constant "time_manager.c">
      14  ?<Constant "u_mem_utils.c">
       5  ?<Constant {(char *)0, (char *)0, 10}>
       4  ?<Constant {(char *)0, 0, 0}>
       4  ?<Constant {(char *)0, 10, 7}>
       4  ?<Constant {(char *)0, 150, 0}>
       4  ?<Constant {(char *)0, 150, 0}>_1
      10  ?<Constant {1, 2, 3, 4, 5, 6, 7, 8, 9, 10}>
      10  ?<Constant {1, 2, 3, 4, 5, 6, 7, 8, 9, 10}>_1
      12  ?<Initializer for AT_MODULE>
      12  ?<Initializer for BF_MODULE>
      12  ?<Initializer for CODER_MODULE>
      12  ?<Initializer for CPU_MODULE>
      12  ?<Initializer for DBG_MODULE>
      12  ?<Initializer for DMA_MODULE>
      12  ?<Initializer for FR_MODULE>
      14  ?<Initializer for HW_MOD>
      12  ?<Initializer for MD_MODULE>
      12  ?<Initializer for MS_MODULE>
       2  ?<Initializer for POW_MOD>
      12  ?<Initializer for RADIO_MODULE>
      12  ?<Initializer for RTC_MODULE>
       4  ?<Initializer for RX_LIST_HEAD>
      10  ?<Initializer for SW_MOD>
      22  ?<Initializer for TEST_FUN>
       4  ?<Initializer for TX_LIST_HEAD>
      12  ?<Initializer for UST_MODULE>
      34  ?<Initializer for UTEST_DEBUG>
      34  ?<Initializer for UT_BF_1>
      34  ?<Initializer for UT_BF_2>
      34  ?<Initializer for UT_BF_3>
      34  ?<Initializer for UT_FR_1>
      34  ?<Initializer for UT_FR_2>
      34  ?<Initializer for UT_FR_3>
      34  ?<Initializer for UT_MACR_1>
      34  ?<Initializer for UT_MACR_2>
      34  ?<Initializer for UT_MS_1>
      34  ?<Initializer for UT_MS_2>
      34  ?<Initializer for UT_MS_3>
     482  AES_CCMDecrypt
       6  AES_CCMDecrypt::?relay
     452  AES_CCMEncrypt
       6  AES_CCMEncrypt::?relay
     632  AES_StreamCoder
       6  AES_StreamCoder::?relay
      50  ALARMS
     195  AM_Cold_start
       6  AM_Cold_start::?relay
     186  AM_HW_Init
       6  AM_HW_Init::?relay
     195  AM_Hot_start
       6  AM_Hot_start::?relay
     190  AM_SW_Init
       6  AM_SW_Init::?relay
     191  AM_Sleep
       6  AM_Sleep::?relay
     195  AM_Wakeup
       6  AM_Wakeup::?relay
      12  AT_MODULE
      43  AT_enable
       6  AT_enable::?relay
     130  AT_set_alarm
       6  AT_set_alarm::?relay
     144  AT_set_time
       6  AT_set_time::?relay
      55  AT_time
       6  AT_time::?relay
     178  AT_wait
       6  AT_wait::?relay
      12  BF_MODULE
     106  BF_available
       6  BF_available::?relay
      34  BF_content
       6  BF_content::?relay
      91  BF_cursor_next
       6  BF_cursor_next::?relay
      77  BF_cursor_rx
       6  BF_cursor_rx::?relay
      77  BF_cursor_tx
       6  BF_cursor_tx::?relay
      69  BF_push_rx
       6  BF_push_rx::?relay
      69  BF_push_tx
       6  BF_push_tx::?relay
      85  BF_remove
       6  BF_remove::?relay
      19  BF_rx_busy
       6  BF_rx_busy::?relay
      19  BF_tx_busy
       6  BF_tx_busy::?relay
     469  CBCMAC_buf_encrypt
       6  CBCMAC_buf_encrypt::?relay
       1  CLKCONCMD
       1  CLKCONSTA
      12  CODER_MODULE
       2  COLD_MOD
       4  COMPARE_TIME
      12  CPU_MODULE
     608  CTR_enc_decrypt
       6  CTR_enc_decrypt::?relay
       3  Cold_Start
       6  Cold_Start::?relay
       2  DBG_CORE_FAULT
       6  DBG_CORE_FAULT::?relay
       2  DBG_CORE_HALT
       6  DBG_CORE_HALT::?relay
      12  DBG_MODULE
       4  DELAY_CALIBRATE_TICS
       1  DMA0CFGH
       1  DMA0CFGL
       1  DMA1CFGH
       1  DMA1CFGL
       1  DMAARM
       1  DMAREQ
      40  DMA_CH
      12  DMA_MODULE
     115  DelayCalibrate
       6  DelayCalibrate::?relay
       1  ENCCS
      12  FR_MODULE
     211  FR_add_header
       6  FR_add_header::?relay
      14  FR_available
       6  FR_available::?relay
      14  FR_busy
       6  FR_busy::?relay
      14  FR_create
       6  FR_create::?relay
     179  FR_del_header
       6  FR_del_header::?relay
      21  FR_delete
       6  FR_delete::?relay
       2  HOT_MOD
       3  HW_Init
       3  HW_Init
      17  HW_Init
      21  HW_Init
      37  HW_Init
      44  HW_Init
      63  HW_Init
     205  HW_Init
       6  HW_Init::?relay
       6  HW_Init::?relay
       6  HW_Init::?relay
       6  HW_Init::?relay
       6  HW_Init::?relay
       6  HW_Init::?relay
       6  HW_Init::?relay
       6  HW_Init::?relay
      14  HW_MOD
       3  Hot_Start
       6  Hot_Start::?relay
      31  INIT_LIST_HEAD
       6  INIT_LIST_HEAD::?relay
      17  IRQEnable
       6  IRQEnable::?relay
      54  LoadTXData
       6  LoadTXData::?relay
       4  MAC_TIMER_MAX
      12  MD_MODULE
     116  MEM_memcpy
       6  MEM_memcpy::?relay
      79  MEM_memset
       6  MEM_memset::?relay
     124  MODEL
      12  MS_MODULE
     120  NODE_LIST
      85  Neocore_start
       6  Neocore_start::?relay
       2  POW_MOD
      12  RADIO_MODULE
       1  RFD
       1  RFIRQF0
       1  RFIRQF1
       1  RFST
      96  RI_Measure_POW
       6  RI_Measure_POW::?relay
     597  RI_Receive
       6  RI_Receive::?relay
     256  RI_Send
       6  RI_Send::?relay
      32  RI_SetChannel
       6  RI_SetChannel::?relay
      12  RTC_MODULE
     128  RXBUFF
       2  RX_BUFF_FRAME_COUNT
       4  RX_LIST_HEAD
      59  ReadTimer
       6  ReadTimer::?relay
     203  RecvData
       6  RecvData::?relay
       1  SLEEPSTA
    3060  SLOT_POOL
     145  SL_alloc
       6  SL_alloc::?relay
     100  SL_available
       6  SL_available::?relay
      91  SL_busy
       6  SL_busy::?relay
      49  SL_free
       6  SL_free::?relay
      76  SL_zone_check
       6  SL_zone_check::?relay
       1  ST0
       1  ST1
       1  ST2
       1  STLOAD
       3  SW_Init
       3  SW_Init
       3  SW_Init
      62  SW_Init
      87  SW_Init
     117  SW_Init
       6  SW_Init::?relay
       6  SW_Init::?relay
       6  SW_Init::?relay
       6  SW_Init::?relay
       6  SW_Init::?relay
       6  SW_Init::?relay
      10  SW_MOD
     242  SendData
       6  SendData::?relay
       3  Sleep
       6  Sleep::?relay
       1  T2CTRL
       1  T2M0
       1  T2M1
       1  T2MOVF0
       1  T2MOVF1
      22  TEST_FUN
      95  TM_ClrAlarm
       6  TM_ClrAlarm::?relay
      73  TM_IRQ
       6  TM_IRQ::?relay
      92  TM_SetAlarm
       6  TM_SetAlarm::?relay
       2  TOFFSET
       2  TX_BUFF_FRAME_COUNT
       4  TX_LIST_HEAD
      37  TimerCompareInterrupt
       3  TimerCompareInterrupt::??INTVEC 43
      12  UST_MODULE
     191  UST_delay
       6  UST_delay::?relay
     141  UST_interval
       6  UST_interval::?relay
      79  UST_now
       6  UST_now::?relay
     109  UST_time_over
       6  UST_time_over::?relay
      34  UTEST_DEBUG
      34  UT_BF_1
      34  UT_BF_2
      34  UT_BF_3
      34  UT_FR_1
      34  UT_FR_2
      34  UT_FR_3
      34  UT_MACR_1
      34  UT_MACR_2
      34  UT_MS_1
      34  UT_MS_2
      34  UT_MS_3
      44  UnLoadRXData
       6  UnLoadRXData::?relay
       3  Wakeup
       6  Wakeup::?relay
       1  _A_IEN0
       1  _A_IRCON
       4  __Constant_1
       4  __Constant_1f4
       4  __Constant_20
       4  __Constant_7fff
       4  __Constant_8000
       4  __Constant_ffff8000
       4  __Constant_ffffc180
       4  __Constant_ffffff
       7  __cli
       7  __cli
       7  __cli
       7  __cli
       6  __cli::?relay
       6  __cli::?relay
       6  __cli::?relay
       6  __cli::?relay
     101  __list_add
       6  __list_add::?relay
       4  __list_add_valid
       6  __list_add_valid::?relay
      31  __list_del
       6  __list_del::?relay
      46  __list_del_entry
       6  __list_del_entry::?relay
       4  __list_del_entry_valid
       6  __list_del_entry_valid::?relay
      37  _clr_all
       6  _clr_all::?relay
      50  _find_next_active
       6  _find_next_active::?relay
     136  _free
       6  _free::?relay
      18  _inc_timeslot
       6  _inc_timeslot::?relay
     127  _interval
       6  _interval::?relay
     123  _push
       6  _push::?relay
      48  array_index
       6  array_index::?relay
      34  bits_count
       6  bits_count::?relay
     162  buf
     189  calcCompareTime
       6  calcCompareTime::?relay
      54  ch_cmp
       6  ch_cmp::?relay
      38  ch_cmp_val
       6  ch_cmp_val::?relay
       2  common_count
      65  find_free_node
       6  find_free_node::?relay
     241  generateAuthData
       6  generateAuthData::?relay
      53  getRNDByte
       6  getRNDByte::?relay
      26  init
       6  init::?relay
       5  isIRQEnable
       6  isIRQEnable::?relay
      60  is_array_ptr
       6  is_array_ptr::?relay
      41  list_add
       6  list_add::?relay
      45  list_del
       6  list_del::?relay
      41  list_empty
       6  list_empty::?relay
      70  loadTimerCompare
       6  loadTimerCompare::?relay
       5  main
       6  main::?relay
       3  mcu_sleep
       6  mcu_sleep::?relay
       2  passed
      27  pre_config
       6  pre_config::?relay
      78  random_core_init
       6  random_core_init::?relay
      54  readRandom
       6  readRandom::?relay
       4  ret_val
      90  run_tests
       6  run_tests::?relay
     148  run_unit_fun
       6  run_unit_fun::?relay
      65  scheulder_next_alarm
       6  scheulder_next_alarm::?relay
     121  setFreq
       6  setFreq::?relay
      18  show_grating
       6  show_grating::?relay
      90  show_statistic
       6  show_statistic::?relay
       2  slot_busy
      37  start_mode_1
       6  start_mode_1::?relay
      17  start_mode_2
       6  start_mode_2::?relay
     108  test1
     151  test1
     180  test1
     307  test1
       6  test1::?relay
       6  test1::?relay
       6  test1::?relay
       6  test1::?relay
     108  test2
     477  test2
     683  test2
     686  test2
       6  test2::?relay
       6  test2::?relay
       6  test2::?relay
       6  test2::?relay
     135  test3
     291  test3
    1022  test3
       6  test3::?relay
       6  test3::?relay
       6  test3::?relay
      20  u_alarm_timer
       6  u_alarm_timer::?relay
     492  u_mem_utils
       6  u_mem_utils::?relay
       4  val
     218  -- Other

 
 16 523 bytes in segment BANKED_CODE
    810 bytes in segment BANK_RELAYS
      3 bytes in segment INTVEC
     37 bytes in segment NEAR_CODE
     25 bytes in segment SFR_AN
    608 bytes in segment XDATA_I
    608 bytes in segment XDATA_ID
  1 320 bytes in segment XDATA_ROM_C
  3 716 bytes in segment XDATA_Z
 
  1 455 bytes of CODE     memory (+  3 bytes shared)
  1 288 bytes of CONST    memory (+ 32 bytes shared)
      0 bytes of DATA     memory (+ 25 bytes shared)
 16 523 bytes of HUGECODE memory
  4 324 bytes of XDATA    memory

Errors: none
Warnings: 5
