################################################################################
#                                                                              #
#      IAR Universal Linker V6.4.6.89                                          #
#                                                                              #
#           Link time     =  14/Feb/2020  17:27:54                             #
#           Target CPU    =  x51                                               #
#           List file     =  "E:\WMNU\IAR_new_arch\PRJ Test\Debug\List\tests.m #
#                            ap"                                               #
#           Output file 1 =  "E:\WMNU\IAR_new_arch\PRJ Test\Debug\Exe\tests.d5 #
#                            1"                                                #
#                            Format: ubrof10                                   #
#                            UBROF version 10.0.6                              #
#                            Using library modules for C-SPY (-rt)             #
#           Command line  =  -f                                                #
#                            C:\Users\08A4~1\AppData\Local\Temp\EW292A.tmp     #
#                            ("E:\WMNU\IAR_new_arch\PRJ Test\Debug\Obj\action_ #
#                            manager.r51"                                      #
#                            "E:\WMNU\IAR_new_arch\PRJ Test\Debug\Obj\alarm_ti #
#                            mer.r51"                                          #
#                            "E:\WMNU\IAR_new_arch\PRJ Test\Debug\Obj\buffer.r #
#                            51"                                               #
#                            "E:\WMNU\IAR_new_arch\PRJ Test\Debug\Obj\coder.r5 #
#                            1"                                                #
#                            "E:\WMNU\IAR_new_arch\PRJ Test\Debug\Obj\cpu.r51" #
#                            "E:\WMNU\IAR_new_arch\PRJ Test\Debug\Obj\debug.r5 #
#                            1"                                                #
#                            "E:\WMNU\IAR_new_arch\PRJ Test\Debug\Obj\dma.r51" #
#                            "E:\WMNU\IAR_new_arch\PRJ Test\Debug\Obj\frame.r5 #
#                            1"                                                #
#                            "E:\WMNU\IAR_new_arch\PRJ Test\Debug\Obj\led.r51" #
#                            "E:\WMNU\IAR_new_arch\PRJ Test\Debug\Obj\llc.r51" #
#                            "E:\WMNU\IAR_new_arch\PRJ Test\Debug\Obj\mac.r51" #
#                            "E:\WMNU\IAR_new_arch\PRJ Test\Debug\Obj\main.r51 #
#                            "                                                 #
#                            "E:\WMNU\IAR_new_arch\PRJ Test\Debug\Obj\mem_slot #
#                            s.r51"                                            #
#                            "E:\WMNU\IAR_new_arch\PRJ Test\Debug\Obj\mem_util #
#                            s.r51"                                            #
#                            "E:\WMNU\IAR_new_arch\PRJ Test\Debug\Obj\model.r5 #
#                            1"                                                #
#                            "E:\WMNU\IAR_new_arch\PRJ Test\Debug\Obj\radio.r5 #
#                            1"                                                #
#                            "E:\WMNU\IAR_new_arch\PRJ Test\Debug\Obj\rtc.r51" #
#                            "E:\WMNU\IAR_new_arch\PRJ Test\Debug\Obj\sync.r51 #
#                            "                                                 #
#                            "E:\WMNU\IAR_new_arch\PRJ Test\Debug\Obj\time_man #
#                            ager.r51"                                         #
#                            "E:\WMNU\IAR_new_arch\PRJ Test\Debug\Obj\u_alarm_ #
#                            timer.r51"                                        #
#                            "E:\WMNU\IAR_new_arch\PRJ Test\Debug\Obj\u_buffer #
#                            .r51"                                             #
#                            "E:\WMNU\IAR_new_arch\PRJ Test\Debug\Obj\u_debug. #
#                            r51"                                              #
#                            "E:\WMNU\IAR_new_arch\PRJ Test\Debug\Obj\u_frame. #
#                            r51"                                              #
#                            "E:\WMNU\IAR_new_arch\PRJ Test\Debug\Obj\u_macros #
#                            .r51"                                             #
#                            "E:\WMNU\IAR_new_arch\PRJ Test\Debug\Obj\u_mem_sl #
#                            ots.r51"                                          #
#                            "E:\WMNU\IAR_new_arch\PRJ Test\Debug\Obj\u_mem_ut #
#                            ils.r51"                                          #
#                            "E:\WMNU\IAR_new_arch\PRJ Test\Debug\Obj\ustimer. #
#                            r51"                                              #
#                            "E:\WMNU\IAR_new_arch\PRJ Test\Debug\Obj\utest.r5 #
#                            1"                                                #
#                            -o                                                #
#                            "E:\WMNU\IAR_new_arch\PRJ Test\Debug\Exe\tests.d5 #
#                            1"                                                #
#                            -l                                                #
#                            "E:\WMNU\IAR_new_arch\PRJ Test\Debug\List\tests.m #
#                            ap"                                               #
#                            -xms                                              #
#                            "-IC:\Program Files (x86)\IAR Systems\Embedded Wo #
#                            rkbench 8.0\8051\LIB\"                            #
#                            -f                                                #
#                            "C:\Program Files (x86)\IAR Systems\Embedded Work #
#                            bench 8.0\8051\config\devices\Texas Instruments\l #
#                            nk51ew_CC2530F256_banked.xcl"                     #
#                            (-D_IDATA0_START=0x00 -D_IDATA0_END=0xFF          #
#                            -D_PDATA0_START=0x1E00 -D_PDATA0_END=0x1EFF       #
#                            -D_IXDATA0_START=0x0001 -D_IXDATA0_END=0x1EFF     #
#                            -D_XDATA0_START=_IXDATA0_START                    #
#                            -D_XDATA0_END=_IXDATA0_END                        #
#                            -D_NEAR_CODE_START=0x0000                         #
#                            -D_FIRST_BANK_ADDR=0x10000 -D?REGISTER_BANK=0x0   #
#                            -D_REGISTER_BANK_START=0x0 -D_BREG_START=0x00     #
#                            -D?VB=0x20 -Z(BIT)BREG=_BREG_START                #
#                            -Z(BIT)BIT_N=0-7F                                 #
#                            -Z(DATA)REGISTERS+8=_REGISTER_BANK_START          #
#                            -Z(DATA)BDATA_Z,BDATA_N,BDATA_I=20-2F             #
#                            -Z(DATA)VREG=08-7F -Z(DATA)PSP,XSP=08-7F          #
#                            -Z(DATA)DOVERLAY=08-7F                            #
#                            -Z(DATA)DATA_I,DATA_Z,DATA_N=08-7F                #
#                            -U(IDATA)0-7F=(DATA)0-7F                          #
#                            -Z(IDATA)IDATA_I,IDATA_Z,IDATA_N=08-_IDATA0_END   #
#                            -Z(IDATA)ISTACK+_IDATA_STACK_SIZE#08-_IDATA0_END  #
#                            -Z(IDATA)IOVERLAY=08-FF -Z(CODE)INTVEC=0          #
#                            -Z(CODE)CSTART=_NEAR_CODE_START-(_CODEBANK_START- #
#                            1)                                                #
#                            -Z(CODE)BIT_ID,BDATA_ID,DATA_ID,IDATA_ID,IXDATA_I #
#                            D,PDATA_ID,XDATA_ID=_NEAR_CODE_START-(_CODEBANK_S #
#                            TART-1)                                           #
#                            -Z(CODE)BANK_RELAYS,RCODE,DIFUNCT,CODE_C,CODE_N,N #
#                            EAR_CODE=_NEAR_CODE_START-(_CODEBANK_START-1)     #
#                            -P(CODE)BANKED_CODE=_NEAR_CODE_START-(_CODEBANK_S #
#                            TART-1),[(_CODEBANK_START+_FIRST_BANK_ADDR)-(_COD #
#                            EBANK_END+_FIRST_BANK_ADDR)]*_NR_OF_BANKS+10000   #
#                            -Z(CODE)CHECKSUM#(_CODEBANK_START-1)              #
#                            -Z(XDATA)PDATA_Z,PDATA_I=_PDATA0_START-_PDATA0_EN #
#                            D                                                 #
#                            -P(XDATA)PDATA_N=_PDATA0_START-_PDATA0_END        #
#                            -Z(XDATA)PSTACK+_PDATA_STACK_SIZE=_PDATA0_START-_ #
#                            PDATA0_END                                        #
#                            -Z(XDATA)EXT_STACK+_EXTENDED_STACK_SIZE=_EXTENDED #
#                            _STACK_START                                      #
#                            -Z(XDATA)XSTACK+_XDATA_STACK_SIZE=_XDATA0_START-_ #
#                            XDATA0_END                                        #
#                            -Z(XDATA)IXDATA_Z,IXDATA_I=_IXDATA0_START-_IXDATA #
#                            0_END                                             #
#                            -P(XDATA)IXDATA_N=_IXDATA0_START-_IXDATA0_END     #
#                            -Z(XDATA)XDATA_Z,XDATA_I=_XDATA0_START-_XDATA0_EN #
#                            D                                                 #
#                            -P(XDATA)XDATA_N=_XDATA0_START-_XDATA0_END        #
#                            -Z(XDATA)XDATA_HEAP+_XDATA_HEAP_SIZE=_XDATA0_STAR #
#                            T-_XDATA0_END                                     #
#                            -Z(CONST)XDATA_ROM_C=_XDATA0_START-_XDATA0_END    #
#                            -cx51                                             #
#                            -M(CODE)[(_CODEBANK_START+_FIRST_BANK_ADDR)-(_COD #
#                            EBANK_END+_FIRST_BANK_ADDR)]*_NR_OF_BANKS+0x10000 #
#                            =0x8000                                           #
#                            -ww69=i -D_BANK0_START=0x00000                    #
#                            -D_BANK0_END=0x07FFF -D_BANK1_START=0x18000       #
#                            -D_BANK1_END=0x1FFFF -D_BANK2_START=0x28000       #
#                            -D_BANK2_END=0x2FFFF -D_BANK3_START=0x38000       #
#                            -D_BANK3_END=0x3FFFF -D_BANK4_START=0x48000       #
#                            -D_BANK4_END=0x4FFFF -D_BANK5_START=0x58000       #
#                            -D_BANK5_END=0x5FFFF -D_BANK6_START=0x68000       #
#                            -D_BANK6_END=0x6FFFF -D_BANK7_START=0x78000       #
#                            -D_BANK7_END=0x7FFFF                              #
#                            -P(CODE)BANK0=_BANK0_START-_BANK0_END             #
#                            -P(CODE)BANK1=_BANK1_START-_BANK1_END             #
#                            -P(CODE)BANK2=_BANK2_START-_BANK2_END             #
#                            -P(CODE)BANK3=_BANK3_START-_BANK3_END             #
#                            -P(CODE)BANK4=_BANK4_START-_BANK4_END             #
#                            -P(CODE)BANK5=_BANK5_START-_BANK5_END             #
#                            -P(CODE)BANK6=_BANK6_START-_BANK6_END             #
#                            -P(CODE)BANK7=_BANK7_START-_BANK7_END             #
#                            -D_FLASH_LOCK_BITS_START=0x7FFF0                  #
#                            -D_FLASH_LOCK_BITS_END=0x7FFFF                    #
#                            -Z(CODE)FLASH_LOCK_BITS=_FLASH_LOCK_BITS_START-_F #
#                            LASH_LOCK_BITS_END                                #
#                            -U(CODE)0x0000=(CODE)_FLASH_LOCK_BITS_START-_FLAS #
#                            H_LOCK_BITS_END)                                  #
#                            -D_NR_OF_VIRTUAL_REGISTERS=8 -D?PBANK=0x93        #
#                            -D?CBANK=0x9F -D?CBANK_MASK=0xFF                  #
#                            -e?BCALL_FF=?BCALL -e?BRET_FF=?BRET               #
#                            -e?BDISPATCH_FF=?BDISPATCH                        #
#                            -D_CODEBANK_START=0x8000 -D_CODEBANK_END=0xFFFF   #
#                            -D_NR_OF_BANKS=0x07                               #
#                            "-IC:\Program Files (x86)\IAR Systems\Embedded Wo #
#                            rkbench 8.0\8051\CONFIG\"                         #
#                            -rt -s __program_start                            #
#                            "C:\Program Files (x86)\IAR Systems\Embedded Work #
#                            bench 8.0\8051\LIB\DLIB\dl-pli-blxd-1e16x01n.r51" #
#                            -D_IDATA_STACK_SIZE=0x40 -D?ESP=0 -D?ESP_MASK=0   #
#                            -D_EXTENDED_STACK_START=0                         #
#                            -D_EXTENDED_STACK_SIZE=0                          #
#                            -D_PDATA_STACK_SIZE=0x80                          #
#                            -D_XDATA_STACK_SIZE=0x800                         #
#                            -D_XDATA_HEAP_SIZE=0x00 -D_FAR_HEAP_SIZE=0xFFF    #
#                            -D_HUGE_HEAP_SIZE=0xFFF                           #
#                            -D_FAR22_HEAP_SIZE=0xFFF)                         #
#                                                                              #
#                           Copyright (C) 1987-2016 IAR Systems AB.            #
################################################################################





                ****************************************
                *                                      *
                *           CROSS REFERENCE            *
                *                                      *
                ****************************************

       Program entry at : CODE      00000085  Relocatable, from module : CSTARTUP




                ****************************************
                *                                      *
                *            RUNTIME MODEL             *
                *                                      *
                ****************************************

  __Heap_Handler             = Basic
  __SystemLibrary            = DLib
  __calling_convention       = xdata_reentrant
  __code_model               = banked
  __core                     = plain
  __data_model               = large
  __dlib_file_descriptor     = 0
  __dlib_full_locale_support = 0
  __dptr_size                = 16
  __extended_stack           = disabled
  __location_for_constants   = data
  __number_of_dptrs          = 1
  __register_banks           = *
  __rt_version               = 1

                ****************************************
                *                                      *
                *    AUTOMATIC SYMBOL REDIRECTIONS     *
                *                                      *
                ****************************************

       All references to: _Printf
         were redirected to: _PrintfSmallNoMb
       All references to: _Printf::?relay
         were redirected to: _PrintfSmallNoMb::?relay



                ****************************************
                *                                      *
                *              MODULE MAP              *
                *                                      *
                ****************************************


  DEFINED ABSOLUTE ENTRIES
    *************************************************************************

  DEFINED ABSOLUTE ENTRIES
  PROGRAM MODULE, NAME : ?ABS_ENTRY_MOD

Absolute parts
           ENTRY                   ADDRESS         REF BY
           =====                   =======         ======
           _FAR22_HEAP_SIZE        00000FFF 
           _HUGE_HEAP_SIZE         00000FFF 
           _FAR_HEAP_SIZE          00000FFF 
           _XDATA_HEAP_SIZE        00000000 
           _XDATA_STACK_SIZE       00000800 
           _PDATA_STACK_SIZE       00000080 
           _EXTENDED_STACK_SIZE    00000000 
           _EXTENDED_STACK_START   00000000 
           ?ESP_MASK               00000000 
           ?ESP                    00000000 
           _IDATA_STACK_SIZE       00000040 
           _NR_OF_BANKS            00000007 
           _CODEBANK_END           0000FFFF 
           _CODEBANK_START         00008000 
           ?CBANK_MASK             000000FF 
           ?CBANK                  0000009F        ?LONGJMP_XDATA (?LONGJMP_XDATA)
                                                   ?RESET_CODE_BANK (CSTARTUP)
                                                   ?SETJMP_XDATA (?SETJMP_XDATA)
                                                   Segment part 0 (?BANKED_CODE_SUPPORT)
           ?PBANK                  00000093        ?RESET_PDATA_BANK (CSTARTUP)
           _NR_OF_VIRTUAL_REGISTERS
                                   00000008 
           _FLASH_LOCK_BITS_END    0003FFFF 
           _FLASH_LOCK_BITS_START
                                   0003FFF0 
           _BANK7_END              0003FFFF 
           _BANK7_START            00038000 
           _BANK6_END              00037FFF 
           _BANK6_START            00030000 
           _BANK5_END              0002FFFF 
           _BANK5_START            00028000 
           _BANK4_END              00027FFF 
           _BANK4_START            00020000 
           _BANK3_END              0001FFFF 
           _BANK3_START            00018000 
           _BANK2_END              00017FFF 
           _BANK2_START            00010000 
           _BANK1_END              0000FFFF 
           _BANK1_START            00008000 
           _BANK0_END              00007FFF 
           _BANK0_START            00000000 
           ?VB                     00000020        ?BANKED_ENTER_XDATA (?BANKED_ENTER_XDATA)
                                                   ?BANKED_LEAVE_XDATA (?BANKED_LEAVE_XDATA)
                                                   ?INTERRUPT_ENTER_XSP (?INTERRUPT_ENTER_XSP)
                                                   ?INTERRUPT_LEAVE_XSP (?INTERRUPT_LEAVE_XSP)
                                                   ?LONGJMP_XDATA (?LONGJMP_XDATA)
                                                   ?SETJMP_XDATA (?SETJMP_XDATA)
                                                   AES_StreamCoder (action_manager)
                                                   AT_enable (action_manager)
                                                   BF_push_rx (action_manager)
                                                   BF_push_tx (action_manager)
                                                   RI_Receive (action_manager)
                                                   RI_Send (action_manager)
                                                   RecvData (action_manager)
                                                   SL_free (action_manager)
                                                   SendData (action_manager)
                                                   send_sync (action_manager)
                                                   test1 (action_manager)
                                                   test2 (action_manager)
           _BREG_START             00000000 
           _REGISTER_BANK_START    00000000 
           ?REGISTER_BANK          00000000        Segment part 6 (CSTARTUP)
           _FIRST_BANK_ADDR        00010000 
           _NEAR_CODE_START        00000000 
           _XDATA0_END             00001EFF 
           _XDATA0_START           00000001 
           _IXDATA0_END            00001EFF 
           _IXDATA0_START          00000001 
           _PDATA0_END             00001EFF 
           _PDATA0_START           00001E00 
           _IDATA0_END             000000FF 
           _IDATA0_START           00000000 
    *************************************************************************

  FILE NAME : E:\WMNU\IAR_new_arch\PRJ Test\Debug\Obj\action_manager.r51
  PROGRAM MODULE, NAME : action_manager

  SEGMENTS IN THE MODULE
  ======================
SFR_AN
  Relative segment, address: DATA 00000091 - 00000091 (0x1 bytes), align: 0
  Segment part 1. ROOT        Intra module refs:   SendData
           ENTRY                   ADDRESS         REF BY
           =====                   =======         ======
           RFIRQF1                 00000091 
    -------------------------------------------------------------------------
SFR_AN
  Relative segment, address: DATA 00000094 - 00000094 (0x1 bytes), align: 0
  Segment part 2. ROOT 
           ENTRY                   ADDRESS         REF BY
           =====                   =======         ======
           T2CTRL                  00000094 
    -------------------------------------------------------------------------
SFR_AN
  Relative segment, address: DATA 00000095 - 00000095 (0x1 bytes), align: 0
  Segment part 3. ROOT        Intra module refs:   AT_wait
                                                   ReadTimer
                                                   loadTimerCompare
           ENTRY                   ADDRESS         REF BY
           =====                   =======         ======
           ST0                     00000095 
    -------------------------------------------------------------------------
SFR_AN
  Relative segment, address: DATA 00000096 - 00000096 (0x1 bytes), align: 0
  Segment part 4. ROOT        Intra module refs:   AT_wait
                                                   ReadTimer
                                                   loadTimerCompare
           ENTRY                   ADDRESS         REF BY
           =====                   =======         ======
           ST1                     00000096 
    -------------------------------------------------------------------------
SFR_AN
  Relative segment, address: DATA 00000097 - 00000097 (0x1 bytes), align: 0
  Segment part 5. ROOT        Intra module refs:   AT_wait
                                                   ReadTimer
                                                   loadTimerCompare
           ENTRY                   ADDRESS         REF BY
           =====                   =======         ======
           ST2                     00000097 
    -------------------------------------------------------------------------
SFR_AN
  Relative segment, address: DATA 0000009D - 0000009D (0x1 bytes), align: 0
  Segment part 6. ROOT        Intra module refs:   AT_wait
                                                   ReadTimer
           ENTRY                   ADDRESS         REF BY
           =====                   =======         ======
           SLEEPSTA                0000009D 
    -------------------------------------------------------------------------
SFR_AN
  Relative segment, address: DATA 0000009E - 0000009E (0x1 bytes), align: 0
  Segment part 7. ROOT 
           ENTRY                   ADDRESS         REF BY
           =====                   =======         ======
           CLKCONSTA               0000009E 
    -------------------------------------------------------------------------
SFR_AN
  Relative segment, address: DATA 000000A2 - 000000A2 (0x1 bytes), align: 0
  Segment part 8. ROOT        Intra module refs:   UST_now
           ENTRY                   ADDRESS         REF BY
           =====                   =======         ======
           T2M0                    000000A2 
    -------------------------------------------------------------------------
SFR_AN
  Relative segment, address: DATA 000000A3 - 000000A3 (0x1 bytes), align: 0
  Segment part 9. ROOT        Intra module refs:   UST_now
           ENTRY                   ADDRESS         REF BY
           =====                   =======         ======
           T2M1                    000000A3 
    -------------------------------------------------------------------------
SFR_AN
  Relative segment, address: DATA 000000A4 - 000000A4 (0x1 bytes), align: 0
  Segment part 10. ROOT       Intra module refs:   UST_now
           ENTRY                   ADDRESS         REF BY
           =====                   =======         ======
           T2MOVF0                 000000A4 
    -------------------------------------------------------------------------
SFR_AN
  Relative segment, address: DATA 000000A5 - 000000A5 (0x1 bytes), align: 0
  Segment part 11. ROOT       Intra module refs:   UST_now
           ENTRY                   ADDRESS         REF BY
           =====                   =======         ======
           T2MOVF1                 000000A5 
    -------------------------------------------------------------------------
SFR_AN
  Relative segment, address: DATA 000000A8 - 000000A8 (0x1 bytes), align: 0
  Segment part 12. ROOT       Intra module refs:   AT_enable
                                                   BF_cursor_next
                                                   BF_cursor_rx
                                                   BF_cursor_tx
                                                   BF_push_rx
                                                   BF_push_tx
                                                   BF_remove
                                                   IRQEnable
                                                   SL_alloc
                                                   SL_free
                                                   TM_IRQ
                                                   __cli
                                                   isIRQEnable
           ENTRY                   ADDRESS         REF BY
           =====                   =======         ======
           _A_IEN0                 000000A8 
           LOCAL                   ADDRESS         
           =====                   =======         
           IEN0                    000000A8 
    -------------------------------------------------------------------------
SFR_AN
  Relative segment, address: DATA 000000AD - 000000AD (0x1 bytes), align: 0
  Segment part 13. ROOT       Intra module refs:   loadTimerCompare
           ENTRY                   ADDRESS         REF BY
           =====                   =======         ======
           STLOAD                  000000AD 
    -------------------------------------------------------------------------
SFR_AN
  Relative segment, address: DATA 000000B3 - 000000B3 (0x1 bytes), align: 0
  Segment part 14. ROOT       Intra module refs:   AES_StreamCoder
           ENTRY                   ADDRESS         REF BY
           =====                   =======         ======
           ENCCS                   000000B3 
    -------------------------------------------------------------------------
SFR_AN
  Relative segment, address: DATA 000000C0 - 000000C0 (0x1 bytes), align: 0
  Segment part 15. ROOT       Intra module refs:   TimerCompareInterrupt
           ENTRY                   ADDRESS         REF BY
           =====                   =======         ======
           _A_IRCON                000000C0 
           LOCAL                   ADDRESS         
           =====                   =======         
           IRCON                   000000C0 
    -------------------------------------------------------------------------
SFR_AN
  Relative segment, address: DATA 000000C6 - 000000C6 (0x1 bytes), align: 0
  Segment part 16. ROOT 
           ENTRY                   ADDRESS         REF BY
           =====                   =======         ======
           CLKCONCMD               000000C6 
    -------------------------------------------------------------------------
SFR_AN
  Relative segment, address: DATA 000000D2 - 000000D2 (0x1 bytes), align: 0
  Segment part 17. ROOT 
           ENTRY                   ADDRESS         REF BY
           =====                   =======         ======
           DMA1CFGL                000000D2 
    -------------------------------------------------------------------------
SFR_AN
  Relative segment, address: DATA 000000D3 - 000000D3 (0x1 bytes), align: 0
  Segment part 18. ROOT 
           ENTRY                   ADDRESS         REF BY
           =====                   =======         ======
           DMA1CFGH                000000D3 
    -------------------------------------------------------------------------
SFR_AN
  Relative segment, address: DATA 000000D4 - 000000D4 (0x1 bytes), align: 0
  Segment part 19. ROOT 
           ENTRY                   ADDRESS         REF BY
           =====                   =======         ======
           DMA0CFGL                000000D4 
    -------------------------------------------------------------------------
SFR_AN
  Relative segment, address: DATA 000000D5 - 000000D5 (0x1 bytes), align: 0
  Segment part 20. ROOT 
           ENTRY                   ADDRESS         REF BY
           =====                   =======         ======
           DMA0CFGH                000000D5 
    -------------------------------------------------------------------------
SFR_AN
  Relative segment, address: DATA 000000D6 - 000000D6 (0x1 bytes), align: 0
  Segment part 21. ROOT       Intra module refs:   AES_StreamCoder
           ENTRY                   ADDRESS         REF BY
           =====                   =======         ======
           DMAARM                  000000D6 
    -------------------------------------------------------------------------
SFR_AN
  Relative segment, address: DATA 000000D7 - 000000D7 (0x1 bytes), align: 0
  Segment part 22. ROOT       Intra module refs:   AES_StreamCoder
           ENTRY                   ADDRESS         REF BY
           =====                   =======         ======
           DMAREQ                  000000D7 
    -------------------------------------------------------------------------
SFR_AN
  Relative segment, address: DATA 000000D9 - 000000D9 (0x1 bytes), align: 0
  Segment part 23. ROOT       Intra module refs:   LoadTXData
                                                   UnLoadRXData
           ENTRY                   ADDRESS         REF BY
           =====                   =======         ======
           RFD                     000000D9 
    -------------------------------------------------------------------------
SFR_AN
  Relative segment, address: DATA 000000E1 - 000000E1 (0x1 bytes), align: 0
  Segment part 24. ROOT       Intra module refs:   LoadTXData
                                                   RecvData
                                                   SendData
                                                   random_core_init
           ENTRY                   ADDRESS         REF BY
           =====                   =======         ======
           RFST                    000000E1 
    -------------------------------------------------------------------------
SFR_AN
  Relative segment, address: DATA 000000E9 - 000000E9 (0x1 bytes), align: 0
  Segment part 25. ROOT       Intra module refs:   RecvData
                                                   SendData
           ENTRY                   ADDRESS         REF BY
           =====                   =======         ======
           RFIRQF0                 000000E9 
    -------------------------------------------------------------------------
XDATA_I
  Relative segment, address: XDATA 0000167C - 00001683 (0x8 bytes), align: 0
  Segment part 110.           Intra module refs:   AM_Hot_start
           LOCAL                   ADDRESS         
           =====                   =======         
           HOT_MOD                 0000167C 
    -------------------------------------------------------------------------
XDATA_I
  Relative segment, address: XDATA 00001684 - 00001693 (0x10 bytes), align: 0
  Segment part 114.           Intra module refs:   AM_SW_Init
           LOCAL                   ADDRESS         
           =====                   =======         
           SW_MOD                  00001684 
    -------------------------------------------------------------------------
<BANKED_CODE> 1 (was BANKED_CODE)
  Relative segment, address: CODE 00000FDA - 0000109F (0xc6 bytes), align: 0
  Segment part 216.           Intra module refs:   AM_Hot_start::?relay
           ENTRY                   ADDRESS         REF BY
           =====                   =======         ======
           AM_Hot_start            00000FDA 
               calls direct
               XSTACK = 00000009 ( 00000010 )
    -------------------------------------------------------------------------
<BANKED_CODE> 1 (was BANKED_CODE)
  Relative segment, address: CODE 000010A0 - 0000115D (0xbe bytes), align: 0
  Segment part 220.           Intra module refs:   AM_SW_Init::?relay
           ENTRY                   ADDRESS         REF BY
           =====                   =======         ======
           AM_SW_Init              000010A0 
               calls direct
               XSTACK = 0000000A ( 00000010 )
    -------------------------------------------------------------------------
<BANKED_CODE> 1 (was BANKED_CODE)
  Relative segment, address: CODE 0000115E - 00001164 (0x7 bytes), align: 0
  Segment part 226.           Intra module refs:   __cli::?relay
           LOCAL                   ADDRESS         
           =====                   =======         
           __cli                   0000115E 
               XSTACK = 00000009 ( 00000000 )
    -------------------------------------------------------------------------
XDATA_Z
  Relative segment, address: XDATA 00000801 - 00000802 (0x2 bytes), align: 0
  Segment part 120.           Intra module refs:   AT_set_time
                                                   AT_time
                                                   AT_wait
                                                   calcCompareTime
           LOCAL                   ADDRESS         
           =====                   =======         
           TOFFSET                 00000801 
    -------------------------------------------------------------------------
XDATA_Z
  Relative segment, address: XDATA 00000803 - 00000806 (0x4 bytes), align: 0
  Segment part 121.           Intra module refs:   AT_set_alarm
                                                   AT_set_time
           LOCAL                   ADDRESS         
           =====                   =======         
           COMPARE_TIME            00000803 
    -------------------------------------------------------------------------
<BANKED_CODE> 1 (was BANKED_CODE)
  Relative segment, address: CODE 00001165 - 0000118F (0x2b bytes), align: 0
  Segment part 230.           Intra module refs:   AT_enable::?relay
           ENTRY                   ADDRESS         REF BY
           =====                   =======         ======
           AT_enable               00001165 
               calls direct
               XSTACK = 00000009 ( 00000009 )
    -------------------------------------------------------------------------
<BANKED_CODE> 1 (was BANKED_CODE)
  Relative segment, address: CODE 00001190 - 000011B1 (0x22 bytes), align: 0
  Segment part 232.           Intra module refs:   AT_interval::?relay
           ENTRY                   ADDRESS         REF BY
           =====                   =======         ======
           AT_interval             00001190 
               XSTACK = 0000000E ( 00000000 )
    -------------------------------------------------------------------------
<BANKED_CODE> 1 (was BANKED_CODE)
  Relative segment, address: CODE 000011B2 - 00001241 (0x90 bytes), align: 0
  Segment part 234.           Intra module refs:   AT_set_time::?relay
           ENTRY                   ADDRESS         REF BY
           =====                   =======         ======
           AT_set_time             000011B2 
               calls direct
               XSTACK = 0000000E ( 00000014 )
    -------------------------------------------------------------------------
<BANKED_CODE> 1 (was BANKED_CODE)
  Relative segment, address: CODE 00001242 - 00001278 (0x37 bytes), align: 0
  Segment part 236.           Intra module refs:   AT_time::?relay
           ENTRY                   ADDRESS         REF BY
           =====                   =======         ======
           AT_time                 00001242 
               calls direct
               XSTACK = 00000043 ( 00000010 )
    -------------------------------------------------------------------------
<BANKED_CODE> 1 (was BANKED_CODE)
  Relative segment, address: CODE 00001279 - 0000132A (0xb2 bytes), align: 0
  Segment part 238.           Intra module refs:   AT_wait::?relay
           ENTRY                   ADDRESS         REF BY
           =====                   =======         ======
           AT_wait                 00001279 
               calls direct
               XSTACK = 0000003F ( 00000012 )
    -------------------------------------------------------------------------
XDATA_Z
  Relative segment, address: XDATA 00000807 - 0000080A (0x4 bytes), align: 0
  Segment part 122.           Intra module refs:   AT_wait
           LOCAL                   ADDRESS         
           =====                   =======         
           AT_wait::val            00000807 
    -------------------------------------------------------------------------
<BANKED_CODE> 1 (was BANKED_CODE)
  Relative segment, address: CODE 0000132B - 0000133B (0x11 bytes), align: 0
  Segment part 240.           Intra module refs:   IRQEnable::?relay
           LOCAL                   ADDRESS         
           =====                   =======         
           IRQEnable               0000132B 
               XSTACK = 0000000F ( 00000000 )
    -------------------------------------------------------------------------
<BANKED_CODE> 1 (was BANKED_CODE)
  Relative segment, address: CODE 0000133C - 000013BD (0x82 bytes), align: 0
  Segment part 242.           Intra module refs:   AT_set_alarm::?relay
           ENTRY                   ADDRESS         REF BY
           =====                   =======         ======
           AT_set_alarm            0000133C 
               calls direct
               XSTACK = 0000000E ( 00000012 )
    -------------------------------------------------------------------------
<BANKED_CODE> 1 (was BANKED_CODE)
  Relative segment, address: CODE 000013BE - 0000147A (0xbd bytes), align: 0
  Segment part 244.           Intra module refs:   calcCompareTime::?relay
           LOCAL                   ADDRESS         
           =====                   =======         
           calcCompareTime         000013BE 
               calls direct
               XSTACK = 0000000C ( 00000016 )
               ISTACK = 00000000 ( 00000002 )
    -------------------------------------------------------------------------
<BANKED_CODE> 1 (was BANKED_CODE)
  Relative segment, address: CODE 0000147B - 000014B5 (0x3b bytes), align: 0
  Segment part 246.           Intra module refs:   ReadTimer::?relay
           LOCAL                   ADDRESS         
           =====                   =======         
           ReadTimer               0000147B 
               XSTACK = 00000016 ( 00000000 )
               ISTACK = 00000000 ( 00000002 )
    -------------------------------------------------------------------------
XDATA_Z
  Relative segment, address: XDATA 0000080B - 0000080E (0x4 bytes), align: 0
  Segment part 123.           Intra module refs:   ReadTimer
           LOCAL                   ADDRESS         
           =====                   =======         
           ReadTimer::ret_val      0000080B 
    -------------------------------------------------------------------------
<BANKED_CODE> 1 (was BANKED_CODE)
  Relative segment, address: CODE 000014B6 - 000014FB (0x46 bytes), align: 0
  Segment part 248.           Intra module refs:   loadTimerCompare::?relay
           LOCAL                   ADDRESS         
           =====                   =======         
           loadTimerCompare        000014B6 
               XSTACK = 0000000C ( 00000010 )
    -------------------------------------------------------------------------
<BANKED_CODE> 1 (was BANKED_CODE)
  Relative segment, address: CODE 000014FC - 00001500 (0x5 bytes), align: 0
  Segment part 250.           Intra module refs:   isIRQEnable::?relay
           LOCAL                   ADDRESS         
           =====                   =======         
           isIRQEnable             000014FC 
               XSTACK = 0000000E ( 00000000 )
    -------------------------------------------------------------------------
NEAR_CODE
  Relative segment, address: CODE 00000FB5 - 00000FD9 (0x25 bytes), align: 0
  Segment part 536.           Intra module refs:   TimerCompareInterrupt::??INTVEC 43
           ENTRY                   ADDRESS         REF BY
           =====                   =======         ======
           TimerCompareInterrupt   00000FB5 
               interrupt function
               calls direct
               XSTACK = 00000000 ( 0000000F )
    -------------------------------------------------------------------------
<BANKED_CODE> 1 (was BANKED_CODE)
  Relative segment, address: CODE 00001501 - 00001507 (0x7 bytes), align: 0
  Segment part 252.           Intra module refs:   __cli::?relay
           LOCAL                   ADDRESS         
           =====                   =======         
           __cli                   00001501 
               XSTACK = 0000000B ( 00000000 )
    -------------------------------------------------------------------------
<BANKED_CODE> 1 (was BANKED_CODE)
  Relative segment, address: CODE 00001508 - 00001526 (0x1f bytes), align: 0
  Segment part 254.           Intra module refs:   INIT_LIST_HEAD::?relay
           LOCAL                   ADDRESS         
           =====                   =======         
           INIT_LIST_HEAD          00001508 
               XSTACK = 00000009 ( 00000000 )
               ISTACK = 00000000 ( 00000002 )
    -------------------------------------------------------------------------
<BANKED_CODE> 1 (was BANKED_CODE)
  Relative segment, address: CODE 00001527 - 0000152A (0x4 bytes), align: 0
  Segment part 256.           Intra module refs:   __list_add_valid::?relay
           LOCAL                   ADDRESS         
           =====                   =======         
           __list_add_valid        00001527 
               XSTACK = 0000000E ( 00000000 )
    -------------------------------------------------------------------------
<BANKED_CODE> 1 (was BANKED_CODE)
  Relative segment, address: CODE 0000152B - 0000152E (0x4 bytes), align: 0
  Segment part 258.           Intra module refs:   __list_del_entry_valid::?relay
           LOCAL                   ADDRESS         
           =====                   =======         
           __list_del_entry_valid
                                   0000152B 
               XSTACK = 00000009 ( 00000000 )
    -------------------------------------------------------------------------
<BANKED_CODE> 1 (was BANKED_CODE)
  Relative segment, address: CODE 0000152F - 00001593 (0x65 bytes), align: 0
  Segment part 260.           Intra module refs:   __list_add::?relay
           LOCAL                   ADDRESS         
           =====                   =======         
           __list_add              0000152F 
               calls direct
               XSTACK = 0000000C ( 0000000E )
    -------------------------------------------------------------------------
<BANKED_CODE> 1 (was BANKED_CODE)
  Relative segment, address: CODE 00001594 - 000015BC (0x29 bytes), align: 0
  Segment part 262.           Intra module refs:   list_add::?relay
           LOCAL                   ADDRESS         
           =====                   =======         
           list_add                00001594 
               calls direct
               XSTACK = 0000000E ( 0000000C )
    -------------------------------------------------------------------------
<BANKED_CODE> 1 (was BANKED_CODE)
  Relative segment, address: CODE 000015BD - 000015DB (0x1f bytes), align: 0
  Segment part 264.           Intra module refs:   __list_del::?relay
           LOCAL                   ADDRESS         
           =====                   =======         
           __list_del              000015BD 
               XSTACK = 00000009 ( 00000000 )
               ISTACK = 00000000 ( 00000002 )
    -------------------------------------------------------------------------
<BANKED_CODE> 1 (was BANKED_CODE)
  Relative segment, address: CODE 000015DC - 00001609 (0x2e bytes), align: 0
  Segment part 266.           Intra module refs:   __list_del_entry::?relay
           LOCAL                   ADDRESS         
           =====                   =======         
           __list_del_entry        000015DC 
               calls direct
               XSTACK = 00000009 ( 00000009 )
    -------------------------------------------------------------------------
<BANKED_CODE> 1 (was BANKED_CODE)
  Relative segment, address: CODE 0000160A - 00001636 (0x2d bytes), align: 0
  Segment part 268.           Intra module refs:   list_del::?relay
           LOCAL                   ADDRESS         
           =====                   =======         
           list_del                0000160A 
               calls direct
               XSTACK = 0000000B ( 00000009 )
    -------------------------------------------------------------------------
<BANKED_CODE> 1 (was BANKED_CODE)
  Relative segment, address: CODE 00001637 - 0000165F (0x29 bytes), align: 0
  Segment part 270.           Intra module refs:   list_empty::?relay
           LOCAL                   ADDRESS         
           =====                   =======         
           list_empty              00001637 
               XSTACK = 0000000A ( 00000000 )
               ISTACK = 00000000 ( 00000002 )
    -------------------------------------------------------------------------
XDATA_I
  Relative segment, address: XDATA 00001694 - 0000169F (0xc bytes), align: 0
  Segment part 124.           Intra module refs:   Segment part 115
           ENTRY                   ADDRESS         REF BY
           =====                   =======         ======
           BF_MODULE               00001694 
    -------------------------------------------------------------------------
XDATA_Z
  Relative segment, address: XDATA 0000080F - 00000886 (0x78 bytes), align: 0
  Segment part 126.           Intra module refs:   SW_Init
                                                   find_free_node
           LOCAL                   ADDRESS         
           =====                   =======         
           NODE_LIST               0000080F 
    -------------------------------------------------------------------------
XDATA_I
  Relative segment, address: XDATA 000016A0 - 000016A3 (0x4 bytes), align: 0
  Segment part 127.           Intra module refs:   BF_cursor_tx
                                                   BF_push_tx
                                                   SW_Init
                                                   Segment part 128
           ENTRY                   ADDRESS         REF BY
           =====                   =======         ======
           TX_LIST_HEAD            000016A0 
    -------------------------------------------------------------------------
XDATA_I
  Relative segment, address: XDATA 000016A4 - 000016A7 (0x4 bytes), align: 0
  Segment part 129.           Intra module refs:   BF_cursor_rx
                                                   BF_push_rx
                                                   SW_Init
                                                   Segment part 130
           ENTRY                   ADDRESS         REF BY
           =====                   =======         ======
           RX_LIST_HEAD            000016A4 
    -------------------------------------------------------------------------
XDATA_Z
  Relative segment, address: XDATA 00000887 - 00000888 (0x2 bytes), align: 0
  Segment part 131.           Intra module refs:   BF_available
                                                   BF_push_tx
                                                   BF_remove
                                                   BF_tx_busy
                                                   SW_Init
           LOCAL                   ADDRESS         
           =====                   =======         
           TX_BUFF_FRAME_COUNT     00000887 
    -------------------------------------------------------------------------
XDATA_Z
  Relative segment, address: XDATA 00000889 - 0000088A (0x2 bytes), align: 0
  Segment part 132.           Intra module refs:   BF_available
                                                   BF_push_rx
                                                   BF_rx_busy
                                                   SW_Init
           LOCAL                   ADDRESS         
           =====                   =======         
           RX_BUFF_FRAME_COUNT     00000889 
    -------------------------------------------------------------------------
<BANKED_CODE> 1 (was BANKED_CODE)
  Relative segment, address: CODE 00001660 - 000016B6 (0x57 bytes), align: 0
  Segment part 272.           Intra module refs:   SW_Init::?relay
           LOCAL                   ADDRESS         
           =====                   =======         
           SW_Init                 00001660 
               calls direct, is indirectly called
               XSTACK = 00000000 ( 00000009 )
    -------------------------------------------------------------------------
<BANKED_CODE> 1 (was BANKED_CODE)
  Relative segment, address: CODE 000016B7 - 000016C9 (0x13 bytes), align: 0
  Segment part 274.           Intra module refs:   BF_rx_busy::?relay
           ENTRY                   ADDRESS         REF BY
           =====                   =======         ======
           BF_rx_busy              000016B7 
               XSTACK = 0000003A ( 00000000 )
               ISTACK = 00000000 ( 00000002 )
    -------------------------------------------------------------------------
<BANKED_CODE> 1 (was BANKED_CODE)
  Relative segment, address: CODE 000016CA - 000016DC (0x13 bytes), align: 0
  Segment part 276.           Intra module refs:   BF_tx_busy::?relay
           ENTRY                   ADDRESS         REF BY
           =====                   =======         ======
           BF_tx_busy              000016CA 
               XSTACK = 0000003A ( 00000000 )
               ISTACK = 00000000 ( 00000002 )
    -------------------------------------------------------------------------
<BANKED_CODE> 1 (was BANKED_CODE)
  Relative segment, address: CODE 000016DD - 00001746 (0x6a bytes), align: 0
  Segment part 278.           Intra module refs:   BF_available::?relay
           ENTRY                   ADDRESS         REF BY
           =====                   =======         ======
           BF_available            000016DD 
               calls direct
               XSTACK = 0000003A ( 00000010 )
    -------------------------------------------------------------------------
<BANKED_CODE> 1 (was BANKED_CODE)
  Relative segment, address: CODE 00001747 - 00001787 (0x41 bytes), align: 0
  Segment part 280.           Intra module refs:   find_free_node::?relay
           LOCAL                   ADDRESS         
           =====                   =======         
           find_free_node          00001747 
               calls direct
               XSTACK = 0000000E ( 00000009 )
    -------------------------------------------------------------------------
<BANKED_CODE> 1 (was BANKED_CODE)
  Relative segment, address: CODE 00001788 - 00001802 (0x7b bytes), align: 0
  Segment part 282.           Intra module refs:   _push::?relay
           LOCAL                   ADDRESS         
           =====                   =======         
           _push                   00001788 
               calls direct
               XSTACK = 00000009 ( 00000014 )
    -------------------------------------------------------------------------
<BANKED_CODE> 1 (was BANKED_CODE)
  Relative segment, address: CODE 00001803 - 00001847 (0x45 bytes), align: 0
  Segment part 284.           Intra module refs:   BF_push_tx::?relay
           ENTRY                   ADDRESS         REF BY
           =====                   =======         ======
           BF_push_tx              00001803 
               calls direct
               XSTACK = 0000003A ( 00000009 )
    -------------------------------------------------------------------------
<BANKED_CODE> 1 (was BANKED_CODE)
  Relative segment, address: CODE 00001848 - 0000188C (0x45 bytes), align: 0
  Segment part 286.           Intra module refs:   BF_push_rx::?relay
           ENTRY                   ADDRESS         REF BY
           =====                   =======         ======
           BF_push_rx              00001848 
               calls direct
               XSTACK = 0000003A ( 00000009 )
    -------------------------------------------------------------------------
<BANKED_CODE> 1 (was BANKED_CODE)
  Relative segment, address: CODE 0000188D - 000018D9 (0x4d bytes), align: 0
  Segment part 288.           Intra module refs:   BF_cursor_rx::?relay
           ENTRY                   ADDRESS         REF BY
           =====                   =======         ======
           BF_cursor_rx            0000188D 
               calls direct
               XSTACK = 0000003A ( 0000000A )
    -------------------------------------------------------------------------
<BANKED_CODE> 1 (was BANKED_CODE)
  Relative segment, address: CODE 000018DA - 00001926 (0x4d bytes), align: 0
  Segment part 290.           Intra module refs:   BF_cursor_tx::?relay
           ENTRY                   ADDRESS         REF BY
           =====                   =======         ======
           BF_cursor_tx            000018DA 
               calls direct
               XSTACK = 0000003A ( 0000000A )
    -------------------------------------------------------------------------
<BANKED_CODE> 1 (was BANKED_CODE)
  Relative segment, address: CODE 00001927 - 00001981 (0x5b bytes), align: 0
  Segment part 292.           Intra module refs:   BF_cursor_next::?relay
           ENTRY                   ADDRESS         REF BY
           =====                   =======         ======
           BF_cursor_next          00001927 
               calls direct
               XSTACK = 0000003A ( 0000000B )
    -------------------------------------------------------------------------
<BANKED_CODE> 1 (was BANKED_CODE)
  Relative segment, address: CODE 00001982 - 000019D6 (0x55 bytes), align: 0
  Segment part 294.           Intra module refs:   BF_remove::?relay
           ENTRY                   ADDRESS         REF BY
           =====                   =======         ======
           BF_remove               00001982 
               calls direct
               XSTACK = 0000003A ( 0000000B )
    -------------------------------------------------------------------------
<BANKED_CODE> 1 (was BANKED_CODE)
  Relative segment, address: CODE 000019D7 - 000019F8 (0x22 bytes), align: 0
  Segment part 296.           Intra module refs:   BF_content::?relay
           ENTRY                   ADDRESS         REF BY
           =====                   =======         ======
           BF_content              000019D7 
               XSTACK = 0000003A ( 00000000 )
               ISTACK = 00000000 ( 00000002 )
    -------------------------------------------------------------------------
<BANKED_CODE> 1 (was BANKED_CODE)
  Relative segment, address: CODE 000019F9 - 00001C70 (0x278 bytes), align: 0
  Segment part 300.           Intra module refs:   AES_StreamCoder::?relay
           ENTRY                   ADDRESS         REF BY
           =====                   =======         ======
           AES_StreamCoder         000019F9 
               calls direct
               XSTACK = 0000003F ( 0000002B )
    -------------------------------------------------------------------------
<BANKED_CODE> 1 (was BANKED_CODE)
  Relative segment, address: CODE 00001C71 - 00001C72 (0x2 bytes), align: 0
  Segment part 316.           Intra module refs:   DBG_CORE_HALT::?relay
           ENTRY                   ADDRESS         REF BY
           =====                   =======         ======
           DBG_CORE_HALT           00001C71 
               XSTACK = 0000003F ( 00000000 )
    -------------------------------------------------------------------------
XDATA_Z
  Relative segment, address: XDATA 0000088B - 000008B2 (0x28 bytes), align: 0
  Segment part 142.           Intra module refs:   AES_StreamCoder
           ENTRY                   ADDRESS         REF BY
           =====                   =======         ======
           DMA_CH                  0000088B 
    -------------------------------------------------------------------------
XDATA_I
  Relative segment, address: XDATA 000016A8 - 000016B3 (0xc bytes), align: 0
  Segment part 143.           Intra module refs:   Segment part 115
           ENTRY                   ADDRESS         REF BY
           =====                   =======         ======
           FR_MODULE               000016A8 
    -------------------------------------------------------------------------
<BANKED_CODE> 1 (was BANKED_CODE)
  Relative segment, address: CODE 00001C73 - 00001C75 (0x3 bytes), align: 0
  Segment part 322.           Intra module refs:   SW_Init::?relay
           LOCAL                   ADDRESS         
           =====                   =======         
           SW_Init                 00001C73 
               is indirectly called
    -------------------------------------------------------------------------
<BANKED_CODE> 1 (was BANKED_CODE)
  Relative segment, address: CODE 00001C76 - 00001C83 (0xe bytes), align: 0
  Segment part 324.           Intra module refs:   FR_create::?relay
           ENTRY                   ADDRESS         REF BY
           =====                   =======         ======
           FR_create               00001C76 
               calls direct
               XSTACK = 0000003A ( 00000000 )
               ISTACK = 00000000 ( 00000002 )
    -------------------------------------------------------------------------
<BANKED_CODE> 1 (was BANKED_CODE)
  Relative segment, address: CODE 00001C84 - 00001C98 (0x15 bytes), align: 0
  Segment part 326.           Intra module refs:   FR_delete::?relay
           ENTRY                   ADDRESS         REF BY
           =====                   =======         ======
           FR_delete               00001C84 
               calls direct
               XSTACK = 00000047 ( 00000009 )
    -------------------------------------------------------------------------
<BANKED_CODE> 1 (was BANKED_CODE)
  Relative segment, address: CODE 00001C99 - 00001D6B (0xd3 bytes), align: 0
  Segment part 328.           Intra module refs:   FR_add_header::?relay
           ENTRY                   ADDRESS         REF BY
           =====                   =======         ======
           FR_add_header           00001C99 
               calls direct
               XSTACK = 00000024 ( 00000017 )
               ISTACK = 00000000 ( 00000001 )
    -------------------------------------------------------------------------
<BANKED_CODE> 1 (was BANKED_CODE)
  Relative segment, address: CODE 00001D6C - 00001E1E (0xb3 bytes), align: 0
  Segment part 330.           Intra module refs:   FR_del_header::?relay
           ENTRY                   ADDRESS         REF BY
           =====                   =======         ======
           FR_del_header           00001D6C 
               calls direct
               XSTACK = 00000016 ( 00000012 )
               ISTACK = 00000000 ( 00000001 )
    -------------------------------------------------------------------------
XDATA_ROM_C
  Relative segment, address: XDATA 000018BB - 000018BE (0x4 bytes), align: 0
  Segment part 145.           Intra module refs:   FR_del_header
    -------------------------------------------------------------------------
<BANKED_CODE> 1 (was BANKED_CODE)
  Relative segment, address: CODE 00001E1F - 00001E2C (0xe bytes), align: 0
  Segment part 332.           Intra module refs:   FR_busy::?relay
           ENTRY                   ADDRESS         REF BY
           =====                   =======         ======
           FR_busy                 00001E1F 
               calls direct
               XSTACK = 00000034 ( 00000000 )
               ISTACK = 00000000 ( 00000002 )
    -------------------------------------------------------------------------
<BANKED_CODE> 1 (was BANKED_CODE)
  Relative segment, address: CODE 00001E2D - 00001E3A (0xe bytes), align: 0
  Segment part 334.           Intra module refs:   FR_available::?relay
           ENTRY                   ADDRESS         REF BY
           =====                   =======         ======
           FR_available            00001E2D 
               calls direct
               XSTACK = 00000034 ( 00000000 )
               ISTACK = 00000000 ( 00000002 )
    -------------------------------------------------------------------------
XDATA_I
  Relative segment, address: XDATA 000016B4 - 000016BF (0xc bytes), align: 0
  Segment part 146.           Intra module refs:   Segment part 111
           ENTRY                   ADDRESS         REF BY
           =====                   =======         ======
           LED_MODULE              000016B4 
    -------------------------------------------------------------------------
<BANKED_CODE> 1 (was BANKED_CODE)
  Relative segment, address: CODE 00001E3B - 00001E3D (0x3 bytes), align: 0
  Segment part 336.           Intra module refs:   HW_Init::?relay
           LOCAL                   ADDRESS         
           =====                   =======         
           HW_Init                 00001E3B 
               is indirectly called
    -------------------------------------------------------------------------
<BANKED_CODE> 1 (was BANKED_CODE)
  Relative segment, address: CODE 00001E3E - 00001E40 (0x3 bytes), align: 0
  Segment part 338.           Intra module refs:   SW_Init::?relay
           LOCAL                   ADDRESS         
           =====                   =======         
           SW_Init                 00001E3E 
               is indirectly called
    -------------------------------------------------------------------------
<BANKED_CODE> 1 (was BANKED_CODE)
  Relative segment, address: CODE 00001E41 - 00001E43 (0x3 bytes), align: 0
  Segment part 340.           Intra module refs:   Cold_Start::?relay
           LOCAL                   ADDRESS         
           =====                   =======         
           Cold_Start              00001E41 
               is indirectly called
    -------------------------------------------------------------------------
<BANKED_CODE> 1 (was BANKED_CODE)
  Relative segment, address: CODE 00001E44 - 00001E46 (0x3 bytes), align: 0
  Segment part 342.           Intra module refs:   Hot_Start::?relay
           LOCAL                   ADDRESS         
           =====                   =======         
           Hot_Start               00001E44 
               is indirectly called
    -------------------------------------------------------------------------
XDATA_I
  Relative segment, address: XDATA 000016C0 - 000016CB (0xc bytes), align: 0
  Segment part 148.           Intra module refs:   Segment part 111
                                                   Segment part 115
           ENTRY                   ADDRESS         REF BY
           =====                   =======         ======
           LLC_MODULE              000016C0 
    -------------------------------------------------------------------------
<BANKED_CODE> 1 (was BANKED_CODE)
  Relative segment, address: CODE 00001E47 - 00001E49 (0x3 bytes), align: 0
  Segment part 344.           Intra module refs:   SW_Init::?relay
           LOCAL                   ADDRESS         
           =====                   =======         
           SW_Init                 00001E47 
               is indirectly called
    -------------------------------------------------------------------------
<BANKED_CODE> 1 (was BANKED_CODE)
  Relative segment, address: CODE 00001E4A - 00001E4C (0x3 bytes), align: 0
  Segment part 346.           Intra module refs:   Cold_Start::?relay
           LOCAL                   ADDRESS         
           =====                   =======         
           Cold_Start              00001E4A 
               is indirectly called
    -------------------------------------------------------------------------
<BANKED_CODE> 1 (was BANKED_CODE)
  Relative segment, address: CODE 00001E4D - 00001E4F (0x3 bytes), align: 0
  Segment part 348.           Intra module refs:   Hot_Start::?relay
           LOCAL                   ADDRESS         
           =====                   =======         
           Hot_Start               00001E4D 
               is indirectly called
    -------------------------------------------------------------------------
XDATA_I
  Relative segment, address: XDATA 000016CC - 000016D7 (0xc bytes), align: 0
  Segment part 150.           Intra module refs:   Segment part 115
           ENTRY                   ADDRESS         REF BY
           =====                   =======         ======
           MAC_MODULE              000016CC 
    -------------------------------------------------------------------------
<BANKED_CODE> 1 (was BANKED_CODE)
  Relative segment, address: CODE 00001E50 - 00001E52 (0x3 bytes), align: 0
  Segment part 350.           Intra module refs:   SW_Init::?relay
           LOCAL                   ADDRESS         
           =====                   =======         
           SW_Init                 00001E50 
               is indirectly called
    -------------------------------------------------------------------------
<BANKED_CODE> 1 (was BANKED_CODE)
  Relative segment, address: CODE 00001E53 - 00001E57 (0x5 bytes), align: 0
  Segment part 352.
           ENTRY                   ADDRESS         REF BY
           =====                   =======         ======
           main                    00001E53        ?call_main (?cmain)
               calls direct
    -------------------------------------------------------------------------
<BANKED_CODE> 1 (was BANKED_CODE)
  Relative segment, address: CODE 00001E58 - 00001E93 (0x3c bytes), align: 0
  Segment part 354.           Intra module refs:   is_array_ptr::?relay
           LOCAL                   ADDRESS         
           =====                   =======         
           is_array_ptr            00001E58 
               XSTACK = 0000000E ( 0000000C )
    -------------------------------------------------------------------------
<BANKED_CODE> 1 (was BANKED_CODE)
  Relative segment, address: CODE 00001E94 - 00001EC3 (0x30 bytes), align: 0
  Segment part 356.           Intra module refs:   array_index::?relay
           LOCAL                   ADDRESS         
           =====                   =======         
           array_index             00001E94 
               XSTACK = 0000000E ( 0000000C )
    -------------------------------------------------------------------------
<BANKED_CODE> 1 (was BANKED_CODE)
  Relative segment, address: CODE 00001EC4 - 00001ECA (0x7 bytes), align: 0
  Segment part 358.           Intra module refs:   __cli::?relay
           LOCAL                   ADDRESS         
           =====                   =======         
           __cli                   00001EC4 
               XSTACK = 0000000D ( 00000000 )
    -------------------------------------------------------------------------
XDATA_I
  Relative segment, address: XDATA 000016D8 - 000016E3 (0xc bytes), align: 0
  Segment part 152.           Intra module refs:   Segment part 115
           ENTRY                   ADDRESS         REF BY
           =====                   =======         ======
           MS_MODULE               000016D8 
    -------------------------------------------------------------------------
XDATA_Z
  Relative segment, address: XDATA 000008B3 - 000014A6 (0xbf4 bytes), align: 0
  Segment part 154.           Intra module refs:   SL_alloc
                                                   SL_zone_check
                                                   SW_Init
                                                   _free
           LOCAL                   ADDRESS         
           =====                   =======         
           SLOT_POOL               000008B3 
    -------------------------------------------------------------------------
XDATA_Z
  Relative segment, address: XDATA 000014A7 - 000014A8 (0x2 bytes), align: 0
  Segment part 155.           Intra module refs:   SL_alloc
                                                   SL_available
                                                   SL_busy
                                                   SW_Init
                                                   _free
           LOCAL                   ADDRESS         
           =====                   =======         
           slot_busy               000014A7 
    -------------------------------------------------------------------------
<BANKED_CODE> 1 (was BANKED_CODE)
  Relative segment, address: CODE 00001ECB - 00001F3F (0x75 bytes), align: 0
  Segment part 360.           Intra module refs:   SW_Init::?relay
           LOCAL                   ADDRESS         
           =====                   =======         
           SW_Init                 00001ECB 
               calls direct, is indirectly called
               XSTACK = 00000000 ( 0000000D )
    -------------------------------------------------------------------------
XDATA_ROM_C
  Relative segment, address: XDATA 000018BF - 000018C2 (0x4 bytes), align: 0
  Segment part 156.           Intra module refs:   SW_Init
    -------------------------------------------------------------------------
<BANKED_CODE> 1 (was BANKED_CODE)
  Relative segment, address: CODE 00001F40 - 00001FD0 (0x91 bytes), align: 0
  Segment part 362.           Intra module refs:   SL_alloc::?relay
           ENTRY                   ADDRESS         REF BY
           =====                   =======         ======
           SL_alloc                00001F40 
               calls direct
               XSTACK = 00000034 ( 0000000D )
    -------------------------------------------------------------------------
XDATA_ROM_C
  Relative segment, address: XDATA 000018C3 - 000018C6 (0x4 bytes), align: 0
  Segment part 157.           Intra module refs:   SL_alloc
    -------------------------------------------------------------------------
<BANKED_CODE> 1 (was BANKED_CODE)
  Relative segment, address: CODE 00001FD1 - 00002058 (0x88 bytes), align: 0
  Segment part 364.           Intra module refs:   _free::?relay
           LOCAL                   ADDRESS         
           =====                   =======         
           _free                   00001FD1 
               calls direct
               XSTACK = 00000009 ( 0000000E )
    -------------------------------------------------------------------------
<BANKED_CODE> 1 (was BANKED_CODE)
  Relative segment, address: CODE 00002059 - 00002089 (0x31 bytes), align: 0
  Segment part 366.           Intra module refs:   SL_free::?relay
           ENTRY                   ADDRESS         REF BY
           =====                   =======         ======
           SL_free                 00002059 
               calls direct
               XSTACK = 00000034 ( 00000009 )
    -------------------------------------------------------------------------
<BANKED_CODE> 1 (was BANKED_CODE)
  Relative segment, address: CODE 0000208A - 000020E4 (0x5b bytes), align: 0
  Segment part 368.           Intra module refs:   SL_busy::?relay
           ENTRY                   ADDRESS         REF BY
           =====                   =======         ======
           SL_busy                 0000208A 
               calls direct
               XSTACK = 00000034 ( 00000010 )
    -------------------------------------------------------------------------
<BANKED_CODE> 1 (was BANKED_CODE)
  Relative segment, address: CODE 000020E5 - 00002148 (0x64 bytes), align: 0
  Segment part 370.           Intra module refs:   SL_available::?relay
           ENTRY                   ADDRESS         REF BY
           =====                   =======         ======
           SL_available            000020E5 
               calls direct
               XSTACK = 00000034 ( 00000010 )
    -------------------------------------------------------------------------
<BANKED_CODE> 1 (was BANKED_CODE)
  Relative segment, address: CODE 00002149 - 00002194 (0x4c bytes), align: 0
  Segment part 372.           Intra module refs:   SL_zone_check::?relay
           ENTRY                   ADDRESS         REF BY
           =====                   =======         ======
           SL_zone_check           00002149 
               XSTACK = 00000010 ( 00000000 )
               ISTACK = 00000000 ( 00000002 )
    -------------------------------------------------------------------------
<BANKED_CODE> 1 (was BANKED_CODE)
  Relative segment, address: CODE 00002195 - 00002208 (0x74 bytes), align: 0
  Segment part 374.           Intra module refs:   MEM_memcpy::?relay
           ENTRY                   ADDRESS         REF BY
           =====                   =======         ======
           MEM_memcpy              00002195 
               XSTACK = 00000029 ( 00000000 )
               ISTACK = 00000000 ( 00000003 )
    -------------------------------------------------------------------------
<BANKED_CODE> 1 (was BANKED_CODE)
  Relative segment, address: CODE 00002209 - 00002257 (0x4f bytes), align: 0
  Segment part 376.           Intra module refs:   MEM_memset::?relay
           ENTRY                   ADDRESS         REF BY
           =====                   =======         ======
           MEM_memset              00002209 
               XSTACK = 00000029 ( 00000000 )
               ISTACK = 00000000 ( 00000003 )
    -------------------------------------------------------------------------
XDATA_Z
  Relative segment, address: XDATA 000014A9 - 00001537 (0x8f bytes), align: 0
  Segment part 158.           Intra module refs:   AES_StreamCoder
                                                   Hot_Start
                                                   RI_Receive
                                                   RI_Send
                                                   RI_SetChannel
                                                   RecvData
                                                   SW_Init
                                                   SendData
                                                   TM_IRQ
                                                   accept_sync_data
                                                   mode_0_process
                                                   mode_0_receive_process
                                                   mode_1_process
                                                   pre_config
                                                   recv_sync
                                                   send_sync
                                                   setFreq
                                                   validate_sync
           ENTRY                   ADDRESS         REF BY
           =====                   =======         ======
           MODEL                   000014A9 
    -------------------------------------------------------------------------
XDATA_I
  Relative segment, address: XDATA 000016E4 - 000016EF (0xc bytes), align: 0
  Segment part 159.           Intra module refs:   Segment part 115
           ENTRY                   ADDRESS         REF BY
           =====                   =======         ======
           MD_MODULE               000016E4 
    -------------------------------------------------------------------------
<BANKED_CODE> 1 (was BANKED_CODE)
  Relative segment, address: CODE 00002258 - 0000225A (0x3 bytes), align: 0
  Segment part 378.           Intra module refs:   HW_Init::?relay
           LOCAL                   ADDRESS         
           =====                   =======         
           HW_Init                 00002258 
               is indirectly called
    -------------------------------------------------------------------------
<BANKED_CODE> 1 (was BANKED_CODE)
  Relative segment, address: CODE 0000225B - 0000225D (0x3 bytes), align: 0
  Segment part 380.           Intra module refs:   SW_Init::?relay
           LOCAL                   ADDRESS         
           =====                   =======         
           SW_Init                 0000225B 
               is indirectly called
    -------------------------------------------------------------------------
<BANKED_CODE> 1 (was BANKED_CODE)
  Relative segment, address: CODE 0000225E - 00002260 (0x3 bytes), align: 0
  Segment part 382.           Intra module refs:   Sleep::?relay
           LOCAL                   ADDRESS         
           =====                   =======         
           Sleep                   0000225E 
               is indirectly called
    -------------------------------------------------------------------------
<BANKED_CODE> 1 (was BANKED_CODE)
  Relative segment, address: CODE 00002261 - 00002263 (0x3 bytes), align: 0
  Segment part 384.           Intra module refs:   Wakeup::?relay
           LOCAL                   ADDRESS         
           =====                   =======         
           Wakeup                  00002261 
               is indirectly called
    -------------------------------------------------------------------------
<BANKED_CODE> 1 (was BANKED_CODE)
  Relative segment, address: CODE 00002264 - 00002266 (0x3 bytes), align: 0
  Segment part 386.           Intra module refs:   Cold_Start::?relay
           LOCAL                   ADDRESS         
           =====                   =======         
           Cold_Start              00002264 
               is indirectly called
    -------------------------------------------------------------------------
<BANKED_CODE> 1 (was BANKED_CODE)
  Relative segment, address: CODE 00002267 - 00002269 (0x3 bytes), align: 0
  Segment part 388.           Intra module refs:   Hot_Start::?relay
           LOCAL                   ADDRESS         
           =====                   =======         
           Hot_Start               00002267 
               is indirectly called
    -------------------------------------------------------------------------
XDATA_I
  Relative segment, address: XDATA 000016F0 - 000016FB (0xc bytes), align: 0
  Segment part 161.           Intra module refs:   Segment part 115
           ENTRY                   ADDRESS         REF BY
           =====                   =======         ======
           RADIO_MODULE            000016F0 
    -------------------------------------------------------------------------
XDATA_Z
  Relative segment, address: XDATA 00001538 - 000015B7 (0x80 bytes), align: 0
  Segment part 163.           Intra module refs:   RI_Receive
           LOCAL                   ADDRESS         
           =====                   =======         
           RXBUFF                  00001538 
    -------------------------------------------------------------------------
<BANKED_CODE> 1 (was BANKED_CODE)
  Relative segment, address: CODE 0000226A - 000022A7 (0x3e bytes), align: 0
  Segment part 390.           Intra module refs:   SW_Init::?relay
           LOCAL                   ADDRESS         
           =====                   =======         
           SW_Init                 0000226A 
               calls direct, is indirectly called
               ISTACK = 00000000 ( 00000002 )
    -------------------------------------------------------------------------
<BANKED_CODE> 1 (was BANKED_CODE)
  Relative segment, address: CODE 000022A8 - 000022E6 (0x3f bytes), align: 0
  Segment part 392.           Intra module refs:   HW_Init::?relay
           LOCAL                   ADDRESS         
           =====                   =======         
           HW_Init                 000022A8 
               is indirectly called
               XSTACK = 00000000 ( 00000001 )
               ISTACK = 00000000 ( 00000003 )
    -------------------------------------------------------------------------
<BANKED_CODE> 1 (was BANKED_CODE)
  Relative segment, address: CODE 000022E7 - 0000235F (0x79 bytes), align: 0
  Segment part 394.           Intra module refs:   setFreq::?relay
           LOCAL                   ADDRESS         
           =====                   =======         
           setFreq                 000022E7 
               calls direct
               XSTACK = 00000000 ( 00000011 )
               ISTACK = 00000000 ( 00000001 )
    -------------------------------------------------------------------------
<BANKED_CODE> 1 (was BANKED_CODE)
  Relative segment, address: CODE 00002360 - 0000237A (0x1b bytes), align: 0
  Segment part 396.           Intra module refs:   pre_config::?relay
           LOCAL                   ADDRESS         
           =====                   =======         
           pre_config              00002360 
               calls direct
               XSTACK = 00000024 ( 00000000 )
               ISTACK = 00000000 ( 00000002 )
    -------------------------------------------------------------------------
<BANKED_CODE> 1 (was BANKED_CODE)
  Relative segment, address: CODE 0000237B - 0000239A (0x20 bytes), align: 0
  Segment part 398.           Intra module refs:   RI_SetChannel::?relay
           ENTRY                   ADDRESS         REF BY
           =====                   =======         ======
           RI_SetChannel           0000237B 
               XSTACK = 0000003F ( 00000000 )
               ISTACK = 00000000 ( 00000002 )
    -------------------------------------------------------------------------
<BANKED_CODE> 1 (was BANKED_CODE)
  Relative segment, address: CODE 0000239B - 000023D0 (0x36 bytes), align: 0
  Segment part 400.           Intra module refs:   LoadTXData::?relay
           LOCAL                   ADDRESS         
           =====                   =======         
           LoadTXData              0000239B 
               XSTACK = 0000003B ( 00000000 )
               ISTACK = 00000000 ( 00000002 )
    -------------------------------------------------------------------------
<BANKED_CODE> 1 (was BANKED_CODE)
  Relative segment, address: CODE 000023D1 - 000024C2 (0xf2 bytes), align: 0
  Segment part 402.           Intra module refs:   SendData::?relay
           LOCAL                   ADDRESS         
           =====                   =======         
           SendData                000023D1 
               calls direct
               XSTACK = 0000001E ( 0000003B )
    -------------------------------------------------------------------------
<BANKED_CODE> 1 (was BANKED_CODE)
  Relative segment, address: CODE 000024C3 - 000025C2 (0x100 bytes), align: 0
  Segment part 404.           Intra module refs:   RI_Send::?relay
           ENTRY                   ADDRESS         REF BY
           =====                   =======         ======
           RI_Send                 000024C3 
               calls direct
               XSTACK = 00000015 ( 00000024 )
    -------------------------------------------------------------------------
<BANKED_CODE> 1 (was BANKED_CODE)
  Relative segment, address: CODE 000025C3 - 000025EE (0x2c bytes), align: 0
  Segment part 406.           Intra module refs:   UnLoadRXData::?relay
           LOCAL                   ADDRESS         
           =====                   =======         
           UnLoadRXData            000025C3 
               XSTACK = 00000024 ( 00000000 )
               ISTACK = 00000000 ( 00000003 )
    -------------------------------------------------------------------------
<BANKED_CODE> 1 (was BANKED_CODE)
  Relative segment, address: CODE 000025EF - 000026B9 (0xcb bytes), align: 0
  Segment part 408.           Intra module refs:   RecvData::?relay
           LOCAL                   ADDRESS         
           =====                   =======         
           RecvData                000025EF 
               calls direct
               XSTACK = 00000026 ( 00000047 )
    -------------------------------------------------------------------------
<BANKED_CODE> 1 (was BANKED_CODE)
  Relative segment, address: CODE 000026BA - 0000290E (0x255 bytes), align: 0
  Segment part 410.           Intra module refs:   RI_Receive::?relay
           ENTRY                   ADDRESS         REF BY
           =====                   =======         ======
           RI_Receive              000026BA 
               calls direct
               XSTACK = 0000003F ( 0000002A )
               ISTACK = 00000000 ( 00000001 )
    -------------------------------------------------------------------------
<BANKED_CODE> 1 (was BANKED_CODE)
  Relative segment, address: CODE 0000290F - 00002930 (0x22 bytes), align: 0
  Segment part 412.           Intra module refs:   bits_count::?relay
           LOCAL                   ADDRESS         
           =====                   =======         
           bits_count              0000290F 
               XSTACK = 00000009 ( 00000000 )
    -------------------------------------------------------------------------
<BANKED_CODE> 1 (was BANKED_CODE)
  Relative segment, address: CODE 00002931 - 00002965 (0x35 bytes), align: 0
  Segment part 414.           Intra module refs:   getRNDByte::?relay
           LOCAL                   ADDRESS         
           =====                   =======         
           getRNDByte              00002931 
               XSTACK = 00000009 ( 00000000 )
               ISTACK = 00000000 ( 00000002 )
    -------------------------------------------------------------------------
<BANKED_CODE> 1 (was BANKED_CODE)
  Relative segment, address: CODE 00002966 - 0000299B (0x36 bytes), align: 0
  Segment part 416.           Intra module refs:   readRandom::?relay
           LOCAL                   ADDRESS         
           =====                   =======         
           readRandom              00002966 
               calls direct
               XSTACK = 00000009 ( 00000009 )
    -------------------------------------------------------------------------
<BANKED_CODE> 1 (was BANKED_CODE)
  Relative segment, address: CODE 0000299C - 000029E9 (0x4e bytes), align: 0
  Segment part 418.           Intra module refs:   random_core_init::?relay
           LOCAL                   ADDRESS         
           =====                   =======         
           random_core_init        0000299C 
               calls direct
               XSTACK = 00000000 ( 00000009 )
    -------------------------------------------------------------------------
XDATA_I
  Relative segment, address: XDATA 000016FC - 00001707 (0xc bytes), align: 0
  Segment part 164.           Intra module refs:   Segment part 111
           ENTRY                   ADDRESS         REF BY
           =====                   =======         ======
           RTC_MODULE              000016FC 
    -------------------------------------------------------------------------
<BANKED_CODE> 1 (was BANKED_CODE)
  Relative segment, address: CODE 000029EA - 000029EC (0x3 bytes), align: 0
  Segment part 422.           Intra module refs:   SW_Init::?relay
           LOCAL                   ADDRESS         
           =====                   =======         
           SW_Init                 000029EA 
               is indirectly called
    -------------------------------------------------------------------------
<BANKED_CODE> 1 (was BANKED_CODE)
  Relative segment, address: CODE 000029ED - 000029EF (0x3 bytes), align: 0
  Segment part 424.           Intra module refs:   Cold_Start::?relay
           LOCAL                   ADDRESS         
           =====                   =======         
           Cold_Start              000029ED 
               is indirectly called
    -------------------------------------------------------------------------
<BANKED_CODE> 1 (was BANKED_CODE)
  Relative segment, address: CODE 000029F0 - 00002A1F (0x30 bytes), align: 0
  Segment part 426.           Intra module refs:   Hot_Start::?relay
           LOCAL                   ADDRESS         
           =====                   =======         
           Hot_Start               000029F0 
               is indirectly called
               XSTACK = 00000000 ( 0000000C )
    -------------------------------------------------------------------------
XDATA_Z
  Relative segment, address: XDATA 000015B8 - 000015B8 (0x1 bytes), align: 0
  Segment part 166.           Intra module refs:   SW_Init
                                                   mode_0_process
                                                   mode_0_receive_process
                                                   mode_0_retransmition_process
           LOCAL                   ADDRESS         
           =====                   =======         
           retransmite             000015B8 
    -------------------------------------------------------------------------
XDATA_I
  Relative segment, address: XDATA 00001708 - 00001713 (0xc bytes), align: 0
  Segment part 167.           Intra module refs:   Segment part 111
                                                   Segment part 115
           ENTRY                   ADDRESS         REF BY
           =====                   =======         ======
           SYNC_MODULE             00001708 
    -------------------------------------------------------------------------
<BANKED_CODE> 1 (was BANKED_CODE)
  Relative segment, address: CODE 00002A20 - 00002A54 (0x35 bytes), align: 0
  Segment part 428.           Intra module refs:   SW_Init::?relay
           LOCAL                   ADDRESS         
           =====                   =======         
           SW_Init                 00002A20 
               is indirectly called
               ISTACK = 00000000 ( 00000002 )
    -------------------------------------------------------------------------
<BANKED_CODE> 1 (was BANKED_CODE)
  Relative segment, address: CODE 00002A55 - 00002A57 (0x3 bytes), align: 0
  Segment part 430.           Intra module refs:   Cold_Start::?relay
           LOCAL                   ADDRESS         
           =====                   =======         
           Cold_Start              00002A55 
               is indirectly called
    -------------------------------------------------------------------------
<BANKED_CODE> 1 (was BANKED_CODE)
  Relative segment, address: CODE 00002A58 - 00002A92 (0x3b bytes), align: 0
  Segment part 432.           Intra module refs:   validate_sync::?relay
           LOCAL                   ADDRESS         
           =====                   =======         
           validate_sync           00002A58 
               XSTACK = 0000000E ( 0000000C )
    -------------------------------------------------------------------------
<BANKED_CODE> 1 (was BANKED_CODE)
  Relative segment, address: CODE 00002A93 - 00002AAC (0x1a bytes), align: 0
  Segment part 434.           Intra module refs:   accept_sync_data::?relay
           LOCAL                   ADDRESS         
           =====                   =======         
           accept_sync_data        00002A93 
               XSTACK = 0000000E ( 00000009 )
    -------------------------------------------------------------------------
<BANKED_CODE> 1 (was BANKED_CODE)
  Relative segment, address: CODE 00002AAD - 00002AEE (0x42 bytes), align: 0
  Segment part 436.           Intra module refs:   syncronize_timer::?relay
           LOCAL                   ADDRESS         
           =====                   =======         
           syncronize_timer        00002AAD 
               calls direct
               XSTACK = 00000047 ( 0000000E )
    -------------------------------------------------------------------------
<BANKED_CODE> 1 (was BANKED_CODE)
  Relative segment, address: CODE 00002AEF - 00002B4B (0x5d bytes), align: 0
  Segment part 438.           Intra module refs:   mode_0_receive_process::?relay
           LOCAL                   ADDRESS         
           =====                   =======         
           mode_0_receive_process
                                   00002AEF 
               calls direct
               XSTACK = 0000000C ( 0000000E )
    -------------------------------------------------------------------------
<BANKED_CODE> 1 (was BANKED_CODE)
  Relative segment, address: CODE 00002B4C - 00002B7F (0x34 bytes), align: 0
  Segment part 440.           Intra module refs:   _throw_dice::?relay
           LOCAL                   ADDRESS         
           =====                   =======         
           _throw_dice             00002B4C 
               calls direct
               XSTACK = 00000000 ( 0000000A )
    -------------------------------------------------------------------------
<BANKED_CODE> 1 (was BANKED_CODE)
  Relative segment, address: CODE 00002B80 - 00002B9F (0x20 bytes), align: 0
  Segment part 442.           Intra module refs:   mode_0_retransmition_process::?relay
           LOCAL                   ADDRESS         
           =====                   =======         
           mode_0_retransmition_process
                                   00002B80 
               calls direct
               XSTACK = 0000000C ( 00000000 )
               ISTACK = 00000000 ( 00000002 )
    -------------------------------------------------------------------------
<BANKED_CODE> 1 (was BANKED_CODE)
  Relative segment, address: CODE 00002BA0 - 00002BC9 (0x2a bytes), align: 0
  Segment part 444.           Intra module refs:   mode_0_process::?relay
           LOCAL                   ADDRESS         
           =====                   =======         
           mode_0_process          00002BA0 
               calls direct
               XSTACK = 0000000A ( 0000000C )
    -------------------------------------------------------------------------
<BANKED_CODE> 1 (was BANKED_CODE)
  Relative segment, address: CODE 00002BCA - 00002C00 (0x37 bytes), align: 0
  Segment part 446.           Intra module refs:   mode_1_process::?relay
           LOCAL                   ADDRESS         
           =====                   =======         
           mode_1_process          00002BCA 
               calls direct
               XSTACK = 0000000A ( 0000000C )
    -------------------------------------------------------------------------
<BANKED_CODE> 1 (was BANKED_CODE)
  Relative segment, address: CODE 00002C01 - 00002C58 (0x58 bytes), align: 0
  Segment part 448.           Intra module refs:   Hot_Start::?relay
           LOCAL                   ADDRESS         
           =====                   =======         
           Hot_Start               00002C01 
               calls direct, is indirectly called
               XSTACK = 00000000 ( 00000010 )
    -------------------------------------------------------------------------
<BANKED_CODE> 1 (was BANKED_CODE)
  Relative segment, address: CODE 00002C59 - 00002D4B (0xf3 bytes), align: 0
  Segment part 450.           Intra module refs:   recv_sync::?relay
           LOCAL                   ADDRESS         
           =====                   =======         
           recv_sync               00002C59 
               calls direct
               XSTACK = 0000000E ( 00000045 )
    -------------------------------------------------------------------------
<BANKED_CODE> 1 (was BANKED_CODE)
  Relative segment, address: CODE 00002D4C - 00002E42 (0xf7 bytes), align: 0
  Segment part 452.           Intra module refs:   send_sync::?relay
           LOCAL                   ADDRESS         
           =====                   =======         
           send_sync               00002D4C 
               calls direct
               XSTACK = 0000000C ( 0000001B )
               ISTACK = 00000000 ( 00000001 )
    -------------------------------------------------------------------------
<BANKED_CODE> 1 (was BANKED_CODE)
  Relative segment, address: CODE 00002E43 - 00002E49 (0x7 bytes), align: 0
  Segment part 458.           Intra module refs:   __cli::?relay
           LOCAL                   ADDRESS         
           =====                   =======         
           __cli                   00002E43 
               XSTACK = 00000009 ( 00000000 )
    -------------------------------------------------------------------------
XDATA_Z
  Relative segment, address: XDATA 000015B9 - 000015EA (0x32 bytes), align: 0
  Segment part 169.           Intra module refs:   _find_next_active
           LOCAL                   ADDRESS         
           =====                   =======         
           ALARMS                  000015B9 
    -------------------------------------------------------------------------
<BANKED_CODE> 1 (was BANKED_CODE)
  Relative segment, address: CODE 00002E4A - 00002E5B (0x12 bytes), align: 0
  Segment part 464.           Intra module refs:   _inc_timeslot::?relay
           LOCAL                   ADDRESS         
           =====                   =======         
           _inc_timeslot           00002E4A 
               XSTACK = 00000009 ( 00000000 )
    -------------------------------------------------------------------------
<BANKED_CODE> 1 (was BANKED_CODE)
  Relative segment, address: CODE 00002E5C - 00002E8D (0x32 bytes), align: 0
  Segment part 466.           Intra module refs:   _find_next_active::?relay
           LOCAL                   ADDRESS         
           =====                   =======         
           _find_next_active       00002E5C 
               calls direct
               XSTACK = 00000009 ( 00000009 )
    -------------------------------------------------------------------------
<BANKED_CODE> 1 (was BANKED_CODE)
  Relative segment, address: CODE 00002E8E - 00002ECE (0x41 bytes), align: 0
  Segment part 468.           Intra module refs:   scheulder_next_alarm::?relay
           LOCAL                   ADDRESS         
           =====                   =======         
           scheulder_next_alarm    00002E8E 
               calls direct
               XSTACK = 00000009 ( 00000009 )
    -------------------------------------------------------------------------
<BANKED_CODE> 1 (was BANKED_CODE)
  Relative segment, address: CODE 00002ECF - 00002F17 (0x49 bytes), align: 0
  Segment part 470.           Intra module refs:   TM_IRQ::?relay
           ENTRY                   ADDRESS         REF BY
           =====                   =======         ======
           TM_IRQ                  00002ECF 
               calls direct
               XSTACK = 0000000F ( 00000009 )
    -------------------------------------------------------------------------
XDATA_I
  Relative segment, address: XDATA 00001714 - 00001735 (0x22 bytes), align: 0
  Segment part 170.           Intra module refs:   Segment part 201
           ENTRY                   ADDRESS         REF BY
           =====                   =======         ======
           UT_BF_1                 00001714 
    -------------------------------------------------------------------------
XDATA_I
  Relative segment, address: XDATA 00001736 - 00001757 (0x22 bytes), align: 0
  Segment part 172.           Intra module refs:   Segment part 201
           ENTRY                   ADDRESS         REF BY
           =====                   =======         ======
           UT_BF_2                 00001736 
    -------------------------------------------------------------------------
XDATA_I
  Relative segment, address: XDATA 00001758 - 00001779 (0x22 bytes), align: 0
  Segment part 174.           Intra module refs:   Segment part 201
           ENTRY                   ADDRESS         REF BY
           =====                   =======         ======
           UT_BF_3                 00001758 
    -------------------------------------------------------------------------
<BANKED_CODE> 1 (was BANKED_CODE)
  Relative segment, address: CODE 00002F18 - 00003315 (0x3fe bytes), align: 0
  Segment part 486.           Intra module refs:   test3::?relay
           LOCAL                   ADDRESS         
           =====                   =======         
           test3                   00002F18 
               calls direct, is indirectly called
               XSTACK = 00000000 ( 0000003A )
    -------------------------------------------------------------------------
<BANKED_CODE> 1 (was BANKED_CODE)
  Relative segment, address: CODE 00003316 - 000034F2 (0x1dd bytes), align: 0
  Segment part 488.           Intra module refs:   test2::?relay
           LOCAL                   ADDRESS         
           =====                   =======         
           test2                   00003316 
               calls direct, is indirectly called
               XSTACK = 00000000 ( 0000003A )
    -------------------------------------------------------------------------
<BANKED_CODE> 1 (was BANKED_CODE)
  Relative segment, address: CODE 000034F3 - 00003625 (0x133 bytes), align: 0
  Segment part 490.           Intra module refs:   test1::?relay
           LOCAL                   ADDRESS         
           =====                   =======         
           test1                   000034F3 
               calls direct, is indirectly called
               XSTACK = 00000000 ( 00000012 )
    -------------------------------------------------------------------------
XDATA_I
  Relative segment, address: XDATA 0000177A - 0000179B (0x22 bytes), align: 0
  Segment part 178.           Intra module refs:   Segment part 201
           ENTRY                   ADDRESS         REF BY
           =====                   =======         ======
           UT_FR_1                 0000177A 
    -------------------------------------------------------------------------
XDATA_I
  Relative segment, address: XDATA 0000179C - 000017BD (0x22 bytes), align: 0
  Segment part 180.           Intra module refs:   Segment part 201
           ENTRY                   ADDRESS         REF BY
           =====                   =======         ======
           UT_FR_2                 0000179C 
    -------------------------------------------------------------------------
XDATA_I
  Relative segment, address: XDATA 000017BE - 000017DF (0x22 bytes), align: 0
  Segment part 182.           Intra module refs:   Segment part 201
           ENTRY                   ADDRESS         REF BY
           =====                   =======         ======
           UT_FR_3                 000017BE 
    -------------------------------------------------------------------------
<BANKED_CODE> 1 (was BANKED_CODE)
  Relative segment, address: CODE 00003626 - 0000365B (0x36 bytes), align: 0
  Segment part 492.           Intra module refs:   ch_cmp::?relay
           LOCAL                   ADDRESS         
           =====                   =======         
           ch_cmp                  00003626 
               XSTACK = 00000018 ( 00000009 )
    -------------------------------------------------------------------------
<BANKED_CODE> 1 (was BANKED_CODE)
  Relative segment, address: CODE 0000365C - 00003681 (0x26 bytes), align: 0
  Segment part 494.           Intra module refs:   ch_cmp_val::?relay
           LOCAL                   ADDRESS         
           =====                   =======         
           ch_cmp_val              0000365C 
               XSTACK = 00000016 ( 00000009 )
    -------------------------------------------------------------------------
<BANKED_CODE> 1 (was BANKED_CODE)
  Relative segment, address: CODE 00003682 - 000037A4 (0x123 bytes), align: 0
  Segment part 496.           Intra module refs:   test3::?relay
           LOCAL                   ADDRESS         
           =====                   =======         
           test3                   00003682 
               calls direct, is indirectly called
               XSTACK = 00000000 ( 00000018 )
    -------------------------------------------------------------------------
<BANKED_CODE> 1 (was BANKED_CODE)
  Relative segment, address: CODE 000037A5 - 00003A4F (0x2ab bytes), align: 0
  Segment part 498.           Intra module refs:   test2::?relay
           LOCAL                   ADDRESS         
           =====                   =======         
           test2                   000037A5 
               calls direct, is indirectly called
               XSTACK = 00000000 ( 00000034 )
    -------------------------------------------------------------------------
<BANKED_CODE> 1 (was BANKED_CODE)
  Relative segment, address: CODE 00003A50 - 00003B03 (0xb4 bytes), align: 0
  Segment part 500.           Intra module refs:   test1::?relay
           LOCAL                   ADDRESS         
           =====                   =======         
           test1                   00003A50 
               calls direct, is indirectly called
               XSTACK = 00000000 ( 0000000C )
    -------------------------------------------------------------------------
XDATA_I
  Relative segment, address: XDATA 000017E0 - 00001801 (0x22 bytes), align: 0
  Segment part 184.           Intra module refs:   Segment part 201
           ENTRY                   ADDRESS         REF BY
           =====                   =======         ======
           UT_MACR_1               000017E0 
    -------------------------------------------------------------------------
XDATA_I
  Relative segment, address: XDATA 00001802 - 00001823 (0x22 bytes), align: 0
  Segment part 186.           Intra module refs:   Segment part 201
           ENTRY                   ADDRESS         REF BY
           =====                   =======         ======
           UT_MACR_2               00001802 
    -------------------------------------------------------------------------
<BANKED_CODE> 1 (was BANKED_CODE)
  Relative segment, address: CODE 00003B04 - 00003B6F (0x6c bytes), align: 0
  Segment part 502.           Intra module refs:   test2::?relay
           LOCAL                   ADDRESS         
           =====                   =======         
           test2                   00003B04 
               is indirectly called
               XSTACK = 00000000 ( 0000003B )
    -------------------------------------------------------------------------
<BANKED_CODE> 1 (was BANKED_CODE)
  Relative segment, address: CODE 00003B70 - 00003BDB (0x6c bytes), align: 0
  Segment part 504.           Intra module refs:   test1::?relay
           LOCAL                   ADDRESS         
           =====                   =======         
           test1                   00003B70 
               is indirectly called
               XSTACK = 00000000 ( 0000003B )
    -------------------------------------------------------------------------
XDATA_I
  Relative segment, address: XDATA 00001824 - 00001845 (0x22 bytes), align: 0
  Segment part 188.           Intra module refs:   Segment part 201
           ENTRY                   ADDRESS         REF BY
           =====                   =======         ======
           UT_MS_1                 00001824 
    -------------------------------------------------------------------------
XDATA_I
  Relative segment, address: XDATA 00001846 - 00001867 (0x22 bytes), align: 0
  Segment part 190.           Intra module refs:   Segment part 201
           ENTRY                   ADDRESS         REF BY
           =====                   =======         ======
           UT_MS_2                 00001846 
    -------------------------------------------------------------------------
XDATA_I
  Relative segment, address: XDATA 00001868 - 00001889 (0x22 bytes), align: 0
  Segment part 192.           Intra module refs:   Segment part 201
           ENTRY                   ADDRESS         REF BY
           =====                   =======         ======
           UT_MS_3                 00001868 
    -------------------------------------------------------------------------
<BANKED_CODE> 1 (was BANKED_CODE)
  Relative segment, address: CODE 00003BDC - 00003C62 (0x87 bytes), align: 0
  Segment part 506.           Intra module refs:   test3::?relay
           LOCAL                   ADDRESS         
           =====                   =======         
           test3                   00003BDC 
               calls direct, is indirectly called
               XSTACK = 00000000 ( 00000010 )
    -------------------------------------------------------------------------
<BANKED_CODE> 1 (was BANKED_CODE)
  Relative segment, address: CODE 00003C63 - 00003F10 (0x2ae bytes), align: 0
  Segment part 508.           Intra module refs:   test2::?relay
           LOCAL                   ADDRESS         
           =====                   =======         
           test2                   00003C63 
               calls direct, is indirectly called
               XSTACK = 00000000 ( 00000034 )
    -------------------------------------------------------------------------
<BANKED_CODE> 1 (was BANKED_CODE)
  Relative segment, address: CODE 00003F11 - 00003FA7 (0x97 bytes), align: 0
  Segment part 510.           Intra module refs:   test1::?relay
           LOCAL                   ADDRESS         
           =====                   =======         
           test1                   00003F11 
               calls direct, is indirectly called
               XSTACK = 00000000 ( 0000000A )
    -------------------------------------------------------------------------
XDATA_ROM_C
  Relative segment, address: XDATA 000018C7 - 000018CA (0x4 bytes), align: 0
  Segment part 196.           Intra module refs:   UST_interval
           LOCAL                   ADDRESS         
           =====                   =======         
           MAC_TIMER_MAX           000018C7 
    -------------------------------------------------------------------------
<BANKED_CODE> 1 (was BANKED_CODE)
  Relative segment, address: CODE 00003FA8 - 00003FF6 (0x4f bytes), align: 0
  Segment part 516.           Intra module refs:   UST_now::?relay
           ENTRY                   ADDRESS         REF BY
           =====                   =======         ======
           UST_now                 00003FA8 
               XSTACK = 00000047 ( 00000004 )
               ISTACK = 00000000 ( 00000003 )
    -------------------------------------------------------------------------
<BANKED_CODE> 1 (was BANKED_CODE)
  Relative segment, address: CODE 00003FF7 - 00004063 (0x6d bytes), align: 0
  Segment part 518.           Intra module refs:   UST_time_over::?relay
           ENTRY                   ADDRESS         REF BY
           =====                   =======         ======
           UST_time_over           00003FF7 
               calls direct
               XSTACK = 0000004B ( 00000014 )
               ISTACK = 00000000 ( 00000002 )
    -------------------------------------------------------------------------
<BANKED_CODE> 1 (was BANKED_CODE)
  Relative segment, address: CODE 00004064 - 000040F0 (0x8d bytes), align: 0
  Segment part 520.           Intra module refs:   UST_interval::?relay
           ENTRY                   ADDRESS         REF BY
           =====                   =======         ======
           UST_interval            00004064 
               XSTACK = 00000028 ( 00000018 )
    -------------------------------------------------------------------------
XDATA_I
  Relative segment, address: XDATA 0000188A - 0000189F (0x16 bytes), align: 0
  Segment part 200.           Intra module refs:   run_tests
           ENTRY                   ADDRESS         REF BY
           =====                   =======         ======
           TEST_FUN                0000188A 
    -------------------------------------------------------------------------
XDATA_Z
  Relative segment, address: XDATA 000015EB - 000015EC (0x2 bytes), align: 0
  Segment part 202.           Intra module refs:   run_unit_fun
                                                   show_statistic
           LOCAL                   ADDRESS         
           =====                   =======         
           passed                  000015EB 
    -------------------------------------------------------------------------
XDATA_Z
  Relative segment, address: XDATA 000015ED - 000015EE (0x2 bytes), align: 0
  Segment part 203.           Intra module refs:   run_unit_fun
                                                   show_statistic
           LOCAL                   ADDRESS         
           =====                   =======         
           common_count            000015ED 
    -------------------------------------------------------------------------
<BANKED_CODE> 1 (was BANKED_CODE)
  Relative segment, address: CODE 000040F1 - 00004184 (0x94 bytes), align: 0
  Segment part 528.           Intra module refs:   run_unit_fun::?relay
           LOCAL                   ADDRESS         
           =====                   =======         
           run_unit_fun            000040F1 
               calls direct
               XSTACK = 0000000A ( 00000010 )
    -------------------------------------------------------------------------
<BANKED_CODE> 1 (was BANKED_CODE)
  Relative segment, address: CODE 00004185 - 00004196 (0x12 bytes), align: 0
  Segment part 530.           Intra module refs:   show_grating::?relay
           LOCAL                   ADDRESS         
           =====                   =======         
           show_grating            00004185 
               calls direct
               XSTACK = 0000000A ( 00000000 )
               ISTACK = 00000000 ( 00000002 )
    -------------------------------------------------------------------------
<BANKED_CODE> 1 (was BANKED_CODE)
  Relative segment, address: CODE 00004197 - 000041F0 (0x5a bytes), align: 0
  Segment part 532.           Intra module refs:   show_statistic::?relay
           LOCAL                   ADDRESS         
           =====                   =======         
           show_statistic          00004197 
               calls direct
               XSTACK = 0000000A ( 00000002 )
               ISTACK = 00000000 ( 00000002 )
    -------------------------------------------------------------------------
<BANKED_CODE> 1 (was BANKED_CODE)
  Relative segment, address: CODE 000041F1 - 0000424A (0x5a bytes), align: 0
  Segment part 534.           Intra module refs:   run_tests::?relay
           ENTRY                   ADDRESS         REF BY
           =====                   =======         ======
           run_tests               000041F1 
               calls direct
               XSTACK = 00000000 ( 0000000A )
    -------------------------------------------------------------------------
INTVEC
  Common segment, address: CODE 00000000 - 0000002D (0x2e bytes), align: 0
  Segment part 26. ROOT 
           ENTRY                   ADDRESS         REF BY
           =====                   =======         ======
           TimerCompareInterrupt::??INTVEC 43
                                   0000002B 
    -------------------------------------------------------------------------
XDATA_ID
  Relative segment, address: CODE 000000BB - 000000C2 (0x8 bytes), align: 0
  Segment part 111.           Intra module refs:   HOT_MOD
    -------------------------------------------------------------------------
XDATA_ID
  Relative segment, address: CODE 000000C3 - 000000D2 (0x10 bytes), align: 0
  Segment part 115.           Intra module refs:   SW_MOD
    -------------------------------------------------------------------------
XDATA_ID
  Relative segment, address: CODE 000000D3 - 000000DE (0xc bytes), align: 0
  Segment part 125.           Intra module refs:   BF_MODULE
    -------------------------------------------------------------------------
XDATA_ID
  Relative segment, address: CODE 000000DF - 000000E2 (0x4 bytes), align: 0
  Segment part 128.           Intra module refs:   TX_LIST_HEAD
    -------------------------------------------------------------------------
XDATA_ID
  Relative segment, address: CODE 000000E3 - 000000E6 (0x4 bytes), align: 0
  Segment part 130.           Intra module refs:   RX_LIST_HEAD
    -------------------------------------------------------------------------
XDATA_ID
  Relative segment, address: CODE 000000E7 - 000000F2 (0xc bytes), align: 0
  Segment part 144.           Intra module refs:   FR_MODULE
    -------------------------------------------------------------------------
XDATA_ID
  Relative segment, address: CODE 000000F3 - 000000FE (0xc bytes), align: 0
  Segment part 147.           Intra module refs:   LED_MODULE
    -------------------------------------------------------------------------
XDATA_ID
  Relative segment, address: CODE 000000FF - 0000010A (0xc bytes), align: 0
  Segment part 149.           Intra module refs:   LLC_MODULE
    -------------------------------------------------------------------------
XDATA_ID
  Relative segment, address: CODE 0000010B - 00000116 (0xc bytes), align: 0
  Segment part 151.           Intra module refs:   MAC_MODULE
    -------------------------------------------------------------------------
XDATA_ID
  Relative segment, address: CODE 00000117 - 00000122 (0xc bytes), align: 0
  Segment part 153.           Intra module refs:   MS_MODULE
    -------------------------------------------------------------------------
XDATA_ID
  Relative segment, address: CODE 00000123 - 0000012E (0xc bytes), align: 0
  Segment part 160.           Intra module refs:   MD_MODULE
    -------------------------------------------------------------------------
XDATA_ID
  Relative segment, address: CODE 0000012F - 0000013A (0xc bytes), align: 0
  Segment part 162.           Intra module refs:   RADIO_MODULE
    -------------------------------------------------------------------------
XDATA_ID
  Relative segment, address: CODE 0000013B - 00000146 (0xc bytes), align: 0
  Segment part 165.           Intra module refs:   RTC_MODULE
    -------------------------------------------------------------------------
XDATA_ID
  Relative segment, address: CODE 00000147 - 00000152 (0xc bytes), align: 0
  Segment part 168.           Intra module refs:   SYNC_MODULE
    -------------------------------------------------------------------------
XDATA_ID
  Relative segment, address: CODE 00000153 - 00000174 (0x22 bytes), align: 0
  Segment part 171.           Intra module refs:   UT_BF_1
    -------------------------------------------------------------------------
XDATA_ID
  Relative segment, address: CODE 00000175 - 00000196 (0x22 bytes), align: 0
  Segment part 173.           Intra module refs:   UT_BF_2
    -------------------------------------------------------------------------
XDATA_ID
  Relative segment, address: CODE 00000197 - 000001B8 (0x22 bytes), align: 0
  Segment part 175.           Intra module refs:   UT_BF_3
    -------------------------------------------------------------------------
XDATA_ID
  Relative segment, address: CODE 000001B9 - 000001DA (0x22 bytes), align: 0
  Segment part 179.           Intra module refs:   UT_FR_1
    -------------------------------------------------------------------------
XDATA_ID
  Relative segment, address: CODE 000001DB - 000001FC (0x22 bytes), align: 0
  Segment part 181.           Intra module refs:   UT_FR_2
    -------------------------------------------------------------------------
XDATA_ID
  Relative segment, address: CODE 000001FD - 0000021E (0x22 bytes), align: 0
  Segment part 183.           Intra module refs:   UT_FR_3
    -------------------------------------------------------------------------
XDATA_ID
  Relative segment, address: CODE 0000021F - 00000240 (0x22 bytes), align: 0
  Segment part 185.           Intra module refs:   UT_MACR_1
    -------------------------------------------------------------------------
XDATA_ID
  Relative segment, address: CODE 00000241 - 00000262 (0x22 bytes), align: 0
  Segment part 187.           Intra module refs:   UT_MACR_2
    -------------------------------------------------------------------------
XDATA_ID
  Relative segment, address: CODE 00000263 - 00000284 (0x22 bytes), align: 0
  Segment part 189.           Intra module refs:   UT_MS_1
    -------------------------------------------------------------------------
XDATA_ID
  Relative segment, address: CODE 00000285 - 000002A6 (0x22 bytes), align: 0
  Segment part 191.           Intra module refs:   UT_MS_2
    -------------------------------------------------------------------------
XDATA_ID
  Relative segment, address: CODE 000002A7 - 000002C8 (0x22 bytes), align: 0
  Segment part 193.           Intra module refs:   UT_MS_3
    -------------------------------------------------------------------------
XDATA_ID
  Relative segment, address: CODE 000002C9 - 000002DE (0x16 bytes), align: 0
  Segment part 201.           Intra module refs:   TEST_FUN
    -------------------------------------------------------------------------
BANK_RELAYS
  Relative segment, address: CODE 000002FA - 000002FF (0x6 bytes), align: 0
  Segment part 217.           Intra module refs:   TM_IRQ
           ENTRY                   ADDRESS         REF BY
           =====                   =======         ======
           AM_Hot_start::?relay    000002FA 
    -------------------------------------------------------------------------
BANK_RELAYS
  Relative segment, address: CODE 00000300 - 00000305 (0x6 bytes), align: 0
  Segment part 221.           Intra module refs:   run_tests
           ENTRY                   ADDRESS         REF BY
           =====                   =======         ======
           AM_SW_Init::?relay      00000300 
    -------------------------------------------------------------------------
BANK_RELAYS
  Relative segment, address: CODE 00000306 - 0000030B (0x6 bytes), align: 0
  Segment part 227.           Intra module refs:   AT_enable
           LOCAL                   ADDRESS         
           =====                   =======         
           __cli::?relay           00000306 
    -------------------------------------------------------------------------
BANK_RELAYS
  Relative segment, address: CODE 0000030C - 00000311 (0x6 bytes), align: 0
  Segment part 231.           Intra module refs:   TM_IRQ
           ENTRY                   ADDRESS         REF BY
           =====                   =======         ======
           AT_enable::?relay       0000030C 
    -------------------------------------------------------------------------
BANK_RELAYS
  Relative segment, address: CODE 00000312 - 00000317 (0x6 bytes), align: 0
  Segment part 233.           Intra module refs:   syncronize_timer
           ENTRY                   ADDRESS         REF BY
           =====                   =======         ======
           AT_interval::?relay     00000312 
    -------------------------------------------------------------------------
BANK_RELAYS
  Relative segment, address: CODE 00000318 - 0000031D (0x6 bytes), align: 0
  Segment part 235.           Intra module refs:   syncronize_timer
           ENTRY                   ADDRESS         REF BY
           =====                   =======         ======
           AT_set_time::?relay     00000318 
    -------------------------------------------------------------------------
BANK_RELAYS
  Relative segment, address: CODE 0000031E - 00000323 (0x6 bytes), align: 0
  Segment part 237.           Intra module refs:   RecvData
                                                   SendData
                                                   TimerCompareInterrupt
                                                   syncronize_timer
           ENTRY                   ADDRESS         REF BY
           =====                   =======         ======
           AT_time::?relay         0000031E 
    -------------------------------------------------------------------------
BANK_RELAYS
  Relative segment, address: CODE 00000324 - 00000329 (0x6 bytes), align: 0
  Segment part 239.           Intra module refs:   SendData
                                                   recv_sync
           ENTRY                   ADDRESS         REF BY
           =====                   =======         ======
           AT_wait::?relay         00000324 
    -------------------------------------------------------------------------
BANK_RELAYS
  Relative segment, address: CODE 0000032A - 0000032F (0x6 bytes), align: 0
  Segment part 241.           Intra module refs:   AT_enable
                                                   AT_set_alarm
                                                   TimerCompareInterrupt
           LOCAL                   ADDRESS         
           =====                   =======         
           IRQEnable::?relay       0000032A 
    -------------------------------------------------------------------------
BANK_RELAYS
  Relative segment, address: CODE 00000330 - 00000335 (0x6 bytes), align: 0
  Segment part 243.           Intra module refs:   AT_set_time
                                                   scheulder_next_alarm
           ENTRY                   ADDRESS         REF BY
           =====                   =======         ======
           AT_set_alarm::?relay    00000330 
    -------------------------------------------------------------------------
BANK_RELAYS
  Relative segment, address: CODE 00000336 - 0000033B (0x6 bytes), align: 0
  Segment part 245.           Intra module refs:   AT_set_alarm
           LOCAL                   ADDRESS         
           =====                   =======         
           calcCompareTime::?relay
                                   00000336 
    -------------------------------------------------------------------------
BANK_RELAYS
  Relative segment, address: CODE 0000033C - 00000341 (0x6 bytes), align: 0
  Segment part 247.           Intra module refs:   AT_set_time
                                                   AT_time
                                                   calcCompareTime
           LOCAL                   ADDRESS         
           =====                   =======         
           ReadTimer::?relay       0000033C 
    -------------------------------------------------------------------------
BANK_RELAYS
  Relative segment, address: CODE 00000342 - 00000347 (0x6 bytes), align: 0
  Segment part 249.           Intra module refs:   AT_set_alarm
           LOCAL                   ADDRESS         
           =====                   =======         
           loadTimerCompare::?relay
                                   00000342 
    -------------------------------------------------------------------------
BANK_RELAYS
  Relative segment, address: CODE 00000348 - 0000034D (0x6 bytes), align: 0
  Segment part 251.           Intra module refs:   AT_set_time
           LOCAL                   ADDRESS         
           =====                   =======         
           isIRQEnable::?relay     00000348 
    -------------------------------------------------------------------------
BANK_RELAYS
  Relative segment, address: CODE 0000034E - 00000353 (0x6 bytes), align: 0
  Segment part 253.           Intra module refs:   BF_cursor_next
                                                   BF_cursor_rx
                                                   BF_cursor_tx
                                                   BF_push_rx
                                                   BF_push_tx
                                                   BF_remove
           LOCAL                   ADDRESS         
           =====                   =======         
           __cli::?relay           0000034E 
    -------------------------------------------------------------------------
BANK_RELAYS
  Relative segment, address: CODE 00000354 - 00000359 (0x6 bytes), align: 0
  Segment part 255.           Intra module refs:   SW_Init
                                                   find_free_node
           LOCAL                   ADDRESS         
           =====                   =======         
           INIT_LIST_HEAD::?relay
                                   00000354 
    -------------------------------------------------------------------------
BANK_RELAYS
  Relative segment, address: CODE 0000035A - 0000035F (0x6 bytes), align: 0
  Segment part 257.           Intra module refs:   __list_add
           LOCAL                   ADDRESS         
           =====                   =======         
           __list_add_valid::?relay
                                   0000035A 
    -------------------------------------------------------------------------
BANK_RELAYS
  Relative segment, address: CODE 00000360 - 00000365 (0x6 bytes), align: 0
  Segment part 259.           Intra module refs:   __list_del_entry
           LOCAL                   ADDRESS         
           =====                   =======         
           __list_del_entry_valid::?relay
                                   00000360 
    -------------------------------------------------------------------------
BANK_RELAYS
  Relative segment, address: CODE 00000366 - 0000036B (0x6 bytes), align: 0
  Segment part 261.           Intra module refs:   list_add
           LOCAL                   ADDRESS         
           =====                   =======         
           __list_add::?relay      00000366 
    -------------------------------------------------------------------------
BANK_RELAYS
  Relative segment, address: CODE 0000036C - 00000371 (0x6 bytes), align: 0
  Segment part 263.           Intra module refs:   _push
           LOCAL                   ADDRESS         
           =====                   =======         
           list_add::?relay        0000036C 
    -------------------------------------------------------------------------
BANK_RELAYS
  Relative segment, address: CODE 00000372 - 00000377 (0x6 bytes), align: 0
  Segment part 265.           Intra module refs:   __list_del_entry
           LOCAL                   ADDRESS         
           =====                   =======         
           __list_del::?relay      00000372 
    -------------------------------------------------------------------------
BANK_RELAYS
  Relative segment, address: CODE 00000378 - 0000037D (0x6 bytes), align: 0
  Segment part 267.           Intra module refs:   list_del
           LOCAL                   ADDRESS         
           =====                   =======         
           __list_del_entry::?relay
                                   00000378 
    -------------------------------------------------------------------------
BANK_RELAYS
  Relative segment, address: CODE 0000037E - 00000383 (0x6 bytes), align: 0
  Segment part 269.           Intra module refs:   BF_remove
           LOCAL                   ADDRESS         
           =====                   =======         
           list_del::?relay        0000037E 
    -------------------------------------------------------------------------
BANK_RELAYS
  Relative segment, address: CODE 00000384 - 00000389 (0x6 bytes), align: 0
  Segment part 271.           Intra module refs:   BF_cursor_rx
                                                   BF_cursor_tx
           LOCAL                   ADDRESS         
           =====                   =======         
           list_empty::?relay      00000384 
    -------------------------------------------------------------------------
BANK_RELAYS
  Relative segment, address: CODE 0000038A - 0000038F (0x6 bytes), align: 0
  Segment part 273.           Intra module refs:   Segment part 125
           LOCAL                   ADDRESS         
           =====                   =======         
           SW_Init::?relay         0000038A 
    -------------------------------------------------------------------------
BANK_RELAYS
  Relative segment, address: CODE 00000390 - 00000395 (0x6 bytes), align: 0
  Segment part 275.           Intra module refs:   test3
           ENTRY                   ADDRESS         REF BY
           =====                   =======         ======
           BF_rx_busy::?relay      00000390 
    -------------------------------------------------------------------------
BANK_RELAYS
  Relative segment, address: CODE 00000396 - 0000039B (0x6 bytes), align: 0
  Segment part 277.           Intra module refs:   test3
           ENTRY                   ADDRESS         REF BY
           =====                   =======         ======
           BF_tx_busy::?relay      00000396 
    -------------------------------------------------------------------------
BANK_RELAYS
  Relative segment, address: CODE 0000039C - 000003A1 (0x6 bytes), align: 0
  Segment part 279.           Intra module refs:   test3
           ENTRY                   ADDRESS         REF BY
           =====                   =======         ======
           BF_available::?relay    0000039C 
    -------------------------------------------------------------------------
BANK_RELAYS
  Relative segment, address: CODE 000003A2 - 000003A7 (0x6 bytes), align: 0
  Segment part 281.           Intra module refs:   _push
           LOCAL                   ADDRESS         
           =====                   =======         
           find_free_node::?relay
                                   000003A2 
    -------------------------------------------------------------------------
BANK_RELAYS
  Relative segment, address: CODE 000003A8 - 000003AD (0x6 bytes), align: 0
  Segment part 283.           Intra module refs:   BF_push_rx
                                                   BF_push_tx
           LOCAL                   ADDRESS         
           =====                   =======         
           _push::?relay           000003A8 
    -------------------------------------------------------------------------
BANK_RELAYS
  Relative segment, address: CODE 000003AE - 000003B3 (0x6 bytes), align: 0
  Segment part 285.           Intra module refs:   test1
                                                   test2
                                                   test3
           ENTRY                   ADDRESS         REF BY
           =====                   =======         ======
           BF_push_tx::?relay      000003AE 
    -------------------------------------------------------------------------
BANK_RELAYS
  Relative segment, address: CODE 000003B4 - 000003B9 (0x6 bytes), align: 0
  Segment part 287.           Intra module refs:   test3
           ENTRY                   ADDRESS         REF BY
           =====                   =======         ======
           BF_push_rx::?relay      000003B4 
    -------------------------------------------------------------------------
BANK_RELAYS
  Relative segment, address: CODE 000003BA - 000003BF (0x6 bytes), align: 0
  Segment part 289.           Intra module refs:   test3
           ENTRY                   ADDRESS         REF BY
           =====                   =======         ======
           BF_cursor_rx::?relay    000003BA 
    -------------------------------------------------------------------------
BANK_RELAYS
  Relative segment, address: CODE 000003C0 - 000003C5 (0x6 bytes), align: 0
  Segment part 291.           Intra module refs:   test1
                                                   test2
                                                   test3
           ENTRY                   ADDRESS         REF BY
           =====                   =======         ======
           BF_cursor_tx::?relay    000003C0 
    -------------------------------------------------------------------------
BANK_RELAYS
  Relative segment, address: CODE 000003C6 - 000003CB (0x6 bytes), align: 0
  Segment part 293.           Intra module refs:   test1
                                                   test2
                                                   test3
           ENTRY                   ADDRESS         REF BY
           =====                   =======         ======
           BF_cursor_next::?relay
                                   000003C6 
    -------------------------------------------------------------------------
BANK_RELAYS
  Relative segment, address: CODE 000003CC - 000003D1 (0x6 bytes), align: 0
  Segment part 295.           Intra module refs:   test1
                                                   test2
                                                   test3
           ENTRY                   ADDRESS         REF BY
           =====                   =======         ======
           BF_remove::?relay       000003CC 
    -------------------------------------------------------------------------
BANK_RELAYS
  Relative segment, address: CODE 000003D2 - 000003D7 (0x6 bytes), align: 0
  Segment part 297.           Intra module refs:   test1
                                                   test2
                                                   test3
           ENTRY                   ADDRESS         REF BY
           =====                   =======         ======
           BF_content::?relay      000003D2 
    -------------------------------------------------------------------------
BANK_RELAYS
  Relative segment, address: CODE 000003D8 - 000003DD (0x6 bytes), align: 0
  Segment part 301.           Intra module refs:   recv_sync
                                                   send_sync
           ENTRY                   ADDRESS         REF BY
           =====                   =======         ======
           AES_StreamCoder::?relay
                                   000003D8 
    -------------------------------------------------------------------------
BANK_RELAYS
  Relative segment, address: CODE 000003DE - 000003E3 (0x6 bytes), align: 0
  Segment part 317.           Intra module refs:   AM_Hot_start
                                                   AM_SW_Init
                                                   AT_set_alarm
                                                   AT_set_time
                                                   AT_wait
                                                   BF_available
                                                   Hot_Start
                                                   RI_Receive
                                                   RI_Send
                                                   SL_available
                                                   SL_busy
                                                   _push
                                                   recv_sync
                                                   send_sync
                                                   setFreq
           ENTRY                   ADDRESS         REF BY
           =====                   =======         ======
           DBG_CORE_HALT::?relay   000003DE 
    -------------------------------------------------------------------------
BANK_RELAYS
  Relative segment, address: CODE 000003E4 - 000003E9 (0x6 bytes), align: 0
  Segment part 323.           Intra module refs:   Segment part 144
           LOCAL                   ADDRESS         
           =====                   =======         
           SW_Init::?relay         000003E4 
    -------------------------------------------------------------------------
BANK_RELAYS
  Relative segment, address: CODE 000003EA - 000003EF (0x6 bytes), align: 0
  Segment part 325.           Intra module refs:   RI_Receive
                                                   send_sync
                                                   test1
                                                   test2
                                                   test3
           ENTRY                   ADDRESS         REF BY
           =====                   =======         ======
           FR_create::?relay       000003EA 
    -------------------------------------------------------------------------
BANK_RELAYS
  Relative segment, address: CODE 000003F0 - 000003F5 (0x6 bytes), align: 0
  Segment part 327.           Intra module refs:   mode_0_receive_process
                                                   recv_sync
                                                   send_sync
                                                   test1
                                                   test2
                                                   test3
           ENTRY                   ADDRESS         REF BY
           =====                   =======         ======
           FR_delete::?relay       000003F0 
    -------------------------------------------------------------------------
BANK_RELAYS
  Relative segment, address: CODE 000003F6 - 000003FB (0x6 bytes), align: 0
  Segment part 329.           Intra module refs:   RI_Receive
                                                   send_sync
                                                   test3
           ENTRY                   ADDRESS         REF BY
           =====                   =======         ======
           FR_add_header::?relay   000003F6 
    -------------------------------------------------------------------------
BANK_RELAYS
  Relative segment, address: CODE 000003FC - 00000401 (0x6 bytes), align: 0
  Segment part 331.           Intra module refs:   test3
           ENTRY                   ADDRESS         REF BY
           =====                   =======         ======
           FR_del_header::?relay   000003FC 
    -------------------------------------------------------------------------
BANK_RELAYS
  Relative segment, address: CODE 00000402 - 00000407 (0x6 bytes), align: 0
  Segment part 333.           Intra module refs:   test1
                                                   test2
           ENTRY                   ADDRESS         REF BY
           =====                   =======         ======
           FR_busy::?relay         00000402 
    -------------------------------------------------------------------------
BANK_RELAYS
  Relative segment, address: CODE 00000408 - 0000040D (0x6 bytes), align: 0
  Segment part 335.           Intra module refs:   test1
                                                   test2
           ENTRY                   ADDRESS         REF BY
           =====                   =======         ======
           FR_available::?relay    00000408 
    -------------------------------------------------------------------------
BANK_RELAYS
  Relative segment, address: CODE 0000040E - 00000413 (0x6 bytes), align: 0
  Segment part 337.           Intra module refs:   Segment part 147
           LOCAL                   ADDRESS         
           =====                   =======         
           HW_Init::?relay         0000040E 
    -------------------------------------------------------------------------
BANK_RELAYS
  Relative segment, address: CODE 00000414 - 00000419 (0x6 bytes), align: 0
  Segment part 339.           Intra module refs:   Segment part 147
           LOCAL                   ADDRESS         
           =====                   =======         
           SW_Init::?relay         00000414 
    -------------------------------------------------------------------------
BANK_RELAYS
  Relative segment, address: CODE 0000041A - 0000041F (0x6 bytes), align: 0
  Segment part 341.           Intra module refs:   Segment part 147
           LOCAL                   ADDRESS         
           =====                   =======         
           Cold_Start::?relay      0000041A 
    -------------------------------------------------------------------------
BANK_RELAYS
  Relative segment, address: CODE 00000420 - 00000425 (0x6 bytes), align: 0
  Segment part 343.           Intra module refs:   Segment part 147
           LOCAL                   ADDRESS         
           =====                   =======         
           Hot_Start::?relay       00000420 
    -------------------------------------------------------------------------
BANK_RELAYS
  Relative segment, address: CODE 00000426 - 0000042B (0x6 bytes), align: 0
  Segment part 345.           Intra module refs:   Segment part 149
           LOCAL                   ADDRESS         
           =====                   =======         
           SW_Init::?relay         00000426 
    -------------------------------------------------------------------------
BANK_RELAYS
  Relative segment, address: CODE 0000042C - 00000431 (0x6 bytes), align: 0
  Segment part 347.           Intra module refs:   Segment part 149
           LOCAL                   ADDRESS         
           =====                   =======         
           Cold_Start::?relay      0000042C 
    -------------------------------------------------------------------------
BANK_RELAYS
  Relative segment, address: CODE 00000432 - 00000437 (0x6 bytes), align: 0
  Segment part 349.           Intra module refs:   Segment part 149
           LOCAL                   ADDRESS         
           =====                   =======         
           Hot_Start::?relay       00000432 
    -------------------------------------------------------------------------
BANK_RELAYS
  Relative segment, address: CODE 00000438 - 0000043D (0x6 bytes), align: 0
  Segment part 351.           Intra module refs:   Segment part 151
           LOCAL                   ADDRESS         
           =====                   =======         
           SW_Init::?relay         00000438 
    -------------------------------------------------------------------------
BANK_RELAYS
  Relative segment, address: CODE 0000043E - 00000443 (0x6 bytes), align: 0
  Segment part 355.           Intra module refs:   _free
           LOCAL                   ADDRESS         
           =====                   =======         
           is_array_ptr::?relay    0000043E 
    -------------------------------------------------------------------------
BANK_RELAYS
  Relative segment, address: CODE 00000444 - 00000449 (0x6 bytes), align: 0
  Segment part 357.           Intra module refs:   _free
           LOCAL                   ADDRESS         
           =====                   =======         
           array_index::?relay     00000444 
    -------------------------------------------------------------------------
BANK_RELAYS
  Relative segment, address: CODE 0000044A - 0000044F (0x6 bytes), align: 0
  Segment part 359.           Intra module refs:   SL_alloc
                                                   SL_free
           LOCAL                   ADDRESS         
           =====                   =======         
           __cli::?relay           0000044A 
    -------------------------------------------------------------------------
BANK_RELAYS
  Relative segment, address: CODE 00000450 - 00000455 (0x6 bytes), align: 0
  Segment part 361.           Intra module refs:   Segment part 153
           LOCAL                   ADDRESS         
           =====                   =======         
           SW_Init::?relay         00000450 
    -------------------------------------------------------------------------
BANK_RELAYS
  Relative segment, address: CODE 00000456 - 0000045B (0x6 bytes), align: 0
  Segment part 363.           Intra module refs:   FR_create
                                                   test1
                                                   test2
                                                   test3
           ENTRY                   ADDRESS         REF BY
           =====                   =======         ======
           SL_alloc::?relay        00000456 
    -------------------------------------------------------------------------
BANK_RELAYS
  Relative segment, address: CODE 0000045C - 00000461 (0x6 bytes), align: 0
  Segment part 365.           Intra module refs:   SL_free
           LOCAL                   ADDRESS         
           =====                   =======         
           _free::?relay           0000045C 
    -------------------------------------------------------------------------
BANK_RELAYS
  Relative segment, address: CODE 00000462 - 00000467 (0x6 bytes), align: 0
  Segment part 367.           Intra module refs:   FR_delete
                                                   test1
                                                   test2
           ENTRY                   ADDRESS         REF BY
           =====                   =======         ======
           SL_free::?relay         00000462 
    -------------------------------------------------------------------------
BANK_RELAYS
  Relative segment, address: CODE 00000468 - 0000046D (0x6 bytes), align: 0
  Segment part 369.           Intra module refs:   FR_busy
                                                   test1
                                                   test2
           ENTRY                   ADDRESS         REF BY
           =====                   =======         ======
           SL_busy::?relay         00000468 
    -------------------------------------------------------------------------
BANK_RELAYS
  Relative segment, address: CODE 0000046E - 00000473 (0x6 bytes), align: 0
  Segment part 371.           Intra module refs:   FR_available
                                                   test1
                                                   test2
           ENTRY                   ADDRESS         REF BY
           =====                   =======         ======
           SL_available::?relay    0000046E 
    -------------------------------------------------------------------------
BANK_RELAYS
  Relative segment, address: CODE 00000474 - 00000479 (0x6 bytes), align: 0
  Segment part 373.           Intra module refs:   test3
           ENTRY                   ADDRESS         REF BY
           =====                   =======         ======
           SL_zone_check::?relay   00000474 
    -------------------------------------------------------------------------
BANK_RELAYS
  Relative segment, address: CODE 0000047A - 0000047F (0x6 bytes), align: 0
  Segment part 375.           Intra module refs:   FR_add_header
                                                   FR_del_header
           ENTRY                   ADDRESS         REF BY
           =====                   =======         ======
           MEM_memcpy::?relay      0000047A 
    -------------------------------------------------------------------------
BANK_RELAYS
  Relative segment, address: CODE 00000480 - 00000485 (0x6 bytes), align: 0
  Segment part 377.           Intra module refs:   FR_del_header
                                                   SL_alloc
                                                   SW_Init
           ENTRY                   ADDRESS         REF BY
           =====                   =======         ======
           MEM_memset::?relay      00000480 
    -------------------------------------------------------------------------
BANK_RELAYS
  Relative segment, address: CODE 00000486 - 0000048B (0x6 bytes), align: 0
  Segment part 379.           Intra module refs:   Segment part 160
           LOCAL                   ADDRESS         
           =====                   =======         
           HW_Init::?relay         00000486 
    -------------------------------------------------------------------------
BANK_RELAYS
  Relative segment, address: CODE 0000048C - 00000491 (0x6 bytes), align: 0
  Segment part 381.           Intra module refs:   Segment part 160
           LOCAL                   ADDRESS         
           =====                   =======         
           SW_Init::?relay         0000048C 
    -------------------------------------------------------------------------
BANK_RELAYS
  Relative segment, address: CODE 00000492 - 00000497 (0x6 bytes), align: 0
  Segment part 383.           Intra module refs:   Segment part 160
           LOCAL                   ADDRESS         
           =====                   =======         
           Sleep::?relay           00000492 
    -------------------------------------------------------------------------
BANK_RELAYS
  Relative segment, address: CODE 00000498 - 0000049D (0x6 bytes), align: 0
  Segment part 385.           Intra module refs:   Segment part 160
           LOCAL                   ADDRESS         
           =====                   =======         
           Wakeup::?relay          00000498 
    -------------------------------------------------------------------------
BANK_RELAYS
  Relative segment, address: CODE 0000049E - 000004A3 (0x6 bytes), align: 0
  Segment part 387.           Intra module refs:   Segment part 160
           LOCAL                   ADDRESS         
           =====                   =======         
           Cold_Start::?relay      0000049E 
    -------------------------------------------------------------------------
BANK_RELAYS
  Relative segment, address: CODE 000004A4 - 000004A9 (0x6 bytes), align: 0
  Segment part 389.           Intra module refs:   Segment part 160
           LOCAL                   ADDRESS         
           =====                   =======         
           Hot_Start::?relay       000004A4 
    -------------------------------------------------------------------------
BANK_RELAYS
  Relative segment, address: CODE 000004AA - 000004AF (0x6 bytes), align: 0
  Segment part 391.           Intra module refs:   Segment part 162
           LOCAL                   ADDRESS         
           =====                   =======         
           SW_Init::?relay         000004AA 
    -------------------------------------------------------------------------
BANK_RELAYS
  Relative segment, address: CODE 000004B0 - 000004B5 (0x6 bytes), align: 0
  Segment part 393.           Intra module refs:   Segment part 162
           LOCAL                   ADDRESS         
           =====                   =======         
           HW_Init::?relay         000004B0 
    -------------------------------------------------------------------------
BANK_RELAYS
  Relative segment, address: CODE 000004B6 - 000004BB (0x6 bytes), align: 0
  Segment part 395.           Intra module refs:   pre_config
           LOCAL                   ADDRESS         
           =====                   =======         
           setFreq::?relay         000004B6 
    -------------------------------------------------------------------------
BANK_RELAYS
  Relative segment, address: CODE 000004BC - 000004C1 (0x6 bytes), align: 0
  Segment part 397.           Intra module refs:   RI_Receive
                                                   RI_Send
                                                   random_core_init
           LOCAL                   ADDRESS         
           =====                   =======         
           pre_config::?relay      000004BC 
    -------------------------------------------------------------------------
BANK_RELAYS
  Relative segment, address: CODE 000004C2 - 000004C7 (0x6 bytes), align: 0
  Segment part 399.           Intra module refs:   recv_sync
                                                   send_sync
           ENTRY                   ADDRESS         REF BY
           =====                   =======         ======
           RI_SetChannel::?relay   000004C2 
    -------------------------------------------------------------------------
BANK_RELAYS
  Relative segment, address: CODE 000004C8 - 000004CD (0x6 bytes), align: 0
  Segment part 401.           Intra module refs:   SendData
           LOCAL                   ADDRESS         
           =====                   =======         
           LoadTXData::?relay      000004C8 
    -------------------------------------------------------------------------
BANK_RELAYS
  Relative segment, address: CODE 000004CE - 000004D3 (0x6 bytes), align: 0
  Segment part 403.           Intra module refs:   RI_Send
           LOCAL                   ADDRESS         
           =====                   =======         
           SendData::?relay        000004CE 
    -------------------------------------------------------------------------
BANK_RELAYS
  Relative segment, address: CODE 000004D4 - 000004D9 (0x6 bytes), align: 0
  Segment part 405.           Intra module refs:   send_sync
           ENTRY                   ADDRESS         REF BY
           =====                   =======         ======
           RI_Send::?relay         000004D4 
    -------------------------------------------------------------------------
BANK_RELAYS
  Relative segment, address: CODE 000004DA - 000004DF (0x6 bytes), align: 0
  Segment part 407.           Intra module refs:   RI_Receive
           LOCAL                   ADDRESS         
           =====                   =======         
           UnLoadRXData::?relay    000004DA 
    -------------------------------------------------------------------------
BANK_RELAYS
  Relative segment, address: CODE 000004E0 - 000004E5 (0x6 bytes), align: 0
  Segment part 409.           Intra module refs:   RI_Receive
           LOCAL                   ADDRESS         
           =====                   =======         
           RecvData::?relay        000004E0 
    -------------------------------------------------------------------------
BANK_RELAYS
  Relative segment, address: CODE 000004E6 - 000004EB (0x6 bytes), align: 0
  Segment part 411.           Intra module refs:   recv_sync
           ENTRY                   ADDRESS         REF BY
           =====                   =======         ======
           RI_Receive::?relay      000004E6 
    -------------------------------------------------------------------------
BANK_RELAYS
  Relative segment, address: CODE 000004EC - 000004F1 (0x6 bytes), align: 0
  Segment part 413.           Intra module refs:   readRandom
           LOCAL                   ADDRESS         
           =====                   =======         
           bits_count::?relay      000004EC 
    -------------------------------------------------------------------------
BANK_RELAYS
  Relative segment, address: CODE 000004F2 - 000004F7 (0x6 bytes), align: 0
  Segment part 415.           Intra module refs:   readRandom
           LOCAL                   ADDRESS         
           =====                   =======         
           getRNDByte::?relay      000004F2 
    -------------------------------------------------------------------------
BANK_RELAYS
  Relative segment, address: CODE 000004F8 - 000004FD (0x6 bytes), align: 0
  Segment part 417.           Intra module refs:   random_core_init
           LOCAL                   ADDRESS         
           =====                   =======         
           readRandom::?relay      000004F8 
    -------------------------------------------------------------------------
BANK_RELAYS
  Relative segment, address: CODE 000004FE - 00000503 (0x6 bytes), align: 0
  Segment part 419.           Intra module refs:   SW_Init
           LOCAL                   ADDRESS         
           =====                   =======         
           random_core_init::?relay
                                   000004FE 
    -------------------------------------------------------------------------
BANK_RELAYS
  Relative segment, address: CODE 00000504 - 00000509 (0x6 bytes), align: 0
  Segment part 423.           Intra module refs:   Segment part 165
           LOCAL                   ADDRESS         
           =====                   =======         
           SW_Init::?relay         00000504 
    -------------------------------------------------------------------------
BANK_RELAYS
  Relative segment, address: CODE 0000050A - 0000050F (0x6 bytes), align: 0
  Segment part 425.           Intra module refs:   Segment part 165
           LOCAL                   ADDRESS         
           =====                   =======         
           Cold_Start::?relay      0000050A 
    -------------------------------------------------------------------------
BANK_RELAYS
  Relative segment, address: CODE 00000510 - 00000515 (0x6 bytes), align: 0
  Segment part 427.           Intra module refs:   Segment part 165
           LOCAL                   ADDRESS         
           =====                   =======         
           Hot_Start::?relay       00000510 
    -------------------------------------------------------------------------
BANK_RELAYS
  Relative segment, address: CODE 00000516 - 0000051B (0x6 bytes), align: 0
  Segment part 429.           Intra module refs:   Segment part 168
           LOCAL                   ADDRESS         
           =====                   =======         
           SW_Init::?relay         00000516 
    -------------------------------------------------------------------------
BANK_RELAYS
  Relative segment, address: CODE 0000051C - 00000521 (0x6 bytes), align: 0
  Segment part 431.           Intra module refs:   Segment part 168
           LOCAL                   ADDRESS         
           =====                   =======         
           Cold_Start::?relay      0000051C 
    -------------------------------------------------------------------------
BANK_RELAYS
  Relative segment, address: CODE 00000522 - 00000527 (0x6 bytes), align: 0
  Segment part 433.           Intra module refs:   mode_0_receive_process
           LOCAL                   ADDRESS         
           =====                   =======         
           validate_sync::?relay   00000522 
    -------------------------------------------------------------------------
BANK_RELAYS
  Relative segment, address: CODE 00000528 - 0000052D (0x6 bytes), align: 0
  Segment part 435.           Intra module refs:   mode_0_receive_process
           LOCAL                   ADDRESS         
           =====                   =======         
           accept_sync_data::?relay
                                   00000528 
    -------------------------------------------------------------------------
BANK_RELAYS
  Relative segment, address: CODE 0000052E - 00000533 (0x6 bytes), align: 0
  Segment part 437.           Intra module refs:   mode_0_receive_process
           LOCAL                   ADDRESS         
           =====                   =======         
           syncronize_timer::?relay
                                   0000052E 
    -------------------------------------------------------------------------
BANK_RELAYS
  Relative segment, address: CODE 00000534 - 00000539 (0x6 bytes), align: 0
  Segment part 439.           Intra module refs:   mode_0_process
           LOCAL                   ADDRESS         
           =====                   =======         
           mode_0_receive_process::?relay
                                   00000534 
    -------------------------------------------------------------------------
BANK_RELAYS
  Relative segment, address: CODE 0000053A - 0000053F (0x6 bytes), align: 0
  Segment part 441.           Intra module refs:   mode_0_retransmition_process
           LOCAL                   ADDRESS         
           =====                   =======         
           _throw_dice::?relay     0000053A 
    -------------------------------------------------------------------------
BANK_RELAYS
  Relative segment, address: CODE 00000540 - 00000545 (0x6 bytes), align: 0
  Segment part 443.           Intra module refs:   mode_0_process
           LOCAL                   ADDRESS         
           =====                   =======         
           mode_0_retransmition_process::?relay
                                   00000540 
    -------------------------------------------------------------------------
BANK_RELAYS
  Relative segment, address: CODE 00000546 - 0000054B (0x6 bytes), align: 0
  Segment part 445.           Intra module refs:   Hot_Start
           LOCAL                   ADDRESS         
           =====                   =======         
           mode_0_process::?relay
                                   00000546 
    -------------------------------------------------------------------------
BANK_RELAYS
  Relative segment, address: CODE 0000054C - 00000551 (0x6 bytes), align: 0
  Segment part 447.           Intra module refs:   Hot_Start
           LOCAL                   ADDRESS         
           =====                   =======         
           mode_1_process::?relay
                                   0000054C 
    -------------------------------------------------------------------------
BANK_RELAYS
  Relative segment, address: CODE 00000552 - 00000557 (0x6 bytes), align: 0
  Segment part 449.           Intra module refs:   Segment part 168
           LOCAL                   ADDRESS         
           =====                   =======         
           Hot_Start::?relay       00000552 
    -------------------------------------------------------------------------
BANK_RELAYS
  Relative segment, address: CODE 00000558 - 0000055D (0x6 bytes), align: 0
  Segment part 451.           Intra module refs:   mode_0_receive_process
           LOCAL                   ADDRESS         
           =====                   =======         
           recv_sync::?relay       00000558 
    -------------------------------------------------------------------------
BANK_RELAYS
  Relative segment, address: CODE 0000055E - 00000563 (0x6 bytes), align: 0
  Segment part 453.           Intra module refs:   mode_0_retransmition_process
                                                   mode_1_process
           LOCAL                   ADDRESS         
           =====                   =======         
           send_sync::?relay       0000055E 
    -------------------------------------------------------------------------
BANK_RELAYS
  Relative segment, address: CODE 00000564 - 00000569 (0x6 bytes), align: 0
  Segment part 459.           Intra module refs:   TM_IRQ
           LOCAL                   ADDRESS         
           =====                   =======         
           __cli::?relay           00000564 
    -------------------------------------------------------------------------
BANK_RELAYS
  Relative segment, address: CODE 0000056A - 0000056F (0x6 bytes), align: 0
  Segment part 465.           Intra module refs:   _find_next_active
           LOCAL                   ADDRESS         
           =====                   =======         
           _inc_timeslot::?relay   0000056A 
    -------------------------------------------------------------------------
BANK_RELAYS
  Relative segment, address: CODE 00000570 - 00000575 (0x6 bytes), align: 0
  Segment part 467.           Intra module refs:   scheulder_next_alarm
           LOCAL                   ADDRESS         
           =====                   =======         
           _find_next_active::?relay
                                   00000570 
    -------------------------------------------------------------------------
BANK_RELAYS
  Relative segment, address: CODE 00000576 - 0000057B (0x6 bytes), align: 0
  Segment part 469.           Intra module refs:   TM_IRQ
           LOCAL                   ADDRESS         
           =====                   =======         
           scheulder_next_alarm::?relay
                                   00000576 
    -------------------------------------------------------------------------
BANK_RELAYS
  Relative segment, address: CODE 0000057C - 00000581 (0x6 bytes), align: 0
  Segment part 471.           Intra module refs:   TimerCompareInterrupt
           ENTRY                   ADDRESS         REF BY
           =====                   =======         ======
           TM_IRQ::?relay          0000057C 
    -------------------------------------------------------------------------
BANK_RELAYS
  Relative segment, address: CODE 00000582 - 00000587 (0x6 bytes), align: 0
  Segment part 487.           Intra module refs:   Segment part 175
           LOCAL                   ADDRESS         
           =====                   =======         
           test3::?relay           00000582 
    -------------------------------------------------------------------------
BANK_RELAYS
  Relative segment, address: CODE 00000588 - 0000058D (0x6 bytes), align: 0
  Segment part 489.           Intra module refs:   Segment part 173
           LOCAL                   ADDRESS         
           =====                   =======         
           test2::?relay           00000588 
    -------------------------------------------------------------------------
BANK_RELAYS
  Relative segment, address: CODE 0000058E - 00000593 (0x6 bytes), align: 0
  Segment part 491.           Intra module refs:   Segment part 171
           LOCAL                   ADDRESS         
           =====                   =======         
           test1::?relay           0000058E 
    -------------------------------------------------------------------------
BANK_RELAYS
  Relative segment, address: CODE 00000594 - 00000599 (0x6 bytes), align: 0
  Segment part 493.           Intra module refs:   test3
           LOCAL                   ADDRESS         
           =====                   =======         
           ch_cmp::?relay          00000594 
    -------------------------------------------------------------------------
BANK_RELAYS
  Relative segment, address: CODE 0000059A - 0000059F (0x6 bytes), align: 0
  Segment part 495.           Intra module refs:   test3
           LOCAL                   ADDRESS         
           =====                   =======         
           ch_cmp_val::?relay      0000059A 
    -------------------------------------------------------------------------
BANK_RELAYS
  Relative segment, address: CODE 000005A0 - 000005A5 (0x6 bytes), align: 0
  Segment part 497.           Intra module refs:   Segment part 183
           LOCAL                   ADDRESS         
           =====                   =======         
           test3::?relay           000005A0 
    -------------------------------------------------------------------------
BANK_RELAYS
  Relative segment, address: CODE 000005A6 - 000005AB (0x6 bytes), align: 0
  Segment part 499.           Intra module refs:   Segment part 181
           LOCAL                   ADDRESS         
           =====                   =======         
           test2::?relay           000005A6 
    -------------------------------------------------------------------------
BANK_RELAYS
  Relative segment, address: CODE 000005AC - 000005B1 (0x6 bytes), align: 0
  Segment part 501.           Intra module refs:   Segment part 179
           LOCAL                   ADDRESS         
           =====                   =======         
           test1::?relay           000005AC 
    -------------------------------------------------------------------------
BANK_RELAYS
  Relative segment, address: CODE 000005B2 - 000005B7 (0x6 bytes), align: 0
  Segment part 503.           Intra module refs:   Segment part 187
           LOCAL                   ADDRESS         
           =====                   =======         
           test2::?relay           000005B2 
    -------------------------------------------------------------------------
BANK_RELAYS
  Relative segment, address: CODE 000005B8 - 000005BD (0x6 bytes), align: 0
  Segment part 505.           Intra module refs:   Segment part 185
           LOCAL                   ADDRESS         
           =====                   =======         
           test1::?relay           000005B8 
    -------------------------------------------------------------------------
BANK_RELAYS
  Relative segment, address: CODE 000005BE - 000005C3 (0x6 bytes), align: 0
  Segment part 507.           Intra module refs:   Segment part 193
           LOCAL                   ADDRESS         
           =====                   =======         
           test3::?relay           000005BE 
    -------------------------------------------------------------------------
BANK_RELAYS
  Relative segment, address: CODE 000005C4 - 000005C9 (0x6 bytes), align: 0
  Segment part 509.           Intra module refs:   Segment part 191
           LOCAL                   ADDRESS         
           =====                   =======         
           test2::?relay           000005C4 
    -------------------------------------------------------------------------
BANK_RELAYS
  Relative segment, address: CODE 000005CA - 000005CF (0x6 bytes), align: 0
  Segment part 511.           Intra module refs:   Segment part 189
           LOCAL                   ADDRESS         
           =====                   =======         
           test1::?relay           000005CA 
    -------------------------------------------------------------------------
BANK_RELAYS
  Relative segment, address: CODE 000005D0 - 000005D5 (0x6 bytes), align: 0
  Segment part 517.           Intra module refs:   RI_Receive
                                                   RI_Send
                                                   RecvData
                                                   UST_time_over
           ENTRY                   ADDRESS         REF BY
           =====                   =======         ======
           UST_now::?relay         000005D0 
    -------------------------------------------------------------------------
BANK_RELAYS
  Relative segment, address: CODE 000005D6 - 000005DB (0x6 bytes), align: 0
  Segment part 519.           Intra module refs:   RecvData
           ENTRY                   ADDRESS         REF BY
           =====                   =======         ======
           UST_time_over::?relay   000005D6 
    -------------------------------------------------------------------------
BANK_RELAYS
  Relative segment, address: CODE 000005DC - 000005E1 (0x6 bytes), align: 0
  Segment part 521.           Intra module refs:   RI_Receive
                                                   RI_Send
           ENTRY                   ADDRESS         REF BY
           =====                   =======         ======
           UST_interval::?relay    000005DC 
    -------------------------------------------------------------------------
BANK_RELAYS
  Relative segment, address: CODE 000005E2 - 000005E7 (0x6 bytes), align: 0
  Segment part 529.           Intra module refs:   run_tests
           LOCAL                   ADDRESS         
           =====                   =======         
           run_unit_fun::?relay    000005E2 
    -------------------------------------------------------------------------
BANK_RELAYS
  Relative segment, address: CODE 000005E8 - 000005ED (0x6 bytes), align: 0
  Segment part 531.           Intra module refs:   run_tests
           LOCAL                   ADDRESS         
           =====                   =======         
           show_grating::?relay    000005E8 
    -------------------------------------------------------------------------
BANK_RELAYS
  Relative segment, address: CODE 000005EE - 000005F3 (0x6 bytes), align: 0
  Segment part 533.           Intra module refs:   run_tests
           LOCAL                   ADDRESS         
           =====                   =======         
           show_statistic::?relay
                                   000005EE 
    -------------------------------------------------------------------------
BANK_RELAYS
  Relative segment, address: CODE 000005F4 - 000005F9 (0x6 bytes), align: 0
  Segment part 535.           Intra module refs:   main
           ENTRY                   ADDRESS         REF BY
           =====                   =======         ======
           run_tests::?relay       000005F4 
    -------------------------------------------------------------------------
XDATA_ROM_C
  Relative segment, address: XDATA 000018CB - 000018D7 (0xd bytes), align: 0
  Segment part 33.            Intra module refs:   AM_Hot_start
                                                   AM_SW_Init
    -------------------------------------------------------------------------
XDATA_ROM_C
  Relative segment, address: XDATA 000018D8 - 000018E8 (0x11 bytes), align: 0
  Segment part 34.            Intra module refs:   AM_Hot_start
                                                   AM_SW_Init
    -------------------------------------------------------------------------
XDATA_ROM_C
  Relative segment, address: XDATA 000018E9 - 000018F5 (0xd bytes), align: 0
  Segment part 36.            Intra module refs:   AM_Hot_start
           LOCAL                   ADDRESS         
           =====                   =======         
           AM_Hot_start::__FUNCTION__
                                   000018E9 
    -------------------------------------------------------------------------
XDATA_ROM_C
  Relative segment, address: XDATA 000018F6 - 0000191F (0x2a bytes), align: 0
  Segment part 37.            Intra module refs:   AM_Hot_start
    -------------------------------------------------------------------------
XDATA_ROM_C
  Relative segment, address: XDATA 00001920 - 0000192A (0xb bytes), align: 0
  Segment part 40.            Intra module refs:   AM_SW_Init
           LOCAL                   ADDRESS         
           =====                   =======         
           AM_SW_Init::__FUNCTION__
                                   00001920 
    -------------------------------------------------------------------------
XDATA_ROM_C
  Relative segment, address: XDATA 0000192B - 00001951 (0x27 bytes), align: 0
  Segment part 41.            Intra module refs:   AM_SW_Init
    -------------------------------------------------------------------------
XDATA_ROM_C
  Relative segment, address: XDATA 00001952 - 0000195D (0xc bytes), align: 0
  Segment part 46.            Intra module refs:   AT_set_time
           LOCAL                   ADDRESS         
           =====                   =======         
           AT_set_time::__FUNCTION__
                                   00001952 
    -------------------------------------------------------------------------
XDATA_ROM_C
  Relative segment, address: XDATA 0000195E - 0000196A (0xd bytes), align: 0
  Segment part 47.            Intra module refs:   AT_set_alarm
                                                   AT_set_time
                                                   AT_wait
    -------------------------------------------------------------------------
XDATA_ROM_C
  Relative segment, address: XDATA 0000196B - 00001978 (0xe bytes), align: 0
  Segment part 48.            Intra module refs:   AT_set_alarm
                                                   AT_set_time
                                                   AT_wait
    -------------------------------------------------------------------------
XDATA_ROM_C
  Relative segment, address: XDATA 00001979 - 00001997 (0x1f bytes), align: 0
  Segment part 49.            Intra module refs:   AT_set_time
                                                   AT_wait
    -------------------------------------------------------------------------
XDATA_ROM_C
  Relative segment, address: XDATA 00001998 - 0000199F (0x8 bytes), align: 0
  Segment part 50.            Intra module refs:   AT_wait
           LOCAL                   ADDRESS         
           =====                   =======         
           AT_wait::__FUNCTION__   00001998 
    -------------------------------------------------------------------------
XDATA_ROM_C
  Relative segment, address: XDATA 000019A0 - 000019AC (0xd bytes), align: 0
  Segment part 51.            Intra module refs:   AT_set_alarm
           LOCAL                   ADDRESS         
           =====                   =======         
           AT_set_alarm::__FUNCTION__
                                   000019A0 
    -------------------------------------------------------------------------
XDATA_ROM_C
  Relative segment, address: XDATA 000019AD - 000019CC (0x20 bytes), align: 0
  Segment part 52.            Intra module refs:   AT_set_alarm
    -------------------------------------------------------------------------
XDATA_ROM_C
  Relative segment, address: XDATA 000019CD - 000019D9 (0xd bytes), align: 0
  Segment part 53.            Intra module refs:   BF_available
           LOCAL                   ADDRESS         
           =====                   =======         
           BF_available::__FUNCTION__
                                   000019CD 
    -------------------------------------------------------------------------
XDATA_ROM_C
  Relative segment, address: XDATA 000019DA - 000019E6 (0xd bytes), align: 0
  Segment part 54.            Intra module refs:   BF_available
                                                   _push
    -------------------------------------------------------------------------
XDATA_ROM_C
  Relative segment, address: XDATA 000019E7 - 000019EF (0x9 bytes), align: 0
  Segment part 55.            Intra module refs:   BF_available
                                                   _push
    -------------------------------------------------------------------------
XDATA_ROM_C
  Relative segment, address: XDATA 000019F0 - 00001A16 (0x27 bytes), align: 0
  Segment part 56.            Intra module refs:   BF_available
    -------------------------------------------------------------------------
XDATA_ROM_C
  Relative segment, address: XDATA 00001A17 - 00001A1C (0x6 bytes), align: 0
  Segment part 57.            Intra module refs:   _push
           LOCAL                   ADDRESS         
           =====                   =======         
           _push::__FUNCTION__     00001A17 
    -------------------------------------------------------------------------
XDATA_ROM_C
  Relative segment, address: XDATA 00001A1D - 00001A36 (0x1a bytes), align: 0
  Segment part 58.            Intra module refs:   _push
    -------------------------------------------------------------------------
XDATA_ROM_C
  Relative segment, address: XDATA 00001A37 - 00001A3E (0x8 bytes), align: 0
  Segment part 59.            Intra module refs:   SL_busy
           LOCAL                   ADDRESS         
           =====                   =======         
           SL_busy::__FUNCTION__   00001A37 
    -------------------------------------------------------------------------
XDATA_ROM_C
  Relative segment, address: XDATA 00001A3F - 00001A4B (0xd bytes), align: 0
  Segment part 60.            Intra module refs:   SL_available
                                                   SL_busy
    -------------------------------------------------------------------------
XDATA_ROM_C
  Relative segment, address: XDATA 00001A4C - 00001A57 (0xc bytes), align: 0
  Segment part 61.            Intra module refs:   SL_available
                                                   SL_busy
    -------------------------------------------------------------------------
XDATA_ROM_C
  Relative segment, address: XDATA 00001A58 - 00001A80 (0x29 bytes), align: 0
  Segment part 62.            Intra module refs:   SL_available
                                                   SL_busy
    -------------------------------------------------------------------------
XDATA_ROM_C
  Relative segment, address: XDATA 00001A81 - 00001A8D (0xd bytes), align: 0
  Segment part 63.            Intra module refs:   SL_available
           LOCAL                   ADDRESS         
           =====                   =======         
           SL_available::__FUNCTION__
                                   00001A81 
    -------------------------------------------------------------------------
XDATA_ROM_C
  Relative segment, address: XDATA 00001A8E - 00001A95 (0x8 bytes), align: 0
  Segment part 64.            Intra module refs:   setFreq
           LOCAL                   ADDRESS         
           =====                   =======         
           setFreq::__FUNCTION__   00001A8E 
    -------------------------------------------------------------------------
XDATA_ROM_C
  Relative segment, address: XDATA 00001A96 - 00001AA2 (0xd bytes), align: 0
  Segment part 65.            Intra module refs:   RI_Receive
                                                   RI_Send
                                                   setFreq
    -------------------------------------------------------------------------
XDATA_ROM_C
  Relative segment, address: XDATA 00001AA3 - 00001AAA (0x8 bytes), align: 0
  Segment part 66.            Intra module refs:   RI_Receive
                                                   RI_Send
                                                   setFreq
    -------------------------------------------------------------------------
XDATA_ROM_C
  Relative segment, address: XDATA 00001AAB - 00001AD7 (0x2d bytes), align: 0
  Segment part 67.            Intra module refs:   setFreq
    -------------------------------------------------------------------------
XDATA_ROM_C
  Relative segment, address: XDATA 00001AD8 - 00001ADF (0x8 bytes), align: 0
  Segment part 68.            Intra module refs:   RI_Send
           LOCAL                   ADDRESS         
           =====                   =======         
           RI_Send::__FUNCTION__   00001AD8 
    -------------------------------------------------------------------------
XDATA_ROM_C
  Relative segment, address: XDATA 00001AE0 - 00001AF6 (0x17 bytes), align: 0
  Segment part 69.            Intra module refs:   RI_Send
    -------------------------------------------------------------------------
XDATA_ROM_C
  Relative segment, address: XDATA 00001AF7 - 00001B01 (0xb bytes), align: 0
  Segment part 70.            Intra module refs:   RI_Receive
           LOCAL                   ADDRESS         
           =====                   =======         
           RI_Receive::__FUNCTION__
                                   00001AF7 
    -------------------------------------------------------------------------
XDATA_ROM_C
  Relative segment, address: XDATA 00001B02 - 00001B14 (0x13 bytes), align: 0
  Segment part 71.            Intra module refs:   RI_Receive
    -------------------------------------------------------------------------
XDATA_ROM_C
  Relative segment, address: XDATA 00001B15 - 00001B26 (0x12 bytes), align: 0
  Segment part 72.            Intra module refs:   RI_Receive
    -------------------------------------------------------------------------
XDATA_ROM_C
  Relative segment, address: XDATA 00001B27 - 00001B30 (0xa bytes), align: 0
  Segment part 73.            Intra module refs:   Hot_Start
           LOCAL                   ADDRESS         
           =====                   =======         
           Hot_Start::__FUNCTION__
                                   00001B27 
    -------------------------------------------------------------------------
XDATA_ROM_C
  Relative segment, address: XDATA 00001B31 - 00001B3D (0xd bytes), align: 0
  Segment part 74.            Intra module refs:   Hot_Start
                                                   recv_sync
                                                   send_sync
    -------------------------------------------------------------------------
XDATA_ROM_C
  Relative segment, address: XDATA 00001B3E - 00001B44 (0x7 bytes), align: 0
  Segment part 75.            Intra module refs:   Hot_Start
                                                   recv_sync
                                                   send_sync
    -------------------------------------------------------------------------
XDATA_ROM_C
  Relative segment, address: XDATA 00001B45 - 00001B4F (0xb bytes), align: 0
  Segment part 76.            Intra module refs:   Hot_Start
    -------------------------------------------------------------------------
XDATA_ROM_C
  Relative segment, address: XDATA 00001B50 - 00001B59 (0xa bytes), align: 0
  Segment part 77.            Intra module refs:   recv_sync
           LOCAL                   ADDRESS         
           =====                   =======         
           recv_sync::__FUNCTION__
                                   00001B50 
    -------------------------------------------------------------------------
XDATA_ROM_C
  Relative segment, address: XDATA 00001B5A - 00001B67 (0xe bytes), align: 0
  Segment part 78.            Intra module refs:   recv_sync
    -------------------------------------------------------------------------
XDATA_ROM_C
  Relative segment, address: XDATA 00001B68 - 00001B71 (0xa bytes), align: 0
  Segment part 79.            Intra module refs:   send_sync
           LOCAL                   ADDRESS         
           =====                   =======         
           send_sync::__FUNCTION__
                                   00001B68 
    -------------------------------------------------------------------------
XDATA_ROM_C
  Relative segment, address: XDATA 00001B72 - 00001B81 (0x10 bytes), align: 0
  Segment part 80.            Intra module refs:   send_sync
    -------------------------------------------------------------------------
XDATA_ROM_C
  Relative segment, address: XDATA 00001B82 - 00001B8B (0xa bytes), align: 0
  Segment part 89.            Intra module refs:   test3
    -------------------------------------------------------------------------
XDATA_ROM_C
  Relative segment, address: XDATA 00001B8C - 00001BA9 (0x1e bytes), align: 0
  Segment part 98.            Intra module refs:   run_unit_fun
    -------------------------------------------------------------------------
XDATA_ROM_C
  Relative segment, address: XDATA 00001BAA - 00001BB8 (0xf bytes), align: 0
  Segment part 99.            Intra module refs:   run_unit_fun
    -------------------------------------------------------------------------
XDATA_ROM_C
  Relative segment, address: XDATA 00001BB9 - 00001BC2 (0xa bytes), align: 0
  Segment part 100.           Intra module refs:   run_unit_fun
    -------------------------------------------------------------------------
XDATA_ROM_C
  Relative segment, address: XDATA 00001BC3 - 00001BE6 (0x24 bytes), align: 0
  Segment part 101.           Intra module refs:   run_unit_fun
    -------------------------------------------------------------------------
XDATA_ROM_C
  Relative segment, address: XDATA 00001BE7 - 00001BF8 (0x12 bytes), align: 0
  Segment part 102.           Intra module refs:   show_grating
    -------------------------------------------------------------------------
XDATA_ROM_C
  Relative segment, address: XDATA 00001BF9 - 00001C27 (0x2f bytes), align: 0
  Segment part 103.           Intra module refs:   show_statistic
    -------------------------------------------------------------------------
XDATA_ROM_C
  Relative segment, address: XDATA 00001C28 - 00001C3A (0x13 bytes), align: 0
  Segment part 104.           Intra module refs:   show_statistic
    -------------------------------------------------------------------------
XDATA_ROM_C
  Relative segment, address: XDATA 00001C3B - 00001C4D (0x13 bytes), align: 0
  Segment part 105.           Intra module refs:   show_statistic
    -------------------------------------------------------------------------
XDATA_ROM_C
  Relative segment, address: XDATA 00001C4E - 00001C57 (0xa bytes), align: 0
  Segment part 106.           Intra module refs:   show_statistic
    -------------------------------------------------------------------------
XDATA_ROM_C
  Relative segment, address: XDATA 00001C58 - 00001C61 (0xa bytes), align: 0
  Segment part 107.           Intra module refs:   show_statistic
    -------------------------------------------------------------------------
XDATA_ROM_C
  Relative segment, address: XDATA 00001C62 - 00001C65 (0x4 bytes), align: 0
  Segment part 204.           Intra module refs:   AT_time
                                                   AT_wait
           ENTRY                   ADDRESS         REF BY
           =====                   =======         ======
           __Constant_7fff         00001C62 
    -------------------------------------------------------------------------
XDATA_ROM_C
  Relative segment, address: XDATA 00001C66 - 00001C69 (0x4 bytes), align: 0
  Segment part 205.           Intra module refs:   calcCompareTime
           ENTRY                   ADDRESS         REF BY
           =====                   =======         ======
           __Constant_ffff8000     00001C66 
    -------------------------------------------------------------------------
XDATA_ROM_C
  Relative segment, address: XDATA 00001C6A - 00001C6D (0x4 bytes), align: 0
  Segment part 206.           Intra module refs:   calcCompareTime
           ENTRY                   ADDRESS         REF BY
           =====                   =======         ======
           __Constant_8000         00001C6A 
    -------------------------------------------------------------------------
XDATA_ROM_C
  Relative segment, address: XDATA 00001C6E - 00001C71 (0x4 bytes), align: 0
  Segment part 207.           Intra module refs:   calcCompareTime
           ENTRY                   ADDRESS         REF BY
           =====                   =======         ======
           __Constant_ffffff       00001C6E 
    -------------------------------------------------------------------------
XDATA_ROM_C
  Relative segment, address: XDATA 00001C72 - 00001C75 (0x4 bytes), align: 0
  Segment part 208.           Intra module refs:   Hot_Start
                                                   RI_Receive
                                                   RI_Send
           ENTRY                   ADDRESS         REF BY
           =====                   =======         ======
           __Constant_1            00001C72 
    -------------------------------------------------------------------------
XDATA_ROM_C
  Relative segment, address: XDATA 00001C76 - 00001C79 (0x4 bytes), align: 0
  Segment part 209.           Intra module refs:   validate_sync
           ENTRY                   ADDRESS         REF BY
           =====                   =======         ======
           __Constant_19833891     00001C76 
    -------------------------------------------------------------------------
XDATA_ROM_C
  Relative segment, address: XDATA 00001C7A - 00001C7D (0x4 bytes), align: 0
  Segment part 210.           Intra module refs:   mode_0_receive_process
                                                   mode_1_process
           ENTRY                   ADDRESS         REF BY
           =====                   =======         ======
           __Constant_a            00001C7A 
    -------------------------------------------------------------------------
XDATA_ROM_C
  Relative segment, address: XDATA 00001C7E - 00001C81 (0x4 bytes), align: 0
  Segment part 211.           Intra module refs:   UST_time_over
           ENTRY                   ADDRESS         REF BY
           =====                   =======         ======
           __Constant_20           00001C7E 

    *************************************************************************

  FILE NAME : E:\WMNU\IAR_new_arch\PRJ Test\Debug\Obj\alarm_timer.r51
    *************************************************************************

  FILE NAME : E:\WMNU\IAR_new_arch\PRJ Test\Debug\Obj\buffer.r51
    *************************************************************************

  FILE NAME : E:\WMNU\IAR_new_arch\PRJ Test\Debug\Obj\coder.r51
    *************************************************************************

  FILE NAME : E:\WMNU\IAR_new_arch\PRJ Test\Debug\Obj\cpu.r51
    *************************************************************************

  FILE NAME : E:\WMNU\IAR_new_arch\PRJ Test\Debug\Obj\debug.r51
    *************************************************************************

  FILE NAME : E:\WMNU\IAR_new_arch\PRJ Test\Debug\Obj\dma.r51
    *************************************************************************

  FILE NAME : E:\WMNU\IAR_new_arch\PRJ Test\Debug\Obj\frame.r51
    *************************************************************************

  FILE NAME : E:\WMNU\IAR_new_arch\PRJ Test\Debug\Obj\led.r51
    *************************************************************************

  FILE NAME : E:\WMNU\IAR_new_arch\PRJ Test\Debug\Obj\llc.r51
    *************************************************************************

  FILE NAME : E:\WMNU\IAR_new_arch\PRJ Test\Debug\Obj\mac.r51
    *************************************************************************

  FILE NAME : E:\WMNU\IAR_new_arch\PRJ Test\Debug\Obj\main.r51
    *************************************************************************

  FILE NAME : E:\WMNU\IAR_new_arch\PRJ Test\Debug\Obj\mem_slots.r51
    *************************************************************************

  FILE NAME : E:\WMNU\IAR_new_arch\PRJ Test\Debug\Obj\mem_utils.r51
    *************************************************************************

  FILE NAME : E:\WMNU\IAR_new_arch\PRJ Test\Debug\Obj\model.r51
    *************************************************************************

  FILE NAME : E:\WMNU\IAR_new_arch\PRJ Test\Debug\Obj\radio.r51
    *************************************************************************

  FILE NAME : E:\WMNU\IAR_new_arch\PRJ Test\Debug\Obj\rtc.r51
    *************************************************************************

  FILE NAME : E:\WMNU\IAR_new_arch\PRJ Test\Debug\Obj\sync.r51
    *************************************************************************

  FILE NAME : E:\WMNU\IAR_new_arch\PRJ Test\Debug\Obj\time_manager.r51
    *************************************************************************

  FILE NAME : E:\WMNU\IAR_new_arch\PRJ Test\Debug\Obj\u_alarm_timer.r51
    *************************************************************************

  FILE NAME : E:\WMNU\IAR_new_arch\PRJ Test\Debug\Obj\u_buffer.r51
    *************************************************************************

  FILE NAME : E:\WMNU\IAR_new_arch\PRJ Test\Debug\Obj\u_debug.r51
    *************************************************************************

  FILE NAME : E:\WMNU\IAR_new_arch\PRJ Test\Debug\Obj\u_frame.r51
    *************************************************************************

  FILE NAME : E:\WMNU\IAR_new_arch\PRJ Test\Debug\Obj\u_macros.r51
    *************************************************************************

  FILE NAME : E:\WMNU\IAR_new_arch\PRJ Test\Debug\Obj\u_mem_slots.r51
    *************************************************************************

  FILE NAME : E:\WMNU\IAR_new_arch\PRJ Test\Debug\Obj\u_mem_utils.r51
    *************************************************************************

  FILE NAME : E:\WMNU\IAR_new_arch\PRJ Test\Debug\Obj\ustimer.r51
    *************************************************************************

  FILE NAME : E:\WMNU\IAR_new_arch\PRJ Test\Debug\Obj\utest.r51
    *************************************************************************

  FILE NAME : C:\Program Files (x86)\IAR Systems\Embedded Workbench 8.0\8051\LIB\DLIB\dl-pli-blxd-1e16x01n.r51
  LIBRARY MODULE, NAME : ?__dbg_break

  SEGMENTS IN THE MODULE
  ======================
<BANKED_CODE> 1 (was BANKED_CODE)
  Relative segment, address: CODE 00005332 - 00005334 (0x3 bytes), align: 0
  Segment part 6.             Intra module refs:   __DebugBreak::?relay
           ENTRY                   ADDRESS         REF BY
           =====                   =======         ======
           __DebugBreak            00005332 
    -------------------------------------------------------------------------
BANK_RELAYS
  Relative segment, address: CODE 000005FA - 000005FF (0x6 bytes), align: 0
  Segment part 7.
           ENTRY                   ADDRESS         REF BY
           =====                   =======         ======
           __DebugBreak::?relay    000005FA        __dwrite (?__dwrite)
                                                   __exit (?__exit)

    -------------------------------------------------------------------------
  LIBRARY MODULE, NAME : ?__dwrite

  SEGMENTS IN THE MODULE
  ======================
<BANKED_CODE> 1 (was BANKED_CODE)
  Relative segment, address: CODE 000050E8 - 00005138 (0x51 bytes), align: 0
  Segment part 6.             Intra module refs:   __dwrite::?relay
           ENTRY                   ADDRESS         REF BY
           =====                   =======         ======
           __dwrite                000050E8 
               calls direct
               XSTACK = 00000002 ( 00000008 )
               ISTACK = 00000000 ( 00000002 )
    -------------------------------------------------------------------------
BANK_RELAYS
  Relative segment, address: CODE 00000600 - 00000605 (0x6 bytes), align: 0
  Segment part 7.
           ENTRY                   ADDRESS         REF BY
           =====                   =======         ======
           __dwrite::?relay        00000600        __write (?__write)

    -------------------------------------------------------------------------
  LIBRARY MODULE, NAME : ?__exit

  SEGMENTS IN THE MODULE
  ======================
<BANKED_CODE> 1 (was BANKED_CODE)
  Relative segment, address: CODE 000052E2 - 00005305 (0x24 bytes), align: 0
  Segment part 6.
           ENTRY                   ADDRESS         REF BY
           =====                   =======         ======
           __exit                  000052E2        Segment part 10 (?cexit)
               calls direct
               XSTACK = 00000000 ( 0000000B )

    -------------------------------------------------------------------------
  LIBRARY MODULE, NAME : ?__write

  SEGMENTS IN THE MODULE
  ======================
<BANKED_CODE> 1 (was BANKED_CODE)
  Relative segment, address: CODE 00005297 - 000052BC (0x26 bytes), align: 0
  Segment part 6.             Intra module refs:   __write::?relay
           ENTRY                   ADDRESS         REF BY
           =====                   =======         ======
           __write                 00005297 
               calls direct
               XSTACK = 00000002 ( 00000002 )
               ISTACK = 00000000 ( 00000002 )
    -------------------------------------------------------------------------
BANK_RELAYS
  Relative segment, address: CODE 00000606 - 0000060B (0x6 bytes), align: 0
  Segment part 7.
           ENTRY                   ADDRESS         REF BY
           =====                   =======         ======
           __write::?relay         00000606        putchar (?putchar)

    -------------------------------------------------------------------------
  LIBRARY MODULE, NAME : ?cexit

  SEGMENTS IN THE MODULE
  ======================
CSTART
  Relative segment, address: CODE 0000002E, align: 0
  Segment part 5.             Intra module refs:   _exit::?relay
           ENTRY                   ADDRESS         REF BY
           =====                   =======         ======
           _exit                   0000002E 
               calls direct
    -------------------------------------------------------------------------
CSTART
  Relative segment, address: CODE 0000002E - 00000038 (0xb bytes), align: 0
  Segment part 10.            Intra module refs:   _exit
    -------------------------------------------------------------------------
BANK_RELAYS
  Relative segment, address: CODE 0000060C - 00000611 (0x6 bytes), align: 0
  Segment part 11.
           ENTRY                   ADDRESS         REF BY
           =====                   =======         ======
           _exit::?relay           0000060C        exit (?exit)

    -------------------------------------------------------------------------
  LIBRARY MODULE, NAME : ?cmain

  SEGMENTS IN THE MODULE
  ======================
CSTART
  Relative segment, address: CODE 00000039, align: 0
  Segment part 5.
           ENTRY                   ADDRESS         REF BY
           =====                   =======         ======
           ?cmain                  00000039        Segment part 13 (CSTARTUP)
               calls direct
    -------------------------------------------------------------------------
CSTART
  Relative segment, address: CODE 00000039 - 00000048 (0x10 bytes), align: 0
  Segment part 16.
           ENTRY                   ADDRESS         REF BY
           =====                   =======         ======
           __INIT_XDATA_Z          00000039        ALARMS (action_manager)
                                                   AT_wait::val (action_manager)
                                                   COMPARE_TIME (action_manager)
                                                   DMA_CH (action_manager)
                                                   MODEL (action_manager)
                                                   NODE_LIST (action_manager)
                                                   RXBUFF (action_manager)
                                                   RX_BUFF_FRAME_COUNT (action_manager)
                                                   ReadTimer::ret_val (action_manager)
                                                   SLOT_POOL (action_manager)
                                                   Segment part 11 (?rand)
                                                   Segment part 12 (?rand)
                                                   Segment part 13 (?rand)
                                                   Segment part 14 (?rand)
                                                   TOFFSET (action_manager)
                                                   TX_BUFF_FRAME_COUNT (action_manager)
                                                   _Randinit (?rand)
                                                   __iar_Tls_setup__Randinit (?rand)
                                                   __iar_Tls_setup__Randseed (?rand)
                                                   common_count (action_manager)
                                                   passed (action_manager)
                                                   retransmite (action_manager)
                                                   slot_busy (action_manager)
    -------------------------------------------------------------------------
CSTART
  Relative segment, address: CODE 00000049 - 0000006E (0x26 bytes), align: 0
  Segment part 33.
           ENTRY                   ADDRESS         REF BY
           =====                   =======         ======
           __INIT_XDATA_I          00000049        BF_MODULE (action_manager)
                                                   FR_MODULE (action_manager)
                                                   HOT_MOD (action_manager)
                                                   LED_MODULE (action_manager)
                                                   LLC_MODULE (action_manager)
                                                   MAC_MODULE (action_manager)
                                                   MD_MODULE (action_manager)
                                                   MS_MODULE (action_manager)
                                                   RADIO_MODULE (action_manager)
                                                   RTC_MODULE (action_manager)
                                                   RX_LIST_HEAD (action_manager)
                                                   SW_MOD (action_manager)
                                                   SYNC_MODULE (action_manager)
                                                   Segment part 6 (?xprintfsmall_nomb)
                                                   TEST_FUN (action_manager)
                                                   TX_LIST_HEAD (action_manager)
                                                   UT_BF_1 (action_manager)
                                                   UT_BF_2 (action_manager)
                                                   UT_BF_3 (action_manager)
                                                   UT_FR_1 (action_manager)
                                                   UT_FR_2 (action_manager)
                                                   UT_FR_3 (action_manager)
                                                   UT_MACR_1 (action_manager)
                                                   UT_MACR_2 (action_manager)
                                                   UT_MS_1 (action_manager)
                                                   UT_MS_2 (action_manager)
                                                   UT_MS_3 (action_manager)
                                                   _Randseed (?rand)
                                                   __Constant_0 (?xprintfsmall_nomb)
                                                   __Constant_19660d (?rand)
                                                   __Constant_3c6ef35f (?rand)
                                                   __Constant_ffff (?xprintfsmall_nomb)
    -------------------------------------------------------------------------
DIFUNCT
  Relative segment, address: CODE 00000FB5, align: 0
  Segment part 38. ROOT 
    -------------------------------------------------------------------------
CSTART
  Relative segment, address: CODE 0000006F - 00000084 (0x16 bytes), align: 0
  Segment part 40.            Intra module refs:   ?cmain
           ENTRY                   ADDRESS         REF BY
           =====                   =======         ======
           ?call_main              0000006F 

    -------------------------------------------------------------------------
  LIBRARY MODULE, NAME : CSTARTUP

  SEGMENTS IN THE MODULE
  ======================
REGISTERS
  Relative segment, address: DATA 00000000, align: 0
  Segment part 0.             Intra module refs:   Segment part 6
           ENTRY                   ADDRESS         REF BY
           =====                   =======         ======
           ?REGISTERS              00000000 
    -------------------------------------------------------------------------
ISTACK
  Relative segment, address: IDATA 000000C0, align: 0
  Segment part 1.             Intra module refs:   Segment part 6
           ENTRY                   ADDRESS         REF BY
           =====                   =======         ======
           ?ISTACK_START           000000C0 
    -------------------------------------------------------------------------
PSTACK
  Relative segment, address: XDATA 00001E00, align: 0
  Segment part 2.             Intra module refs:   ?RESET_PSP
           ENTRY                   ADDRESS         REF BY
           =====                   =======         ======
           ?PSTACK_START           00001E00 
    -------------------------------------------------------------------------
XSTACK
  Relative segment, address: XDATA 00000001, align: 0
  Segment part 3.             Intra module refs:   ?RESET_XSP
           ENTRY                   ADDRESS         REF BY
           =====                   =======         ======
           ?XSTACK_START           00000001 
    -------------------------------------------------------------------------
INTVEC
  Common segment, address: CODE 00000000 - 00000002 (0x3 bytes), align: 0
  Segment part 5. ROOT        Intra module refs:   Segment part 6
    -------------------------------------------------------------------------
CSTART
  Relative segment, address: CODE 00000085 - 0000008A (0x6 bytes), align: 0
  Segment part 6. ROOT        Intra module refs:   Segment part 5
           ENTRY                   ADDRESS         REF BY
           =====                   =======         ======
           __program_start         00000085        Absolute parts (?ABS_ENTRY_MOD)
           ?RESET_SP               00000088 
    -------------------------------------------------------------------------
CSTART
  Relative segment, address: CODE 0000008B - 0000008D (0x3 bytes), align: 0
  Segment part 7.
           ENTRY                   ADDRESS         REF BY
           =====                   =======         ======
           ?RESET_PSP              0000008B        ?PSP (VIRTUAL_REGISTERS)
    -------------------------------------------------------------------------
CSTART
  Relative segment, address: CODE 0000008E - 00000093 (0x6 bytes), align: 0
  Segment part 8.
           ENTRY                   ADDRESS         REF BY
           =====                   =======         ======
           ?RESET_XSP              0000008E        ?XSP (VIRTUAL_REGISTERS)
    -------------------------------------------------------------------------
CSTART
  Relative segment, address: CODE 00000094 - 00000096 (0x3 bytes), align: 0
  Segment part 9.
           ENTRY                   ADDRESS         REF BY
           =====                   =======         ======
           ?RESET_CODE_BANK        00000094        Absolute parts (?BANKED_CODE_SUPPORT)
    -------------------------------------------------------------------------
CSTART
  Relative segment, address: CODE 00000097 - 00000099 (0x3 bytes), align: 0
  Segment part 11.            Intra module refs:   ?RESET_PSP
           ENTRY                   ADDRESS         REF BY
           =====                   =======         ======
           ?RESET_PDATA_BANK       00000097 
    -------------------------------------------------------------------------
CSTART
  Relative segment, address: CODE 0000009A - 0000009C (0x3 bytes), align: 0
  Segment part 13.            Intra module refs:   Absolute parts

    -------------------------------------------------------------------------
  LIBRARY MODULE, NAME : VIRTUAL_REGISTERS

  SEGMENTS IN THE MODULE
  ======================
BREG
  Relative segment, address: BIT 00000020.0 - 00000020.7 (0x8 bits), align: 0
  Segment part 0.
           ENTRY                   ADDRESS         REF BY
           =====                   =======         ======
           ?B0                     00000020.0      Absolute parts (CSTARTUP)
    -------------------------------------------------------------------------
VREG
  Relative segment, address: DATA 00000008 - 00000008 (0x1 bytes), align: 0
  Segment part 1.             Intra module refs:   ?V1
           ENTRY                   ADDRESS         REF BY
           =====                   =======         ======
           ?V0                     00000008        ?BANKED_ENTER_XDATA (?BANKED_ENTER_XDATA)
                                                   ?BANKED_LEAVE_XDATA (?BANKED_LEAVE_XDATA)
                                                   ?INTERRUPT_ENTER_XSP (?INTERRUPT_ENTER_XSP)
                                                   ?INTERRUPT_LEAVE_XSP (?INTERRUPT_LEAVE_XSP)
                                                   ?LONGJMP_XDATA (?LONGJMP_XDATA)
                                                   ?SETJMP_XDATA (?SETJMP_XDATA)
                                                   ?SL_GE_X (?SL_GE_X)
                                                   ?UL_GE_X (?UL_GE_X)
                                                   AES_StreamCoder (action_manager)
                                                   AM_Hot_start (action_manager)
                                                   AM_SW_Init (action_manager)
                                                   AT_set_alarm (action_manager)
                                                   AT_set_time (action_manager)
                                                   AT_time (action_manager)
                                                   AT_wait (action_manager)
                                                   BF_available (action_manager)
                                                   BF_cursor_next (action_manager)
                                                   BF_cursor_rx (action_manager)
                                                   BF_cursor_tx (action_manager)
                                                   BF_push_rx (action_manager)
                                                   BF_push_tx (action_manager)
                                                   BF_remove (action_manager)
                                                   FR_add_header (action_manager)
                                                   FR_del_header (action_manager)
                                                   Hot_Start (action_manager)
                                                   RI_Receive (action_manager)
                                                   RI_Send (action_manager)
                                                   RecvData (action_manager)
                                                   SL_alloc (action_manager)
                                                   SL_available (action_manager)
                                                   SL_busy (action_manager)
                                                   SL_free (action_manager)
                                                   Segment part 31 (?xprintfsmall_nomb)
                                                   Segment part 33 (?xprintfsmall_nomb)
                                                   Segment part 56 (?xprintfsmall_nomb)
                                                   SendData (action_manager)
                                                   TimerCompareInterrupt (action_manager)
                                                   UST_interval (action_manager)
                                                   UST_time_over (action_manager)
                                                   _LitobSmallNoMb (?xprintfsmall_nomb)
                                                   _PrintfSmallNoMb (?xprintfsmall_nomb)
                                                   _Prout (?xprout)
                                                   _PutcharSmallNoMb (?xprintfsmall_nomb)
                                                   _PutcharsSmallNoMb (?xprintfsmall_nomb)
                                                   __list_add (action_manager)
                                                   _free (action_manager)
                                                   _push (action_manager)
                                                   _throw_dice (action_manager)
                                                   array_index (action_manager)
                                                   calcCompareTime (action_manager)
                                                   is_array_ptr (action_manager)
                                                   list_add (action_manager)
                                                   loadTimerCompare (action_manager)
                                                   memcpy (?memcpy)
                                                   mode_0_process (action_manager)
                                                   mode_0_receive_process (action_manager)
                                                   mode_1_process (action_manager)
                                                   pad (?xprintfsmall_nomb)
                                                   printf (?printf)
                                                   putchar (?putchar)
                                                   rand (?rand)
                                                   recv_sync (action_manager)
                                                   run_tests (action_manager)
                                                   run_unit_fun (action_manager)
                                                   scheulder_next_alarm (action_manager)
                                                   send_sync (action_manager)
                                                   setFreq (action_manager)
                                                   srand (?srand)
                                                   syncronize_timer (action_manager)
                                                   test1 (action_manager)
                                                   test2 (action_manager)
                                                   test3 (action_manager)
                                                   validate_sync (action_manager)
    -------------------------------------------------------------------------
VREG
  Relative segment, address: DATA 00000009 - 00000009 (0x1 bytes), align: 0
  Segment part 2.             Intra module refs:   ?V2
           ENTRY                   ADDRESS         REF BY
           =====                   =======         ======
           ?V1                     00000009        AES_StreamCoder (action_manager)
                                                   AM_Hot_start (action_manager)
                                                   AM_SW_Init (action_manager)
                                                   AT_set_alarm (action_manager)
                                                   AT_set_time (action_manager)
                                                   AT_time (action_manager)
                                                   AT_wait (action_manager)
                                                   BF_available (action_manager)
                                                   BF_cursor_next (action_manager)
                                                   BF_cursor_rx (action_manager)
                                                   BF_cursor_tx (action_manager)
                                                   BF_remove (action_manager)
                                                   FR_add_header (action_manager)
                                                   Hot_Start (action_manager)
                                                   RI_Receive (action_manager)
                                                   RI_Send (action_manager)
                                                   RecvData (action_manager)
                                                   SL_available (action_manager)
                                                   SL_busy (action_manager)
                                                   Segment part 24 (?xprintfsmall_nomb)
                                                   Segment part 35 (?xprintfsmall_nomb)
                                                   Segment part 56 (?xprintfsmall_nomb)
                                                   SendData (action_manager)
                                                   TimerCompareInterrupt (action_manager)
                                                   UST_interval (action_manager)
                                                   UST_time_over (action_manager)
                                                   _LitobSmallNoMb (?xprintfsmall_nomb)
                                                   _PrintfSmallNoMb (?xprintfsmall_nomb)
                                                   _Prout (?xprout)
                                                   _PutcharSmallNoMb (?xprintfsmall_nomb)
                                                   _PutcharsSmallNoMb (?xprintfsmall_nomb)
                                                   __list_add (action_manager)
                                                   _free (action_manager)
                                                   _push (action_manager)
                                                   _throw_dice (action_manager)
                                                   array_index (action_manager)
                                                   calcCompareTime (action_manager)
                                                   is_array_ptr (action_manager)
                                                   list_add (action_manager)
                                                   loadTimerCompare (action_manager)
                                                   mode_0_process (action_manager)
                                                   mode_0_receive_process (action_manager)
                                                   mode_1_process (action_manager)
                                                   pad (?xprintfsmall_nomb)
                                                   printf (?printf)
                                                   putchar (?putchar)
                                                   rand (?rand)
                                                   recv_sync (action_manager)
                                                   run_tests (action_manager)
                                                   run_unit_fun (action_manager)
                                                   send_sync (action_manager)
                                                   setFreq (action_manager)
                                                   srand (?srand)
                                                   syncronize_timer (action_manager)
                                                   test1 (action_manager)
                                                   test2 (action_manager)
                                                   test3 (action_manager)
                                                   validate_sync (action_manager)
    -------------------------------------------------------------------------
VREG
  Relative segment, address: DATA 0000000A - 0000000A (0x1 bytes), align: 0
  Segment part 3.             Intra module refs:   ?V3
           ENTRY                   ADDRESS         REF BY
           =====                   =======         ======
           ?V2                     0000000A        AES_StreamCoder (action_manager)
                                                   AT_set_alarm (action_manager)
                                                   AT_set_time (action_manager)
                                                   AT_time (action_manager)
                                                   AT_wait (action_manager)
                                                   BF_cursor_next (action_manager)
                                                   BF_remove (action_manager)
                                                   FR_add_header (action_manager)
                                                   Hot_Start (action_manager)
                                                   RI_Receive (action_manager)
                                                   RI_Send (action_manager)
                                                   RecvData (action_manager)
                                                   Segment part 56 (?xprintfsmall_nomb)
                                                   UST_interval (action_manager)
                                                   UST_time_over (action_manager)
                                                   _LitobSmallNoMb (?xprintfsmall_nomb)
                                                   _PrintfSmallNoMb (?xprintfsmall_nomb)
                                                   _Prout (?xprout)
                                                   _PutcharSmallNoMb (?xprintfsmall_nomb)
                                                   _PutcharsSmallNoMb (?xprintfsmall_nomb)
                                                   __list_add (action_manager)
                                                   _free (action_manager)
                                                   _push (action_manager)
                                                   array_index (action_manager)
                                                   calcCompareTime (action_manager)
                                                   is_array_ptr (action_manager)
                                                   loadTimerCompare (action_manager)
                                                   mode_0_process (action_manager)
                                                   mode_0_receive_process (action_manager)
                                                   mode_1_process (action_manager)
                                                   pad (?xprintfsmall_nomb)
                                                   rand (?rand)
                                                   recv_sync (action_manager)
                                                   run_unit_fun (action_manager)
                                                   srand (?srand)
                                                   syncronize_timer (action_manager)
                                                   test1 (action_manager)
                                                   test2 (action_manager)
                                                   test3 (action_manager)
                                                   validate_sync (action_manager)
    -------------------------------------------------------------------------
VREG
  Relative segment, address: DATA 0000000B - 0000000B (0x1 bytes), align: 0
  Segment part 4.             Intra module refs:   ?V4
           ENTRY                   ADDRESS         REF BY
           =====                   =======         ======
           ?V3                     0000000B        AES_StreamCoder (action_manager)
                                                   AT_set_alarm (action_manager)
                                                   AT_set_time (action_manager)
                                                   AT_time (action_manager)
                                                   AT_wait (action_manager)
                                                   FR_add_header (action_manager)
                                                   Hot_Start (action_manager)
                                                   RI_Receive (action_manager)
                                                   RI_Send (action_manager)
                                                   RecvData (action_manager)
                                                   Segment part 56 (?xprintfsmall_nomb)
                                                   UST_interval (action_manager)
                                                   UST_time_over (action_manager)
                                                   _LitobSmallNoMb (?xprintfsmall_nomb)
                                                   _PrintfSmallNoMb (?xprintfsmall_nomb)
                                                   _PutcharsSmallNoMb (?xprintfsmall_nomb)
                                                   __list_add (action_manager)
                                                   _free (action_manager)
                                                   _push (action_manager)
                                                   array_index (action_manager)
                                                   calcCompareTime (action_manager)
                                                   is_array_ptr (action_manager)
                                                   loadTimerCompare (action_manager)
                                                   mode_0_process (action_manager)
                                                   mode_0_receive_process (action_manager)
                                                   mode_1_process (action_manager)
                                                   pad (?xprintfsmall_nomb)
                                                   rand (?rand)
                                                   recv_sync (action_manager)
                                                   run_unit_fun (action_manager)
                                                   srand (?srand)
                                                   syncronize_timer (action_manager)
                                                   test1 (action_manager)
                                                   test2 (action_manager)
                                                   test3 (action_manager)
                                                   validate_sync (action_manager)
    -------------------------------------------------------------------------
VREG
  Relative segment, address: DATA 0000000C - 0000000C (0x1 bytes), align: 0
  Segment part 5.             Intra module refs:   ?V5
           ENTRY                   ADDRESS         REF BY
           =====                   =======         ======
           ?V4                     0000000C        AES_StreamCoder (action_manager)
                                                   AT_set_time (action_manager)
                                                   AT_time (action_manager)
                                                   FR_add_header (action_manager)
                                                   RI_Receive (action_manager)
                                                   RI_Send (action_manager)
                                                   RecvData (action_manager)
                                                   Segment part 56 (?xprintfsmall_nomb)
                                                   UST_interval (action_manager)
                                                   UST_time_over (action_manager)
                                                   _LitobSmallNoMb (?xprintfsmall_nomb)
                                                   _PrintfSmallNoMb (?xprintfsmall_nomb)
                                                   _Prout (?xprout)
                                                   _PutcharSmallNoMb (?xprintfsmall_nomb)
                                                   _PutcharsSmallNoMb (?xprintfsmall_nomb)
                                                   _push (action_manager)
                                                   calcCompareTime (action_manager)
                                                   mode_0_receive_process (action_manager)
                                                   pad (?xprintfsmall_nomb)
                                                   rand (?rand)
                                                   recv_sync (action_manager)
                                                   run_unit_fun (action_manager)
                                                   syncronize_timer (action_manager)
                                                   test1 (action_manager)
                                                   test2 (action_manager)
                                                   test3 (action_manager)
    -------------------------------------------------------------------------
VREG
  Relative segment, address: DATA 0000000D - 0000000D (0x1 bytes), align: 0
  Segment part 6.             Intra module refs:   ?V6
           ENTRY                   ADDRESS         REF BY
           =====                   =======         ======
           ?V5                     0000000D        AES_StreamCoder (action_manager)
                                                   AT_set_time (action_manager)
                                                   AT_time (action_manager)
                                                   RI_Receive (action_manager)
                                                   RI_Send (action_manager)
                                                   RecvData (action_manager)
                                                   UST_interval (action_manager)
                                                   UST_time_over (action_manager)
                                                   _LitobSmallNoMb (?xprintfsmall_nomb)
                                                   _PrintfSmallNoMb (?xprintfsmall_nomb)
                                                   _Prout (?xprout)
                                                   _PutcharSmallNoMb (?xprintfsmall_nomb)
                                                   _PutcharsSmallNoMb (?xprintfsmall_nomb)
                                                   _push (action_manager)
                                                   calcCompareTime (action_manager)
                                                   mode_0_receive_process (action_manager)
                                                   pad (?xprintfsmall_nomb)
                                                   rand (?rand)
                                                   recv_sync (action_manager)
                                                   run_unit_fun (action_manager)
                                                   syncronize_timer (action_manager)
                                                   test1 (action_manager)
                                                   test2 (action_manager)
                                                   test3 (action_manager)
    -------------------------------------------------------------------------
VREG
  Relative segment, address: DATA 0000000E - 0000000E (0x1 bytes), align: 0
  Segment part 7.             Intra module refs:   ?V7
           ENTRY                   ADDRESS         REF BY
           =====                   =======         ======
           ?V6                     0000000E        AES_StreamCoder (action_manager)
                                                   AT_time (action_manager)
                                                   RI_Receive (action_manager)
                                                   RI_Send (action_manager)
                                                   UST_interval (action_manager)
                                                   UST_time_over (action_manager)
                                                   _LitobSmallNoMb (?xprintfsmall_nomb)
                                                   _PutcharsSmallNoMb (?xprintfsmall_nomb)
                                                   calcCompareTime (action_manager)
                                                   pad (?xprintfsmall_nomb)
                                                   rand (?rand)
                                                   test1 (action_manager)
                                                   test2 (action_manager)
                                                   test3 (action_manager)
    -------------------------------------------------------------------------
VREG
  Relative segment, address: DATA 0000000F - 0000000F (0x1 bytes), align: 0
  Segment part 8.
           ENTRY                   ADDRESS         REF BY
           =====                   =======         ======
           ?V7                     0000000F        AT_time (action_manager)
                                                   RI_Receive (action_manager)
                                                   RI_Send (action_manager)
                                                   RecvData (action_manager)
                                                   SendData (action_manager)
                                                   UST_interval (action_manager)
                                                   UST_time_over (action_manager)
                                                   _LitobSmallNoMb (?xprintfsmall_nomb)
                                                   _PutcharsSmallNoMb (?xprintfsmall_nomb)
                                                   calcCompareTime (action_manager)
                                                   pad (?xprintfsmall_nomb)
                                                   rand (?rand)
                                                   recv_sync (action_manager)
                                                   test1 (action_manager)
                                                   test2 (action_manager)
                                                   test3 (action_manager)
    -------------------------------------------------------------------------
PSP
  Relative segment, address: DATA 00000010 - 00000010 (0x1 bytes), align: 0
  Segment part 33.
           ENTRY                   ADDRESS         REF BY
           =====                   =======         ======
           ?PSP                    00000010        ?LONGJMP_XDATA (?LONGJMP_XDATA)
                                                   ?RESET_PSP (CSTARTUP)
                                                   ?SETJMP_XDATA (?SETJMP_XDATA)
    -------------------------------------------------------------------------
XSP
  Relative segment, address: DATA 00000011 - 00000012 (0x2 bytes), align: 0
  Segment part 34.
           ENTRY                   ADDRESS         REF BY
           =====                   =======         ======
           ?XSP                    00000011        ?ADD_XSTACK_DISP0_8 (?ADD_XSTACK_DISP8)
                                                   ?ALLOC_XSTACK8 (?ALLOC_XSTACK8)
                                                   ?BANKED_ENTER_XDATA (?BANKED_ENTER_XDATA)
                                                   ?BANKED_LEAVE_XDATA (?BANKED_LEAVE_XDATA)
                                                   ?DEALLOC_XSTACK8 (?DEALLOC_XSTACK8)
                                                   ?INTERRUPT_ENTER_XSP (?INTERRUPT_ENTER_XSP)
                                                   ?INTERRUPT_LEAVE_XSP (?INTERRUPT_LEAVE_XSP)
                                                   ?LONGJMP_XDATA (?LONGJMP_XDATA)
                                                   ?PUSH_XSTACK8_X (?PUSH_XSTACK8_X)
                                                   ?RESET_XSP (CSTARTUP)
                                                   ?SETJMP_XDATA (?SETJMP_XDATA)
                                                   ?XSTACK_DISP0_8 (?XSTACK_DISP8)
                                                   ?XSTACK_DISP100_8 (?XSTACK_DISP8_RP)
                                                   ?XSTACK_DISP101_8 (?XSTACK_DISP8_RP)
                                                   ?XSTACK_DISP102_8 (?XSTACK_DISP8_RP)
                                                   AES_StreamCoder (action_manager)
                                                   FR_add_header (action_manager)
                                                   FR_del_header (action_manager)
                                                   HW_Init (action_manager)
                                                   RI_Receive (action_manager)
                                                   RI_Send (action_manager)
                                                   RecvData (action_manager)
                                                   SL_alloc (action_manager)
                                                   SW_Init (action_manager)
                                                   SendData (action_manager)
                                                   UST_interval (action_manager)
                                                   UST_now (action_manager)
                                                   UST_time_over (action_manager)
                                                   _LitobSmallNoMb (?xprintfsmall_nomb)
                                                   _PrintfSmallNoMb (?xprintfsmall_nomb)
                                                   __dwrite (?__dwrite)
                                                   __exit (?__exit)
                                                   __iar_Memchr (?memchr)
                                                   __write (?__write)
                                                   calcCompareTime (action_manager)
                                                   loadTimerCompare (action_manager)
                                                   memset (?memset)
                                                   pad (?xprintfsmall_nomb)
                                                   printf (?printf)
                                                   putchar (?putchar)
                                                   recv_sync (action_manager)
                                                   send_sync (action_manager)
                                                   setFreq (action_manager)
                                                   test1 (action_manager)
                                                   test2 (action_manager)
                                                   test3 (action_manager)

    -------------------------------------------------------------------------
  LIBRARY MODULE, NAME : ?exit

  SEGMENTS IN THE MODULE
  ======================
<BANKED_CODE> 1 (was BANKED_CODE)
  Relative segment, address: CODE 00005324 - 00005331 (0xe bytes), align: 0
  Segment part 6.
           ENTRY                   ADDRESS         REF BY
           =====                   =======         ======
           exit                    00005324        ?call_main (?cmain)
               calls direct
               ISTACK = 00000000 ( 00000002 )

    -------------------------------------------------------------------------
  LIBRARY MODULE, NAME : ?BANKED_CODE_SUPPORT

  SEGMENTS IN THE MODULE
  ======================
CSTART
  Relative segment, address: CODE 0000009D - 000000BA (0x1e bytes), align: 0
  Segment part 0.
           ENTRY                   ADDRESS         REF BY
           =====                   =======         ======
           ?BCALL_FF               0000009D        ?call_main (?cmain)
                                                   Segment part 10 (?cexit)
           ?BRET_FF                000000A3        ?BANKED_LEAVE_XDATA (?BANKED_LEAVE_XDATA)
                                                   AT_interval (action_manager)
                                                   BF_content (action_manager)
                                                   BF_rx_busy (action_manager)
                                                   BF_tx_busy (action_manager)
                                                   Cold_Start (action_manager)
                                                   FR_available (action_manager)
                                                   FR_busy (action_manager)
                                                   FR_create (action_manager)
                                                   HW_Init (action_manager)
                                                   Hot_Start (action_manager)
                                                   INIT_LIST_HEAD (action_manager)
                                                   IRQEnable (action_manager)
                                                   LoadTXData (action_manager)
                                                   MEM_memcpy (action_manager)
                                                   MEM_memset (action_manager)
                                                   RI_SetChannel (action_manager)
                                                   ReadTimer (action_manager)
                                                   SL_zone_check (action_manager)
                                                   SW_Init (action_manager)
                                                   Sleep (action_manager)
                                                   UST_now (action_manager)
                                                   UnLoadRXData (action_manager)
                                                   Wakeup (action_manager)
                                                   __DebugBreak (?__dbg_break)
                                                   __cli (action_manager)
                                                   __dwrite (?__dwrite)
                                                   __iar_Memchr (?memchr)
                                                   __iar_Strchr (?strchr)
                                                   __list_add_valid (action_manager)
                                                   __list_del (action_manager)
                                                   __list_del_entry_valid (action_manager)
                                                   __write (?__write)
                                                   _inc_timeslot (action_manager)
                                                   bits_count (action_manager)
                                                   exit (?exit)
                                                   getRNDByte (action_manager)
                                                   isIRQEnable (action_manager)
                                                   list_empty (action_manager)
                                                   memset (?memset)
                                                   mode_0_retransmition_process (action_manager)
                                                   pre_config (action_manager)
                                                   show_grating (action_manager)
                                                   show_statistic (action_manager)
                                                   strlen (?strlen)
           ?BDISPATCH_FF           000000A6        AES_StreamCoder::?relay (action_manager)
                                                   AM_Hot_start::?relay (action_manager)
                                                   AM_SW_Init::?relay (action_manager)
                                                   AT_enable::?relay (action_manager)
                                                   AT_interval::?relay (action_manager)
                                                   AT_set_alarm::?relay (action_manager)
                                                   AT_set_time::?relay (action_manager)
                                                   AT_time::?relay (action_manager)
                                                   AT_wait::?relay (action_manager)
                                                   BF_available::?relay (action_manager)
                                                   BF_content::?relay (action_manager)
                                                   BF_cursor_next::?relay (action_manager)
                                                   BF_cursor_rx::?relay (action_manager)
                                                   BF_cursor_tx::?relay (action_manager)
                                                   BF_push_rx::?relay (action_manager)
                                                   BF_push_tx::?relay (action_manager)
                                                   BF_remove::?relay (action_manager)
                                                   BF_rx_busy::?relay (action_manager)
                                                   BF_tx_busy::?relay (action_manager)
                                                   Cold_Start::?relay (action_manager)
                                                   DBG_CORE_HALT::?relay (action_manager)
                                                   FR_add_header::?relay (action_manager)
                                                   FR_available::?relay (action_manager)
                                                   FR_busy::?relay (action_manager)
                                                   FR_create::?relay (action_manager)
                                                   FR_del_header::?relay (action_manager)
                                                   FR_delete::?relay (action_manager)
                                                   HW_Init::?relay (action_manager)
                                                   Hot_Start::?relay (action_manager)
                                                   INIT_LIST_HEAD::?relay (action_manager)
                                                   IRQEnable::?relay (action_manager)
                                                   LoadTXData::?relay (action_manager)
                                                   MEM_memcpy::?relay (action_manager)
                                                   MEM_memset::?relay (action_manager)
                                                   RI_Receive::?relay (action_manager)
                                                   RI_Send::?relay (action_manager)
                                                   RI_SetChannel::?relay (action_manager)
                                                   ReadTimer::?relay (action_manager)
                                                   RecvData::?relay (action_manager)
                                                   SL_alloc::?relay (action_manager)
                                                   SL_available::?relay (action_manager)
                                                   SL_busy::?relay (action_manager)
                                                   SL_free::?relay (action_manager)
                                                   SL_zone_check::?relay (action_manager)
                                                   SW_Init::?relay (action_manager)
                                                   SendData::?relay (action_manager)
                                                   Sleep::?relay (action_manager)
                                                   TM_IRQ::?relay (action_manager)
                                                   UST_interval::?relay (action_manager)
                                                   UST_now::?relay (action_manager)
                                                   UST_time_over::?relay (action_manager)
                                                   UnLoadRXData::?relay (action_manager)
                                                   Wakeup::?relay (action_manager)
                                                   _LitobSmallNoMb::?relay (?xprintfsmall_nomb)
                                                   _PrintfSmallNoMb::?relay (?xprintfsmall_nomb)
                                                   _Prout::?relay (?xprout)
                                                   _PutcharSmallNoMb::?relay (?xprintfsmall_nomb)
                                                   _PutcharsSmallNoMb::?relay (?xprintfsmall_nomb)
                                                   __DebugBreak::?relay (?__dbg_break)
                                                   __cli::?relay (action_manager)
                                                   __dwrite::?relay (?__dwrite)
                                                   __iar_Memchr::?relay (?memchr)
                                                   __iar_Strchr::?relay (?strchr)
                                                   __list_add::?relay (action_manager)
                                                   __list_add_valid::?relay (action_manager)
                                                   __list_del::?relay (action_manager)
                                                   __list_del_entry::?relay (action_manager)
                                                   __list_del_entry_valid::?relay (action_manager)
                                                   __write::?relay (?__write)
                                                   _exit::?relay (?cexit)
                                                   _find_next_active::?relay (action_manager)
                                                   _free::?relay (action_manager)
                                                   _inc_timeslot::?relay (action_manager)
                                                   _push::?relay (action_manager)
                                                   _throw_dice::?relay (action_manager)
                                                   accept_sync_data::?relay (action_manager)
                                                   array_index::?relay (action_manager)
                                                   bits_count::?relay (action_manager)
                                                   calcCompareTime::?relay (action_manager)
                                                   ch_cmp::?relay (action_manager)
                                                   ch_cmp_val::?relay (action_manager)
                                                   find_free_node::?relay (action_manager)
                                                   getRNDByte::?relay (action_manager)
                                                   isIRQEnable::?relay (action_manager)
                                                   is_array_ptr::?relay (action_manager)
                                                   list_add::?relay (action_manager)
                                                   list_del::?relay (action_manager)
                                                   list_empty::?relay (action_manager)
                                                   loadTimerCompare::?relay (action_manager)
                                                   memcpy::?relay (?memcpy)
                                                   memset::?relay (?memset)
                                                   mode_0_process::?relay (action_manager)
                                                   mode_0_receive_process::?relay (action_manager)
                                                   mode_0_retransmition_process::?relay (action_manager)
                                                   mode_1_process::?relay (action_manager)
                                                   pad::?relay (?xprintfsmall_nomb)
                                                   pre_config::?relay (action_manager)
                                                   printf::?relay (?printf)
                                                   putchar::?relay (?putchar)
                                                   rand::?relay (?rand)
                                                   random_core_init::?relay (action_manager)
                                                   readRandom::?relay (action_manager)
                                                   recv_sync::?relay (action_manager)
                                                   run_tests::?relay (action_manager)
                                                   run_unit_fun::?relay (action_manager)
                                                   scheulder_next_alarm::?relay (action_manager)
                                                   send_sync::?relay (action_manager)
                                                   setFreq::?relay (action_manager)
                                                   show_grating::?relay (action_manager)
                                                   show_statistic::?relay (action_manager)
                                                   srand::?relay (?srand)
                                                   strlen::?relay (?strlen)
                                                   syncronize_timer::?relay (action_manager)
                                                   test1::?relay (action_manager)
                                                   test2::?relay (action_manager)
                                                   test3::?relay (action_manager)
                                                   validate_sync::?relay (action_manager)

    -------------------------------------------------------------------------
  LIBRARY MODULE, NAME : ?L_EQ_X

  SEGMENTS IN THE MODULE
  ======================
RCODE
  Relative segment, address: CODE 0000066C - 00000680 (0x15 bytes), align: 0
  Segment part 1.
           ENTRY                   ADDRESS         REF BY
           =====                   =======         ======
           ?L_EQ_X                 0000066C        validate_sync (action_manager)

    -------------------------------------------------------------------------
  LIBRARY MODULE, NAME : ?SL_GT_X

  SEGMENTS IN THE MODULE
  ======================
RCODE
  Relative segment, address: CODE 00000681 - 00000695 (0x15 bytes), align: 0
  Segment part 1.
           ENTRY                   ADDRESS         REF BY
           =====                   =======         ======
           ?SL_GT_X                00000681        _PrintfSmallNoMb (?xprintfsmall_nomb)

    -------------------------------------------------------------------------
  LIBRARY MODULE, NAME : ?SL_GE_X

  SEGMENTS IN THE MODULE
  ======================
RCODE
  Relative segment, address: CODE 00000696 - 000006BB (0x26 bytes), align: 0
  Segment part 1.
           ENTRY                   ADDRESS         REF BY
           =====                   =======         ======
           ?SL_GE_X                00000696        _LitobSmallNoMb (?xprintfsmall_nomb)

    -------------------------------------------------------------------------
  LIBRARY MODULE, NAME : ?UL_GT

  SEGMENTS IN THE MODULE
  ======================
RCODE
  Relative segment, address: CODE 000006BC - 000006CB (0x10 bytes), align: 0
  Segment part 1.
           ENTRY                   ADDRESS         REF BY
           =====                   =======         ======
           ?UL_GT                  000006BC        UST_time_over (action_manager)

    -------------------------------------------------------------------------
  LIBRARY MODULE, NAME : ?UL_GT_X

  SEGMENTS IN THE MODULE
  ======================
RCODE
  Relative segment, address: CODE 000006CC - 000006DB (0x10 bytes), align: 0
  Segment part 1.
           ENTRY                   ADDRESS         REF BY
           =====                   =======         ======
           ?UL_GT_X                000006CC        AT_wait (action_manager)
                                                   mode_0_process (action_manager)
                                                   mode_1_process (action_manager)

    -------------------------------------------------------------------------
  LIBRARY MODULE, NAME : ?UL_GE_X

  SEGMENTS IN THE MODULE
  ======================
RCODE
  Relative segment, address: CODE 000006DC - 000006FA (0x1f bytes), align: 0
  Segment part 1.
           ENTRY                   ADDRESS         REF BY
           =====                   =======         ======
           ?UL_GE_X                000006DC        UST_interval (action_manager)
                                                   calcCompareTime (action_manager)

    -------------------------------------------------------------------------
  LIBRARY MODULE, NAME : ?L_TO_FLT

  SEGMENTS IN THE MODULE
  ======================
RCODE
  Relative segment, address: CODE 000006FB - 00000757 (0x5d bytes), align: 0
  Segment part 3.
           ENTRY                   ADDRESS         REF BY
           =====                   =======         ======
           ?UL_TO_FLT              000006FB        RI_Receive (action_manager)
                                                   RI_Send (action_manager)

    -------------------------------------------------------------------------
  LIBRARY MODULE, NAME : ?FLT_TEST_ZERO

  SEGMENTS IN THE MODULE
  ======================
RCODE
  Relative segment, address: CODE 00000758 - 00000760 (0x9 bytes), align: 0
  Segment part 1.
           ENTRY                   ADDRESS         REF BY
           =====                   =======         ======
           ?FLT_TEST_ZERO_REW      00000758        ?FLT_ADD (?FLT_ADD)

    -------------------------------------------------------------------------
  LIBRARY MODULE, NAME : ?FLT_TEST_ZERO_R1

  SEGMENTS IN THE MODULE
  ======================
RCODE
  Relative segment, address: CODE 00000761 - 00000769 (0x9 bytes), align: 0
  Segment part 1.
           ENTRY                   ADDRESS         REF BY
           =====                   =======         ======
           ?FLT_TEST_ZERO_R1_REW   00000761        ?FLT_ADD (?FLT_ADD)

    -------------------------------------------------------------------------
  LIBRARY MODULE, NAME : ?FLT_TEST_INF

  SEGMENTS IN THE MODULE
  ======================
RCODE
  Relative segment, address: CODE 0000076A - 0000076C (0x3 bytes), align: 0
  Segment part 0.
           ENTRY                   ADDRESS         REF BY
           =====                   =======         ======
           ?FLT_TEST_INF_REW       0000076A        ?FLT_ADD (?FLT_ADD)
    -------------------------------------------------------------------------
RCODE
  Relative segment, address: CODE 0000076D - 0000077D (0x11 bytes), align: 0
  Segment part 1.             Intra module refs:   ?FLT_TEST_INF_REW
           ENTRY                   ADDRESS         REF BY
           =====                   =======         ======
           ?FLT_TEST_INF           0000076D 

    -------------------------------------------------------------------------
  LIBRARY MODULE, NAME : ?FLT_TEST_INF_R1

  SEGMENTS IN THE MODULE
  ======================
RCODE
  Relative segment, address: CODE 0000077E - 00000780 (0x3 bytes), align: 0
  Segment part 0.
           ENTRY                   ADDRESS         REF BY
           =====                   =======         ======
           ?FLT_TEST_INF_R1_REW    0000077E        ?FLT_ADD (?FLT_ADD)
    -------------------------------------------------------------------------
RCODE
  Relative segment, address: CODE 00000781 - 00000791 (0x11 bytes), align: 0
  Segment part 1.             Intra module refs:   ?FLT_TEST_INF_R1_REW
           ENTRY                   ADDRESS         REF BY
           =====                   =======         ======
           ?FLT_TEST_INF_R1        00000781 

    -------------------------------------------------------------------------
  LIBRARY MODULE, NAME : ?FLT_TEST_NAN

  SEGMENTS IN THE MODULE
  ======================
RCODE
  Relative segment, address: CODE 00000792 - 000007A0 (0xf bytes), align: 0
  Segment part 1.
           ENTRY                   ADDRESS         REF BY
           =====                   =======         ======
           ?FLT_TEST_NAN           00000792        ?FLT_ADD (?FLT_ADD)

    -------------------------------------------------------------------------
  LIBRARY MODULE, NAME : ?FLT_TEST_NAN_R1

  SEGMENTS IN THE MODULE
  ======================
RCODE
  Relative segment, address: CODE 000007A1 - 000007AF (0xf bytes), align: 0
  Segment part 1.
           ENTRY                   ADDRESS         REF BY
           =====                   =======         ======
           ?FLT_TEST_NAN_R1        000007A1        ?FLT_ADD (?FLT_ADD)

    -------------------------------------------------------------------------
  LIBRARY MODULE, NAME : ?FLT_ADD

  SEGMENTS IN THE MODULE
  ======================
RCODE
  Relative segment, address: CODE 000007B0 - 000009C9 (0x21a bytes), align: 0
  Segment part 3.
           ENTRY                   ADDRESS         REF BY
           =====                   =======         ======
           ?FLT_ADD                000007B0        RI_Receive (action_manager)
                                                   RI_Send (action_manager)

    -------------------------------------------------------------------------
  LIBRARY MODULE, NAME : ?L_MUL

  SEGMENTS IN THE MODULE
  ======================
RCODE
  Relative segment, address: CODE 000009CA - 000009CC (0x3 bytes), align: 0
  Segment part 0.
           ENTRY                   ADDRESS         REF BY
           =====                   =======         ======
           ?L_MUL                  000009CA        UST_time_over (action_manager)
                                                   rand (?rand)
    -------------------------------------------------------------------------
RCODE
  Relative segment, address: CODE 000009CD - 00000A49 (0x7d bytes), align: 0
  Segment part 1.             Intra module refs:   ?L_MUL
           ENTRY                   ADDRESS         REF BY
           =====                   =======         ======
           ?L_MUL_REW              000009CD 

    -------------------------------------------------------------------------
  LIBRARY MODULE, NAME : ?UL_DIV_MOD

  SEGMENTS IN THE MODULE
  ======================
RCODE
  Relative segment, address: CODE 00000A4A - 00000AB8 (0x6f bytes), align: 0
  Segment part 1.
           ENTRY                   ADDRESS         REF BY
           =====                   =======         ======
           ?UL_DIV_MOD             00000A4A        _LitobSmallNoMb (?xprintfsmall_nomb)

    -------------------------------------------------------------------------
  LIBRARY MODULE, NAME : ?L_NEG

  SEGMENTS IN THE MODULE
  ======================
RCODE
  Relative segment, address: CODE 00000AB9 - 00000AC9 (0x11 bytes), align: 0
  Segment part 1.
           ENTRY                   ADDRESS         REF BY
           =====                   =======         ======
           ?L_NEG                  00000AB9        _LitobSmallNoMb (?xprintfsmall_nomb)

    -------------------------------------------------------------------------
  LIBRARY MODULE, NAME : ?UL_SHR

  SEGMENTS IN THE MODULE
  ======================
RCODE
  Relative segment, address: CODE 00000ACA - 00000ACE (0x5 bytes), align: 0
  Segment part 1.             Intra module refs:   Segment part 2
           ENTRY                   ADDRESS         REF BY
           =====                   =======         ======
           ?UL_SHR                 00000ACA        UST_interval (action_manager)
                                                   rand (?rand)
    -------------------------------------------------------------------------
RCODE
  Relative segment, address: CODE 00000ACF - 00000AE2 (0x14 bytes), align: 0
  Segment part 2.             Intra module refs:   ?UL_SHR

    -------------------------------------------------------------------------
  LIBRARY MODULE, NAME : ?L_ADD

  SEGMENTS IN THE MODULE
  ======================
RCODE
  Relative segment, address: CODE 00000AE3 - 00000AF5 (0x13 bytes), align: 0
  Segment part 1.
           ENTRY                   ADDRESS         REF BY
           =====                   =======         ======
           ?L_ADD                  00000AE3        AT_time (action_manager)
                                                   UST_interval (action_manager)

    -------------------------------------------------------------------------
  LIBRARY MODULE, NAME : ?L_ADD_X

  SEGMENTS IN THE MODULE
  ======================
RCODE
  Relative segment, address: CODE 00000AF6 - 00000B08 (0x13 bytes), align: 0
  Segment part 1.
           ENTRY                   ADDRESS         REF BY
           =====                   =======         ======
           ?L_ADD_X                00000AF6        UST_time_over (action_manager)
                                                   mode_1_process (action_manager)
                                                   rand (?rand)

    -------------------------------------------------------------------------
  LIBRARY MODULE, NAME : ?L_ADD_TO_X

  SEGMENTS IN THE MODULE
  ======================
RCODE
  Relative segment, address: CODE 00000B09 - 00000B1B (0x13 bytes), align: 0
  Segment part 1.
           ENTRY                   ADDRESS         REF BY
           =====                   =======         ======
           ?L_ADD_TO_X             00000B09        AT_wait (action_manager)
                                                   Hot_Start (action_manager)
                                                   RI_Receive (action_manager)
                                                   RI_Send (action_manager)
                                                   calcCompareTime (action_manager)
                                                   mode_0_receive_process (action_manager)

    -------------------------------------------------------------------------
  LIBRARY MODULE, NAME : ?L_SUB_X

  SEGMENTS IN THE MODULE
  ======================
RCODE
  Relative segment, address: CODE 00000B1C - 00000B33 (0x18 bytes), align: 0
  Segment part 1.
           ENTRY                   ADDRESS         REF BY
           =====                   =======         ======
           ?L_SUB_X                00000B1C        UST_interval (action_manager)

    -------------------------------------------------------------------------
  LIBRARY MODULE, NAME : ?L_AND_X

  SEGMENTS IN THE MODULE
  ======================
RCODE
  Relative segment, address: CODE 00000B34 - 00000B46 (0x13 bytes), align: 0
  Segment part 1.
           ENTRY                   ADDRESS         REF BY
           =====                   =======         ======
           ?L_AND_X                00000B34        AT_time (action_manager)
                                                   calcCompareTime (action_manager)

    -------------------------------------------------------------------------
  LIBRARY MODULE, NAME : ?L_AND_TO_X

  SEGMENTS IN THE MODULE
  ======================
RCODE
  Relative segment, address: CODE 00000B47 - 00000B59 (0x13 bytes), align: 0
  Segment part 1.
           ENTRY                   ADDRESS         REF BY
           =====                   =======         ======
           ?L_AND_TO_X             00000B47        AT_wait (action_manager)
                                                   _PrintfSmallNoMb (?xprintfsmall_nomb)
                                                   calcCompareTime (action_manager)

    -------------------------------------------------------------------------
  LIBRARY MODULE, NAME : ?L_IOR_TO_X

  SEGMENTS IN THE MODULE
  ======================
RCODE
  Relative segment, address: CODE 00000B5A - 00000B6C (0x13 bytes), align: 0
  Segment part 1.
           ENTRY                   ADDRESS         REF BY
           =====                   =======         ======
           ?L_IOR_TO_X             00000B5A        calcCompareTime (action_manager)

    -------------------------------------------------------------------------
  LIBRARY MODULE, NAME : ?L_MOV_X

  SEGMENTS IN THE MODULE
  ======================
RCODE
  Relative segment, address: CODE 00000B6D - 00000B7B (0xf bytes), align: 0
  Segment part 0.
           ENTRY                   ADDRESS         REF BY
           =====                   =======         ======
           ?L_MOV_X                00000B6D        AT_set_time (action_manager)
                                                   AT_wait (action_manager)
                                                   Hot_Start (action_manager)
                                                   RI_Receive (action_manager)
                                                   RI_Send (action_manager)
                                                   UST_interval (action_manager)
                                                   UST_time_over (action_manager)
                                                   _LitobSmallNoMb (?xprintfsmall_nomb)
                                                   _PrintfSmallNoMb (?xprintfsmall_nomb)
                                                   calcCompareTime (action_manager)
                                                   mode_0_process (action_manager)
                                                   mode_0_receive_process (action_manager)
                                                   mode_1_process (action_manager)
                                                   rand (?rand)
                                                   validate_sync (action_manager)

    -------------------------------------------------------------------------
  LIBRARY MODULE, NAME : ?L_MOV_TO_X

  SEGMENTS IN THE MODULE
  ======================
RCODE
  Relative segment, address: CODE 00000B7C - 00000B8A (0xf bytes), align: 0
  Segment part 2.
           ENTRY                   ADDRESS         REF BY
           =====                   =======         ======
           ?L_MOV_TO_X             00000B7C        RI_Receive (action_manager)
                                                   RI_Send (action_manager)
                                                   UST_interval (action_manager)
                                                   _LitobSmallNoMb (?xprintfsmall_nomb)
                                                   _PrintfSmallNoMb (?xprintfsmall_nomb)
                                                   calcCompareTime (action_manager)
                                                   loadTimerCompare (action_manager)
                                                   mode_1_process (action_manager)
                                                   rand (?rand)
                                                   srand (?srand)

    -------------------------------------------------------------------------
  LIBRARY MODULE, NAME : ?XLOAD_R2345

  SEGMENTS IN THE MODULE
  ======================
RCODE
  Relative segment, address: CODE 00000B8B - 00000B96 (0xc bytes), align: 0
  Segment part 0.
           ENTRY                   ADDRESS         REF BY
           =====                   =======         ======
           ?XLOAD_R2345            00000B8B        RI_Receive (action_manager)
                                                   RI_Send (action_manager)
                                                   ReadTimer (action_manager)
                                                   RecvData (action_manager)
                                                   UST_interval (action_manager)
                                                   UST_now (action_manager)
                                                   calcCompareTime (action_manager)

    -------------------------------------------------------------------------
  LIBRARY MODULE, NAME : ?XSTORE_R2345

  SEGMENTS IN THE MODULE
  ======================
RCODE
  Relative segment, address: CODE 00000B97 - 00000BA2 (0xc bytes), align: 0
  Segment part 0.
           ENTRY                   ADDRESS         REF BY
           =====                   =======         ======
           ?XSTORE_R2345           00000B97        RI_Receive (action_manager)
                                                   RI_Send (action_manager)

    -------------------------------------------------------------------------
  LIBRARY MODULE, NAME : ?XLOAD_R4567

  SEGMENTS IN THE MODULE
  ======================
RCODE
  Relative segment, address: CODE 00000BA3 - 00000BAE (0xc bytes), align: 0
  Segment part 0.
           ENTRY                   ADDRESS         REF BY
           =====                   =======         ======
           ?XLOAD_R4567            00000BA3        _LitobSmallNoMb (?xprintfsmall_nomb)
                                                   accept_sync_data (action_manager)
                                                   rand (?rand)

    -------------------------------------------------------------------------
  LIBRARY MODULE, NAME : ?XSTORE_R4567

  SEGMENTS IN THE MODULE
  ======================
RCODE
  Relative segment, address: CODE 00000BAF - 00000BBA (0xc bytes), align: 0
  Segment part 0.
           ENTRY                   ADDRESS         REF BY
           =====                   =======         ======
           ?XSTORE_R4567           00000BAF        accept_sync_data (action_manager)
                                                   rand (?rand)

    -------------------------------------------------------------------------
  LIBRARY MODULE, NAME : ?XLOAD_R0123

  SEGMENTS IN THE MODULE
  ======================
RCODE
  Relative segment, address: CODE 00000BBB - 00000BC6 (0xc bytes), align: 0
  Segment part 0.
           ENTRY                   ADDRESS         REF BY
           =====                   =======         ======
           ?XLOAD_R0123            00000BBB        RI_Receive (action_manager)
                                                   RI_Send (action_manager)
                                                   _LitobSmallNoMb (?xprintfsmall_nomb)
                                                   _PrintfSmallNoMb (?xprintfsmall_nomb)
                                                   rand (?rand)
                                                   send_sync (action_manager)

    -------------------------------------------------------------------------
  LIBRARY MODULE, NAME : ?XSTORE_R0123

  SEGMENTS IN THE MODULE
  ======================
RCODE
  Relative segment, address: CODE 00000BC7 - 00000BD2 (0xc bytes), align: 0
  Segment part 0.
           ENTRY                   ADDRESS         REF BY
           =====                   =======         ======
           ?XSTORE_R0123           00000BC7        RI_Receive (action_manager)
                                                   RI_Send (action_manager)
                                                   RecvData (action_manager)
                                                   _PrintfSmallNoMb (?xprintfsmall_nomb)
                                                   rand (?rand)
                                                   send_sync (action_manager)

    -------------------------------------------------------------------------
  LIBRARY MODULE, NAME : ?MOVE_LONG8_XDATA_IDATA

  SEGMENTS IN THE MODULE
  ======================
RCODE
  Relative segment, address: CODE 00000BD3 - 00000BDF (0xd bytes), align: 0
  Segment part 0.
           ENTRY                   ADDRESS         REF BY
           =====                   =======         ======
           ?MOVE_LONG8_XDATA_IDATA
                                   00000BD3        ?PUSH_XSTACK_I (?PUSH_XSTACK_I)

    -------------------------------------------------------------------------
  LIBRARY MODULE, NAME : ?MOVE_LONG8_XDATA_XDATA

  SEGMENTS IN THE MODULE
  ======================
RCODE
  Relative segment, address: CODE 00000BE0 - 00000C00 (0x21 bytes), align: 0
  Segment part 0.
           ENTRY                   ADDRESS         REF BY
           =====                   =======         ======
           ?MOVE_LONG8_XDATA_XDATA
                                   00000BE0        ?PUSH_XSTACK8_X (?PUSH_XSTACK8_X)
                                                   FR_del_header (action_manager)
                                                   SL_alloc (action_manager)
                                                   SW_Init (action_manager)
                                                   test3 (action_manager)

    -------------------------------------------------------------------------
  LIBRARY MODULE, NAME : ?SETJMP_XDATA

  SEGMENTS IN THE MODULE
  ======================
RCODE
  Relative segment, address: CODE 00000C01 - 00000C4E (0x4e bytes), align: 0
  Segment part 0.
           ENTRY                   ADDRESS         REF BY
           =====                   =======         ======
           ?SETJMP_XDATA           00000C01        RecvData (action_manager)
                                                   SendData (action_manager)
                                                   recv_sync (action_manager)
                                                   test1 (action_manager)
                                                   test2 (action_manager)

    -------------------------------------------------------------------------
  LIBRARY MODULE, NAME : ?LONGJMP_XDATA

  SEGMENTS IN THE MODULE
  ======================
RCODE
  Relative segment, address: CODE 00000C4F - 00000CA2 (0x54 bytes), align: 0
  Segment part 0.
           ENTRY                   ADDRESS         REF BY
           =====                   =======         ======
           ?LONGJMP_XDATA          00000C4F        RecvData (action_manager)
                                                   SendData (action_manager)
                                                   recv_sync (action_manager)
                                                   test1 (action_manager)
                                                   test2 (action_manager)

    -------------------------------------------------------------------------
  LIBRARY MODULE, NAME : ?S_DIV_MOD

  SEGMENTS IN THE MODULE
  ======================
RCODE
  Relative segment, address: CODE 00000CA3 - 00000CE3 (0x41 bytes), align: 0
  Segment part 0.
           ENTRY                   ADDRESS         REF BY
           =====                   =======         ======
           ?S_DIV_MOD              00000CDC        _throw_dice (action_manager)
    -------------------------------------------------------------------------
RCODE
  Relative segment, address: CODE 00000CE4 - 00000D3C (0x59 bytes), align: 0
  Segment part 1.             Intra module refs:   ?S_DIV_MOD
           ENTRY                   ADDRESS         REF BY
           =====                   =======         ======
           ?US_DIV_MOD             00000CE4        TM_IRQ (action_manager)
                                                   array_index (action_manager)
                                                   is_array_ptr (action_manager)
                                                   scheulder_next_alarm (action_manager)

    -------------------------------------------------------------------------
  LIBRARY MODULE, NAME : ?S_SHL

  SEGMENTS IN THE MODULE
  ======================
RCODE
  Relative segment, address: CODE 00000D3D - 00000D3F (0x3 bytes), align: 0
  Segment part 0.
           ENTRY                   ADDRESS         REF BY
           =====                   =======         ======
           ?S_SHL                  00000D3D        rand (?rand)
    -------------------------------------------------------------------------
RCODE
  Relative segment, address: CODE 00000D40 - 00000D42 (0x3 bytes), align: 0
  Segment part 1.             Intra module refs:   Segment part 2
           ENTRY                   ADDRESS         REF BY
           =====                   =======         ======
           ?S_SHL_REW              00000D40 
    -------------------------------------------------------------------------
RCODE
  Relative segment, address: CODE 00000D43 - 00000D4F (0xd bytes), align: 0
  Segment part 2.             Intra module refs:   ?S_SHL
                                                   ?S_SHL_REW

    -------------------------------------------------------------------------
  LIBRARY MODULE, NAME : ?ALLOC_XSTACK8

  SEGMENTS IN THE MODULE
  ======================
RCODE
  Relative segment, address: CODE 00000D50 - 00000D65 (0x16 bytes), align: 0
  Segment part 0.
           ENTRY                   ADDRESS         REF BY
           =====                   =======         ======
           ?ALLOC_XSTACK8          00000D50        AES_StreamCoder (action_manager)
                                                   FR_add_header (action_manager)
                                                   FR_del_header (action_manager)
                                                   HW_Init (action_manager)
                                                   RI_Receive (action_manager)
                                                   RI_Send (action_manager)
                                                   RecvData (action_manager)
                                                   SL_alloc (action_manager)
                                                   SW_Init (action_manager)
                                                   SendData (action_manager)
                                                   UST_interval (action_manager)
                                                   UST_now (action_manager)
                                                   UST_time_over (action_manager)
                                                   _LitobSmallNoMb (?xprintfsmall_nomb)
                                                   _PrintfSmallNoMb (?xprintfsmall_nomb)
                                                   __dwrite (?__dwrite)
                                                   __exit (?__exit)
                                                   calcCompareTime (action_manager)
                                                   loadTimerCompare (action_manager)
                                                   pad (?xprintfsmall_nomb)
                                                   printf (?printf)
                                                   putchar (?putchar)
                                                   recv_sync (action_manager)
                                                   send_sync (action_manager)
                                                   setFreq (action_manager)
                                                   test1 (action_manager)
                                                   test2 (action_manager)
                                                   test3 (action_manager)

    -------------------------------------------------------------------------
  LIBRARY MODULE, NAME : ?DEALLOC_XSTACK8

  SEGMENTS IN THE MODULE
  ======================
RCODE
  Relative segment, address: CODE 00000D66 - 00000D80 (0x1b bytes), align: 0
  Segment part 0.
           ENTRY                   ADDRESS         REF BY
           =====                   =======         ======
           ?DEALLOC_XSTACK8        00000D66        AES_StreamCoder (action_manager)
                                                   AM_Hot_start (action_manager)
                                                   AM_SW_Init (action_manager)
                                                   AT_set_alarm (action_manager)
                                                   AT_set_time (action_manager)
                                                   AT_wait (action_manager)
                                                   BF_available (action_manager)
                                                   FR_add_header (action_manager)
                                                   FR_del_header (action_manager)
                                                   HW_Init (action_manager)
                                                   Hot_Start (action_manager)
                                                   RI_Receive (action_manager)
                                                   RI_Send (action_manager)
                                                   RecvData (action_manager)
                                                   SL_alloc (action_manager)
                                                   SL_available (action_manager)
                                                   SL_busy (action_manager)
                                                   SW_Init (action_manager)
                                                   Segment part 38 (?xprintfsmall_nomb)
                                                   SendData (action_manager)
                                                   UST_interval (action_manager)
                                                   UST_now (action_manager)
                                                   UST_time_over (action_manager)
                                                   _PrintfSmallNoMb (?xprintfsmall_nomb)
                                                   __dwrite (?__dwrite)
                                                   __list_add (action_manager)
                                                   __write (?__write)
                                                   _free (action_manager)
                                                   _push (action_manager)
                                                   calcCompareTime (action_manager)
                                                   list_add (action_manager)
                                                   loadTimerCompare (action_manager)
                                                   pad (?xprintfsmall_nomb)
                                                   printf (?printf)
                                                   putchar (?putchar)
                                                   recv_sync (action_manager)
                                                   run_unit_fun (action_manager)
                                                   send_sync (action_manager)
                                                   setFreq (action_manager)
                                                   show_statistic (action_manager)
                                                   test1 (action_manager)
                                                   test2 (action_manager)
                                                   test3 (action_manager)

    -------------------------------------------------------------------------
  LIBRARY MODULE, NAME : ?ADD_XSTACK_DISP8

  SEGMENTS IN THE MODULE
  ======================
RCODE
  Relative segment, address: CODE 00000D81 - 00000D9B (0x1b bytes), align: 0
  Segment part 1.
           ENTRY                   ADDRESS         REF BY
           =====                   =======         ======
           ?ADD_XSTACK_DISP0_8     00000D81        ?PUSH_XSTACK_I (?PUSH_XSTACK_I)

    -------------------------------------------------------------------------
  LIBRARY MODULE, NAME : ?XSTACK_DISP8

  SEGMENTS IN THE MODULE
  ======================
RCODE
  Relative segment, address: CODE 00000D9C - 00000DA5 (0xa bytes), align: 0
  Segment part 1.
           ENTRY                   ADDRESS         REF BY
           =====                   =======         ======
           ?XSTACK_DISP0_8         00000D9C        AES_StreamCoder (action_manager)
                                                   FR_add_header (action_manager)
                                                   FR_del_header (action_manager)
                                                   RI_Receive (action_manager)
                                                   RI_Send (action_manager)
                                                   RecvData (action_manager)
                                                   UST_interval (action_manager)
                                                   UST_now (action_manager)
                                                   UST_time_over (action_manager)
                                                   _LitobSmallNoMb (?xprintfsmall_nomb)
                                                   _PrintfSmallNoMb (?xprintfsmall_nomb)
                                                   _PutcharsSmallNoMb (?xprintfsmall_nomb)
                                                   __dwrite (?__dwrite)
                                                   __list_add (action_manager)
                                                   array_index (action_manager)
                                                   calcCompareTime (action_manager)
                                                   ch_cmp (action_manager)
                                                   is_array_ptr (action_manager)
                                                   loadTimerCompare (action_manager)
                                                   memcpy (?memcpy)
                                                   pad (?xprintfsmall_nomb)
                                                   send_sync (action_manager)
                                                   test2 (action_manager)
                                                   test3 (action_manager)

    -------------------------------------------------------------------------
  LIBRARY MODULE, NAME : ?XSTACK_DISP8_RP

  SEGMENTS IN THE MODULE
  ======================
RCODE
  Relative segment, address: CODE 00000DA6 - 00000DAD (0x8 bytes), align: 0
  Segment part 0.
           ENTRY                   ADDRESS         REF BY
           =====                   =======         ======
           ?XSTACK_DISP100_8       00000DA6        RI_Receive (action_manager)
                                                   _PrintfSmallNoMb (?xprintfsmall_nomb)
                                                   pad (?xprintfsmall_nomb)
                                                   printf (?printf)
    -------------------------------------------------------------------------
RCODE
  Relative segment, address: CODE 00000DAE - 00000DB5 (0x8 bytes), align: 0
  Segment part 1.
           ENTRY                   ADDRESS         REF BY
           =====                   =======         ======
           ?XSTACK_DISP101_8       00000DAE        AES_StreamCoder (action_manager)
                                                   FR_add_header (action_manager)
                                                   FR_del_header (action_manager)
                                                   _PrintfSmallNoMb (?xprintfsmall_nomb)
                                                   test3 (action_manager)
    -------------------------------------------------------------------------
RCODE
  Relative segment, address: CODE 00000DB6 - 00000DBD (0x8 bytes), align: 0
  Segment part 2.
           ENTRY                   ADDRESS         REF BY
           =====                   =======         ======
           ?XSTACK_DISP102_8       00000DB6        AES_StreamCoder (action_manager)
                                                   _PrintfSmallNoMb (?xprintfsmall_nomb)
                                                   putchar (?putchar)

    -------------------------------------------------------------------------
  LIBRARY MODULE, NAME : ?CALL_IND

  SEGMENTS IN THE MODULE
  ======================
RCODE
  Relative segment, address: CODE 00000DBE - 00000DBF (0x2 bytes), align: 0
  Segment part 0.
           ENTRY                   ADDRESS         REF BY
           =====                   =======         ======
           ?CALL_IND               00000DBE        AM_Hot_start (action_manager)
                                                   AM_SW_Init (action_manager)
                                                   _PutcharSmallNoMb (?xprintfsmall_nomb)
                                                   rand (?rand)
                                                   run_unit_fun (action_manager)
                                                   srand (?srand)

    -------------------------------------------------------------------------
  LIBRARY MODULE, NAME : ?BANKED_ENTER_XDATA

  SEGMENTS IN THE MODULE
  ======================
RCODE
  Relative segment, address: CODE 00000DC0 - 00000E2B (0x6c bytes), align: 0
  Segment part 1.
           ENTRY                   ADDRESS         REF BY
           =====                   =======         ======
           ?BANKED_ENTER_XDATA     00000DC0        AES_StreamCoder (action_manager)
                                                   AM_Hot_start (action_manager)
                                                   AM_SW_Init (action_manager)
                                                   AT_enable (action_manager)
                                                   AT_set_alarm (action_manager)
                                                   AT_set_time (action_manager)
                                                   AT_time (action_manager)
                                                   AT_wait (action_manager)
                                                   BF_available (action_manager)
                                                   BF_cursor_next (action_manager)
                                                   BF_cursor_rx (action_manager)
                                                   BF_cursor_tx (action_manager)
                                                   BF_push_rx (action_manager)
                                                   BF_push_tx (action_manager)
                                                   BF_remove (action_manager)
                                                   FR_add_header (action_manager)
                                                   FR_del_header (action_manager)
                                                   FR_delete (action_manager)
                                                   Hot_Start (action_manager)
                                                   RI_Receive (action_manager)
                                                   RI_Send (action_manager)
                                                   RecvData (action_manager)
                                                   SL_alloc (action_manager)
                                                   SL_available (action_manager)
                                                   SL_busy (action_manager)
                                                   SL_free (action_manager)
                                                   SW_Init (action_manager)
                                                   SendData (action_manager)
                                                   TM_IRQ (action_manager)
                                                   UST_interval (action_manager)
                                                   UST_time_over (action_manager)
                                                   _LitobSmallNoMb (?xprintfsmall_nomb)
                                                   _PrintfSmallNoMb (?xprintfsmall_nomb)
                                                   _Prout (?xprout)
                                                   _PutcharSmallNoMb (?xprintfsmall_nomb)
                                                   _PutcharsSmallNoMb (?xprintfsmall_nomb)
                                                   __exit (?__exit)
                                                   __list_add (action_manager)
                                                   __list_del_entry (action_manager)
                                                   _find_next_active (action_manager)
                                                   _free (action_manager)
                                                   _push (action_manager)
                                                   _throw_dice (action_manager)
                                                   accept_sync_data (action_manager)
                                                   array_index (action_manager)
                                                   calcCompareTime (action_manager)
                                                   ch_cmp (action_manager)
                                                   ch_cmp_val (action_manager)
                                                   find_free_node (action_manager)
                                                   is_array_ptr (action_manager)
                                                   list_add (action_manager)
                                                   list_del (action_manager)
                                                   loadTimerCompare (action_manager)
                                                   memcpy (?memcpy)
                                                   mode_0_process (action_manager)
                                                   mode_0_receive_process (action_manager)
                                                   mode_1_process (action_manager)
                                                   pad (?xprintfsmall_nomb)
                                                   printf (?printf)
                                                   putchar (?putchar)
                                                   rand (?rand)
                                                   random_core_init (action_manager)
                                                   readRandom (action_manager)
                                                   recv_sync (action_manager)
                                                   run_tests (action_manager)
                                                   run_unit_fun (action_manager)
                                                   scheulder_next_alarm (action_manager)
                                                   send_sync (action_manager)
                                                   setFreq (action_manager)
                                                   srand (?srand)
                                                   syncronize_timer (action_manager)
                                                   test1 (action_manager)
                                                   test2 (action_manager)
                                                   test3 (action_manager)
                                                   validate_sync (action_manager)

    -------------------------------------------------------------------------
  LIBRARY MODULE, NAME : ?BANKED_LEAVE_XDATA

  SEGMENTS IN THE MODULE
  ======================
RCODE
  Relative segment, address: CODE 00000E2C - 00000E71 (0x46 bytes), align: 0
  Segment part 1.
           ENTRY                   ADDRESS         REF BY
           =====                   =======         ======
           ?BANKED_LEAVE_XDATA     00000E2C        AES_StreamCoder (action_manager)
                                                   AM_Hot_start (action_manager)
                                                   AM_SW_Init (action_manager)
                                                   AT_enable (action_manager)
                                                   AT_set_alarm (action_manager)
                                                   AT_set_time (action_manager)
                                                   AT_time (action_manager)
                                                   AT_wait (action_manager)
                                                   BF_available (action_manager)
                                                   BF_cursor_next (action_manager)
                                                   BF_cursor_rx (action_manager)
                                                   BF_cursor_tx (action_manager)
                                                   BF_push_rx (action_manager)
                                                   BF_push_tx (action_manager)
                                                   BF_remove (action_manager)
                                                   FR_add_header (action_manager)
                                                   FR_del_header (action_manager)
                                                   FR_delete (action_manager)
                                                   Hot_Start (action_manager)
                                                   RI_Receive (action_manager)
                                                   RI_Send (action_manager)
                                                   RecvData (action_manager)
                                                   SL_alloc (action_manager)
                                                   SL_available (action_manager)
                                                   SL_busy (action_manager)
                                                   SL_free (action_manager)
                                                   SW_Init (action_manager)
                                                   Segment part 14 (?xprintfsmall_nomb)
                                                   Segment part 39 (?xprintfsmall_nomb)
                                                   SendData (action_manager)
                                                   TM_IRQ (action_manager)
                                                   UST_interval (action_manager)
                                                   UST_time_over (action_manager)
                                                   _Prout (?xprout)
                                                   __list_add (action_manager)
                                                   __list_del_entry (action_manager)
                                                   _find_next_active (action_manager)
                                                   _free (action_manager)
                                                   _push (action_manager)
                                                   _throw_dice (action_manager)
                                                   accept_sync_data (action_manager)
                                                   array_index (action_manager)
                                                   calcCompareTime (action_manager)
                                                   ch_cmp (action_manager)
                                                   ch_cmp_val (action_manager)
                                                   find_free_node (action_manager)
                                                   is_array_ptr (action_manager)
                                                   list_add (action_manager)
                                                   list_del (action_manager)
                                                   loadTimerCompare (action_manager)
                                                   memcpy (?memcpy)
                                                   mode_0_process (action_manager)
                                                   mode_0_receive_process (action_manager)
                                                   mode_1_process (action_manager)
                                                   printf (?printf)
                                                   putchar (?putchar)
                                                   rand (?rand)
                                                   random_core_init (action_manager)
                                                   readRandom (action_manager)
                                                   recv_sync (action_manager)
                                                   run_tests (action_manager)
                                                   run_unit_fun (action_manager)
                                                   scheulder_next_alarm (action_manager)
                                                   send_sync (action_manager)
                                                   setFreq (action_manager)
                                                   srand (?srand)
                                                   syncronize_timer (action_manager)
                                                   test1 (action_manager)
                                                   test2 (action_manager)
                                                   test3 (action_manager)
                                                   validate_sync (action_manager)

    -------------------------------------------------------------------------
  LIBRARY MODULE, NAME : ?INTERRUPT_ENTER_XSP

  SEGMENTS IN THE MODULE
  ======================
RCODE
  Relative segment, address: CODE 00000E72 - 00000ED0 (0x5f bytes), align: 0
  Segment part 1.
           ENTRY                   ADDRESS         REF BY
           =====                   =======         ======
           ?INTERRUPT_ENTER_XSP    00000E72        TimerCompareInterrupt (action_manager)

    -------------------------------------------------------------------------
  LIBRARY MODULE, NAME : ?INTERRUPT_LEAVE_XSP

  SEGMENTS IN THE MODULE
  ======================
RCODE
  Relative segment, address: CODE 00000ED1 - 00000F28 (0x58 bytes), align: 0
  Segment part 1.
           ENTRY                   ADDRESS         REF BY
           =====                   =======         ======
           ?INTERRUPT_LEAVE_XSP    00000ED1        TimerCompareInterrupt (action_manager)

    -------------------------------------------------------------------------
  LIBRARY MODULE, NAME : ?PUSH_XSTACK_I

  SEGMENTS IN THE MODULE
  ======================
RCODE
  Relative segment, address: CODE 00000F29 - 00000F2C (0x4 bytes), align: 0
  Segment part 0.
           ENTRY                   ADDRESS         REF BY
           =====                   =======         ======
           ?PUSH_XSTACK_I_FOUR     00000F29        RecvData (action_manager)
    -------------------------------------------------------------------------
RCODE
  Relative segment, address: CODE 00000F2D - 00000F30 (0x4 bytes), align: 0
  Segment part 2.
           ENTRY                   ADDRESS         REF BY
           =====                   =======         ======
           ?PUSH_XSTACK_I_TWO      00000F2D        AES_StreamCoder (action_manager)
                                                   AM_Hot_start (action_manager)
                                                   AM_SW_Init (action_manager)
                                                   AT_set_alarm (action_manager)
                                                   AT_set_time (action_manager)
                                                   AT_wait (action_manager)
                                                   BF_available (action_manager)
                                                   Hot_Start (action_manager)
                                                   RI_Receive (action_manager)
                                                   RI_Send (action_manager)
                                                   SL_available (action_manager)
                                                   SL_busy (action_manager)
                                                   _PrintfSmallNoMb (?xprintfsmall_nomb)
                                                   __list_add (action_manager)
                                                   _free (action_manager)
                                                   _push (action_manager)
                                                   pad (?xprintfsmall_nomb)
                                                   printf (?printf)
                                                   putchar (?putchar)
                                                   recv_sync (action_manager)
                                                   run_unit_fun (action_manager)
                                                   send_sync (action_manager)
                                                   setFreq (action_manager)
                                                   test3 (action_manager)
    -------------------------------------------------------------------------
RCODE
  Relative segment, address: CODE 00000F31 - 00000F3D (0xd bytes), align: 0
  Segment part 4.             Intra module refs:   ?PUSH_XSTACK_I_FOUR
                                                   ?PUSH_XSTACK_I_TWO
           ENTRY                   ADDRESS         REF BY
           =====                   =======         ======
           ?PUSH_XSTACK_I          00000F31 

    -------------------------------------------------------------------------
  LIBRARY MODULE, NAME : ?PUSH_XSTACK8_X

  SEGMENTS IN THE MODULE
  ======================
RCODE
  Relative segment, address: CODE 00000F3E - 00000F41 (0x4 bytes), align: 0
  Segment part 1.
           ENTRY                   ADDRESS         REF BY
           =====                   =======         ======
           ?PUSH_XSTACK8_X_FOUR    00000F3E        RI_Receive (action_manager)
                                                   RI_Send (action_manager)
    -------------------------------------------------------------------------
RCODE
  Relative segment, address: CODE 00000F42 - 00000F45 (0x4 bytes), align: 0
  Segment part 3.
           ENTRY                   ADDRESS         REF BY
           =====                   =======         ======
           ?PUSH_XSTACK8_X_TWO     00000F42        _PrintfSmallNoMb (?xprintfsmall_nomb)
                                                   __write (?__write)
                                                   list_add (action_manager)
                                                   show_statistic (action_manager)
    -------------------------------------------------------------------------
RCODE
  Relative segment, address: CODE 00000F46 - 00000F6E (0x29 bytes), align: 0
  Segment part 5.             Intra module refs:   ?PUSH_XSTACK8_X_FOUR
                                                   ?PUSH_XSTACK8_X_TWO
           ENTRY                   ADDRESS         REF BY
           =====                   =======         ======
           ?PUSH_XSTACK8_X         00000F46 

    -------------------------------------------------------------------------
  LIBRARY MODULE, NAME : ?US_SWITCH_DENSE

  SEGMENTS IN THE MODULE
  ======================
RCODE
  Relative segment, address: CODE 00000F6F - 00000F75 (0x7 bytes), align: 0
  Segment part 0.
           ENTRY                   ADDRESS         REF BY
           =====                   =======         ======
           ?US_SWITCH_DENSE        00000F6F        RecvData (action_manager)
                                                   SendData (action_manager)
                                                   recv_sync (action_manager)
                                                   test1 (action_manager)
                                                   test2 (action_manager)
           ?US_SD_CFI_INV_BEGINS   00000F6F 
    -------------------------------------------------------------------------
RCODE
  Relative segment, address: CODE 00000F76 - 00000FB3 (0x3e bytes), align: 0
  Segment part 2.             Intra module refs:   Segment part 0
    -------------------------------------------------------------------------
RCODE
  Relative segment, address: CODE 00000FB4 - 00000FB4 (0x1 bytes), align: 0
  Segment part 4.             Intra module refs:   Segment part 0
           ENTRY                   ADDRESS         REF BY
           =====                   =======         ======
           ?US_SD_CFI_INV_ENDS     00000FB5 

    -------------------------------------------------------------------------
  LIBRARY MODULE, NAME : ?memchr

  SEGMENTS IN THE MODULE
  ======================
<BANKED_CODE> 1 (was BANKED_CODE)
  Relative segment, address: CODE 00005208 - 0000523F (0x38 bytes), align: 0
  Segment part 8.             Intra module refs:   __iar_Memchr::?relay
           ENTRY                   ADDRESS         REF BY
           =====                   =======         ======
           __iar_Memchr            00005208 
               is indirectly called
               XSTACK = 00000002 ( 00000000 )
               ISTACK = 00000000 ( 00000002 )
    -------------------------------------------------------------------------
BANK_RELAYS
  Relative segment, address: CODE 00000612 - 00000617 (0x6 bytes), align: 0
  Segment part 9.
           ENTRY                   ADDRESS         REF BY
           =====                   =======         ======
           __iar_Memchr::?relay    00000612        _PrintfSmallNoMb (?xprintfsmall_nomb)

    -------------------------------------------------------------------------
  LIBRARY MODULE, NAME : ?memcpy

  SEGMENTS IN THE MODULE
  ======================
<BANKED_CODE> 1 (was BANKED_CODE)
  Relative segment, address: CODE 000051CB - 00005207 (0x3d bytes), align: 0
  Segment part 6.             Intra module refs:   memcpy::?relay
           ENTRY                   ADDRESS         REF BY
           =====                   =======         ======
           memcpy                  000051CB 
               is indirectly called
               XSTACK = 00000002 ( 00000009 )
               ISTACK = 00000000 ( 00000001 )
    -------------------------------------------------------------------------
BANK_RELAYS
  Relative segment, address: CODE 00000618 - 0000061D (0x6 bytes), align: 0
  Segment part 7.
           ENTRY                   ADDRESS         REF BY
           =====                   =======         ======
           memcpy::?relay          00000618        AES_StreamCoder (action_manager)

    -------------------------------------------------------------------------
  LIBRARY MODULE, NAME : ?memset

  SEGMENTS IN THE MODULE
  ======================
<BANKED_CODE> 1 (was BANKED_CODE)
  Relative segment, address: CODE 00005240 - 0000526B (0x2c bytes), align: 0
  Segment part 6.             Intra module refs:   memset::?relay
           ENTRY                   ADDRESS         REF BY
           =====                   =======         ======
           memset                  00005240 
               is indirectly called
               XSTACK = 00000002 ( 00000000 )
               ISTACK = 00000000 ( 00000002 )
    -------------------------------------------------------------------------
BANK_RELAYS
  Relative segment, address: CODE 0000061E - 00000623 (0x6 bytes), align: 0
  Segment part 7.
           ENTRY                   ADDRESS         REF BY
           =====                   =======         ======
           memset::?relay          0000061E        AES_StreamCoder (action_manager)

    -------------------------------------------------------------------------
  LIBRARY MODULE, NAME : ?printf

  SEGMENTS IN THE MODULE
  ======================
<BANKED_CODE> 1 (was BANKED_CODE)
  Relative segment, address: CODE 00005139 - 00005182 (0x4a bytes), align: 0
  Segment part 6.             Intra module refs:   printf::?relay
           ENTRY                   ADDRESS         REF BY
           =====                   =======         ======
           printf                  00005139 
               calls direct
               XSTACK = 00000000 ( 00000010 )
    -------------------------------------------------------------------------
BANK_RELAYS
  Relative segment, address: CODE 00000624 - 00000629 (0x6 bytes), align: 0
  Segment part 7.
           ENTRY                   ADDRESS         REF BY
           =====                   =======         ======
           printf::?relay          00000624        AM_Hot_start (action_manager)
                                                   AM_SW_Init (action_manager)
                                                   AT_set_alarm (action_manager)
                                                   AT_set_time (action_manager)
                                                   AT_wait (action_manager)
                                                   BF_available (action_manager)
                                                   Hot_Start (action_manager)
                                                   RI_Receive (action_manager)
                                                   RI_Send (action_manager)
                                                   SL_available (action_manager)
                                                   SL_busy (action_manager)
                                                   _push (action_manager)
                                                   recv_sync (action_manager)
                                                   run_unit_fun (action_manager)
                                                   send_sync (action_manager)
                                                   setFreq (action_manager)
                                                   show_grating (action_manager)
                                                   show_statistic (action_manager)

    -------------------------------------------------------------------------
  LIBRARY MODULE, NAME : ?putchar

  SEGMENTS IN THE MODULE
  ======================
<BANKED_CODE> 1 (was BANKED_CODE)
  Relative segment, address: CODE 0000508F - 000050E7 (0x59 bytes), align: 0
  Segment part 6.             Intra module refs:   putchar::?relay
           ENTRY                   ADDRESS         REF BY
           =====                   =======         ======
           putchar                 0000508F 
               calls direct
               XSTACK = 00000000 ( 0000000D )
               ISTACK = 00000000 ( 00000001 )
    -------------------------------------------------------------------------
BANK_RELAYS
  Relative segment, address: CODE 0000062A - 0000062F (0x6 bytes), align: 0
  Segment part 7.
           ENTRY                   ADDRESS         REF BY
           =====                   =======         ======
           putchar::?relay         0000062A        _Prout (?xprout)

    -------------------------------------------------------------------------
  LIBRARY MODULE, NAME : ?rand

  SEGMENTS IN THE MODULE
  ======================
XDATA_Z
  Relative segment, address: XDATA 000015EF - 000015EF (0x1 bytes), align: 0
  Segment part 6.             Intra module refs:   rand
           ENTRY                   ADDRESS         REF BY
           =====                   =======         ======
           _Randinit               000015EF        srand (?srand)
    -------------------------------------------------------------------------
XDATA_Z
  Relative segment, address: XDATA 000015F0 - 000015F1 (0x2 bytes), align: 0
  Segment part 7.             Intra module refs:   rand
           ENTRY                   ADDRESS         REF BY
           =====                   =======         ======
           __iar_Tls_setup__Randinit
                                   000015F0        srand (?srand)
    -------------------------------------------------------------------------
XDATA_I
  Relative segment, address: XDATA 000018A0 - 000018A3 (0x4 bytes), align: 0
  Segment part 8.             Intra module refs:   rand
           ENTRY                   ADDRESS         REF BY
           =====                   =======         ======
           _Randseed               000018A0        srand (?srand)
    -------------------------------------------------------------------------
XDATA_I
  Relative segment, address: XDATA 000018A4 - 000018A7 (0x4 bytes), align: 0
  Segment part 15.            Intra module refs:   rand
           ENTRY                   ADDRESS         REF BY
           =====                   =======         ======
           __Constant_19660d       000018A4 
    -------------------------------------------------------------------------
XDATA_I
  Relative segment, address: XDATA 000018A8 - 000018AB (0x4 bytes), align: 0
  Segment part 17.            Intra module refs:   rand
           ENTRY                   ADDRESS         REF BY
           =====                   =======         ======
           __Constant_3c6ef35f     000018A8 
    -------------------------------------------------------------------------
XDATA_Z
  Relative segment, address: XDATA 000015F2 - 000015F3 (0x2 bytes), align: 0
  Segment part 10.            Intra module refs:   rand
           ENTRY                   ADDRESS         REF BY
           =====                   =======         ======
           __iar_Tls_setup__Randseed
                                   000015F2        srand (?srand)
    -------------------------------------------------------------------------
XDATA_Z
  Relative segment, address: XDATA 000015F4 - 000015F7 (0x4 bytes), align: 0
  Segment part 11.            Intra module refs:   rand
    -------------------------------------------------------------------------
XDATA_Z
  Relative segment, address: XDATA 000015F8 - 000015F9 (0x2 bytes), align: 0
  Segment part 12.            Intra module refs:   rand
    -------------------------------------------------------------------------
XDATA_Z
  Relative segment, address: XDATA 000015FA - 00001679 (0x80 bytes), align: 0
  Segment part 13.            Intra module refs:   rand
    -------------------------------------------------------------------------
XDATA_Z
  Relative segment, address: XDATA 0000167A - 0000167B (0x2 bytes), align: 0
  Segment part 14.            Intra module refs:   rand
    -------------------------------------------------------------------------
<BANKED_CODE> 1 (was BANKED_CODE)
  Relative segment, address: CODE 00004F1F - 00005080 (0x162 bytes), align: 0
  Segment part 19.            Intra module refs:   rand::?relay
           ENTRY                   ADDRESS         REF BY
           =====                   =======         ======
           rand                    00004F1F 
               XSTACK = 00000000 ( 00000010 )
    -------------------------------------------------------------------------
<BANKED_CODE> 1 (was BANKED_CODE)
  Relative segment, address: CODE 00005081 - 00005086 (0x6 bytes), align: 0
  Segment part 21.            Intra module refs:   rand
    -------------------------------------------------------------------------
<BANKED_CODE> 1 (was BANKED_CODE)
  Relative segment, address: CODE 00005087 - 0000508E (0x8 bytes), align: 0
  Segment part 22.            Intra module refs:   rand
    -------------------------------------------------------------------------
XDATA_ID
  Relative segment, address: CODE 000002DF - 000002E2 (0x4 bytes), align: 0
  Segment part 9.             Intra module refs:   _Randseed
    -------------------------------------------------------------------------
XDATA_ID
  Relative segment, address: CODE 000002E3 - 000002E6 (0x4 bytes), align: 0
  Segment part 16.            Intra module refs:   __Constant_19660d
    -------------------------------------------------------------------------
XDATA_ID
  Relative segment, address: CODE 000002E7 - 000002EA (0x4 bytes), align: 0
  Segment part 18.            Intra module refs:   __Constant_3c6ef35f
    -------------------------------------------------------------------------
BANK_RELAYS
  Relative segment, address: CODE 00000630 - 00000635 (0x6 bytes), align: 0
  Segment part 20.
           ENTRY                   ADDRESS         REF BY
           =====                   =======         ======
           rand::?relay            00000630        _throw_dice (action_manager)
                                                   random_core_init (action_manager)

    -------------------------------------------------------------------------
  LIBRARY MODULE, NAME : ?srand

  SEGMENTS IN THE MODULE
  ======================
<BANKED_CODE> 1 (was BANKED_CODE)
  Relative segment, address: CODE 00005183 - 000051CA (0x48 bytes), align: 0
  Segment part 6.             Intra module refs:   srand::?relay
           ENTRY                   ADDRESS         REF BY
           =====                   =======         ======
           srand                   00005183 
               XSTACK = 00000000 ( 0000000C )
    -------------------------------------------------------------------------
BANK_RELAYS
  Relative segment, address: CODE 00000636 - 0000063B (0x6 bytes), align: 0
  Segment part 7.
           ENTRY                   ADDRESS         REF BY
           =====                   =======         ======
           srand::?relay           00000636        random_core_init (action_manager)

    -------------------------------------------------------------------------
  LIBRARY MODULE, NAME : ?strchr

  SEGMENTS IN THE MODULE
  ======================
<BANKED_CODE> 1 (was BANKED_CODE)
  Relative segment, address: CODE 000052BD - 000052E1 (0x25 bytes), align: 0
  Segment part 8.             Intra module refs:   __iar_Strchr::?relay
           ENTRY                   ADDRESS         REF BY
           =====                   =======         ======
           __iar_Strchr            000052BD 
               is indirectly called
               ISTACK = 00000000 ( 00000002 )
    -------------------------------------------------------------------------
BANK_RELAYS
  Relative segment, address: CODE 0000063C - 00000641 (0x6 bytes), align: 0
  Segment part 9.
           ENTRY                   ADDRESS         REF BY
           =====                   =======         ======
           __iar_Strchr::?relay    0000063C        _PrintfSmallNoMb (?xprintfsmall_nomb)

    -------------------------------------------------------------------------
  LIBRARY MODULE, NAME : ?strlen

  SEGMENTS IN THE MODULE
  ======================
<BANKED_CODE> 1 (was BANKED_CODE)
  Relative segment, address: CODE 00005306 - 00005323 (0x1e bytes), align: 0
  Segment part 6.             Intra module refs:   strlen::?relay
           ENTRY                   ADDRESS         REF BY
           =====                   =======         ======
           strlen                  00005306 
               is indirectly called
               ISTACK = 00000000 ( 00000002 )
    -------------------------------------------------------------------------
BANK_RELAYS
  Relative segment, address: CODE 00000642 - 00000647 (0x6 bytes), align: 0
  Segment part 7.
           ENTRY                   ADDRESS         REF BY
           =====                   =======         ======
           strlen::?relay          00000642        _PrintfSmallNoMb (?xprintfsmall_nomb)

    -------------------------------------------------------------------------
  LIBRARY MODULE, NAME : ?xprintfsmall_nomb

  SEGMENTS IN THE MODULE
  ======================
<BANKED_CODE> 1 (was BANKED_CODE)
  Relative segment, address: CODE 0000424B - 00004933 (0x6e9 bytes), align: 0
  Segment part 12.            Intra module refs:   _PrintfSmallNoMb::?relay
           ENTRY                   ADDRESS         REF BY
           =====                   =======         ======
           _PrintfSmallNoMb        0000424B 
               calls direct
               XSTACK = 00000004 ( 00000046 )
               ISTACK = 00000000 ( 00000002 )
    -------------------------------------------------------------------------
<BANKED_CODE> 1 (was BANKED_CODE)
  Relative segment, address: CODE 00004934 - 00004938 (0x5 bytes), align: 0
  Segment part 14.            Intra module refs:   _PrintfSmallNoMb
                                                   _PutcharSmallNoMb
    -------------------------------------------------------------------------
<BANKED_CODE> 1 (was BANKED_CODE)
  Relative segment, address: CODE 00004939 - 00004943 (0xb bytes), align: 0
  Segment part 15.            Intra module refs:   _PrintfSmallNoMb
    -------------------------------------------------------------------------
<BANKED_CODE> 1 (was BANKED_CODE)
  Relative segment, address: CODE 00004944 - 00004961 (0x1e bytes), align: 0
  Segment part 16.            Intra module refs:   _PrintfSmallNoMb
    -------------------------------------------------------------------------
<BANKED_CODE> 1 (was BANKED_CODE)
  Relative segment, address: CODE 00004962 - 0000496A (0x9 bytes), align: 0
  Segment part 17.            Intra module refs:   _PrintfSmallNoMb
    -------------------------------------------------------------------------
<BANKED_CODE> 1 (was BANKED_CODE)
  Relative segment, address: CODE 0000496B - 00004977 (0xd bytes), align: 0
  Segment part 18.            Intra module refs:   _PrintfSmallNoMb
    -------------------------------------------------------------------------
<BANKED_CODE> 1 (was BANKED_CODE)
  Relative segment, address: CODE 00004978 - 00004980 (0x9 bytes), align: 0
  Segment part 19.            Intra module refs:   _PrintfSmallNoMb
    -------------------------------------------------------------------------
<BANKED_CODE> 1 (was BANKED_CODE)
  Relative segment, address: CODE 00004981 - 0000498C (0xc bytes), align: 0
  Segment part 20.            Intra module refs:   _PrintfSmallNoMb
    -------------------------------------------------------------------------
<BANKED_CODE> 1 (was BANKED_CODE)
  Relative segment, address: CODE 0000498D - 0000499A (0xe bytes), align: 0
  Segment part 21.            Intra module refs:   _PrintfSmallNoMb
    -------------------------------------------------------------------------
<BANKED_CODE> 1 (was BANKED_CODE)
  Relative segment, address: CODE 0000499B - 0000499F (0x5 bytes), align: 0
  Segment part 22.            Intra module refs:   Segment part 20
                                                   Segment part 21
    -------------------------------------------------------------------------
<BANKED_CODE> 1 (was BANKED_CODE)
  Relative segment, address: CODE 000049A0 - 000049A7 (0x8 bytes), align: 0
  Segment part 23.            Intra module refs:   _PrintfSmallNoMb
    -------------------------------------------------------------------------
<BANKED_CODE> 1 (was BANKED_CODE)
  Relative segment, address: CODE 000049A8 - 000049B2 (0xb bytes), align: 0
  Segment part 24.            Intra module refs:   Segment part 23
                                                   _PrintfSmallNoMb
    -------------------------------------------------------------------------
<BANKED_CODE> 1 (was BANKED_CODE)
  Relative segment, address: CODE 000049B3 - 000049BE (0xc bytes), align: 0
  Segment part 25.            Intra module refs:   _PrintfSmallNoMb
    -------------------------------------------------------------------------
<BANKED_CODE> 1 (was BANKED_CODE)
  Relative segment, address: CODE 000049BF - 000049CA (0xc bytes), align: 0
  Segment part 26.            Intra module refs:   _PrintfSmallNoMb
    -------------------------------------------------------------------------
<BANKED_CODE> 1 (was BANKED_CODE)
  Relative segment, address: CODE 000049CB - 000049D8 (0xe bytes), align: 0
  Segment part 27.            Intra module refs:   _PrintfSmallNoMb
    -------------------------------------------------------------------------
<BANKED_CODE> 1 (was BANKED_CODE)
  Relative segment, address: CODE 000049D9 - 000049E4 (0xc bytes), align: 0
  Segment part 28.            Intra module refs:   _PrintfSmallNoMb
    -------------------------------------------------------------------------
<BANKED_CODE> 1 (was BANKED_CODE)
  Relative segment, address: CODE 000049E5 - 000049ED (0x9 bytes), align: 0
  Segment part 29.            Intra module refs:   Segment part 25
                                                   Segment part 28
    -------------------------------------------------------------------------
<BANKED_CODE> 1 (was BANKED_CODE)
  Relative segment, address: CODE 000049EE - 000049F8 (0xb bytes), align: 0
  Segment part 30.            Intra module refs:   _PrintfSmallNoMb
    -------------------------------------------------------------------------
<BANKED_CODE> 1 (was BANKED_CODE)
  Relative segment, address: CODE 000049F9 - 00004A01 (0x9 bytes), align: 0
  Segment part 31.            Intra module refs:   _PrintfSmallNoMb
    -------------------------------------------------------------------------
<BANKED_CODE> 1 (was BANKED_CODE)
  Relative segment, address: CODE 00004A02 - 00004A05 (0x4 bytes), align: 0
  Segment part 32.            Intra module refs:   _PrintfSmallNoMb
    -------------------------------------------------------------------------
<BANKED_CODE> 1 (was BANKED_CODE)
  Relative segment, address: CODE 00004A06 - 00004A0F (0xa bytes), align: 0
  Segment part 33.            Intra module refs:   Segment part 32
                                                   Segment part 35
    -------------------------------------------------------------------------
<BANKED_CODE> 1 (was BANKED_CODE)
  Relative segment, address: CODE 00004A10 - 00004A19 (0xa bytes), align: 0
  Segment part 34.            Intra module refs:   Segment part 31
                                                   Segment part 33
    -------------------------------------------------------------------------
<BANKED_CODE> 1 (was BANKED_CODE)
  Relative segment, address: CODE 00004A1A - 00004A22 (0x9 bytes), align: 0
  Segment part 35.            Intra module refs:   _PrintfSmallNoMb
    -------------------------------------------------------------------------
<BANKED_CODE> 1 (was BANKED_CODE)
  Relative segment, address: CODE 00004A23 - 00004A9B (0x79 bytes), align: 0
  Segment part 36.            Intra module refs:   pad::?relay
           LOCAL                   ADDRESS         
           =====                   =======         
           pad                     00004A23 
               calls direct
               XSTACK = 00000044 ( 00000015 )
               ISTACK = 00000000 ( 00000001 )
    -------------------------------------------------------------------------
<BANKED_CODE> 1 (was BANKED_CODE)
  Relative segment, address: CODE 00004A9C - 00004A9E (0x3 bytes), align: 0
  Segment part 38.            Intra module refs:   _LitobSmallNoMb
                                                   pad
    -------------------------------------------------------------------------
<BANKED_CODE> 1 (was BANKED_CODE)
  Relative segment, address: CODE 00004A9F - 00004AA3 (0x5 bytes), align: 0
  Segment part 39.            Intra module refs:   Segment part 38
                                                   _PutcharsSmallNoMb
    -------------------------------------------------------------------------
<BANKED_CODE> 1 (was BANKED_CODE)
  Relative segment, address: CODE 00004AA4 - 00004DE3 (0x340 bytes), align: 0
  Segment part 40.            Intra module refs:   _LitobSmallNoMb::?relay
           LOCAL                   ADDRESS         
           =====                   =======         
           _LitobSmallNoMb         00004AA4 
               XSTACK = 00000042 ( 00000023 )
               ISTACK = 00000000 ( 00000002 )
    -------------------------------------------------------------------------
<BANKED_CODE> 1 (was BANKED_CODE)
  Relative segment, address: CODE 00004DE4 - 00004DE5 (0x2 bytes), align: 0
  Segment part 42.            Intra module refs:   _PrintfSmallNoMb
                                                   _PutcharsSmallNoMb
    -------------------------------------------------------------------------
<BANKED_CODE> 1 (was BANKED_CODE)
  Relative segment, address: CODE 00004DE6 - 00004DED (0x8 bytes), align: 0
  Segment part 43.            Intra module refs:   Segment part 42
                                                   _LitobSmallNoMb
                                                   _PrintfSmallNoMb
    -------------------------------------------------------------------------
<BANKED_CODE> 1 (was BANKED_CODE)
  Relative segment, address: CODE 00004DEE - 00004DF2 (0x5 bytes), align: 0
  Segment part 44.            Intra module refs:   _LitobSmallNoMb
    -------------------------------------------------------------------------
<BANKED_CODE> 1 (was BANKED_CODE)
  Relative segment, address: CODE 00004DF3 - 00004DF6 (0x4 bytes), align: 0
  Segment part 45.            Intra module refs:   _LitobSmallNoMb
    -------------------------------------------------------------------------
<BANKED_CODE> 1 (was BANKED_CODE)
  Relative segment, address: CODE 00004DF7 - 00004DFF (0x9 bytes), align: 0
  Segment part 46.            Intra module refs:   Segment part 45
                                                   Segment part 54
    -------------------------------------------------------------------------
<BANKED_CODE> 1 (was BANKED_CODE)
  Relative segment, address: CODE 00004E00 - 00004E05 (0x6 bytes), align: 0
  Segment part 47.            Intra module refs:   _LitobSmallNoMb
                                                   _PrintfSmallNoMb
    -------------------------------------------------------------------------
<BANKED_CODE> 1 (was BANKED_CODE)
  Relative segment, address: CODE 00004E06 - 00004E09 (0x4 bytes), align: 0
  Segment part 48.            Intra module refs:   _LitobSmallNoMb
                                                   _PrintfSmallNoMb
    -------------------------------------------------------------------------
<BANKED_CODE> 1 (was BANKED_CODE)
  Relative segment, address: CODE 00004E0A - 00004E0D (0x4 bytes), align: 0
  Segment part 49.            Intra module refs:   Segment part 48
                                                   Segment part 62
    -------------------------------------------------------------------------
<BANKED_CODE> 1 (was BANKED_CODE)
  Relative segment, address: CODE 00004E0E - 00004E16 (0x9 bytes), align: 0
  Segment part 50.            Intra module refs:   Segment part 22
                                                   Segment part 49
    -------------------------------------------------------------------------
<BANKED_CODE> 1 (was BANKED_CODE)
  Relative segment, address: CODE 00004E17 - 00004E1C (0x6 bytes), align: 0
  Segment part 51.            Intra module refs:   _LitobSmallNoMb
                                                   _PrintfSmallNoMb
                                                   _PutcharSmallNoMb
    -------------------------------------------------------------------------
<BANKED_CODE> 1 (was BANKED_CODE)
  Relative segment, address: CODE 00004E1D - 00004E20 (0x4 bytes), align: 0
  Segment part 52.            Intra module refs:   _LitobSmallNoMb
    -------------------------------------------------------------------------
<BANKED_CODE> 1 (was BANKED_CODE)
  Relative segment, address: CODE 00004E21 - 00004E24 (0x4 bytes), align: 0
  Segment part 53.            Intra module refs:   Segment part 26
                                                   Segment part 27
                                                   Segment part 52
                                                   Segment part 55
    -------------------------------------------------------------------------
<BANKED_CODE> 1 (was BANKED_CODE)
  Relative segment, address: CODE 00004E25 - 00004E29 (0x5 bytes), align: 0
  Segment part 54.            Intra module refs:   Segment part 29
                                                   Segment part 53
    -------------------------------------------------------------------------
<BANKED_CODE> 1 (was BANKED_CODE)
  Relative segment, address: CODE 00004E2A - 00004E2F (0x6 bytes), align: 0
  Segment part 55.            Intra module refs:   _LitobSmallNoMb
    -------------------------------------------------------------------------
<BANKED_CODE> 1 (was BANKED_CODE)
  Relative segment, address: CODE 00004E30 - 00004E42 (0x13 bytes), align: 0
  Segment part 56.            Intra module refs:   _LitobSmallNoMb
    -------------------------------------------------------------------------
<BANKED_CODE> 1 (was BANKED_CODE)
  Relative segment, address: CODE 00004E43 - 00004E47 (0x5 bytes), align: 0
  Segment part 57.            Intra module refs:   _LitobSmallNoMb
                                                   _PrintfSmallNoMb
    -------------------------------------------------------------------------
<BANKED_CODE> 1 (was BANKED_CODE)
  Relative segment, address: CODE 00004E48 - 00004E4A (0x3 bytes), align: 0
  Segment part 58.            Intra module refs:   _LitobSmallNoMb
                                                   _PrintfSmallNoMb
    -------------------------------------------------------------------------
<BANKED_CODE> 1 (was BANKED_CODE)
  Relative segment, address: CODE 00004E4B - 00004E50 (0x6 bytes), align: 0
  Segment part 59.            Intra module refs:   Segment part 58
                                                   _LitobSmallNoMb
                                                   _PrintfSmallNoMb
    -------------------------------------------------------------------------
<BANKED_CODE> 1 (was BANKED_CODE)
  Relative segment, address: CODE 00004E51 - 00004E54 (0x4 bytes), align: 0
  Segment part 60.            Intra module refs:   Segment part 31
                                                   Segment part 58
    -------------------------------------------------------------------------
<BANKED_CODE> 1 (was BANKED_CODE)
  Relative segment, address: CODE 00004E55 - 00004E5D (0x9 bytes), align: 0
  Segment part 61.            Intra module refs:   Segment part 33
                                                   Segment part 60
    -------------------------------------------------------------------------
<BANKED_CODE> 1 (was BANKED_CODE)
  Relative segment, address: CODE 00004E5E - 00004E60 (0x3 bytes), align: 0
  Segment part 62.            Intra module refs:   _PrintfSmallNoMb
    -------------------------------------------------------------------------
<BANKED_CODE> 1 (was BANKED_CODE)
  Relative segment, address: CODE 00004E61 - 00004E66 (0x6 bytes), align: 0
  Segment part 63.            Intra module refs:   Segment part 62
                                                   _LitobSmallNoMb
                                                   _PrintfSmallNoMb
                                                   _PutcharSmallNoMb
    -------------------------------------------------------------------------
<BANKED_CODE> 1 (was BANKED_CODE)
  Relative segment, address: CODE 00004E67 - 00004EBA (0x54 bytes), align: 0
  Segment part 64.            Intra module refs:   _PutcharSmallNoMb::?relay
           LOCAL                   ADDRESS         
           =====                   =======         
           _PutcharSmallNoMb       00004E67 
               XSTACK = 00000042 ( 0000000E )
    -------------------------------------------------------------------------
<BANKED_CODE> 1 (was BANKED_CODE)
  Relative segment, address: CODE 00004EBB - 00004EC3 (0x9 bytes), align: 0
  Segment part 66.            Intra module refs:   _PrintfSmallNoMb
                                                   _PutcharSmallNoMb
    -------------------------------------------------------------------------
<BANKED_CODE> 1 (was BANKED_CODE)
  Relative segment, address: CODE 00004EC4 - 00004F1E (0x5b bytes), align: 0
  Segment part 67.            Intra module refs:   _PutcharsSmallNoMb::?relay
           LOCAL                   ADDRESS         
           =====                   =======         
           _PutcharsSmallNoMb      00004EC4 
               calls direct
               XSTACK = 00000046 ( 00000010 )
    -------------------------------------------------------------------------
XDATA_ID
  Relative segment, address: CODE 000002EB - 000002F1 (0x7 bytes), align: 0
  Segment part 7.             Intra module refs:   Segment part 6
    -------------------------------------------------------------------------
XDATA_ID
  Relative segment, address: CODE 000002F2 - 000002F5 (0x4 bytes), align: 0
  Segment part 9.             Intra module refs:   __Constant_ffff
    -------------------------------------------------------------------------
XDATA_ID
  Relative segment, address: CODE 000002F6 - 000002F9 (0x4 bytes), align: 0
  Segment part 11.            Intra module refs:   __Constant_0
    -------------------------------------------------------------------------
BANK_RELAYS
  Relative segment, address: CODE 00000648 - 0000064D (0x6 bytes), align: 0
  Segment part 13.
           ENTRY                   ADDRESS         REF BY
           =====                   =======         ======
           _PrintfSmallNoMb::?relay
                                   00000648        printf (?printf)
    -------------------------------------------------------------------------
BANK_RELAYS
  Relative segment, address: CODE 0000064E - 00000653 (0x6 bytes), align: 0
  Segment part 37.            Intra module refs:   _PrintfSmallNoMb
           LOCAL                   ADDRESS         
           =====                   =======         
           pad::?relay             0000064E 
    -------------------------------------------------------------------------
BANK_RELAYS
  Relative segment, address: CODE 00000654 - 00000659 (0x6 bytes), align: 0
  Segment part 41.            Intra module refs:   _PrintfSmallNoMb
           LOCAL                   ADDRESS         
           =====                   =======         
           _LitobSmallNoMb::?relay
                                   00000654 
    -------------------------------------------------------------------------
BANK_RELAYS
  Relative segment, address: CODE 0000065A - 0000065F (0x6 bytes), align: 0
  Segment part 65.            Intra module refs:   _PrintfSmallNoMb
                                                   _PutcharsSmallNoMb
           LOCAL                   ADDRESS         
           =====                   =======         
           _PutcharSmallNoMb::?relay
                                   0000065A 
    -------------------------------------------------------------------------
BANK_RELAYS
  Relative segment, address: CODE 00000660 - 00000665 (0x6 bytes), align: 0
  Segment part 68.            Intra module refs:   _PrintfSmallNoMb
                                                   pad
           LOCAL                   ADDRESS         
           =====                   =======         
           _PutcharsSmallNoMb::?relay
                                   00000660 
    -------------------------------------------------------------------------
XDATA_I
  Relative segment, address: XDATA 000018AC - 000018B2 (0x7 bytes), align: 0
  Segment part 6.             Intra module refs:   _PrintfSmallNoMb
    -------------------------------------------------------------------------
XDATA_I
  Relative segment, address: XDATA 000018B3 - 000018B6 (0x4 bytes), align: 0
  Segment part 8.             Intra module refs:   _PrintfSmallNoMb
           ENTRY                   ADDRESS         REF BY
           =====                   =======         ======
           __Constant_ffff         000018B3 
    -------------------------------------------------------------------------
XDATA_I
  Relative segment, address: XDATA 000018B7 - 000018BA (0x4 bytes), align: 0
  Segment part 10.            Intra module refs:   _LitobSmallNoMb
                                                   _PrintfSmallNoMb
           ENTRY                   ADDRESS         REF BY
           =====                   =======         ======
           __Constant_0            000018B7 

    -------------------------------------------------------------------------
  LIBRARY MODULE, NAME : ?xprout

  SEGMENTS IN THE MODULE
  ======================
<BANKED_CODE> 1 (was BANKED_CODE)
  Relative segment, address: CODE 0000526C - 00005296 (0x2b bytes), align: 0
  Segment part 6.             Intra module refs:   _Prout::?relay
           ENTRY                   ADDRESS         REF BY
           =====                   =======         ======
           _Prout                  0000526C 
               calls direct
               XSTACK = 00000000 ( 0000000E )
    -------------------------------------------------------------------------
BANK_RELAYS
  Relative segment, address: CODE 00000666 - 0000066B (0x6 bytes), align: 0
  Segment part 7.
           ENTRY                   ADDRESS         REF BY
           =====                   =======         ======
           _Prout::?relay          00000666        printf (?printf)




                ****************************************
                *                                      *
                *      SEGMENTS IN ADDRESS ORDER       *
                *                                      *
                ****************************************


SEGMENT              SPACE    START ADDRESS   END ADDRESS     SIZE  TYPE  ALIGN
=======              =====    =============   ===========     ====  ====  =====
INTVEC               CODE          00000000 - 0000002D          2E   com    0
CSTART               CODE          0000002E - 000000BA          8D   rel    0
BDATA_ID             CODE               000000BB                     dse    0
BIT_ID               CODE               000000BB                     dse    0
DATA_ID              CODE               000000BB                     dse    0
IDATA_ID             CODE               000000BB                     dse    0
IXDATA_ID            CODE               000000BB                     dse    0
PDATA_ID             CODE               000000BB                     dse    0
XDATA_ID             CODE          000000BB - 000002F9         23F   rel    0
BANK_RELAYS          CODE          000002FA - 0000066B         372   rel    0
RCODE                CODE          0000066C - 00000FB4         949   rel    0
CODE_C               CODE               00000FB5                     dse    0
DIFUNCT              CODE               00000FB5                     rel    0
CODE_N               CODE               00000FB5                     dse    0
NEAR_CODE            CODE          00000FB5 - 00000FD9          25   rel    0
<BANKED_CODE> 1      CODE          00000FDA - 00005334        435B   rel    0
REGISTERS            DATA          00000000 - 00000007           8   rel    0
VREG                 DATA          00000008 - 0000000F           8   rel    0
PSP                  DATA          00000010 - 00000010           1   rel    0
XSP                  DATA          00000011 - 00000012           2   rel    0
BREG                 BIT        00000020.0  -  00000020.7        8   rel    0
SFR_AN               DATA          00000091 - 00000091           1   rel    0
                     DATA          00000094 - 00000097           4 
                     DATA          0000009D - 0000009E           2 
                     DATA          000000A2 - 000000A5           4 
                     DATA          000000A8 - 000000A8           1 
                     DATA          000000AD - 000000AD           1 
                     DATA          000000B3 - 000000B3           1 
                     DATA          000000C0 - 000000C0           1 
                     DATA          000000C6 - 000000C6           1 
                     DATA          000000D2 - 000000D7           6 
                     DATA          000000D9 - 000000D9           1 
                     DATA          000000E1 - 000000E1           1 
                     DATA          000000E9 - 000000E9           1 
XSTACK               XDATA         00000001 - 00000800         800   rel    0
XDATA_Z              XDATA         00000801 - 0000167B         E7B   rel    0
XDATA_I              XDATA         0000167C - 000018BA         23F   rel    0
XDATA_ROM_C          XDATA         000018BB - 00001C81         3C7   rel    0
PDATA_Z              XDATA              00001E00                     dse    0
PSTACK               XDATA         00001E00 - 00001E7F          80   rel    0
ISTACK               IDATA         000000C0 - 000000FF          40   rel    0

                ****************************************
                *                                      *
                *        END OF CROSS REFERENCE        *
                *                                      *
                ****************************************

 21 301 bytes of CODE  memory
     19 bytes of DATA  memory (+ 25 absolute )
  6 458 bytes of XDATA memory
     64 bytes of IDATA memory
      8 bits  of BIT   memory
    967 bytes of CONST memory

Errors: none
Warnings: none

